

Microchip MPLAB XC8 Assembler V2.10 build 88905656 
                                                                                               Mon Jan 06 19:19:08 2020

Microchip MPLAB XC8 C Compiler v2.10 (Free license) build 20190730164152 Og1 
     1                           	processor	18F4520
     2                           	fnconf	rparam,??,?,0
     3                           	opt	pw 120
     4                           	opt	flic
     5                           	psect	idataBANK1,global,class=CODE,delta=1,noexec
     6                           	psect	idataBANK2,global,class=CODE,delta=1,noexec
     7                           	psect	smallconst,global,reloc=2,class=SMALLCONST,delta=1,noexec
     8                           	psect	cinit,global,reloc=2,class=CODE,delta=1
     9                           	psect	bssBANK0,global,class=BANK0,space=1,delta=1,lowdata,noexec
    10                           	psect	bssBANK1,global,class=BANK1,space=1,delta=1,lowdata,noexec
    11                           	psect	dataBANK1,global,class=BANK1,space=1,delta=1,lowdata,noexec
    12                           	psect	bssBANK2,global,class=BANK2,space=1,delta=1,lowdata,noexec
    13                           	psect	dataBANK2,global,class=BANK2,space=1,delta=1,lowdata,noexec
    14                           	psect	bssBANK3,global,class=BANK3,space=1,delta=1,lowdata,noexec
    15                           	psect	cstackBANK2,global,class=BANK2,space=1,delta=1,noexec
    16                           	psect	cstackBANK1,global,class=BANK1,space=1,delta=1,noexec
    17                           	psect	cstackBANK0,global,class=BANK0,space=1,delta=1,noexec
    18                           	psect	cstackCOMRAM,global,class=COMRAM,space=1,delta=1,noexec
    19                           	psect	text0,global,reloc=2,class=CODE,delta=1
    20                           	psect	text1,global,reloc=2,class=CODE,delta=1
    21                           	psect	text2,global,reloc=2,class=CODE,delta=1
    22                           	psect	text3,global,reloc=2,class=CODE,delta=1
    23                           	psect	text4,global,reloc=2,class=CODE,delta=1
    24                           	psect	text5,global,reloc=2,class=CODE,delta=1
    25                           	psect	text6,global,reloc=2,class=CODE,delta=1
    26                           	psect	text7,global,reloc=2,class=CODE,delta=1
    27                           	psect	text8,global,reloc=2,class=CODE,delta=1
    28                           	psect	text9,global,reloc=2,class=CODE,delta=1
    29                           	psect	text10,global,reloc=2,class=CODE,delta=1
    30                           	psect	text11,global,reloc=2,class=CODE,delta=1
    31                           	psect	text12,global,reloc=2,class=CODE,delta=1
    32                           	psect	text13,global,reloc=2,class=CODE,delta=1
    33                           	psect	text14,global,reloc=2,class=CODE,delta=1,group=1
    34                           	psect	text15,global,reloc=2,class=CODE,delta=1,group=1
    35                           	psect	text16,global,reloc=2,class=CODE,delta=1,group=1
    36                           	psect	text17,global,reloc=2,class=CODE,delta=1,group=1
    37                           	psect	intcode,global,reloc=2,class=CODE,delta=1
    38                           	psect	intcode_body,global,reloc=2,class=CODE,delta=1
    39                           	psect	text19,global,reloc=2,class=CODE,delta=1
    40                           	psect	text20,global,reloc=2,class=CODE,delta=1
    41                           	psect	text21,global,reloc=2,class=CODE,delta=1
    42                           	psect	text22,global,reloc=2,class=CODE,delta=1
    43                           	psect	text23,global,reloc=2,class=CODE,delta=1
    44                           	psect	text24,global,reloc=2,class=CODE,delta=1,group=2
    45                           	psect	text25,global,reloc=2,class=CODE,delta=1
    46                           	psect	text26,global,reloc=2,class=CODE,delta=1
    47                           	psect	text27,global,reloc=2,class=CODE,delta=1
    48                           	psect	text28,global,reloc=2,class=CODE,delta=1
    49                           	psect	text29,global,reloc=2,class=CODE,delta=1,group=2
    50                           	psect	text30,global,reloc=2,class=CODE,delta=1,group=2
    51                           	psect	text31,global,reloc=2,class=CODE,delta=1,group=2
    52                           	psect	text32,global,reloc=2,class=CODE,delta=1,group=2
    53                           	psect	text33,global,reloc=2,class=CODE,delta=1,group=2
    54                           	psect	text34,global,reloc=2,class=CODE,delta=1,group=1
    55                           	psect	text35,global,reloc=2,class=CODE,delta=1,group=1
    56                           	psect	text36,global,reloc=2,class=CODE,delta=1,group=2
    57                           	psect	text37,global,reloc=2,class=CODE,delta=1,group=2
    58                           	psect	text38,global,reloc=2,class=CODE,delta=1,group=2
    59                           	psect	text39,global,reloc=2,class=CODE,delta=1,group=1
    60                           	psect	text40,global,reloc=2,class=CODE,delta=1,group=2
    61                           	psect	text41,global,reloc=2,class=CODE,delta=1
    62                           	psect	text42,global,reloc=2,class=CODE,delta=1
    63                           	psect	text43,global,reloc=2,class=CODE,delta=1
    64                           	psect	text44,global,reloc=2,class=CODE,delta=1,group=2
    65                           	psect	text45,global,reloc=2,class=CODE,delta=1,group=2
    66                           	psect	text46,global,reloc=2,class=CODE,delta=1,group=2
    67                           	psect	text47,global,reloc=2,class=CODE,delta=1,group=1
    68                           	psect	text48,global,reloc=2,class=CODE,delta=1,group=2
    69                           	psect	text49,global,reloc=2,class=CODE,delta=1,group=2
    70                           	psect	text50,global,reloc=2,class=CODE,delta=1,group=1
    71                           	psect	text51,global,reloc=2,class=CODE,delta=1,group=2
    72                           	psect	text52,global,reloc=2,class=CODE,delta=1
    73                           	psect	text53,global,reloc=2,class=CODE,delta=1
    74                           	psect	text54,global,reloc=2,class=CODE,delta=1
    75                           	psect	text55,global,reloc=2,class=CODE,delta=1,group=1
    76                           	psect	text56,global,reloc=2,class=CODE,delta=1
    77                           	psect	text57,global,reloc=2,class=CODE,delta=1,group=1
    78                           	psect	text58,global,reloc=2,class=CODE,delta=1
    79                           	psect	text59,global,reloc=2,class=CODE,delta=1
    80                           	psect	text60,global,reloc=2,class=CODE,delta=1
    81                           	psect	intsave_regs,global,class=BIGRAM,space=1,delta=1,noexec
    82                           	psect	rparam,global,class=COMRAM,space=1,delta=1,noexec
    83                           	psect	temp,global,ovrld,common,class=COMRAM,space=1,delta=1
    84  0000                     
    85                           ; Version 2.10
    86                           ; Generated 31/07/2019 GMT
    87                           ; 
    88                           ; Copyright © 2019, Microchip Technology Inc. and its subsidiaries ("Microchip")
    89                           ; All rights reserved.
    90                           ; 
    91                           ; This software is developed by Microchip Technology Inc. and its subsidiaries ("Microch
      +                          ip").
    92                           ; 
    93                           ; Redistribution and use in source and binary forms, with or without modification, are
    94                           ; permitted provided that the following conditions are met:
    95                           ; 
    96                           ;     1. Redistributions of source code must retain the above copyright notice, this lis
      +                          t of
    97                           ;        conditions and the following disclaimer.
    98                           ; 
    99                           ;     2. Redistributions in binary form must reproduce the above copyright notice, this 
      +                          list
   100                           ;        of conditions and the following disclaimer in the documentation and/or other
   101                           ;        materials provided with the distribution.
   102                           ; 
   103                           ;     3. Microchip's name may not be used to endorse or promote products derived from th
      +                          is
   104                           ;        software without specific prior written permission.
   105                           ; 
   106                           ; THIS SOFTWARE IS PROVIDED BY MICROCHIP "AS IS" AND ANY EXPRESS OR IMPLIED WARRANTIES,
   107                           ; INCLUDING, BUT NOT LIMITED TO, THE IMPLIED WARRANTIES OF MERCHANTABILITY AND FITNESS F
      +                          OR
   108                           ; PURPOSE ARE DISCLAIMED.  IN NO EVENT SHALL MICROCHIP BE LIABLE FOR ANY DIRECT, INDIREC
      +                          T,
   109                           ; INCIDENTAL, SPECIAL, EXEMPLARY, OR CONSEQUENTIAL DAMAGES (INCLUDING BUT NOT LIMITED TO
   110                           ; PROCUREMENT OF SUBSTITUTE GOODS OR SERVICES; LOSS OF USE, DATA OR PROFITS; OR BUSINESS
   111                           ; INTERRUPTION) HOWSOEVER CAUSED AND ON ANY THEORY OF LIABILITY, WHETHER IN CONTRACT, ST
      +                          RICT
   112                           ; LIABILITY, OR TORT (INCLUDING NEGLIGENCE OR OTHERWISE) ARISING IN ANY WAY OUT OF THE U
      +                          SE OF
   113                           ; THIS SOFTWARE, EVEN IF ADVISED OF THE POSSIBILITY OF SUCH DAMAGE.
   114                           ; 
   115                           ; 
   116                           ; Code-generator required, PIC18F4520 Definitions
   117                           ; 
   118                           ; SFR Addresses
   119  0000                     
   120                           	psect	idataBANK1
   121  006D16                     __pidataBANK1:
   122                           	opt callstack 0
   123                           
   124                           ;initializer for _cycle
   125  006D16  0004               	dw	4
   126                           
   127                           ;initializer for _GAS_SMOKE
   128  006D18  0002               	dw	2
   129                           
   130                           ;initializer for _GAS_CO
   131  006D1A  0001               	dw	1
   132                           
   133                           ;initializer for _timer_val
   134  006D1C  0BDB               	dw	3035
   135                           
   136                           	psect	idataBANK2
   137  006C08                     __pidataBANK2:
   138                           	opt callstack 0
   139                           
   140                           ;initializer for _SmokeCurve
   141                           ;setting_hardaware/adc.c: 4: double LPGCurve[3] = {2.3, 0.21, -0.47};;setting_hardaware/
      +                          adc.c: 5: double COCurve[3] = {2.3, 0.72, -0.34};;setting_hardaware/adc.c: 6: double Smo
      +                          keCurve[3] = {2.3, 0.53, -0.44};
   142  006C08  3333               	dw	13107
   143  006C0A  4013               	dw	16403
   144                           
   145                           ;setting_hardaware/adc.c: 4: double LPGCurve[3] = {2.3, 0.21, -0.47};;setting_hardaware/
      +                          adc.c: 5: double COCurve[3] = {2.3, 0.72, -0.34};;setting_hardaware/adc.c: 6: double Smo
      +                          keCurve[3] = {2.3, 0.53, -0.44};
   146  006C0C  AE14               	dw	44564
   147  006C0E  3F07               	dw	16135
   148  006C10  47AE               	dw	18350
   149  006C12  BEE1               	dw	48865
   150                           
   151                           ;initializer for _COCurve
   152                           ;setting_hardaware/adc.c: 4: double LPGCurve[3] = {2.3, 0.21, -0.47};;setting_hardaware/
      +                          adc.c: 5: double COCurve[3] = {2.3, 0.72, -0.34};
   153  006C14  3333               	dw	13107
   154  006C16  4013               	dw	16403
   155                           
   156                           ;setting_hardaware/adc.c: 4: double LPGCurve[3] = {2.3, 0.21, -0.47};;setting_hardaware/
      +                          adc.c: 5: double COCurve[3] = {2.3, 0.72, -0.34};
   157  006C18  51EC               	dw	20972
   158  006C1A  3F38               	dw	16184
   159  006C1C  147B               	dw	5243
   160  006C1E  BEAE               	dw	48814
   161                           
   162                           ;initializer for _LPGCurve
   163                           ;setting_hardaware/adc.c: 4: double LPGCurve[3] = {2.3, 0.21, -0.47};
   164  006C20  3333               	dw	13107
   165  006C22  4013               	dw	16403
   166                           
   167                           ;setting_hardaware/adc.c: 4: double LPGCurve[3] = {2.3, 0.21, -0.47};
   168  006C24  0A3D               	dw	2621
   169  006C26  3E57               	dw	15959
   170  006C28  A3D7               	dw	41943
   171  006C2A  BEF0               	dw	48880
   172                           
   173                           	psect	smallconst
   174  000600                     __psmallconst:
   175                           	opt callstack 0
   176  000600  00                 	db	0
   177  000601                     _dp_l:
   178                           	opt callstack 0
   179  000601  0000               	dw	0
   180  000603  0000               	dw	0
   181  000605  CFDC               	dw	53212
   182  000607  35D1               	dw	13777
   183  000609                     __end_of_dp_l:
   184                           	opt callstack 0
   185  000609                     _dp_h:
   186                           	opt callstack 0
   187  000609  0000               	dw	0
   188  00060B  0000               	dw	0
   189  00060D  C000               	dw	49152
   190  00060F  3F15               	dw	16149
   191  000611                     __end_of_dp_h:
   192                           	opt callstack 0
   193  000611  4260               	dw	16992
   194  000613  0DA2               	dw	3490
   195  000615                     __end_ofsqrtf@tiny:
   196                           	opt callstack 0
   197  000615  A570               	dw	42352
   198  000617  36EC               	dw	14060
   199  000619                     __end_of_ivln2_l:
   200                           	opt callstack 0
   201  000619  AA3B               	dw	43579
   202  00061B  3FB8               	dw	16312
   203  00061D                     __end_of_ivln2:
   204                           	opt callstack 0
   205  00061D  384F               	dw	14415
   206  00061F  3F76               	dw	16246
   207  000621                     __end_of_cp:
   208                           	opt callstack 0
   209  000621  AA3C               	dw	43580
   210  000623  3338               	dw	13112
   211  000625                     __end_of_ovt:
   212                           	opt callstack 0
   213  000625  BE8C               	dw	48780
   214  000627  35BF               	dw	13759
   215  000629                     __end_of_lg2_l:
   216                           	opt callstack 0
   217  000629  7200               	dw	29184
   218  00062B  3F31               	dw	16177
   219  00062D                     __end_of_lg2_h:
   220                           	opt callstack 0
   221  00062D  7218               	dw	29208
   222  00062F  3F31               	dw	16177
   223  000631                     __end_of_lg2:
   224                           	opt callstack 0
   225  000631  BB4C               	dw	47948
   226  000633  3331               	dw	13105
   227  000635                     __end_of_P5:
   228                           	opt callstack 0
   229  000635  EA0E               	dw	59918
   230  000637  B5DD               	dw	46557
   231  000639                     __end_of_P4:
   232                           	opt callstack 0
   233  000639  B355               	dw	45909
   234  00063B  388A               	dw	14474
   235  00063D                     __end_of_P3:
   236                           	opt callstack 0
   237  00063D  0B61               	dw	2913
   238  00063F  BB36               	dw	47926
   239  000641                     __end_of_P2:
   240                           	opt callstack 0
   241  000641  AAAB               	dw	43691
   242  000643  3E2A               	dw	15914
   243  000645                     __end_of_P1:
   244                           	opt callstack 0
   245  000645  F142               	dw	61762
   246  000647  3E53               	dw	15955
   247  000649                     __end_of_L6:
   248                           	opt callstack 0
   249  000649  3255               	dw	12885
   250  00064B  3E6C               	dw	15980
   251  00064D                     __end_of_L5:
   252                           	opt callstack 0
   253  00064D  A305               	dw	41733
   254  00064F  3E8B               	dw	16011
   255  000651                     __end_of_L4:
   256                           	opt callstack 0
   257  000651  AAAB               	dw	43691
   258  000653  3EAA               	dw	16042
   259  000655                     __end_of_L3:
   260                           	opt callstack 0
   261  000655  6DB7               	dw	28087
   262  000657  3EDB               	dw	16091
   263  000659                     __end_of_L2:
   264                           	opt callstack 0
   265  000659  999A               	dw	39322
   266  00065B  3F19               	dw	16153
   267  00065D                     __end_of_L1:
   268                           	opt callstack 0
   269  00065D  4260               	dw	16992
   270  00065F  0DA2               	dw	3490
   271  000661                     __end_of_tiny:
   272                           	opt callstack 0
   273  000661  F2CA               	dw	62154
   274  000663  7149               	dw	29001
   275  000665                     __end_of_huge:
   276                           	opt callstack 0
   277  000665  0000               	dw	0
   278  000667  4B80               	dw	19328
   279  000669                     __end_of_two24:
   280                           	opt callstack 0
   281  000669  9E26               	dw	40486
   282  00066B  3E78               	dw	15992
   283  00066D                     __end_of_Lg4:
   284                           	opt callstack 0
   285  00066D  E9EE               	dw	59886
   286  00066F  3E91               	dw	16017
   287  000671                     __end_of_Lg3:
   288                           	opt callstack 0
   289  000671  CE13               	dw	52755
   290  000673  3ECC               	dw	16076
   291  000675                     __end_of_Lg2:
   292                           	opt callstack 0
   293  000675  AAAA               	dw	43690
   294  000677  3F2A               	dw	16170
   295  000679                     __end_of_Lg1:
   296                           	opt callstack 0
   297  000679  27DB               	dw	10203
   298  00067B  3554               	dw	13652
   299  00067D                     __end_of_log10_2lo:
   300                           	opt callstack 0
   301  00067D  2080               	dw	8320
   302  00067F  3E9A               	dw	16026
   303  000681                     __end_of_log10_2hi:
   304                           	opt callstack 0
   305  000681  EAD9               	dw	60121
   306  000683  B804               	dw	47108
   307  000685                     __end_of_ivln10lo:
   308                           	opt callstack 0
   309  000685  6000               	dw	24576
   310  000687  3EDE               	dw	16094
   311  000689                     __end_of_ivln10hi:
   312                           	opt callstack 0
   313  000689                     _bp:
   314                           	opt callstack 0
   315  000689  0000               	dw	0
   316  00068B  3F80               	dw	16256
   317  00068D  0000               	dw	0
   318  00068F  3FC0               	dw	16320
   319  000691                     __end_of_bp:
   320                           	opt callstack 0
   321  000691  AA00               	dw	43520
   322  000693  3FB8               	dw	16312
   323  000695                     __end_of_ivln2_h:
   324                           	opt callstack 0
   325  000695  23C6               	dw	9158
   326  000697  B8F6               	dw	47350
   327  000699                     __end_of_cp_l:
   328                           	opt callstack 0
   329  000699  4000               	dw	16384
   330  00069B  3F76               	dw	16246
   331  00069D                     __end_of_cp_h:
   332                           	opt callstack 0
   333  0000                     _LATAbits	set	3977
   334  0000                     _TRISAbits	set	3986
   335  0000                     _PORTAbits	set	3968
   336  0000                     _LATBbits	set	3978
   337  0000                     _LATCbits	set	3979
   338  0000                     _LATD	set	3980
   339  0000                     _TRISA	set	3986
   340  0000                     _TRISBbits	set	3987
   341  0000                     _TRISD	set	3989
   342  0000                     _TRISC	set	3988
   343  0000                     _ADRES	set	4035
   344  0000                     _TMR1	set	4046
   345  0000                     _ADCON2	set	4032
   346  0000                     _ADCON1	set	4033
   347  0000                     _ADCON0bits	set	4034
   348  0000                     _RCONbits	set	4048
   349  0000                     _IPR1bits	set	3999
   350  0000                     _PIE1bits	set	3997
   351  0000                     _PIR1bits	set	3998
   352  0000                     _T1CONbits	set	4045
   353  0000                     _IRCF0	set	32412
   354  0000                     _IRCF1	set	32413
   355  0000                     _IRCF2	set	32414
   356  0000                     _INTCONbits	set	4082
   357  00069D                     STR_3:
   358  00069D  25                 	db	37
   359  00069E  64                 	db	100	;'d'
   360  00069F  2E                 	db	46
   361  0006A0  25                 	db	37
   362  0006A1  31                 	db	49	;'1'
   363  0006A2  64                 	db	100	;'d'
   364  0006A3  20                 	db	32
   365  0006A4  43                 	db	67	;'C'
   366  0006A5  20                 	db	32
   367  0006A6  20                 	db	32
   368  0006A7  25                 	db	37
   369  0006A8  64                 	db	100	;'d'
   370  0006A9  2E                 	db	46
   371  0006AA  25                 	db	37
   372  0006AB  31                 	db	49	;'1'
   373  0006AC  64                 	db	100	;'d'
   374  0006AD  20                 	db	32
   375  0006AE  48                 	db	72	;'H'
   376  0006AF  00                 	db	0
   377  0006B0                     STR_4:
   378  0006B0  25                 	db	37
   379  0006B1  64                 	db	100	;'d'
   380  0006B2  20                 	db	32
   381  0006B3  25                 	db	37
   382  0006B4  64                 	db	100	;'d'
   383  0006B5  20                 	db	32
   384  0006B6  25                 	db	37
   385  0006B7  64                 	db	100	;'d'
   386  0006B8  00                 	db	0
   387  0006B9                     STR_1:
   388  0006B9  6D                 	db	109	;'m'
   389  0006BA  6F                 	db	111	;'o'
   390  0006BB  6E                 	db	110	;'n'
   391  0006BC  69                 	db	105	;'i'
   392  0006BD  74                 	db	116	;'t'
   393  0006BE  6F                 	db	111	;'o'
   394  0006BF  72                 	db	114	;'r'
   395  0006C0  00                 	db	0
   396  0006C1                     STR_2:
   397  0006C1  73                 	db	115	;'s'
   398  0006C2  74                 	db	116	;'t'
   399  0006C3  61                 	db	97	;'a'
   400  0006C4  72                 	db	114	;'r'
   401  0006C5  74                 	db	116	;'t'
   402  0006C6  00                 	db	0
   403  0000                     
   404                           ; #config settings
   405  0006C7  00                 	db	0	; dummy byte at the end
   406  0000                     
   407                           	psect	cinit
   408  0066E2                     __pcinit:
   409                           	opt callstack 0
   410  0066E2                     start_initialization:
   411                           	opt callstack 0
   412  0066E2                     __initialization:
   413                           	opt callstack 0
   414                           
   415                           ; Initialize objects allocated to BANK2 (36 bytes)
   416                           ; load TBLPTR registers with __pidataBANK2
   417  0066E2  0E08               	movlw	low __pidataBANK2
   418  0066E4  6EF6               	movwf	tblptrl,c
   419  0066E6  0E6C               	movlw	high __pidataBANK2
   420  0066E8  6EF7               	movwf	tblptrh,c
   421  0066EA  0E00               	movlw	low (__pidataBANK2 shr (0+16))
   422  0066EC  6EF8               	movwf	tblptru,c
   423  0066EE  EE02  F07E         	lfsr	0,__pdataBANK2
   424  0066F2  EE10 F024          	lfsr	1,36
   425  0066F6                     copy_data0:
   426  0066F6  0009               	tblrd		*+
   427  0066F8  CFF5 FFEE          	movff	tablat,postinc0
   428  0066FC  50E5               	movf	postdec1,w,c
   429  0066FE  50E1               	movf	fsr1l,w,c
   430  006700  E1FA               	bnz	copy_data0
   431                           
   432                           ; Initialize objects allocated to BANK1 (8 bytes)
   433                           ; load TBLPTR registers with __pidataBANK1
   434  006702  0E16               	movlw	low __pidataBANK1
   435  006704  6EF6               	movwf	tblptrl,c
   436  006706  0E6D               	movlw	high __pidataBANK1
   437  006708  6EF7               	movwf	tblptrh,c
   438  00670A  0E00               	movlw	low (__pidataBANK1 shr (0+16))
   439  00670C  6EF8               	movwf	tblptru,c
   440  00670E  EE01  F0F5         	lfsr	0,__pdataBANK1
   441  006712  EE10 F008          	lfsr	1,8
   442  006716                     copy_data1:
   443  006716  0009               	tblrd		*+
   444  006718  CFF5 FFEE          	movff	tablat,postinc0
   445  00671C  50E5               	movf	postdec1,w,c
   446  00671E  50E1               	movf	fsr1l,w,c
   447  006720  E1FA               	bnz	copy_data1
   448                           
   449                           ; Clear objects allocated to BANK3 (100 bytes)
   450  006722  EE03  F000         	lfsr	0,__pbssBANK3
   451  006726  0E64               	movlw	100
   452  006728                     clear_0:
   453  006728  6AEE               	clrf	postinc0,c
   454  00672A  06E8               	decf	wreg,f,c
   455  00672C  E1FD               	bnz	clear_0
   456                           
   457                           ; Clear objects allocated to BANK2 (48 bytes)
   458  00672E  EE02  F04E         	lfsr	0,__pbssBANK2
   459  006732  0E30               	movlw	48
   460  006734                     clear_1:
   461  006734  6AEE               	clrf	postinc0,c
   462  006736  06E8               	decf	wreg,f,c
   463  006738  E1FD               	bnz	clear_1
   464                           
   465                           ; Clear objects allocated to BANK1 (24 bytes)
   466  00673A  EE01  F0DD         	lfsr	0,__pbssBANK1
   467  00673E  0E18               	movlw	24
   468  006740                     clear_2:
   469  006740  6AEE               	clrf	postinc0,c
   470  006742  06E8               	decf	wreg,f,c
   471  006744  E1FD               	bnz	clear_2
   472                           
   473                           ; Clear objects allocated to BANK0 (3 bytes)
   474  006746  0100               	movlb	0
   475  006748  6BFF               	clrf	(__pbssBANK0+2)& (0+255),b
   476  00674A  6BFE               	clrf	(__pbssBANK0+1)& (0+255),b
   477  00674C  6BFD               	clrf	__pbssBANK0& (0+255),b
   478  00674E                     end_of_initialization:
   479                           	opt callstack 0
   480  00674E                     __end_of__initialization:
   481                           	opt callstack 0
   482  00674E  907F               	bcf	int$flags,0,c	;clear compiler interrupt flag (level 1)
   483  006750  927F               	bcf	int$flags,1,c	;clear compiler interrupt flag (level 2)
   484  006752  0E00               	movlw	low (__Lmediumconst shr (0+16))
   485  006754  6EF8               	movwf	tblptru,c
   486  006756  0100               	movlb	0
   487  006758  EF97  F036         	goto	_main	;jump to C main() function
   488                           
   489                           	psect	bssBANK0
   490  0000FD                     __pbssBANK0:
   491                           	opt callstack 0
   492  0000FD                     _flags:
   493                           	opt callstack 0
   494  0000FD                     	ds	2
   495  0000FF                     _RH_Integral:
   496                           	opt callstack 0
   497  0000FF                     	ds	1
   498                           
   499                           	psect	bssBANK1
   500  0001DD                     __pbssBANK1:
   501                           	opt callstack 0
   502  0001DD                     log10f@F471:
   503                           	opt callstack 0
   504  0001DD                     	ds	4
   505  0001E1                     _Ro:
   506                           	opt callstack 0
   507  0001E1                     	ds	4
   508  0001E5                     _errno:
   509                           	opt callstack 0
   510  0001E5                     	ds	2
   511  0001E7                     _nout:
   512                           	opt callstack 0
   513  0001E7                     	ds	2
   514  0001E9                     _width:
   515                           	opt callstack 0
   516  0001E9                     	ds	2
   517  0001EB                     _prec:
   518                           	opt callstack 0
   519  0001EB                     	ds	2
   520  0001ED                     _count:
   521                           	opt callstack 0
   522  0001ED                     	ds	2
   523  0001EF                     _GAS_LPG:
   524                           	opt callstack 0
   525  0001EF                     	ds	2
   526  0001F1                     _Checksum:
   527                           	opt callstack 0
   528  0001F1                     	ds	1
   529  0001F2                     _T_Integral:
   530                           	opt callstack 0
   531  0001F2                     	ds	1
   532  0001F3                     _T_Decimal:
   533                           	opt callstack 0
   534  0001F3                     	ds	1
   535  0001F4                     _RH_Decimal:
   536                           	opt callstack 0
   537  0001F4                     	ds	1
   538                           
   539                           	psect	dataBANK1
   540  0001F5                     __pdataBANK1:
   541                           	opt callstack 0
   542  0001F5                     _cycle:
   543                           	opt callstack 0
   544  0001F5                     	ds	2
   545  0001F7                     _GAS_SMOKE:
   546                           	opt callstack 0
   547  0001F7                     	ds	2
   548  0001F9                     _GAS_CO:
   549                           	opt callstack 0
   550  0001F9                     	ds	2
   551  0001FB                     _timer_val:
   552                           	opt callstack 0
   553  0001FB                     	ds	2
   554                           
   555                           	psect	bssBANK2
   556  00024E                     __pbssBANK2:
   557                           	opt callstack 0
   558  00024E                     fabsf@F463:
   559                           	opt callstack 0
   560  00024E                     	ds	4
   561  000252                     _dbuf:
   562                           	opt callstack 0
   563  000252                     	ds	32
   564  000272                     _value:
   565                           	opt callstack 0
   566  000272                     	ds	12
   567                           
   568                           	psect	dataBANK2
   569  00027E                     __pdataBANK2:
   570                           	opt callstack 0
   571  00027E                     _SmokeCurve:
   572                           	opt callstack 0
   573  00027E                     	ds	12
   574  00028A                     _COCurve:
   575                           	opt callstack 0
   576  00028A                     	ds	12
   577  000296                     _LPGCurve:
   578                           	opt callstack 0
   579  000296                     	ds	12
   580                           
   581                           	psect	bssBANK3
   582  000300                     __pbssBANK3:
   583                           	opt callstack 0
   584  000300                     _r:
   585                           	opt callstack 0
   586  000300                     	ds	100
   587                           
   588                           	psect	cstackBANK2
   589  000200                     __pcstackBANK2:
   590                           	opt callstack 0
   591  000200                     ??_speak:
   592  000200                     ?___fladd:
   593                           	opt callstack 0
   594  000200                     ?___xxtofl:
   595                           	opt callstack 0
   596  000200                     Cmd@Value:
   597                           	opt callstack 0
   598  000200                     Data@Value:
   599                           	opt callstack 0
   600  000200                     ___fladd@b:
   601                           	opt callstack 0
   602  000200                     ___xxtofl@val:
   603                           	opt callstack 0
   604                           
   605                           ; 4 bytes @ 0x0
   606  000200                     	ds	1
   607  000201                     
   608                           ; 1 bytes @ 0x1
   609  000201                     	ds	1
   610  000202                     ??_Cmd:
   611  000202                     ??_Data:
   612                           
   613                           ; 1 bytes @ 0x2
   614  000202                     	ds	1
   615  000203                     Send2Lcd@Lcd:
   616                           	opt callstack 0
   617                           
   618                           ; 2 bytes @ 0x3
   619  000203                     	ds	1
   620  000204                     ??___xxtofl:
   621  000204                     ___fladd@a:
   622                           	opt callstack 0
   623                           
   624                           ; 4 bytes @ 0x4
   625  000204                     	ds	1
   626  000205                     ??_Send2Lcd:
   627                           
   628                           ; 1 bytes @ 0x5
   629  000205                     	ds	1
   630  000206                     Send2Lcd@Adr:
   631                           	opt callstack 0
   632                           
   633                           ; 1 bytes @ 0x6
   634  000206                     	ds	1
   635  000207                     ??_LCD_init:
   636                           
   637                           ; 1 bytes @ 0x7
   638  000207                     	ds	1
   639  000208                     ??___fladd:
   640  000208                     ___xxtofl@sign:
   641                           	opt callstack 0
   642                           
   643                           ; 1 bytes @ 0x8
   644  000208                     	ds	1
   645  000209                     ___xxtofl@exp:
   646                           	opt callstack 0
   647                           
   648                           ; 1 bytes @ 0x9
   649  000209                     	ds	1
   650  00020A                     ___xxtofl@arg:
   651                           	opt callstack 0
   652                           
   653                           ; 4 bytes @ 0xA
   654  00020A                     	ds	2
   655  00020C                     ___fladd@signs:
   656                           	opt callstack 0
   657                           
   658                           ; 1 bytes @ 0xC
   659  00020C                     	ds	1
   660  00020D                     ___fladd@aexp:
   661                           	opt callstack 0
   662                           
   663                           ; 1 bytes @ 0xD
   664  00020D                     	ds	1
   665  00020E                     ?___flmul:
   666                           	opt callstack 0
   667  00020E                     ___fladd@bexp:
   668                           	opt callstack 0
   669  00020E                     ___flmul@b:
   670                           	opt callstack 0
   671                           
   672                           ; 4 bytes @ 0xE
   673  00020E                     	ds	1
   674  00020F                     ___fladd@grs:
   675                           	opt callstack 0
   676                           
   677                           ; 1 bytes @ 0xF
   678  00020F                     	ds	3
   679  000212                     ___flmul@a:
   680                           	opt callstack 0
   681                           
   682                           ; 4 bytes @ 0x12
   683  000212                     	ds	4
   684  000216                     ??___flmul:
   685                           
   686                           ; 1 bytes @ 0x16
   687  000216                     	ds	4
   688  00021A                     ___flmul@sign:
   689                           	opt callstack 0
   690                           
   691                           ; 1 bytes @ 0x1A
   692  00021A                     	ds	1
   693  00021B                     ___flmul@grs:
   694                           	opt callstack 0
   695                           
   696                           ; 4 bytes @ 0x1B
   697  00021B                     	ds	4
   698  00021F                     ___flmul@aexp:
   699                           	opt callstack 0
   700                           
   701                           ; 1 bytes @ 0x1F
   702  00021F                     	ds	1
   703  000220                     ___flmul@bexp:
   704                           	opt callstack 0
   705                           
   706                           ; 1 bytes @ 0x20
   707  000220                     	ds	1
   708  000221                     ___flmul@prod:
   709                           	opt callstack 0
   710                           
   711                           ; 4 bytes @ 0x21
   712  000221                     	ds	4
   713  000225                     ___flmul@temp:
   714                           	opt callstack 0
   715                           
   716                           ; 2 bytes @ 0x25
   717  000225                     	ds	2
   718  000227                     ?___fldiv:
   719                           	opt callstack 0
   720  000227                     ___fldiv@b:
   721                           	opt callstack 0
   722                           
   723                           ; 4 bytes @ 0x27
   724  000227                     	ds	4
   725  00022B                     ___fldiv@a:
   726                           	opt callstack 0
   727                           
   728                           ; 4 bytes @ 0x2B
   729  00022B                     	ds	4
   730  00022F                     ??___fldiv:
   731                           
   732                           ; 1 bytes @ 0x2F
   733  00022F                     	ds	4
   734  000233                     ___fldiv@rem:
   735                           	opt callstack 0
   736                           
   737                           ; 4 bytes @ 0x33
   738  000233                     	ds	4
   739  000237                     ___fldiv@sign:
   740                           	opt callstack 0
   741                           
   742                           ; 1 bytes @ 0x37
   743  000237                     	ds	1
   744  000238                     ___fldiv@new_exp:
   745                           	opt callstack 0
   746                           
   747                           ; 2 bytes @ 0x38
   748  000238                     	ds	2
   749  00023A                     ___fldiv@grs:
   750                           	opt callstack 0
   751                           
   752                           ; 4 bytes @ 0x3A
   753  00023A                     	ds	4
   754  00023E                     ___fldiv@bexp:
   755                           	opt callstack 0
   756                           
   757                           ; 1 bytes @ 0x3E
   758  00023E                     	ds	1
   759  00023F                     ___fldiv@aexp:
   760                           	opt callstack 0
   761                           
   762                           ; 1 bytes @ 0x3F
   763  00023F                     	ds	1
   764  000240                     ??_ADC_Initialize:
   765                           
   766                           ; 1 bytes @ 0x40
   767  000240                     	ds	2
   768  000242                     ADC_Initialize@res:
   769                           	opt callstack 0
   770                           
   771                           ; 4 bytes @ 0x42
   772  000242                     	ds	4
   773  000246                     ADC_Initialize@digital:
   774                           	opt callstack 0
   775                           
   776                           ; 2 bytes @ 0x46
   777  000246                     	ds	2
   778  000248                     ADC_Initialize@i:
   779                           	opt callstack 0
   780                           
   781                           ; 2 bytes @ 0x48
   782  000248                     	ds	2
   783  00024A                     ADC_Initialize@val:
   784                           	opt callstack 0
   785                           
   786                           ; 4 bytes @ 0x4A
   787  00024A                     	ds	4
   788  00024E                     
   789                           ; 1 bytes @ 0x4E
   790                           
   791                           	psect	cstackBANK1
   792  000100                     __pcstackBANK1:
   793                           	opt callstack 0
   794  000100                     _powf$1978:
   795                           	opt callstack 0
   796                           
   797                           ; 4 bytes @ 0x0
   798  000100                     	ds	4
   799  000104                     _powf$2104:
   800                           	opt callstack 0
   801                           
   802                           ; 4 bytes @ 0x4
   803  000104                     	ds	4
   804  000108                     _powf$2105:
   805                           	opt callstack 0
   806                           
   807                           ; 4 bytes @ 0x8
   808  000108                     	ds	4
   809  00010C                     _powf$2108:
   810                           	opt callstack 0
   811                           
   812                           ; 4 bytes @ 0xC
   813  00010C                     	ds	4
   814  000110                     _powf$2109:
   815                           	opt callstack 0
   816                           
   817                           ; 4 bytes @ 0x10
   818  000110                     	ds	4
   819  000114                     _powf$2110:
   820                           	opt callstack 0
   821                           
   822                           ; 4 bytes @ 0x14
   823  000114                     	ds	4
   824  000118                     _powf$2111:
   825                           	opt callstack 0
   826                           
   827                           ; 4 bytes @ 0x18
   828  000118                     	ds	4
   829  00011C                     powf@t2:
   830                           	opt callstack 0
   831                           
   832                           ; 4 bytes @ 0x1C
   833  00011C                     	ds	4
   834  000120                     powf@z_h:
   835                           	opt callstack 0
   836                           
   837                           ; 4 bytes @ 0x20
   838  000120                     	ds	4
   839  000124                     powf@z_l:
   840                           	opt callstack 0
   841                           
   842                           ; 4 bytes @ 0x24
   843  000124                     	ds	4
   844  000128                     powf@y1:
   845                           	opt callstack 0
   846                           
   847                           ; 4 bytes @ 0x28
   848  000128                     	ds	4
   849  00012C                     powf@i:
   850                           	opt callstack 0
   851                           
   852                           ; 4 bytes @ 0x2C
   853  00012C                     	ds	4
   854  000130                     powf@s_l:
   855                           	opt callstack 0
   856                           
   857                           ; 4 bytes @ 0x30
   858  000130                     	ds	4
   859  000134                     powf@t_l:
   860                           	opt callstack 0
   861                           
   862                           ; 4 bytes @ 0x34
   863  000134                     	ds	4
   864  000138                     _powf$1976:
   865                           	opt callstack 0
   866                           
   867                           ; 4 bytes @ 0x38
   868  000138                     	ds	4
   869  00013C                     _powf$2103:
   870                           	opt callstack 0
   871                           
   872                           ; 4 bytes @ 0x3C
   873  00013C                     	ds	4
   874  000140                     _powf$2107:
   875                           	opt callstack 0
   876                           
   877                           ; 4 bytes @ 0x40
   878  000140                     	ds	4
   879  000144                     powf@w:
   880                           	opt callstack 0
   881                           
   882                           ; 4 bytes @ 0x44
   883  000144                     	ds	4
   884  000148                     _powf$2102:
   885                           	opt callstack 0
   886                           
   887                           ; 4 bytes @ 0x48
   888  000148                     	ds	4
   889  00014C                     powf@r:
   890                           	opt callstack 0
   891                           
   892                           ; 4 bytes @ 0x4C
   893  00014C                     	ds	4
   894  000150                     powf@yisint:
   895                           	opt callstack 0
   896                           
   897                           ; 4 bytes @ 0x50
   898  000150                     	ds	4
   899  000154                     _powf$2101:
   900                           	opt callstack 0
   901                           
   902                           ; 4 bytes @ 0x54
   903  000154                     	ds	4
   904  000158                     _powf$2106:
   905                           	opt callstack 0
   906                           
   907                           ; 4 bytes @ 0x58
   908  000158                     	ds	4
   909  00015C                     powf@s:
   910                           	opt callstack 0
   911                           
   912                           ; 4 bytes @ 0x5C
   913  00015C                     	ds	4
   914  000160                     powf@hx:
   915                           	opt callstack 0
   916                           
   917                           ; 4 bytes @ 0x60
   918  000160                     	ds	4
   919  000164                     powf@p_l:
   920                           	opt callstack 0
   921                           
   922                           ; 4 bytes @ 0x64
   923  000164                     	ds	4
   924  000168                     powf@t_h:
   925                           	opt callstack 0
   926                           
   927                           ; 4 bytes @ 0x68
   928  000168                     	ds	4
   929  00016C                     powf@s_h:
   930                           	opt callstack 0
   931                           
   932                           ; 4 bytes @ 0x6C
   933  00016C                     	ds	4
   934  000170                     powf@ax:
   935                           	opt callstack 0
   936                           
   937                           ; 4 bytes @ 0x70
   938  000170                     	ds	4
   939  000174                     powf@u:
   940                           	opt callstack 0
   941                           
   942                           ; 4 bytes @ 0x74
   943  000174                     	ds	4
   944  000178                     powf@v:
   945                           	opt callstack 0
   946                           
   947                           ; 4 bytes @ 0x78
   948  000178                     	ds	4
   949  00017C                     powf@n:
   950                           	opt callstack 0
   951                           
   952                           ; 4 bytes @ 0x7C
   953  00017C                     	ds	4
   954  000180                     powf@t1:
   955                           	opt callstack 0
   956                           
   957                           ; 4 bytes @ 0x80
   958  000180                     	ds	4
   959  000184                     powf@hy:
   960                           	opt callstack 0
   961                           
   962                           ; 4 bytes @ 0x84
   963  000184                     	ds	4
   964  000188                     powf@sn:
   965                           	opt callstack 0
   966                           
   967                           ; 4 bytes @ 0x88
   968  000188                     	ds	4
   969  00018C                     powf@s2:
   970                           	opt callstack 0
   971                           
   972                           ; 4 bytes @ 0x8C
   973  00018C                     	ds	4
   974  000190                     powf@is:
   975                           	opt callstack 0
   976                           
   977                           ; 4 bytes @ 0x90
   978  000190                     	ds	4
   979  000194                     _powf$1970:
   980                           	opt callstack 0
   981                           
   982                           ; 4 bytes @ 0x94
   983  000194                     	ds	4
   984  000198                     powf@iy:
   985                           	opt callstack 0
   986                           
   987                           ; 4 bytes @ 0x98
   988  000198                     	ds	4
   989  00019C                     powf@p_h:
   990                           	opt callstack 0
   991                           
   992                           ; 4 bytes @ 0x9C
   993  00019C                     	ds	4
   994  0001A0                     powf@k:
   995                           	opt callstack 0
   996                           
   997                           ; 4 bytes @ 0xA0
   998  0001A0                     	ds	4
   999  0001A4                     _powf$2100:
  1000                           	opt callstack 0
  1001                           
  1002                           ; 4 bytes @ 0xA4
  1003  0001A4                     	ds	4
  1004  0001A8                     powf@ix:
  1005                           	opt callstack 0
  1006                           
  1007                           ; 4 bytes @ 0xA8
  1008  0001A8                     	ds	4
  1009  0001AC                     powf@j:
  1010                           	opt callstack 0
  1011                           
  1012                           ; 4 bytes @ 0xAC
  1013  0001AC                     	ds	4
  1014  0001B0                     powf@t:
  1015                           	opt callstack 0
  1016                           
  1017                           ; 4 bytes @ 0xB0
  1018  0001B0                     	ds	4
  1019  0001B4                     powf@z:
  1020                           	opt callstack 0
  1021                           
  1022                           ; 4 bytes @ 0xB4
  1023  0001B4                     	ds	4
  1024  0001B8                     powf@__xc8_float_word:
  1025                           	opt callstack 0
  1026                           
  1027                           ; 4 bytes @ 0xB8
  1028  0001B8                     	ds	4
  1029  0001BC                     MQ_Read@digital:
  1030                           	opt callstack 0
  1031                           
  1032                           ; 2 bytes @ 0xBC
  1033  0001BC                     	ds	2
  1034  0001BE                     MQ_Read@lpg:
  1035                           	opt callstack 0
  1036                           
  1037                           ; 4 bytes @ 0xBE
  1038  0001BE                     	ds	4
  1039  0001C2                     MQ_Read@co:
  1040                           	opt callstack 0
  1041                           
  1042                           ; 4 bytes @ 0xC2
  1043  0001C2                     	ds	4
  1044  0001C6                     MQ_Read@smoke:
  1045                           	opt callstack 0
  1046                           
  1047                           ; 4 bytes @ 0xC6
  1048  0001C6                     	ds	4
  1049  0001CA                     MQ_Read@res:
  1050                           	opt callstack 0
  1051                           
  1052                           ; 4 bytes @ 0xCA
  1053  0001CA                     	ds	4
  1054  0001CE                     _MQ_Read$2093:
  1055                           	opt callstack 0
  1056                           
  1057                           ; 4 bytes @ 0xCE
  1058  0001CE                     	ds	4
  1059  0001D2                     ??_Hi_ISR:
  1060                           
  1061                           ; 1 bytes @ 0xD2
  1062  0001D2                     	ds	11
  1063                           
  1064                           	psect	cstackBANK0
  1065  000080                     __pcstackBANK0:
  1066                           	opt callstack 0
  1067  000080                     log10f@R:
  1068                           	opt callstack 0
  1069                           
  1070                           ; 4 bytes @ 0x0
  1071  000080                     	ds	4
  1072  000084                     log10f@t1:
  1073                           	opt callstack 0
  1074                           
  1075                           ; 4 bytes @ 0x4
  1076  000084                     	ds	4
  1077  000088                     log10f@t2:
  1078                           	opt callstack 0
  1079                           
  1080                           ; 4 bytes @ 0x8
  1081  000088                     	ds	4
  1082  00008C                     _log10f$1961:
  1083                           	opt callstack 0
  1084                           
  1085                           ; 4 bytes @ 0xC
  1086  00008C                     	ds	4
  1087  000090                     _log10f$2095:
  1088                           	opt callstack 0
  1089                           
  1090                           ; 4 bytes @ 0x10
  1091  000090                     	ds	4
  1092  000094                     _log10f$2097:
  1093                           	opt callstack 0
  1094                           
  1095                           ; 4 bytes @ 0x14
  1096  000094                     	ds	4
  1097  000098                     _log10f$2098:
  1098                           	opt callstack 0
  1099                           
  1100                           ; 4 bytes @ 0x18
  1101  000098                     	ds	4
  1102  00009C                     _log10f$2099:
  1103                           	opt callstack 0
  1104                           
  1105                           ; 4 bytes @ 0x1C
  1106  00009C                     	ds	4
  1107  0000A0                     log10f@k:
  1108                           	opt callstack 0
  1109                           
  1110                           ; 2 bytes @ 0x20
  1111  0000A0                     	ds	2
  1112  0000A2                     log10f@dk:
  1113                           	opt callstack 0
  1114                           
  1115                           ; 4 bytes @ 0x22
  1116  0000A2                     	ds	4
  1117  0000A6                     log10f@lo:
  1118                           	opt callstack 0
  1119                           
  1120                           ; 4 bytes @ 0x26
  1121  0000A6                     	ds	4
  1122  0000AA                     _log10f$2096:
  1123                           	opt callstack 0
  1124                           
  1125                           ; 4 bytes @ 0x2A
  1126  0000AA                     	ds	4
  1127  0000AE                     log10f@hfsq:
  1128                           	opt callstack 0
  1129                           
  1130                           ; 4 bytes @ 0x2E
  1131  0000AE                     	ds	4
  1132  0000B2                     log10f@s:
  1133                           	opt callstack 0
  1134                           
  1135                           ; 4 bytes @ 0x32
  1136  0000B2                     	ds	4
  1137  0000B6                     log10f@z:
  1138                           	opt callstack 0
  1139                           
  1140                           ; 4 bytes @ 0x36
  1141  0000B6                     	ds	4
  1142  0000BA                     log10f@w:
  1143                           	opt callstack 0
  1144                           
  1145                           ; 4 bytes @ 0x3A
  1146  0000BA                     	ds	4
  1147  0000BE                     _log10f$2094:
  1148                           	opt callstack 0
  1149                           
  1150                           ; 4 bytes @ 0x3E
  1151  0000BE                     	ds	4
  1152  0000C2                     log10f@hi:
  1153                           	opt callstack 0
  1154                           
  1155                           ; 4 bytes @ 0x42
  1156  0000C2                     	ds	4
  1157  0000C6                     log10f@u:
  1158                           	opt callstack 0
  1159                           
  1160                           ; 4 bytes @ 0x46
  1161  0000C6                     	ds	4
  1162  0000CA                     log10f@f:
  1163                           	opt callstack 0
  1164                           
  1165                           ; 4 bytes @ 0x4A
  1166  0000CA                     	ds	4
  1167  0000CE                     log10f@ix:
  1168                           	opt callstack 0
  1169                           
  1170                           ; 4 bytes @ 0x4E
  1171  0000CE                     	ds	4
  1172  0000D2                     ??_powf:
  1173                           
  1174                           ; 1 bytes @ 0x52
  1175  0000D2                     	ds	9
  1176  0000DB                     ___fltol@sign1:
  1177                           	opt callstack 0
  1178                           
  1179                           ; 1 bytes @ 0x5B
  1180  0000DB                     	ds	1
  1181  0000DC                     ___fltol@exp1:
  1182                           	opt callstack 0
  1183                           
  1184                           ; 1 bytes @ 0x5C
  1185  0000DC                     	ds	1
  1186  0000DD                     ?_sprintf:
  1187                           	opt callstack 0
  1188  0000DD                     ?_MQGetPercentage:
  1189                           	opt callstack 0
  1190  0000DD                     sprintf@s:
  1191                           	opt callstack 0
  1192  0000DD                     MQGetPercentage@rs_ro_ratio:
  1193                           	opt callstack 0
  1194                           
  1195                           ; 4 bytes @ 0x5D
  1196  0000DD                     	ds	2
  1197  0000DF                     sprintf@fmt:
  1198                           	opt callstack 0
  1199                           
  1200                           ; 2 bytes @ 0x5F
  1201  0000DF                     	ds	2
  1202  0000E1                     MQGetPercentage@pcurve:
  1203                           	opt callstack 0
  1204                           
  1205                           ; 2 bytes @ 0x61
  1206  0000E1                     	ds	2
  1207  0000E3                     _MQGetPercentage$1955:
  1208                           	opt callstack 0
  1209                           
  1210                           ; 4 bytes @ 0x63
  1211  0000E3                     	ds	4
  1212  0000E7                     _MQGetPercentage$2090:
  1213                           	opt callstack 0
  1214                           
  1215                           ; 4 bytes @ 0x67
  1216  0000E7                     	ds	4
  1217  0000EB                     sprintf@ap:
  1218                           	opt callstack 0
  1219  0000EB                     _MQGetPercentage$2091:
  1220                           	opt callstack 0
  1221                           
  1222                           ; 4 bytes @ 0x6B
  1223  0000EB                     	ds	2
  1224  0000ED                     sprintf@f:
  1225                           	opt callstack 0
  1226                           
  1227                           ; 6 bytes @ 0x6D
  1228  0000ED                     	ds	2
  1229  0000EF                     ?_MQGetGasPercentage:
  1230                           	opt callstack 0
  1231  0000EF                     MQGetGasPercentage@rs_ro_ratio:
  1232                           	opt callstack 0
  1233                           
  1234                           ; 4 bytes @ 0x6F
  1235  0000EF                     	ds	4
  1236  0000F3                     MQGetGasPercentage@gas_id:
  1237                           	opt callstack 0
  1238                           
  1239                           ; 2 bytes @ 0x73
  1240  0000F3                     	ds	2
  1241  0000F5                     _MQGetGasPercentage$2092:
  1242                           	opt callstack 0
  1243                           
  1244                           ; 4 bytes @ 0x75
  1245  0000F5                     	ds	4
  1246  0000F9                     MQ_Read@values:
  1247                           	opt callstack 0
  1248                           
  1249                           ; 2 bytes @ 0x79
  1250  0000F9                     	ds	2
  1251  0000FB                     ??_MQ_Read:
  1252                           
  1253                           ; 1 bytes @ 0x7B
  1254  0000FB                     	ds	2
  1255                           
  1256                           	psect	cstackCOMRAM
  1257  000001                     __pcstackCOMRAM:
  1258                           	opt callstack 0
  1259  000001                     ??_DHT11_Start:
  1260  000001                     ??i2_speak:
  1261  000001                     ?_strlen:
  1262                           	opt callstack 0
  1263  000001                     ?_isdigit:
  1264                           	opt callstack 0
  1265  000001                     ?_isspace:
  1266                           	opt callstack 0
  1267  000001                     ?___wmul:
  1268                           	opt callstack 0
  1269  000001                     ?_fabsf:
  1270                           	opt callstack 0
  1271  000001                     ?_nanf:
  1272                           	opt callstack 0
  1273  000001                     ?___flneg:
  1274                           	opt callstack 0
  1275  000001                     ?i2___fladd:
  1276                           	opt callstack 0
  1277  000001                     ?i2___xxtofl:
  1278                           	opt callstack 0
  1279  000001                     ?___aodiv:
  1280                           	opt callstack 0
  1281  000001                     ?___aomod:
  1282                           	opt callstack 0
  1283  000001                     DHT11_ReadData@i:
  1284                           	opt callstack 0
  1285  000001                     ___wmul@multiplier:
  1286                           	opt callstack 0
  1287  000001                     isdigit@c:
  1288                           	opt callstack 0
  1289  000001                     isspace@c:
  1290                           	opt callstack 0
  1291  000001                     memset@dest:
  1292                           	opt callstack 0
  1293  000001                     fputc@c:
  1294                           	opt callstack 0
  1295  000001                     strlen@s:
  1296                           	opt callstack 0
  1297  000001                     nanf@s:
  1298                           	opt callstack 0
  1299  000001                     i2Cmd@Value:
  1300                           	opt callstack 0
  1301  000001                     i2Data@Value:
  1302                           	opt callstack 0
  1303  000001                     ___flneg@f1:
  1304                           	opt callstack 0
  1305  000001                     fabsf@x:
  1306                           	opt callstack 0
  1307  000001                     i2___fladd@b:
  1308                           	opt callstack 0
  1309  000001                     i2___xxtofl@val:
  1310                           	opt callstack 0
  1311  000001                     ___aodiv@dividend:
  1312                           	opt callstack 0
  1313  000001                     ___aomod@dividend:
  1314                           	opt callstack 0
  1315                           
  1316                           ; 8 bytes @ 0x0
  1317  000001                     	ds	1
  1318  000002                     DHT11_ReadData@data:
  1319                           	opt callstack 0
  1320                           
  1321                           ; 1 bytes @ 0x1
  1322  000002                     	ds	1
  1323  000003                     ??_isdigit:
  1324  000003                     ??_isspace:
  1325  000003                     ??i2_Cmd:
  1326  000003                     ??i2_Data:
  1327  000003                     ___wmul@multiplicand:
  1328                           	opt callstack 0
  1329  000003                     memset@c:
  1330                           	opt callstack 0
  1331  000003                     fputc@fp:
  1332                           	opt callstack 0
  1333  000003                     strlen@a:
  1334                           	opt callstack 0
  1335                           
  1336                           ; 2 bytes @ 0x2
  1337  000003                     	ds	1
  1338  000004                     i2Send2Lcd@Lcd:
  1339                           	opt callstack 0
  1340                           
  1341                           ; 2 bytes @ 0x3
  1342  000004                     	ds	1
  1343  000005                     ??_fputc:
  1344  000005                     ??i2___xxtofl:
  1345  000005                     ___wmul@product:
  1346                           	opt callstack 0
  1347  000005                     memset@n:
  1348                           	opt callstack 0
  1349  000005                     fabsf@u:
  1350                           	opt callstack 0
  1351  000005                     nanf@u:
  1352                           	opt callstack 0
  1353  000005                     i2___fladd@a:
  1354                           	opt callstack 0
  1355                           
  1356                           ; 4 bytes @ 0x4
  1357  000005                     	ds	1
  1358  000006                     ??i2_Send2Lcd:
  1359                           
  1360                           ; 1 bytes @ 0x5
  1361  000006                     	ds	1
  1362  000007                     ??_memset:
  1363  000007                     _isspace$1507:
  1364                           	opt callstack 0
  1365  000007                     i2Send2Lcd@Adr:
  1366                           	opt callstack 0
  1367                           
  1368                           ; 1 bytes @ 0x6
  1369  000007                     	ds	1
  1370  000008                     ?_atoi:
  1371                           	opt callstack 0
  1372  000008                     atoi@s:
  1373                           	opt callstack 0
  1374                           
  1375                           ; 2 bytes @ 0x7
  1376  000008                     	ds	1
  1377  000009                     ??i2___fladd:
  1378  000009                     i2___xxtofl@sign:
  1379                           	opt callstack 0
  1380  000009                     memset@k:
  1381                           	opt callstack 0
  1382  000009                     ___aodiv@divisor:
  1383                           	opt callstack 0
  1384  000009                     ___aomod@divisor:
  1385                           	opt callstack 0
  1386                           
  1387                           ; 8 bytes @ 0x8
  1388  000009                     	ds	1
  1389  00000A                     ??_atoi:
  1390  00000A                     i2___xxtofl@exp:
  1391                           	opt callstack 0
  1392  00000A                     fputs@s:
  1393                           	opt callstack 0
  1394                           
  1395                           ; 2 bytes @ 0x9
  1396  00000A                     	ds	1
  1397  00000B                     memset@s:
  1398                           	opt callstack 0
  1399  00000B                     i2___xxtofl@arg:
  1400                           	opt callstack 0
  1401                           
  1402                           ; 4 bytes @ 0xA
  1403  00000B                     	ds	1
  1404  00000C                     fputs@fp:
  1405                           	opt callstack 0
  1406                           
  1407                           ; 2 bytes @ 0xB
  1408  00000C                     	ds	1
  1409  00000D                     i2___fladd@signs:
  1410                           	opt callstack 0
  1411                           
  1412                           ; 1 bytes @ 0xC
  1413  00000D                     	ds	1
  1414  00000E                     fputs@c:
  1415                           	opt callstack 0
  1416  00000E                     i2___fladd@aexp:
  1417                           	opt callstack 0
  1418  00000E                     atoi@neg:
  1419                           	opt callstack 0
  1420                           
  1421                           ; 2 bytes @ 0xD
  1422  00000E                     	ds	1
  1423  00000F                     i2___fladd@bexp:
  1424                           	opt callstack 0
  1425  00000F                     fputs@i:
  1426                           	opt callstack 0
  1427                           
  1428                           ; 2 bytes @ 0xE
  1429  00000F                     	ds	1
  1430  000010                     i2___fladd@grs:
  1431                           	opt callstack 0
  1432  000010                     _atoi$1489:
  1433                           	opt callstack 0
  1434                           
  1435                           ; 2 bytes @ 0xF
  1436  000010                     	ds	1
  1437  000011                     ?_pad:
  1438                           	opt callstack 0
  1439  000011                     ?i2___flmul:
  1440                           	opt callstack 0
  1441  000011                     ___aodiv@counter:
  1442                           	opt callstack 0
  1443  000011                     ___aomod@counter:
  1444                           	opt callstack 0
  1445  000011                     pad@fp:
  1446                           	opt callstack 0
  1447  000011                     i2___flmul@b:
  1448                           	opt callstack 0
  1449                           
  1450                           ; 4 bytes @ 0x10
  1451  000011                     	ds	1
  1452  000012                     ___aodiv@sign:
  1453                           	opt callstack 0
  1454  000012                     ___aomod@sign:
  1455                           	opt callstack 0
  1456  000012                     _atoi$1491:
  1457                           	opt callstack 0
  1458                           
  1459                           ; 2 bytes @ 0x11
  1460  000012                     	ds	1
  1461  000013                     ?_abs:
  1462                           	opt callstack 0
  1463  000013                     pad@buf:
  1464                           	opt callstack 0
  1465  000013                     abs@a:
  1466                           	opt callstack 0
  1467  000013                     ___aodiv@quotient:
  1468                           	opt callstack 0
  1469                           
  1470                           ; 8 bytes @ 0x12
  1471  000013                     	ds	1
  1472  000014                     _atoi$1490:
  1473                           	opt callstack 0
  1474                           
  1475                           ; 1 bytes @ 0x13
  1476  000014                     	ds	1
  1477  000015                     ??_abs:
  1478  000015                     pad@p:
  1479                           	opt callstack 0
  1480  000015                     atoi@n:
  1481                           	opt callstack 0
  1482  000015                     i2___flmul@a:
  1483                           	opt callstack 0
  1484                           
  1485                           ; 4 bytes @ 0x14
  1486  000015                     	ds	2
  1487  000017                     ??_pad:
  1488                           
  1489                           ; 1 bytes @ 0x16
  1490  000017                     	ds	1
  1491  000018                     pad@i:
  1492                           	opt callstack 0
  1493                           
  1494                           ; 2 bytes @ 0x17
  1495  000018                     	ds	1
  1496  000019                     ??i2___flmul:
  1497                           
  1498                           ; 1 bytes @ 0x18
  1499  000019                     	ds	1
  1500  00001A                     pad@w:
  1501                           	opt callstack 0
  1502                           
  1503                           ; 2 bytes @ 0x19
  1504  00001A                     	ds	2
  1505  00001C                     ?_dtoa:
  1506                           	opt callstack 0
  1507  00001C                     dtoa@fp:
  1508                           	opt callstack 0
  1509                           
  1510                           ; 2 bytes @ 0x1B
  1511  00001C                     	ds	1
  1512  00001D                     i2___flmul@sign:
  1513                           	opt callstack 0
  1514                           
  1515                           ; 1 bytes @ 0x1C
  1516  00001D                     	ds	1
  1517  00001E                     i2___flmul@grs:
  1518                           	opt callstack 0
  1519  00001E                     dtoa@d:
  1520                           	opt callstack 0
  1521                           
  1522                           ; 8 bytes @ 0x1D
  1523  00001E                     	ds	4
  1524  000022                     i2___flmul@aexp:
  1525                           	opt callstack 0
  1526                           
  1527                           ; 1 bytes @ 0x21
  1528  000022                     	ds	1
  1529  000023                     i2___flmul@bexp:
  1530                           	opt callstack 0
  1531                           
  1532                           ; 1 bytes @ 0x22
  1533  000023                     	ds	1
  1534  000024                     i2___flmul@prod:
  1535                           	opt callstack 0
  1536                           
  1537                           ; 4 bytes @ 0x23
  1538  000024                     	ds	2
  1539  000026                     ??_dtoa:
  1540                           
  1541                           ; 1 bytes @ 0x25
  1542  000026                     	ds	2
  1543  000028                     i2___flmul@temp:
  1544                           	opt callstack 0
  1545                           
  1546                           ; 2 bytes @ 0x27
  1547  000028                     	ds	2
  1548  00002A                     ?___flsub:
  1549                           	opt callstack 0
  1550  00002A                     ?_scalbnf:
  1551                           	opt callstack 0
  1552  00002A                     ___flsub@b:
  1553                           	opt callstack 0
  1554  00002A                     scalbnf@x:
  1555                           	opt callstack 0
  1556                           
  1557                           ; 4 bytes @ 0x29
  1558  00002A                     	ds	4
  1559  00002E                     _dtoa$1017:
  1560                           	opt callstack 0
  1561  00002E                     scalbnf@n:
  1562                           	opt callstack 0
  1563  00002E                     ___flsub@a:
  1564                           	opt callstack 0
  1565                           
  1566                           ; 4 bytes @ 0x2D
  1567  00002E                     	ds	2
  1568  000030                     ??_scalbnf:
  1569  000030                     dtoa@p:
  1570                           	opt callstack 0
  1571                           
  1572                           ; 2 bytes @ 0x2F
  1573  000030                     	ds	2
  1574  000032                     ?i2___fldiv:
  1575                           	opt callstack 0
  1576  000032                     dtoa@w:
  1577                           	opt callstack 0
  1578  000032                     ___flge@ff1:
  1579                           	opt callstack 0
  1580  000032                     i2___fldiv@b:
  1581                           	opt callstack 0
  1582                           
  1583                           ; 4 bytes @ 0x31
  1584  000032                     	ds	2
  1585  000034                     dtoa@s:
  1586                           	opt callstack 0
  1587  000034                     scalbnf@u:
  1588                           	opt callstack 0
  1589                           
  1590                           ; 4 bytes @ 0x33
  1591  000034                     	ds	2
  1592  000036                     ___flge@ff2:
  1593                           	opt callstack 0
  1594  000036                     i2___fldiv@a:
  1595                           	opt callstack 0
  1596  000036                     dtoa@n:
  1597                           	opt callstack 0
  1598                           
  1599                           ; 8 bytes @ 0x35
  1600  000036                     	ds	2
  1601  000038                     scalbnf@y:
  1602                           	opt callstack 0
  1603                           
  1604                           ; 4 bytes @ 0x37
  1605  000038                     	ds	2
  1606  00003A                     ??___flge:
  1607  00003A                     ??i2___fldiv:
  1608                           
  1609                           ; 1 bytes @ 0x39
  1610  00003A                     	ds	4
  1611  00003E                     ?_sqrtf:
  1612                           	opt callstack 0
  1613  00003E                     dtoa@i:
  1614                           	opt callstack 0
  1615  00003E                     sqrtf@x:
  1616                           	opt callstack 0
  1617  00003E                     i2___fldiv@rem:
  1618                           	opt callstack 0
  1619                           
  1620                           ; 4 bytes @ 0x3D
  1621  00003E                     	ds	2
  1622  000040                     ?_vfpfcnvrt:
  1623                           	opt callstack 0
  1624  000040                     vfpfcnvrt@fp:
  1625                           	opt callstack 0
  1626                           
  1627                           ; 2 bytes @ 0x3F
  1628  000040                     	ds	2
  1629  000042                     ??_sqrtf:
  1630  000042                     i2___fldiv@sign:
  1631                           	opt callstack 0
  1632  000042                     vfpfcnvrt@fmt:
  1633                           	opt callstack 0
  1634                           
  1635                           ; 2 bytes @ 0x41
  1636  000042                     	ds	1
  1637  000043                     i2___fldiv@new_exp:
  1638                           	opt callstack 0
  1639                           
  1640                           ; 2 bytes @ 0x42
  1641  000043                     	ds	1
  1642  000044                     vfpfcnvrt@ap:
  1643                           	opt callstack 0
  1644                           
  1645                           ; 2 bytes @ 0x43
  1646  000044                     	ds	1
  1647  000045                     i2___fldiv@grs:
  1648                           	opt callstack 0
  1649                           
  1650                           ; 4 bytes @ 0x44
  1651  000045                     	ds	1
  1652  000046                     ??_vfpfcnvrt:
  1653                           
  1654                           ; 1 bytes @ 0x45
  1655  000046                     	ds	3
  1656  000049                     i2___fldiv@bexp:
  1657                           	opt callstack 0
  1658                           
  1659                           ; 1 bytes @ 0x48
  1660  000049                     	ds	1
  1661  00004A                     i2___fldiv@aexp:
  1662                           	opt callstack 0
  1663  00004A                     vfpfcnvrt@ll:
  1664                           	opt callstack 0
  1665                           
  1666                           ; 8 bytes @ 0x49
  1667  00004A                     	ds	1
  1668  00004B                     ?_log10f:
  1669                           	opt callstack 0
  1670  00004B                     log10f@x:
  1671                           	opt callstack 0
  1672  00004B                     sqrtf@s:
  1673                           	opt callstack 0
  1674                           
  1675                           ; 4 bytes @ 0x4A
  1676  00004B                     	ds	4
  1677  00004F                     ??_log10f:
  1678  00004F                     sqrtf@i:
  1679                           	opt callstack 0
  1680                           
  1681                           ; 4 bytes @ 0x4E
  1682  00004F                     	ds	3
  1683  000052                     _vfpfcnvrt$1032:
  1684                           	opt callstack 0
  1685                           
  1686                           ; 2 bytes @ 0x51
  1687  000052                     	ds	1
  1688  000053                     sqrtf@__xc8_float_word:
  1689                           	opt callstack 0
  1690                           
  1691                           ; 4 bytes @ 0x52
  1692  000053                     	ds	1
  1693  000054                     ?_vfprintf:
  1694                           	opt callstack 0
  1695  000054                     vfprintf@fp:
  1696                           	opt callstack 0
  1697                           
  1698                           ; 2 bytes @ 0x53
  1699  000054                     	ds	2
  1700  000056                     vfprintf@fmt:
  1701                           	opt callstack 0
  1702                           
  1703                           ; 2 bytes @ 0x55
  1704  000056                     	ds	1
  1705  000057                     sqrtf@q:
  1706                           	opt callstack 0
  1707                           
  1708                           ; 4 bytes @ 0x56
  1709  000057                     	ds	1
  1710  000058                     vfprintf@ap:
  1711                           	opt callstack 0
  1712                           
  1713                           ; 2 bytes @ 0x57
  1714  000058                     	ds	2
  1715  00005A                     vfprintf@cfmt:
  1716                           	opt callstack 0
  1717                           
  1718                           ; 2 bytes @ 0x59
  1719  00005A                     	ds	1
  1720  00005B                     sqrtf@t:
  1721                           	opt callstack 0
  1722                           
  1723                           ; 4 bytes @ 0x5A
  1724  00005B                     	ds	4
  1725  00005F                     sqrtf@z:
  1726                           	opt callstack 0
  1727                           
  1728                           ; 4 bytes @ 0x5E
  1729  00005F                     	ds	4
  1730  000063                     sqrtf@m:
  1731                           	opt callstack 0
  1732                           
  1733                           ; 4 bytes @ 0x62
  1734  000063                     	ds	4
  1735  000067                     sqrtf@r:
  1736                           	opt callstack 0
  1737                           
  1738                           ; 4 bytes @ 0x66
  1739  000067                     	ds	4
  1740  00006B                     sqrtf@ix:
  1741                           	opt callstack 0
  1742                           
  1743                           ; 4 bytes @ 0x6A
  1744  00006B                     	ds	4
  1745  00006F                     ?_powf:
  1746                           	opt callstack 0
  1747  00006F                     powf@x:
  1748                           	opt callstack 0
  1749                           
  1750                           ; 4 bytes @ 0x6E
  1751  00006F                     	ds	4
  1752  000073                     powf@y:
  1753                           	opt callstack 0
  1754                           
  1755                           ; 4 bytes @ 0x72
  1756  000073                     	ds	4
  1757  000077                     ?___fltol:
  1758                           	opt callstack 0
  1759  000077                     ___fltol@f1:
  1760                           	opt callstack 0
  1761                           
  1762                           ; 4 bytes @ 0x76
  1763  000077                     	ds	4
  1764  00007B                     ??___fltol:
  1765                           
  1766                           ; 1 bytes @ 0x7A
  1767  00007B                     	ds	4
  1768  00007F                     
  1769                           ; 1 bytes @ 0x7E
  1770 ;;
  1771 ;;Main: autosize = 0, tempsize = 0, incstack = 0, save=0
  1772 ;;
  1773 ;; *************** function _main *****************
  1774 ;; Defined at:
  1775 ;;		line 25 in file "main.c"
  1776 ;; Parameters:    Size  Location     Type
  1777 ;;		None
  1778 ;; Auto vars:     Size  Location     Type
  1779 ;;		None
  1780 ;; Return value:  Size  Location     Type
  1781 ;;                  1    wreg      void 
  1782 ;; Registers used:
  1783 ;;		wreg, fsr1l, fsr1h, status,2, status,0, tblptrl, tblptrh, tblptru, prodl, prodh, cstack
  1784 ;; Tracked objects:
  1785 ;;		On entry : 0/0
  1786 ;;		On exit  : 0/0
  1787 ;;		Unchanged: 0/0
  1788 ;; Data sizes:     COMRAM   BANK0   BANK1   BANK2   BANK3   BANK4   BANK5
  1789 ;;      Params:         0       0       0       0       0       0       0
  1790 ;;      Locals:         0       0       0       0       0       0       0
  1791 ;;      Temps:          0       0       0       0       0       0       0
  1792 ;;      Totals:         0       0       0       0       0       0       0
  1793 ;;Total ram usage:        0 bytes
  1794 ;; Hardware stack levels required when called:   13
  1795 ;; This function calls:
  1796 ;;		_SYSTEM_Initialize
  1797 ;; This function is called by:
  1798 ;;		Startup code after reset
  1799 ;; This function uses a non-reentrant model
  1800 ;;
  1801                           
  1802                           	psect	text0
  1803  006D2E                     __ptext0:
  1804                           	opt callstack 0
  1805  006D2E                     _main:
  1806                           	opt callstack 18
  1807                           
  1808                           ;main.c: 26:     SYSTEM_Initialize();
  1809                           
  1810                           ;incstack = 0
  1811  006D2E  EC38  F036         	call	_SYSTEM_Initialize	;wreg free
  1812  006D32                     l236:
  1813  006D32  D7FF               	goto	l236
  1814  006D34                     __end_of_main:
  1815                           	opt callstack 0
  1816                           
  1817 ;; *************** function _SYSTEM_Initialize *****************
  1818 ;; Defined at:
  1819 ;;		line 88 in file "setting_hardaware/setting.c"
  1820 ;; Parameters:    Size  Location     Type
  1821 ;;		None
  1822 ;; Auto vars:     Size  Location     Type
  1823 ;;		None
  1824 ;; Return value:  Size  Location     Type
  1825 ;;                  1    wreg      void 
  1826 ;; Registers used:
  1827 ;;		wreg, fsr1l, fsr1h, status,2, status,0, tblptrl, tblptrh, tblptru, prodl, prodh, cstack
  1828 ;; Tracked objects:
  1829 ;;		On entry : 0/0
  1830 ;;		On exit  : 0/0
  1831 ;;		Unchanged: 0/0
  1832 ;; Data sizes:     COMRAM   BANK0   BANK1   BANK2   BANK3   BANK4   BANK5
  1833 ;;      Params:         0       0       0       0       0       0       0
  1834 ;;      Locals:         0       0       0       0       0       0       0
  1835 ;;      Temps:          0       0       0       0       0       0       0
  1836 ;;      Totals:         0       0       0       0       0       0       0
  1837 ;;Total ram usage:        0 bytes
  1838 ;; Hardware stack levels used:    1
  1839 ;; Hardware stack levels required when called:   12
  1840 ;; This function calls:
  1841 ;;		_ADC_Initialize
  1842 ;;		_INTERRUPT_Initialize
  1843 ;;		_LCD_init
  1844 ;;		_OSCILLATOR_Initialize
  1845 ;;		_PIN_MANAGER_Initialize
  1846 ;;		_TMR1_Initialize
  1847 ;;		_buzzer_init
  1848 ;; This function is called by:
  1849 ;;		_main
  1850 ;; This function uses a non-reentrant model
  1851 ;;
  1852                           
  1853                           	psect	text1
  1854  006C70                     __ptext1:
  1855                           	opt callstack 0
  1856  006C70                     _SYSTEM_Initialize:
  1857                           	opt callstack 18
  1858                           
  1859                           ;setting_hardaware/setting.c: 89:     INTERRUPT_Initialize();
  1860                           
  1861                           ;incstack = 0
  1862  006C70  EC93  F036         	call	_INTERRUPT_Initialize	;wreg free
  1863                           
  1864                           ;setting_hardaware/setting.c: 90:     PIN_MANAGER_Initialize();
  1865  006C74  EC61  F036         	call	_PIN_MANAGER_Initialize	;wreg free
  1866                           
  1867                           ;setting_hardaware/setting.c: 91:     OSCILLATOR_Initialize();
  1868  006C78  EC8F  F036         	call	_OSCILLATOR_Initialize	;wreg free
  1869                           
  1870                           ;setting_hardaware/setting.c: 92:     buzzer_init();
  1871  006C7C  EC9A  F036         	call	_buzzer_init	;wreg free
  1872                           
  1873                           ;setting_hardaware/setting.c: 93:     ADC_Initialize();
  1874  006C80  EC51  F02C         	call	_ADC_Initialize	;wreg free
  1875                           
  1876                           ;setting_hardaware/setting.c: 94:     LCD_init();
  1877  006C84  ECAE  F033         	call	_LCD_init	;wreg free
  1878                           
  1879                           ;setting_hardaware/setting.c: 95:     TMR1_Initialize();
  1880  006C88  EC47  F036         	call	_TMR1_Initialize	;wreg free
  1881  006C8C  0012               	return		;funcret
  1882  006C8E                     __end_of_SYSTEM_Initialize:
  1883                           	opt callstack 0
  1884                           
  1885 ;; *************** function _buzzer_init *****************
  1886 ;; Defined at:
  1887 ;;		line 15 in file "setting_hardaware/buzzer.c"
  1888 ;; Parameters:    Size  Location     Type
  1889 ;;		None
  1890 ;; Auto vars:     Size  Location     Type
  1891 ;;		None
  1892 ;; Return value:  Size  Location     Type
  1893 ;;                  1    wreg      void 
  1894 ;; Registers used:
  1895 ;;		wreg, cstack
  1896 ;; Tracked objects:
  1897 ;;		On entry : 0/0
  1898 ;;		On exit  : 0/0
  1899 ;;		Unchanged: 0/0
  1900 ;; Data sizes:     COMRAM   BANK0   BANK1   BANK2   BANK3   BANK4   BANK5
  1901 ;;      Params:         0       0       0       0       0       0       0
  1902 ;;      Locals:         0       0       0       0       0       0       0
  1903 ;;      Temps:          0       0       0       0       0       0       0
  1904 ;;      Totals:         0       0       0       0       0       0       0
  1905 ;;Total ram usage:        0 bytes
  1906 ;; Hardware stack levels used:    1
  1907 ;; Hardware stack levels required when called:   10
  1908 ;; This function calls:
  1909 ;;		_speak
  1910 ;; This function is called by:
  1911 ;;		_SYSTEM_Initialize
  1912 ;; This function uses a non-reentrant model
  1913 ;;
  1914                           
  1915                           	psect	text2
  1916  006D34                     __ptext2:
  1917                           	opt callstack 0
  1918  006D34                     _buzzer_init:
  1919                           	opt callstack 19
  1920                           
  1921                           ;setting_hardaware/buzzer.c: 16:     speak();
  1922                           
  1923                           ;incstack = 0
  1924  006D34  EC55  F036         	call	_speak	;wreg free
  1925  006D38  0012               	return		;funcret
  1926  006D3A                     __end_of_buzzer_init:
  1927                           	opt callstack 0
  1928                           
  1929 ;; *************** function _speak *****************
  1930 ;; Defined at:
  1931 ;;		line 6 in file "setting_hardaware/buzzer.c"
  1932 ;; Parameters:    Size  Location     Type
  1933 ;;		None
  1934 ;; Auto vars:     Size  Location     Type
  1935 ;;		None
  1936 ;; Return value:  Size  Location     Type
  1937 ;;                  1    wreg      void 
  1938 ;; Registers used:
  1939 ;;		wreg
  1940 ;; Tracked objects:
  1941 ;;		On entry : 0/0
  1942 ;;		On exit  : 0/0
  1943 ;;		Unchanged: 0/0
  1944 ;; Data sizes:     COMRAM   BANK0   BANK1   BANK2   BANK3   BANK4   BANK5
  1945 ;;      Params:         0       0       0       0       0       0       0
  1946 ;;      Locals:         0       0       0       0       0       0       0
  1947 ;;      Temps:          0       0       0       1       0       0       0
  1948 ;;      Totals:         0       0       0       1       0       0       0
  1949 ;;Total ram usage:        1 bytes
  1950 ;; Hardware stack levels used:    1
  1951 ;; Hardware stack levels required when called:    9
  1952 ;; This function calls:
  1953 ;;		Nothing
  1954 ;; This function is called by:
  1955 ;;		_buzzer_init
  1956 ;; This function uses a non-reentrant model
  1957 ;;
  1958                           
  1959                           	psect	text3
  1960  006CAA                     __ptext3:
  1961                           	opt callstack 0
  1962  006CAA                     _speak:
  1963                           	opt callstack 19
  1964                           
  1965                           ;setting_hardaware/buzzer.c: 7:     LATBbits.LATB0 = 1;
  1966                           
  1967                           ;incstack = 0
  1968  006CAA  808A               	bsf	138,0,c	;volatile
  1969                           
  1970                           ;setting_hardaware/buzzer.c: 8:     _delay((unsigned long)((40)*(4000000/4000.0)));
  1971  006CAC  0E34               	movlw	52
  1972  006CAE  0102               	movlb	2	; () banked
  1973  006CB0  6F00               	movwf	??_speak& (0+255),b
  1974  006CB2  0EF1               	movlw	241
  1975  006CB4                     u7557:
  1976  006CB4  2EE8               	decfsz	wreg,f,c
  1977  006CB6  D7FE               	bra	u7557
  1978  006CB8  2F00               	decfsz	??_speak& (0+255),f,b
  1979  006CBA  D7FC               	bra	u7557
  1980  006CBC  D000               	nop2	
  1981                           
  1982                           ;setting_hardaware/buzzer.c: 9:     LATBbits.LATB0 = 0;
  1983  006CBE  908A               	bcf	138,0,c	;volatile
  1984  006CC0  0012               	return		;funcret
  1985  006CC2                     __end_of_speak:
  1986                           	opt callstack 0
  1987                           
  1988 ;; *************** function _TMR1_Initialize *****************
  1989 ;; Defined at:
  1990 ;;		line 66 in file "setting_hardaware/setting.c"
  1991 ;; Parameters:    Size  Location     Type
  1992 ;;		None
  1993 ;; Auto vars:     Size  Location     Type
  1994 ;;		None
  1995 ;; Return value:  Size  Location     Type
  1996 ;;                  1    wreg      void 
  1997 ;; Registers used:
  1998 ;;		wreg, status,2
  1999 ;; Tracked objects:
  2000 ;;		On entry : 0/0
  2001 ;;		On exit  : 0/0
  2002 ;;		Unchanged: 0/0
  2003 ;; Data sizes:     COMRAM   BANK0   BANK1   BANK2   BANK3   BANK4   BANK5
  2004 ;;      Params:         0       0       0       0       0       0       0
  2005 ;;      Locals:         0       0       0       0       0       0       0
  2006 ;;      Temps:          0       0       0       0       0       0       0
  2007 ;;      Totals:         0       0       0       0       0       0       0
  2008 ;;Total ram usage:        0 bytes
  2009 ;; Hardware stack levels used:    1
  2010 ;; Hardware stack levels required when called:    9
  2011 ;; This function calls:
  2012 ;;		Nothing
  2013 ;; This function is called by:
  2014 ;;		_SYSTEM_Initialize
  2015 ;; This function uses a non-reentrant model
  2016 ;;
  2017                           
  2018                           	psect	text4
  2019  006C8E                     __ptext4:
  2020                           	opt callstack 0
  2021  006C8E                     _TMR1_Initialize:
  2022                           	opt callstack 20
  2023                           
  2024                           ;setting_hardaware/setting.c: 67:     T1CONbits.RD16 = 1;
  2025                           
  2026                           ;incstack = 0
  2027  006C8E  8ECD               	bsf	205,7,c	;volatile
  2028                           
  2029                           ;setting_hardaware/setting.c: 68:     T1CONbits.T1CKPS = 2;
  2030  006C90  50CD               	movf	205,w,c	;volatile
  2031  006C92  0BCF               	andlw	-49
  2032  006C94  0920               	iorlw	32
  2033  006C96  6ECD               	movwf	205,c	;volatile
  2034                           
  2035                           ;setting_hardaware/setting.c: 69:     T1CONbits.TMR1ON = 1;
  2036  006C98  80CD               	bsf	205,0,c	;volatile
  2037                           
  2038                           ;setting_hardaware/setting.c: 70:     PIR1bits.TMR1IF = 0;
  2039  006C9A  909E               	bcf	158,0,c	;volatile
  2040                           
  2041                           ;setting_hardaware/setting.c: 71:     PIE1bits.TMR1IE = 1;
  2042  006C9C  809D               	bsf	157,0,c	;volatile
  2043                           
  2044                           ;setting_hardaware/setting.c: 72:     IPR1bits.TMR1IP = 1;
  2045  006C9E  809F               	bsf	159,0,c	;volatile
  2046                           
  2047                           ;setting_hardaware/setting.c: 73:     TMR1 = timer_val;
  2048  006CA0  C1FB  FFCE         	movff	_timer_val,4046	;volatile
  2049  006CA4  C1FC  FFCF         	movff	_timer_val+1,4047	;volatile
  2050  006CA8  0012               	return		;funcret
  2051  006CAA                     __end_of_TMR1_Initialize:
  2052                           	opt callstack 0
  2053                           
  2054 ;; *************** function _PIN_MANAGER_Initialize *****************
  2055 ;; Defined at:
  2056 ;;		line 3 in file "setting_hardaware/pin_manager.c"
  2057 ;; Parameters:    Size  Location     Type
  2058 ;;		None
  2059 ;; Auto vars:     Size  Location     Type
  2060 ;;		None
  2061 ;; Return value:  Size  Location     Type
  2062 ;;                  1    wreg      void 
  2063 ;; Registers used:
  2064 ;;		wreg, status,2
  2065 ;; Tracked objects:
  2066 ;;		On entry : 0/0
  2067 ;;		On exit  : 0/0
  2068 ;;		Unchanged: 0/0
  2069 ;; Data sizes:     COMRAM   BANK0   BANK1   BANK2   BANK3   BANK4   BANK5
  2070 ;;      Params:         0       0       0       0       0       0       0
  2071 ;;      Locals:         0       0       0       0       0       0       0
  2072 ;;      Temps:          0       0       0       0       0       0       0
  2073 ;;      Totals:         0       0       0       0       0       0       0
  2074 ;;Total ram usage:        0 bytes
  2075 ;; Hardware stack levels used:    1
  2076 ;; Hardware stack levels required when called:    9
  2077 ;; This function calls:
  2078 ;;		Nothing
  2079 ;; This function is called by:
  2080 ;;		_SYSTEM_Initialize
  2081 ;; This function uses a non-reentrant model
  2082 ;;
  2083                           
  2084                           	psect	text5
  2085  006CC2                     __ptext5:
  2086                           	opt callstack 0
  2087  006CC2                     _PIN_MANAGER_Initialize:
  2088                           	opt callstack 20
  2089                           
  2090                           ;setting_hardaware/pin_manager.c: 4:     ADCON1 = 0x0D;
  2091                           
  2092                           ;incstack = 0
  2093  006CC2  0E0D               	movlw	13
  2094  006CC4  6EC1               	movwf	193,c	;volatile
  2095                           
  2096                           ;setting_hardaware/pin_manager.c: 7:     TRISC = 0X00;
  2097  006CC6  0E00               	movlw	0
  2098  006CC8  6E94               	movwf	148,c	;volatile
  2099                           
  2100                           ;setting_hardaware/pin_manager.c: 8:     TRISD = 0X00;
  2101  006CCA  0E00               	movlw	0
  2102  006CCC  6E95               	movwf	149,c	;volatile
  2103                           
  2104                           ;setting_hardaware/pin_manager.c: 11:     TRISBbits.RB0 = 0;
  2105  006CCE  9093               	bcf	147,0,c	;volatile
  2106                           
  2107                           ;setting_hardaware/pin_manager.c: 14:     TRISA = 0b00000101;
  2108  006CD0  0E05               	movlw	5
  2109  006CD2  6E92               	movwf	146,c	;volatile
  2110  006CD4  0012               	return		;funcret
  2111  006CD6                     __end_of_PIN_MANAGER_Initialize:
  2112                           	opt callstack 0
  2113                           
  2114 ;; *************** function _OSCILLATOR_Initialize *****************
  2115 ;; Defined at:
  2116 ;;		line 79 in file "setting_hardaware/setting.c"
  2117 ;; Parameters:    Size  Location     Type
  2118 ;;		None
  2119 ;; Auto vars:     Size  Location     Type
  2120 ;;		None
  2121 ;; Return value:  Size  Location     Type
  2122 ;;                  1    wreg      void 
  2123 ;; Registers used:
  2124 ;;		None
  2125 ;; Tracked objects:
  2126 ;;		On entry : 0/0
  2127 ;;		On exit  : 0/0
  2128 ;;		Unchanged: 0/0
  2129 ;; Data sizes:     COMRAM   BANK0   BANK1   BANK2   BANK3   BANK4   BANK5
  2130 ;;      Params:         0       0       0       0       0       0       0
  2131 ;;      Locals:         0       0       0       0       0       0       0
  2132 ;;      Temps:          0       0       0       0       0       0       0
  2133 ;;      Totals:         0       0       0       0       0       0       0
  2134 ;;Total ram usage:        0 bytes
  2135 ;; Hardware stack levels used:    1
  2136 ;; Hardware stack levels required when called:    9
  2137 ;; This function calls:
  2138 ;;		Nothing
  2139 ;; This function is called by:
  2140 ;;		_SYSTEM_Initialize
  2141 ;; This function uses a non-reentrant model
  2142 ;;
  2143                           
  2144                           	psect	text6
  2145  006D1E                     __ptext6:
  2146                           	opt callstack 0
  2147  006D1E                     _OSCILLATOR_Initialize:
  2148                           	opt callstack 20
  2149                           
  2150                           ;setting_hardaware/setting.c: 80:     IRCF2 = 1;
  2151                           
  2152                           ;incstack = 0
  2153  006D1E  8CD3               	bsf	4051,6,c	;volatile
  2154                           
  2155                           ;setting_hardaware/setting.c: 81:     IRCF1 = 1;
  2156  006D20  8AD3               	bsf	4051,5,c	;volatile
  2157                           
  2158                           ;setting_hardaware/setting.c: 82:     IRCF0 = 0;
  2159  006D22  98D3               	bcf	4051,4,c	;volatile
  2160  006D24  0012               	return		;funcret
  2161  006D26                     __end_of_OSCILLATOR_Initialize:
  2162                           	opt callstack 0
  2163                           
  2164 ;; *************** function _LCD_init *****************
  2165 ;; Defined at:
  2166 ;;		line 64 in file "setting_hardaware/LCD.c"
  2167 ;; Parameters:    Size  Location     Type
  2168 ;;		None
  2169 ;; Auto vars:     Size  Location     Type
  2170 ;;		None
  2171 ;; Return value:  Size  Location     Type
  2172 ;;                  1    wreg      void 
  2173 ;; Registers used:
  2174 ;;		wreg, fsr1l, fsr1h, status,2, status,0, tblptrl, tblptrh, tblptru, cstack
  2175 ;; Tracked objects:
  2176 ;;		On entry : 0/0
  2177 ;;		On exit  : 0/0
  2178 ;;		Unchanged: 0/0
  2179 ;; Data sizes:     COMRAM   BANK0   BANK1   BANK2   BANK3   BANK4   BANK5
  2180 ;;      Params:         0       0       0       0       0       0       0
  2181 ;;      Locals:         0       0       0       0       0       0       0
  2182 ;;      Temps:          0       0       0       1       0       0       0
  2183 ;;      Totals:         0       0       0       1       0       0       0
  2184 ;;Total ram usage:        1 bytes
  2185 ;; Hardware stack levels used:    1
  2186 ;; Hardware stack levels required when called:   11
  2187 ;; This function calls:
  2188 ;;		_Cmd
  2189 ;;		_LCD_clear
  2190 ;;		_Send2Lcd
  2191 ;; This function is called by:
  2192 ;;		_SYSTEM_Initialize
  2193 ;; This function uses a non-reentrant model
  2194 ;;
  2195                           
  2196                           	psect	text7
  2197  00675C                     __ptext7:
  2198                           	opt callstack 0
  2199  00675C                     _LCD_init:
  2200                           	opt callstack 18
  2201                           
  2202                           ;setting_hardaware/LCD.c: 66:     _delay((unsigned long)((15)*(4000000/4000.0)));
  2203                           
  2204                           ;incstack = 0
  2205  00675C  0E14               	movlw	20
  2206  00675E  0102               	movlb	2	; () banked
  2207  006760  6F07               	movwf	??_LCD_init& (0+255),b
  2208  006762  0E79               	movlw	121
  2209  006764                     u7567:
  2210  006764  2EE8               	decfsz	wreg,f,c
  2211  006766  D7FE               	bra	u7567
  2212  006768  2F07               	decfsz	??_LCD_init& (0+255),f,b
  2213  00676A  D7FC               	bra	u7567
  2214  00676C  D000               	nop2	
  2215                           
  2216                           ;setting_hardaware/LCD.c: 69:     Cmd(0X38);
  2217  00676E  0E00               	movlw	0
  2218  006770  0102               	movlb	2	; () banked
  2219  006772  6F01               	movwf	(Cmd@Value+1)& (0+255),b
  2220  006774  0E38               	movlw	56
  2221  006776  6F00               	movwf	Cmd@Value& (0+255),b
  2222  006778  EC67  F035         	call	_Cmd	;wreg free
  2223                           
  2224                           ;setting_hardaware/LCD.c: 70:     _delay((unsigned long)((125)*(4000000/4000000.0)));
  2225  00677C  0E29               	movlw	41
  2226  00677E                     u7577:
  2227  00677E  2EE8               	decfsz	wreg,f,c
  2228  006780  D7FE               	bra	u7577
  2229  006782  D000               	nop2	
  2230                           
  2231                           ;setting_hardaware/LCD.c: 72:     LCD_clear();
  2232  006784  EC75  F036         	call	_LCD_clear	;wreg free
  2233                           
  2234                           ;setting_hardaware/LCD.c: 73:     Cmd(0X06);
  2235  006788  0E00               	movlw	0
  2236  00678A  0102               	movlb	2	; () banked
  2237  00678C  6F01               	movwf	(Cmd@Value+1)& (0+255),b
  2238  00678E  0E06               	movlw	6
  2239  006790  6F00               	movwf	Cmd@Value& (0+255),b
  2240  006792  EC67  F035         	call	_Cmd	;wreg free
  2241                           
  2242                           ;setting_hardaware/LCD.c: 74:     Cmd(0X0C);
  2243  006796  0E00               	movlw	0
  2244  006798  0102               	movlb	2	; () banked
  2245  00679A  6F01               	movwf	(Cmd@Value+1)& (0+255),b
  2246  00679C  0E0C               	movlw	12
  2247  00679E  6F00               	movwf	Cmd@Value& (0+255),b
  2248  0067A0  EC67  F035         	call	_Cmd	;wreg free
  2249                           
  2250                           ;setting_hardaware/LCD.c: 75:     _delay((unsigned long)((125)*(4000000/4000000.0)));
  2251  0067A4  0E29               	movlw	41
  2252  0067A6                     u7587:
  2253  0067A6  2EE8               	decfsz	wreg,f,c
  2254  0067A8  D7FE               	bra	u7587
  2255  0067AA  D000               	nop2	
  2256                           
  2257                           ;setting_hardaware/LCD.c: 77:     Send2Lcd(0x80, "monitor");
  2258  0067AC  0EB9               	movlw	low STR_1
  2259  0067AE  0102               	movlb	2	; () banked
  2260  0067B0  6F03               	movwf	Send2Lcd@Lcd& (0+255),b
  2261  0067B2  0E06               	movlw	high STR_1
  2262  0067B4  6F04               	movwf	(Send2Lcd@Lcd+1)& (0+255),b
  2263  0067B6  0E80               	movlw	128
  2264  0067B8  ECE7  F033         	call	_Send2Lcd
  2265                           
  2266                           ;setting_hardaware/LCD.c: 78:     Send2Lcd(0xc0, "start");
  2267  0067BC  0EC1               	movlw	low STR_2
  2268  0067BE  0102               	movlb	2	; () banked
  2269  0067C0  6F03               	movwf	Send2Lcd@Lcd& (0+255),b
  2270  0067C2  0E06               	movlw	high STR_2
  2271  0067C4  6F04               	movwf	(Send2Lcd@Lcd+1)& (0+255),b
  2272  0067C6  0EC0               	movlw	192
  2273  0067C8  ECE7  F033         	call	_Send2Lcd
  2274  0067CC  0012               	return		;funcret
  2275  0067CE                     __end_of_LCD_init:
  2276                           	opt callstack 0
  2277                           
  2278 ;; *************** function _Send2Lcd *****************
  2279 ;; Defined at:
  2280 ;;		line 45 in file "setting_hardaware/LCD.c"
  2281 ;; Parameters:    Size  Location     Type
  2282 ;;  Adr             1    wreg     const unsigned char 
  2283 ;;  Lcd             2    3[BANK2 ] PTR const unsigned char 
  2284 ;;		 -> r(100), STR_2(6), STR_1(8), 
  2285 ;; Auto vars:     Size  Location     Type
  2286 ;;  Adr             1    6[BANK2 ] const unsigned char 
  2287 ;; Return value:  Size  Location     Type
  2288 ;;                  1    wreg      void 
  2289 ;; Registers used:
  2290 ;;		wreg, fsr1l, fsr1h, status,2, status,0, tblptrl, tblptrh, tblptru, cstack
  2291 ;; Tracked objects:
  2292 ;;		On entry : 0/0
  2293 ;;		On exit  : 0/0
  2294 ;;		Unchanged: 0/0
  2295 ;; Data sizes:     COMRAM   BANK0   BANK1   BANK2   BANK3   BANK4   BANK5
  2296 ;;      Params:         0       0       0       2       0       0       0
  2297 ;;      Locals:         0       0       0       1       0       0       0
  2298 ;;      Temps:          0       0       0       1       0       0       0
  2299 ;;      Totals:         0       0       0       4       0       0       0
  2300 ;;Total ram usage:        4 bytes
  2301 ;; Hardware stack levels used:    1
  2302 ;; Hardware stack levels required when called:   10
  2303 ;; This function calls:
  2304 ;;		_Cmd
  2305 ;;		_Data
  2306 ;; This function is called by:
  2307 ;;		_LCD_init
  2308 ;; This function uses a non-reentrant model
  2309 ;;
  2310                           
  2311                           	psect	text8
  2312  0067CE                     __ptext8:
  2313                           	opt callstack 0
  2314  0067CE                     _Send2Lcd:
  2315                           	opt callstack 18
  2316                           
  2317                           ;incstack = 0
  2318                           ;Send2Lcd@Adr stored from wreg
  2319  0067CE  0102               	movlb	2	; () banked
  2320  0067D0  6F06               	movwf	Send2Lcd@Adr& (0+255),b
  2321                           
  2322                           ;setting_hardaware/LCD.c: 46:     Cmd(Adr);
  2323  0067D2  C206  F200         	movff	Send2Lcd@Adr,Cmd@Value
  2324  0067D6  0102               	movlb	2	; () banked
  2325  0067D8  6B01               	clrf	(Cmd@Value+1)& (0+255),b
  2326  0067DA  EC67  F035         	call	_Cmd	;wreg free
  2327                           
  2328                           ;setting_hardaware/LCD.c: 47:     while (*Lcd != '\0')
  2329  0067DE  D01A               	goto	l5440
  2330  0067E0                     l5436:
  2331                           
  2332                           ;setting_hardaware/LCD.c: 48:     {;setting_hardaware/LCD.c: 49:         Data(*Lcd);
  2333  0067E0  C203  FFF6         	movff	Send2Lcd@Lcd,tblptrl
  2334  0067E4  C204  FFF7         	movff	Send2Lcd@Lcd+1,tblptrh
  2335  0067E8  6AF8               	clrf	tblptru,c
  2336  0067EA  0E05               	movlw	(high __ramtop+-1)
  2337  0067EC  64F7               	cpfsgt	tblptrh,c
  2338  0067EE  D003               	bra	u6197
  2339  0067F0  0008               	tblrd		*
  2340  0067F2  50F5               	movf	tablat,w,c
  2341  0067F4  D005               	bra	u6190
  2342  0067F6                     u6197:
  2343  0067F6  CFF6 FFE1          	movff	tblptrl,fsr1l
  2344  0067FA  CFF7 FFE2          	movff	tblptrh,fsr1h
  2345  0067FE  50E7               	movf	indf1,w,c
  2346  006800                     u6190:
  2347  006800  0102               	movlb	2	; () banked
  2348  006802  6F05               	movwf	??_Send2Lcd& (0+255),b
  2349  006804  5105               	movf	??_Send2Lcd& (0+255),w,b
  2350  006806  6F00               	movwf	Data@Value& (0+255),b
  2351  006808  6B01               	clrf	(Data@Value+1)& (0+255),b
  2352  00680A  EC4F  F035         	call	_Data	;wreg free
  2353                           
  2354                           ;setting_hardaware/LCD.c: 50:         Lcd++;
  2355  00680E  0102               	movlb	2	; () banked
  2356  006810  4B03               	infsnz	Send2Lcd@Lcd& (0+255),f,b
  2357  006812  2B04               	incf	(Send2Lcd@Lcd+1)& (0+255),f,b
  2358  006814                     l5440:
  2359                           
  2360                           ;setting_hardaware/LCD.c: 47:     while (*Lcd != '\0')
  2361  006814  C203  FFF6         	movff	Send2Lcd@Lcd,tblptrl
  2362  006818  C204  FFF7         	movff	Send2Lcd@Lcd+1,tblptrh
  2363  00681C  6AF8               	clrf	tblptru,c
  2364  00681E  0E05               	movlw	(high __ramtop+-1)
  2365  006820  64F7               	cpfsgt	tblptrh,c
  2366  006822  D003               	bra	u6207
  2367  006824  0008               	tblrd		*
  2368  006826  50F5               	movf	tablat,w,c
  2369  006828  D005               	bra	u6200
  2370  00682A                     u6207:
  2371  00682A  CFF6 FFE1          	movff	tblptrl,fsr1l
  2372  00682E  CFF7 FFE2          	movff	tblptrh,fsr1h
  2373  006832  50E7               	movf	indf1,w,c
  2374  006834                     u6200:
  2375  006834  0900               	iorlw	0
  2376  006836  B4D8               	btfsc	status,2,c
  2377  006838  0012               	return	
  2378  00683A  D7D2               	goto	l5436
  2379  00683C                     __end_of_Send2Lcd:
  2380                           	opt callstack 0
  2381                           
  2382 ;; *************** function _Data *****************
  2383 ;; Defined at:
  2384 ;;		line 26 in file "setting_hardaware/LCD.c"
  2385 ;; Parameters:    Size  Location     Type
  2386 ;;  Value           2    0[BANK2 ] int 
  2387 ;; Auto vars:     Size  Location     Type
  2388 ;;		None
  2389 ;; Return value:  Size  Location     Type
  2390 ;;                  1    wreg      void 
  2391 ;; Registers used:
  2392 ;;		wreg
  2393 ;; Tracked objects:
  2394 ;;		On entry : 0/0
  2395 ;;		On exit  : 0/0
  2396 ;;		Unchanged: 0/0
  2397 ;; Data sizes:     COMRAM   BANK0   BANK1   BANK2   BANK3   BANK4   BANK5
  2398 ;;      Params:         0       0       0       2       0       0       0
  2399 ;;      Locals:         0       0       0       0       0       0       0
  2400 ;;      Temps:          0       0       0       1       0       0       0
  2401 ;;      Totals:         0       0       0       3       0       0       0
  2402 ;;Total ram usage:        3 bytes
  2403 ;; Hardware stack levels used:    1
  2404 ;; Hardware stack levels required when called:    9
  2405 ;; This function calls:
  2406 ;;		Nothing
  2407 ;; This function is called by:
  2408 ;;		_Send2Lcd
  2409 ;; This function uses a non-reentrant model
  2410 ;;
  2411                           
  2412                           	psect	text9
  2413  006A9E                     __ptext9:
  2414                           	opt callstack 0
  2415  006A9E                     _Data:
  2416                           	opt callstack 18
  2417                           
  2418                           ;setting_hardaware/LCD.c: 27:     LATD = Value;
  2419                           
  2420                           ;incstack = 0
  2421  006A9E  C200  FF8C         	movff	Data@Value,3980	;volatile
  2422                           
  2423                           ;setting_hardaware/LCD.c: 28:     LATCbits.LC4 = 1;
  2424  006AA2  888B               	bsf	139,4,c	;volatile
  2425                           
  2426                           ;setting_hardaware/LCD.c: 31:     LATCbits.LC6 = 0;
  2427  006AA4  9C8B               	bcf	139,6,c	;volatile
  2428                           
  2429                           ;setting_hardaware/LCD.c: 32:     _delay((unsigned long)((25)*(4000000/4000000.0)));
  2430  006AA6  0E08               	movlw	8
  2431  006AA8                     u7597:
  2432  006AA8  2EE8               	decfsz	wreg,f,c
  2433  006AAA  D7FE               	bra	u7597
  2434  006AAC  F000               	nop	
  2435                           
  2436                           ;setting_hardaware/LCD.c: 33:     LATCbits.LC6 = 1;
  2437  006AAE  8C8B               	bsf	139,6,c	;volatile
  2438                           
  2439                           ;setting_hardaware/LCD.c: 34:     _delay((unsigned long)((25)*(4000000/4000000.0)));
  2440  006AB0  0E08               	movlw	8
  2441  006AB2                     u7607:
  2442  006AB2  2EE8               	decfsz	wreg,f,c
  2443  006AB4  D7FE               	bra	u7607
  2444  006AB6  F000               	nop	
  2445                           
  2446                           ;setting_hardaware/LCD.c: 35:     LATCbits.LC6 = 0;
  2447  006AB8  9C8B               	bcf	139,6,c	;volatile
  2448                           
  2449                           ;setting_hardaware/LCD.c: 36:     _delay((unsigned long)((3)*(4000000/4000.0)));
  2450  006ABA  0E04               	movlw	4
  2451  006ABC  0102               	movlb	2	; () banked
  2452  006ABE  6F02               	movwf	??_Data& (0+255),b
  2453  006AC0  0EE4               	movlw	228
  2454  006AC2                     u7617:
  2455  006AC2  2EE8               	decfsz	wreg,f,c
  2456  006AC4  D7FE               	bra	u7617
  2457  006AC6  2F02               	decfsz	??_Data& (0+255),f,b
  2458  006AC8  D7FC               	bra	u7617
  2459  006ACA  F000               	nop	
  2460  006ACC  0012               	return		;funcret
  2461  006ACE                     __end_of_Data:
  2462                           	opt callstack 0
  2463                           
  2464 ;; *************** function _LCD_clear *****************
  2465 ;; Defined at:
  2466 ;;		line 57 in file "setting_hardaware/LCD.c"
  2467 ;; Parameters:    Size  Location     Type
  2468 ;;		None
  2469 ;; Auto vars:     Size  Location     Type
  2470 ;;		None
  2471 ;; Return value:  Size  Location     Type
  2472 ;;                  1    wreg      void 
  2473 ;; Registers used:
  2474 ;;		wreg, status,2, cstack
  2475 ;; Tracked objects:
  2476 ;;		On entry : 0/0
  2477 ;;		On exit  : 0/0
  2478 ;;		Unchanged: 0/0
  2479 ;; Data sizes:     COMRAM   BANK0   BANK1   BANK2   BANK3   BANK4   BANK5
  2480 ;;      Params:         0       0       0       0       0       0       0
  2481 ;;      Locals:         0       0       0       0       0       0       0
  2482 ;;      Temps:          0       0       0       0       0       0       0
  2483 ;;      Totals:         0       0       0       0       0       0       0
  2484 ;;Total ram usage:        0 bytes
  2485 ;; Hardware stack levels used:    1
  2486 ;; Hardware stack levels required when called:   10
  2487 ;; This function calls:
  2488 ;;		_Cmd
  2489 ;; This function is called by:
  2490 ;;		_LCD_init
  2491 ;; This function uses a non-reentrant model
  2492 ;;
  2493                           
  2494                           	psect	text10
  2495  006CEA                     __ptext10:
  2496                           	opt callstack 0
  2497  006CEA                     _LCD_clear:
  2498                           	opt callstack 18
  2499                           
  2500                           ;setting_hardaware/LCD.c: 58:     Cmd(0X01);
  2501                           
  2502                           ;incstack = 0
  2503  006CEA  0E00               	movlw	0
  2504  006CEC  0102               	movlb	2	; () banked
  2505  006CEE  6F01               	movwf	(Cmd@Value+1)& (0+255),b
  2506  006CF0  0E01               	movlw	1
  2507  006CF2  6F00               	movwf	Cmd@Value& (0+255),b
  2508  006CF4  EC67  F035         	call	_Cmd	;wreg free
  2509  006CF8  0012               	return		;funcret
  2510  006CFA                     __end_of_LCD_clear:
  2511                           	opt callstack 0
  2512                           
  2513 ;; *************** function _Cmd *****************
  2514 ;; Defined at:
  2515 ;;		line 8 in file "setting_hardaware/LCD.c"
  2516 ;; Parameters:    Size  Location     Type
  2517 ;;  Value           2    0[BANK2 ] int 
  2518 ;; Auto vars:     Size  Location     Type
  2519 ;;		None
  2520 ;; Return value:  Size  Location     Type
  2521 ;;                  1    wreg      void 
  2522 ;; Registers used:
  2523 ;;		wreg
  2524 ;; Tracked objects:
  2525 ;;		On entry : 0/0
  2526 ;;		On exit  : 0/0
  2527 ;;		Unchanged: 0/0
  2528 ;; Data sizes:     COMRAM   BANK0   BANK1   BANK2   BANK3   BANK4   BANK5
  2529 ;;      Params:         0       0       0       2       0       0       0
  2530 ;;      Locals:         0       0       0       0       0       0       0
  2531 ;;      Temps:          0       0       0       1       0       0       0
  2532 ;;      Totals:         0       0       0       3       0       0       0
  2533 ;;Total ram usage:        3 bytes
  2534 ;; Hardware stack levels used:    1
  2535 ;; Hardware stack levels required when called:    9
  2536 ;; This function calls:
  2537 ;;		Nothing
  2538 ;; This function is called by:
  2539 ;;		_Send2Lcd
  2540 ;;		_LCD_clear
  2541 ;;		_LCD_init
  2542 ;; This function uses a non-reentrant model
  2543 ;;
  2544                           
  2545                           	psect	text11
  2546  006ACE                     __ptext11:
  2547                           	opt callstack 0
  2548  006ACE                     _Cmd:
  2549                           	opt callstack 18
  2550                           
  2551                           ;setting_hardaware/LCD.c: 9:     LATD = Value;
  2552                           
  2553                           ;incstack = 0
  2554  006ACE  C200  FF8C         	movff	Cmd@Value,3980	;volatile
  2555                           
  2556                           ;setting_hardaware/LCD.c: 10:     LATCbits.LC4 = 0;
  2557  006AD2  988B               	bcf	139,4,c	;volatile
  2558                           
  2559                           ;setting_hardaware/LCD.c: 13:     LATCbits.LC6 = 0;
  2560  006AD4  9C8B               	bcf	139,6,c	;volatile
  2561                           
  2562                           ;setting_hardaware/LCD.c: 14:     _delay((unsigned long)((25)*(4000000/4000000.0)));
  2563  006AD6  0E08               	movlw	8
  2564  006AD8                     u7627:
  2565  006AD8  2EE8               	decfsz	wreg,f,c
  2566  006ADA  D7FE               	bra	u7627
  2567  006ADC  F000               	nop	
  2568                           
  2569                           ;setting_hardaware/LCD.c: 15:     LATCbits.LC6 = 1;
  2570  006ADE  8C8B               	bsf	139,6,c	;volatile
  2571                           
  2572                           ;setting_hardaware/LCD.c: 16:     _delay((unsigned long)((25)*(4000000/4000000.0)));
  2573  006AE0  0E08               	movlw	8
  2574  006AE2                     u7637:
  2575  006AE2  2EE8               	decfsz	wreg,f,c
  2576  006AE4  D7FE               	bra	u7637
  2577  006AE6  F000               	nop	
  2578                           
  2579                           ;setting_hardaware/LCD.c: 17:     LATCbits.LC6 = 0;
  2580  006AE8  9C8B               	bcf	139,6,c	;volatile
  2581                           
  2582                           ;setting_hardaware/LCD.c: 18:     _delay((unsigned long)((3)*(4000000/4000.0)));
  2583  006AEA  0E04               	movlw	4
  2584  006AEC  0102               	movlb	2	; () banked
  2585  006AEE  6F02               	movwf	??_Cmd& (0+255),b
  2586  006AF0  0EE4               	movlw	228
  2587  006AF2                     u7647:
  2588  006AF2  2EE8               	decfsz	wreg,f,c
  2589  006AF4  D7FE               	bra	u7647
  2590  006AF6  2F02               	decfsz	??_Cmd& (0+255),f,b
  2591  006AF8  D7FC               	bra	u7647
  2592  006AFA  F000               	nop	
  2593  006AFC  0012               	return		;funcret
  2594  006AFE                     __end_of_Cmd:
  2595                           	opt callstack 0
  2596                           
  2597 ;; *************** function _INTERRUPT_Initialize *****************
  2598 ;; Defined at:
  2599 ;;		line 3 in file "setting_hardaware/interrupt_manager.c"
  2600 ;; Parameters:    Size  Location     Type
  2601 ;;		None
  2602 ;; Auto vars:     Size  Location     Type
  2603 ;;		None
  2604 ;; Return value:  Size  Location     Type
  2605 ;;                  1    wreg      void 
  2606 ;; Registers used:
  2607 ;;		None
  2608 ;; Tracked objects:
  2609 ;;		On entry : 0/0
  2610 ;;		On exit  : 0/0
  2611 ;;		Unchanged: 0/0
  2612 ;; Data sizes:     COMRAM   BANK0   BANK1   BANK2   BANK3   BANK4   BANK5
  2613 ;;      Params:         0       0       0       0       0       0       0
  2614 ;;      Locals:         0       0       0       0       0       0       0
  2615 ;;      Temps:          0       0       0       0       0       0       0
  2616 ;;      Totals:         0       0       0       0       0       0       0
  2617 ;;Total ram usage:        0 bytes
  2618 ;; Hardware stack levels used:    1
  2619 ;; Hardware stack levels required when called:    9
  2620 ;; This function calls:
  2621 ;;		Nothing
  2622 ;; This function is called by:
  2623 ;;		_SYSTEM_Initialize
  2624 ;; This function uses a non-reentrant model
  2625 ;;
  2626                           
  2627                           	psect	text12
  2628  006D26                     __ptext12:
  2629                           	opt callstack 0
  2630  006D26                     _INTERRUPT_Initialize:
  2631                           	opt callstack 20
  2632                           
  2633                           ;setting_hardaware/interrupt_manager.c: 4:     RCONbits.IPEN = 1;
  2634                           
  2635                           ;incstack = 0
  2636  006D26  8ED0               	bsf	208,7,c	;volatile
  2637                           
  2638                           ;setting_hardaware/interrupt_manager.c: 5:     INTCONbits.GIE = 1;
  2639  006D28  8EF2               	bsf	242,7,c	;volatile
  2640                           
  2641                           ;setting_hardaware/interrupt_manager.c: 6:     INTCONbits.GIEL = 1;
  2642  006D2A  8CF2               	bsf	242,6,c	;volatile
  2643  006D2C  0012               	return		;funcret
  2644  006D2E                     __end_of_INTERRUPT_Initialize:
  2645                           	opt callstack 0
  2646                           
  2647 ;; *************** function _ADC_Initialize *****************
  2648 ;; Defined at:
  2649 ;;		line 88 in file "setting_hardaware/adc.c"
  2650 ;; Parameters:    Size  Location     Type
  2651 ;;		None
  2652 ;; Auto vars:     Size  Location     Type
  2653 ;;  res             4   66[BANK2 ] void 
  2654 ;;  digital         2   70[BANK2 ] int 
  2655 ;;  val             4   74[BANK2 ] int 
  2656 ;;  i               2   72[BANK2 ] int 
  2657 ;; Return value:  Size  Location     Type
  2658 ;;                  1    wreg      void 
  2659 ;; Registers used:
  2660 ;;		wreg, status,2, status,0, prodl, prodh, cstack
  2661 ;; Tracked objects:
  2662 ;;		On entry : 0/0
  2663 ;;		On exit  : 0/0
  2664 ;;		Unchanged: 0/0
  2665 ;; Data sizes:     COMRAM   BANK0   BANK1   BANK2   BANK3   BANK4   BANK5
  2666 ;;      Params:         0       0       0       0       0       0       0
  2667 ;;      Locals:         0       0       0      12       0       0       0
  2668 ;;      Temps:          0       0       0       2       0       0       0
  2669 ;;      Totals:         0       0       0      14       0       0       0
  2670 ;;Total ram usage:       14 bytes
  2671 ;; Hardware stack levels used:    1
  2672 ;; Hardware stack levels required when called:   10
  2673 ;; This function calls:
  2674 ;;		___fladd
  2675 ;;		___fldiv
  2676 ;;		___flmul
  2677 ;;		___xxtofl
  2678 ;; This function is called by:
  2679 ;;		_SYSTEM_Initialize
  2680 ;; This function uses a non-reentrant model
  2681 ;;
  2682                           
  2683                           	psect	text13
  2684  0058A2                     __ptext13:
  2685                           	opt callstack 0
  2686  0058A2                     _ADC_Initialize:
  2687                           	opt callstack 19
  2688                           
  2689                           ;setting_hardaware/adc.c: 90:     ADCON1 = 0x0D;
  2690                           
  2691                           ;incstack = 0
  2692  0058A2  0E0D               	movlw	13
  2693  0058A4  6EC1               	movwf	193,c	;volatile
  2694                           
  2695                           ;setting_hardaware/adc.c: 91:     ADCON2 = 0x94;
  2696  0058A6  0E94               	movlw	148
  2697  0058A8  6EC0               	movwf	192,c	;volatile
  2698                           
  2699                           ;setting_hardaware/adc.c: 92:     ADRES = 0;
  2700  0058AA  0E00               	movlw	0
  2701  0058AC  6EC4               	movwf	196,c	;volatile
  2702  0058AE  0E00               	movlw	0
  2703  0058B0  6EC3               	movwf	195,c	;volatile
  2704                           
  2705                           ;setting_hardaware/adc.c: 95:     int i;;setting_hardaware/adc.c: 96:     double val = 0
      +                          ;
  2706  0058B2  0E00               	movlw	0
  2707  0058B4  0102               	movlb	2	; () banked
  2708  0058B6  6F4A               	movwf	ADC_Initialize@val& (0+255),b
  2709  0058B8  0E00               	movlw	0
  2710  0058BA  6F4B               	movwf	(ADC_Initialize@val+1)& (0+255),b
  2711  0058BC  0E00               	movlw	0
  2712  0058BE  6F4C               	movwf	(ADC_Initialize@val+2)& (0+255),b
  2713  0058C0  0E00               	movlw	0
  2714  0058C2  6F4D               	movwf	(ADC_Initialize@val+3)& (0+255),b
  2715                           
  2716                           ;setting_hardaware/adc.c: 97:     for (i = 0; i < 10; i++) {
  2717  0058C4  0E00               	movlw	0
  2718  0058C6  6F49               	movwf	(ADC_Initialize@i+1)& (0+255),b
  2719  0058C8  0E00               	movlw	0
  2720  0058CA  6F48               	movwf	ADC_Initialize@i& (0+255),b
  2721  0058CC                     l6056:
  2722                           
  2723                           ; BSR set to: 2
  2724                           ;setting_hardaware/adc.c: 98:         int digital;;setting_hardaware/adc.c: 99:         
      +                          ADCON0bits.CHS = 0;
  2725  0058CC  0EC3               	movlw	-61
  2726  0058CE  16C2               	andwf	194,f,c	;volatile
  2727                           
  2728                           ; BSR set to: 2
  2729                           ;setting_hardaware/adc.c: 100:         ADCON0bits.ADON = 1;
  2730  0058D0  80C2               	bsf	194,0,c	;volatile
  2731                           
  2732                           ; BSR set to: 2
  2733                           ;setting_hardaware/adc.c: 101:         ADCON0bits.GO = 1;
  2734  0058D2  82C2               	bsf	194,1,c	;volatile
  2735  0058D4                     l99:
  2736  0058D4  B2C2               	btfsc	194,1,c	;volatile
  2737  0058D6  D7FE               	goto	l99
  2738                           
  2739                           ;setting_hardaware/adc.c: 103:         digital = ADRES;
  2740  0058D8  CFC3 F246          	movff	4035,ADC_Initialize@digital	;volatile
  2741  0058DC  CFC4 F247          	movff	4036,ADC_Initialize@digital+1	;volatile
  2742                           
  2743                           ;setting_hardaware/adc.c: 104:         double res = 1.00 * (1023 - digital) / (double) d
      +                          igital;
  2744  0058E0  0E00               	movlw	0
  2745  0058E2  0102               	movlb	2	; () banked
  2746  0058E4  6F12               	movwf	___flmul@a& (0+255),b
  2747  0058E6  0E00               	movlw	0
  2748  0058E8  6F13               	movwf	(___flmul@a+1)& (0+255),b
  2749  0058EA  0E80               	movlw	128
  2750  0058EC  6F14               	movwf	(___flmul@a+2)& (0+255),b
  2751  0058EE  0E3F               	movlw	63
  2752  0058F0  6F15               	movwf	(___flmul@a+3)& (0+255),b
  2753  0058F2  0EFF               	movlw	255
  2754  0058F4  6F40               	movwf	??_ADC_Initialize& (0+255),b
  2755  0058F6  0E03               	movlw	3
  2756  0058F8  6F41               	movwf	(??_ADC_Initialize+1)& (0+255),b
  2757  0058FA  5146               	movf	ADC_Initialize@digital& (0+255),w,b
  2758  0058FC  5F40               	subwf	??_ADC_Initialize& (0+255),f,b
  2759  0058FE  5147               	movf	(ADC_Initialize@digital+1)& (0+255),w,b
  2760  005900  5B41               	subwfb	(??_ADC_Initialize+1)& (0+255),f,b
  2761  005902  C240  F200         	movff	??_ADC_Initialize,___xxtofl@val
  2762  005906  C241  F201         	movff	??_ADC_Initialize+1,___xxtofl@val+1
  2763  00590A  0E00               	movlw	0
  2764  00590C  BF01               	btfsc	(___xxtofl@val+1)& (0+255),7,b
  2765  00590E  0EFF               	movlw	-1
  2766  005910  6F02               	movwf	(___xxtofl@val+2)& (0+255),b
  2767  005912  6F03               	movwf	(___xxtofl@val+3)& (0+255),b
  2768  005914  0E01               	movlw	1
  2769  005916  EC77  F02E         	call	___xxtofl
  2770  00591A  C200  F20E         	movff	?___xxtofl,___flmul@b
  2771  00591E  C201  F20F         	movff	?___xxtofl+1,___flmul@b+1
  2772  005922  C202  F210         	movff	?___xxtofl+2,___flmul@b+2
  2773  005926  C203  F211         	movff	?___xxtofl+3,___flmul@b+3
  2774  00592A  EC87  F01D         	call	___flmul	;wreg free
  2775  00592E  C20E  F227         	movff	?___flmul,___fldiv@b
  2776  005932  C20F  F228         	movff	?___flmul+1,___fldiv@b+1
  2777  005936  C210  F229         	movff	?___flmul+2,___fldiv@b+2
  2778  00593A  C211  F22A         	movff	?___flmul+3,___fldiv@b+3
  2779  00593E  C246  F200         	movff	ADC_Initialize@digital,___xxtofl@val
  2780  005942  C247  F201         	movff	ADC_Initialize@digital+1,___xxtofl@val+1
  2781  005946  0102               	movlb	2	; () banked
  2782  005948  0E00               	movlw	0
  2783  00594A  BF01               	btfsc	(___xxtofl@val+1)& (0+255),7,b
  2784  00594C  0EFF               	movlw	-1
  2785  00594E  6F02               	movwf	(___xxtofl@val+2)& (0+255),b
  2786  005950  6F03               	movwf	(___xxtofl@val+3)& (0+255),b
  2787  005952  0E01               	movlw	1
  2788  005954  EC77  F02E         	call	___xxtofl
  2789  005958  C200  F22B         	movff	?___xxtofl,___fldiv@a
  2790  00595C  C201  F22C         	movff	?___xxtofl+1,___fldiv@a+1
  2791  005960  C202  F22D         	movff	?___xxtofl+2,___fldiv@a+2
  2792  005964  C203  F22E         	movff	?___xxtofl+3,___fldiv@a+3
  2793  005968  EC53  F025         	call	___fldiv	;wreg free
  2794  00596C  C227  F242         	movff	?___fldiv,ADC_Initialize@res
  2795  005970  C228  F243         	movff	?___fldiv+1,ADC_Initialize@res+1
  2796  005974  C229  F244         	movff	?___fldiv+2,ADC_Initialize@res+2
  2797  005978  C22A  F245         	movff	?___fldiv+3,ADC_Initialize@res+3
  2798                           
  2799                           ;setting_hardaware/adc.c: 105:         val += res;
  2800  00597C  C24A  F200         	movff	ADC_Initialize@val,___fladd@b
  2801  005980  C24B  F201         	movff	ADC_Initialize@val+1,___fladd@b+1
  2802  005984  C24C  F202         	movff	ADC_Initialize@val+2,___fladd@b+2
  2803  005988  C24D  F203         	movff	ADC_Initialize@val+3,___fladd@b+3
  2804  00598C  C242  F204         	movff	ADC_Initialize@res,___fladd@a
  2805  005990  C243  F205         	movff	ADC_Initialize@res+1,___fladd@a+1
  2806  005994  C244  F206         	movff	ADC_Initialize@res+2,___fladd@a+2
  2807  005998  C245  F207         	movff	ADC_Initialize@res+3,___fladd@a+3
  2808  00599C  ECDA  F020         	call	___fladd	;wreg free
  2809  0059A0  C200  F24A         	movff	?___fladd,ADC_Initialize@val
  2810  0059A4  C201  F24B         	movff	?___fladd+1,ADC_Initialize@val+1
  2811  0059A8  C202  F24C         	movff	?___fladd+2,ADC_Initialize@val+2
  2812  0059AC  C203  F24D         	movff	?___fladd+3,ADC_Initialize@val+3
  2813                           
  2814                           ;setting_hardaware/adc.c: 106:         _delay((unsigned long)((50)*(4000000/4000000.0)))
      +                          ;
  2815  0059B0  0E10               	movlw	16
  2816  0059B2                     u7657:
  2817  0059B2  2EE8               	decfsz	wreg,f,c
  2818  0059B4  D7FE               	bra	u7657
  2819  0059B6  D000               	nop2	
  2820                           
  2821                           ;setting_hardaware/adc.c: 107:     }
  2822  0059B8  0102               	movlb	2	; () banked
  2823  0059BA  4B48               	infsnz	ADC_Initialize@i& (0+255),f,b
  2824  0059BC  2B49               	incf	(ADC_Initialize@i+1)& (0+255),f,b
  2825                           
  2826                           ; BSR set to: 2
  2827  0059BE  BF49               	btfsc	(ADC_Initialize@i+1)& (0+255),7,b
  2828  0059C0  D785               	goto	l6056
  2829  0059C2  5149               	movf	(ADC_Initialize@i+1)& (0+255),w,b
  2830  0059C4  E104               	bnz	u7230
  2831  0059C6  0E0A               	movlw	10
  2832  0059C8  5D48               	subwf	ADC_Initialize@i& (0+255),w,b
  2833  0059CA  A0D8               	btfss	status,0,c
  2834  0059CC  D77F               	goto	l6056
  2835  0059CE                     u7230:
  2836                           
  2837                           ; BSR set to: 2
  2838                           ;setting_hardaware/adc.c: 108:     val = val / 10;
  2839  0059CE  C24A  F227         	movff	ADC_Initialize@val,___fldiv@b
  2840  0059D2  C24B  F228         	movff	ADC_Initialize@val+1,___fldiv@b+1
  2841  0059D6  C24C  F229         	movff	ADC_Initialize@val+2,___fldiv@b+2
  2842  0059DA  C24D  F22A         	movff	ADC_Initialize@val+3,___fldiv@b+3
  2843  0059DE  0E00               	movlw	0
  2844  0059E0  6F2B               	movwf	___fldiv@a& (0+255),b
  2845  0059E2  0E00               	movlw	0
  2846  0059E4  6F2C               	movwf	(___fldiv@a+1)& (0+255),b
  2847  0059E6  0E20               	movlw	32
  2848  0059E8  6F2D               	movwf	(___fldiv@a+2)& (0+255),b
  2849  0059EA  0E41               	movlw	65
  2850  0059EC  6F2E               	movwf	(___fldiv@a+3)& (0+255),b
  2851  0059EE  EC53  F025         	call	___fldiv	;wreg free
  2852  0059F2  C227  F24A         	movff	?___fldiv,ADC_Initialize@val
  2853  0059F6  C228  F24B         	movff	?___fldiv+1,ADC_Initialize@val+1
  2854  0059FA  C229  F24C         	movff	?___fldiv+2,ADC_Initialize@val+2
  2855  0059FE  C22A  F24D         	movff	?___fldiv+3,ADC_Initialize@val+3
  2856                           
  2857                           ;setting_hardaware/adc.c: 109:     val = val / 10.0;
  2858  005A02  C24A  F227         	movff	ADC_Initialize@val,___fldiv@b
  2859  005A06  C24B  F228         	movff	ADC_Initialize@val+1,___fldiv@b+1
  2860  005A0A  C24C  F229         	movff	ADC_Initialize@val+2,___fldiv@b+2
  2861  005A0E  C24D  F22A         	movff	ADC_Initialize@val+3,___fldiv@b+3
  2862  005A12  0E00               	movlw	0
  2863  005A14  0102               	movlb	2	; () banked
  2864  005A16  6F2B               	movwf	___fldiv@a& (0+255),b
  2865  005A18  0E00               	movlw	0
  2866  005A1A  6F2C               	movwf	(___fldiv@a+1)& (0+255),b
  2867  005A1C  0E20               	movlw	32
  2868  005A1E  6F2D               	movwf	(___fldiv@a+2)& (0+255),b
  2869  005A20  0E41               	movlw	65
  2870  005A22  6F2E               	movwf	(___fldiv@a+3)& (0+255),b
  2871  005A24  EC53  F025         	call	___fldiv	;wreg free
  2872  005A28  C227  F24A         	movff	?___fldiv,ADC_Initialize@val
  2873  005A2C  C228  F24B         	movff	?___fldiv+1,ADC_Initialize@val+1
  2874  005A30  C229  F24C         	movff	?___fldiv+2,ADC_Initialize@val+2
  2875  005A34  C22A  F24D         	movff	?___fldiv+3,ADC_Initialize@val+3
  2876                           
  2877                           ;setting_hardaware/adc.c: 110:     Ro = val;
  2878  005A38  C24A  F1E1         	movff	ADC_Initialize@val,_Ro
  2879  005A3C  C24B  F1E2         	movff	ADC_Initialize@val+1,_Ro+1
  2880  005A40  C24C  F1E3         	movff	ADC_Initialize@val+2,_Ro+2
  2881  005A44  C24D  F1E4         	movff	ADC_Initialize@val+3,_Ro+3
  2882  005A48  0012               	return		;funcret
  2883  005A4A                     __end_of_ADC_Initialize:
  2884                           	opt callstack 0
  2885                           
  2886 ;; *************** function ___xxtofl *****************
  2887 ;; Defined at:
  2888 ;;		line 10 in file "C:\Program Files (x86)\Microchip\xc8\v2.10\pic\sources\c99\common\xxtofl.c"
  2889 ;; Parameters:    Size  Location     Type
  2890 ;;  sign            1    wreg     unsigned char 
  2891 ;;  val             4    0[BANK2 ] long 
  2892 ;; Auto vars:     Size  Location     Type
  2893 ;;  sign            1    8[BANK2 ] unsigned char 
  2894 ;;  arg             4   10[BANK2 ] unsigned long 
  2895 ;;  exp             1    9[BANK2 ] unsigned char 
  2896 ;; Return value:  Size  Location     Type
  2897 ;;                  4    0[BANK2 ] unsigned char 
  2898 ;; Registers used:
  2899 ;;		wreg, status,2, status,0
  2900 ;; Tracked objects:
  2901 ;;		On entry : 0/0
  2902 ;;		On exit  : 0/0
  2903 ;;		Unchanged: 0/0
  2904 ;; Data sizes:     COMRAM   BANK0   BANK1   BANK2   BANK3   BANK4   BANK5
  2905 ;;      Params:         0       0       0       4       0       0       0
  2906 ;;      Locals:         0       0       0       6       0       0       0
  2907 ;;      Temps:          0       0       0       4       0       0       0
  2908 ;;      Totals:         0       0       0      14       0       0       0
  2909 ;;Total ram usage:       14 bytes
  2910 ;; Hardware stack levels used:    1
  2911 ;; Hardware stack levels required when called:    9
  2912 ;; This function calls:
  2913 ;;		Nothing
  2914 ;; This function is called by:
  2915 ;;		_ADC_Initialize
  2916 ;; This function uses a non-reentrant model
  2917 ;;
  2918                           
  2919                           	psect	text14
  2920  005CEE                     __ptext14:
  2921                           	opt callstack 0
  2922  005CEE                     ___xxtofl:
  2923                           	opt callstack 19
  2924                           
  2925                           ;incstack = 0
  2926                           ;___xxtofl@sign stored from wreg
  2927  005CEE  0102               	movlb	2	; () banked
  2928  005CF0  6F08               	movwf	___xxtofl@sign& (0+255),b
  2929  005CF2  0102               	movlb	2	; () banked
  2930  005CF4  5108               	movf	___xxtofl@sign& (0+255),w,b
  2931  005CF6  A4D8               	btfss	status,2,c
  2932                           
  2933                           ; BSR set to: 2
  2934  005CF8  AF03               	btfss	(___xxtofl@val+3)& (0+255),7,b
  2935  005CFA  D01A               	goto	l995
  2936                           
  2937                           ; BSR set to: 2
  2938  005CFC  C200  F204         	movff	___xxtofl@val,??___xxtofl
  2939  005D00  C201  F205         	movff	___xxtofl@val+1,??___xxtofl+1
  2940  005D04  C202  F206         	movff	___xxtofl@val+2,??___xxtofl+2
  2941  005D08  C203  F207         	movff	___xxtofl@val+3,??___xxtofl+3
  2942  005D0C  1F04               	comf	??___xxtofl& (0+255),f,b
  2943  005D0E  1F05               	comf	(??___xxtofl+1)& (0+255),f,b
  2944  005D10  1F06               	comf	(??___xxtofl+2)& (0+255),f,b
  2945  005D12  1F07               	comf	(??___xxtofl+3)& (0+255),f,b
  2946  005D14  2B04               	incf	??___xxtofl& (0+255),f,b
  2947  005D16  0E00               	movlw	0
  2948  005D18  2305               	addwfc	(??___xxtofl+1)& (0+255),f,b
  2949  005D1A  2306               	addwfc	(??___xxtofl+2)& (0+255),f,b
  2950  005D1C  2307               	addwfc	(??___xxtofl+3)& (0+255),f,b
  2951  005D1E  C204  F20A         	movff	??___xxtofl,___xxtofl@arg
  2952  005D22  C205  F20B         	movff	??___xxtofl+1,___xxtofl@arg+1
  2953  005D26  C206  F20C         	movff	??___xxtofl+2,___xxtofl@arg+2
  2954  005D2A  C207  F20D         	movff	??___xxtofl+3,___xxtofl@arg+3
  2955  005D2E  D008               	goto	l5986
  2956  005D30                     l995:
  2957                           
  2958                           ; BSR set to: 2
  2959  005D30  C200  F20A         	movff	___xxtofl@val,___xxtofl@arg
  2960  005D34  C201  F20B         	movff	___xxtofl@val+1,___xxtofl@arg+1
  2961  005D38  C202  F20C         	movff	___xxtofl@val+2,___xxtofl@arg+2
  2962  005D3C  C203  F20D         	movff	___xxtofl@val+3,___xxtofl@arg+3
  2963  005D40                     l5986:
  2964                           
  2965                           ; BSR set to: 2
  2966  005D40  5100               	movf	___xxtofl@val& (0+255),w,b
  2967  005D42  1101               	iorwf	(___xxtofl@val+1)& (0+255),w,b
  2968  005D44  1102               	iorwf	(___xxtofl@val+2)& (0+255),w,b
  2969  005D46  1103               	iorwf	(___xxtofl@val+3)& (0+255),w,b
  2970  005D48  A4D8               	btfss	status,2,c
  2971  005D4A  D009               	goto	l5992
  2972                           
  2973                           ; BSR set to: 2
  2974  005D4C  0E00               	movlw	0
  2975  005D4E  6F00               	movwf	?___xxtofl& (0+255),b
  2976  005D50  0E00               	movlw	0
  2977  005D52  6F01               	movwf	(?___xxtofl+1)& (0+255),b
  2978  005D54  0E00               	movlw	0
  2979  005D56  6F02               	movwf	(?___xxtofl+2)& (0+255),b
  2980  005D58  0E00               	movlw	0
  2981  005D5A  6F03               	movwf	(?___xxtofl+3)& (0+255),b
  2982  005D5C  0012               	return	
  2983  005D5E                     l5992:
  2984                           
  2985                           ; BSR set to: 2
  2986  005D5E  0E96               	movlw	150
  2987  005D60  6F09               	movwf	___xxtofl@exp& (0+255),b
  2988  005D62  D006               	goto	l5996
  2989  005D64                     l5994:
  2990                           
  2991                           ; BSR set to: 2
  2992  005D64  2B09               	incf	___xxtofl@exp& (0+255),f,b
  2993  005D66  90D8               	bcf	status,0,c
  2994  005D68  330D               	rrcf	(___xxtofl@arg+3)& (0+255),f,b
  2995  005D6A  330C               	rrcf	(___xxtofl@arg+2)& (0+255),f,b
  2996  005D6C  330B               	rrcf	(___xxtofl@arg+1)& (0+255),f,b
  2997  005D6E  330A               	rrcf	___xxtofl@arg& (0+255),f,b
  2998  005D70                     l5996:
  2999                           
  3000                           ; BSR set to: 2
  3001  005D70  0E00               	movlw	0
  3002  005D72  150A               	andwf	___xxtofl@arg& (0+255),w,b
  3003  005D74  6F04               	movwf	??___xxtofl& (0+255),b
  3004  005D76  0E00               	movlw	0
  3005  005D78  150B               	andwf	(___xxtofl@arg+1)& (0+255),w,b
  3006  005D7A  6F05               	movwf	(??___xxtofl+1)& (0+255),b
  3007  005D7C  0E00               	movlw	0
  3008  005D7E  150C               	andwf	(___xxtofl@arg+2)& (0+255),w,b
  3009  005D80  6F06               	movwf	(??___xxtofl+2)& (0+255),b
  3010  005D82  0EFE               	movlw	254
  3011  005D84  150D               	andwf	(___xxtofl@arg+3)& (0+255),w,b
  3012  005D86  6F07               	movwf	(??___xxtofl+3)& (0+255),b
  3013  005D88  5104               	movf	??___xxtofl& (0+255),w,b
  3014  005D8A  1105               	iorwf	(??___xxtofl+1)& (0+255),w,b
  3015  005D8C  1106               	iorwf	(??___xxtofl+2)& (0+255),w,b
  3016  005D8E  1107               	iorwf	(??___xxtofl+3)& (0+255),w,b
  3017  005D90  B4D8               	btfsc	status,2,c
  3018  005D92  D00D               	goto	l1002
  3019  005D94  D7E7               	goto	l5994
  3020  005D96                     l5998:
  3021                           
  3022                           ; BSR set to: 2
  3023  005D96  2B09               	incf	___xxtofl@exp& (0+255),f,b
  3024                           
  3025                           ; BSR set to: 2
  3026  005D98  0E01               	movlw	1
  3027  005D9A  270A               	addwf	___xxtofl@arg& (0+255),f,b
  3028  005D9C  0E00               	movlw	0
  3029  005D9E  230B               	addwfc	(___xxtofl@arg+1)& (0+255),f,b
  3030  005DA0  230C               	addwfc	(___xxtofl@arg+2)& (0+255),f,b
  3031  005DA2  230D               	addwfc	(___xxtofl@arg+3)& (0+255),f,b
  3032                           
  3033                           ; BSR set to: 2
  3034  005DA4  90D8               	bcf	status,0,c
  3035  005DA6  330D               	rrcf	(___xxtofl@arg+3)& (0+255),f,b
  3036  005DA8  330C               	rrcf	(___xxtofl@arg+2)& (0+255),f,b
  3037  005DAA  330B               	rrcf	(___xxtofl@arg+1)& (0+255),f,b
  3038  005DAC  330A               	rrcf	___xxtofl@arg& (0+255),f,b
  3039  005DAE                     l1002:
  3040                           
  3041                           ; BSR set to: 2
  3042  005DAE  0E00               	movlw	0
  3043  005DB0  150A               	andwf	___xxtofl@arg& (0+255),w,b
  3044  005DB2  6F04               	movwf	??___xxtofl& (0+255),b
  3045  005DB4  0E00               	movlw	0
  3046  005DB6  150B               	andwf	(___xxtofl@arg+1)& (0+255),w,b
  3047  005DB8  6F05               	movwf	(??___xxtofl+1)& (0+255),b
  3048  005DBA  0E00               	movlw	0
  3049  005DBC  150C               	andwf	(___xxtofl@arg+2)& (0+255),w,b
  3050  005DBE  6F06               	movwf	(??___xxtofl+2)& (0+255),b
  3051  005DC0  0EFF               	movlw	255
  3052  005DC2  150D               	andwf	(___xxtofl@arg+3)& (0+255),w,b
  3053  005DC4  6F07               	movwf	(??___xxtofl+3)& (0+255),b
  3054  005DC6  5104               	movf	??___xxtofl& (0+255),w,b
  3055  005DC8  1105               	iorwf	(??___xxtofl+1)& (0+255),w,b
  3056  005DCA  1106               	iorwf	(??___xxtofl+2)& (0+255),w,b
  3057  005DCC  1107               	iorwf	(??___xxtofl+3)& (0+255),w,b
  3058  005DCE  B4D8               	btfsc	status,2,c
  3059  005DD0  D007               	goto	l6006
  3060  005DD2  D7E1               	goto	l5998
  3061  005DD4                     l6004:
  3062                           
  3063                           ; BSR set to: 2
  3064  005DD4  0709               	decf	___xxtofl@exp& (0+255),f,b
  3065  005DD6  90D8               	bcf	status,0,c
  3066  005DD8  370A               	rlcf	___xxtofl@arg& (0+255),f,b
  3067  005DDA  370B               	rlcf	(___xxtofl@arg+1)& (0+255),f,b
  3068  005DDC  370C               	rlcf	(___xxtofl@arg+2)& (0+255),f,b
  3069  005DDE  370D               	rlcf	(___xxtofl@arg+3)& (0+255),f,b
  3070  005DE0                     l6006:
  3071                           
  3072                           ; BSR set to: 2
  3073  005DE0  BF0C               	btfsc	(___xxtofl@arg+2)& (0+255),7,b
  3074  005DE2  D003               	goto	u7180
  3075                           
  3076                           ; BSR set to: 2
  3077  005DE4  0E02               	movlw	2
  3078  005DE6  6109               	cpfslt	___xxtofl@exp& (0+255),b
  3079  005DE8  D7F5               	goto	l6004
  3080  005DEA                     u7180:
  3081                           
  3082                           ; BSR set to: 2
  3083  005DEA  A109               	btfss	___xxtofl@exp& (0+255),0,b
  3084                           
  3085                           ; BSR set to: 2
  3086  005DEC  9F0C               	bcf	(___xxtofl@arg+2)& (0+255),7,b
  3087                           
  3088                           ; BSR set to: 2
  3089  005DEE  90D8               	bcf	status,0,c
  3090  005DF0  3309               	rrcf	___xxtofl@exp& (0+255),f,b
  3091                           
  3092                           ; BSR set to: 2
  3093  005DF2  C209  F204         	movff	___xxtofl@exp,??___xxtofl
  3094  005DF6  6B05               	clrf	(??___xxtofl+1)& (0+255),b
  3095  005DF8  6B06               	clrf	(??___xxtofl+2)& (0+255),b
  3096  005DFA  6B07               	clrf	(??___xxtofl+3)& (0+255),b
  3097  005DFC  C204  F207         	movff	??___xxtofl,??___xxtofl+3
  3098  005E00  6B06               	clrf	(??___xxtofl+2)& (0+255),b
  3099  005E02  6B05               	clrf	(??___xxtofl+1)& (0+255),b
  3100  005E04  6B04               	clrf	??___xxtofl& (0+255),b
  3101  005E06  5104               	movf	??___xxtofl& (0+255),w,b
  3102  005E08  130A               	iorwf	___xxtofl@arg& (0+255),f,b
  3103  005E0A  5105               	movf	(??___xxtofl+1)& (0+255),w,b
  3104  005E0C  130B               	iorwf	(___xxtofl@arg+1)& (0+255),f,b
  3105  005E0E  5106               	movf	(??___xxtofl+2)& (0+255),w,b
  3106  005E10  130C               	iorwf	(___xxtofl@arg+2)& (0+255),f,b
  3107  005E12  5107               	movf	(??___xxtofl+3)& (0+255),w,b
  3108  005E14  130D               	iorwf	(___xxtofl@arg+3)& (0+255),f,b
  3109                           
  3110                           ; BSR set to: 2
  3111  005E16  5108               	movf	___xxtofl@sign& (0+255),w,b
  3112  005E18  A4D8               	btfss	status,2,c
  3113                           
  3114                           ; BSR set to: 2
  3115  005E1A  AF03               	btfss	(___xxtofl@val+3)& (0+255),7,b
  3116  005E1C  D001               	goto	l6022
  3117                           
  3118                           ; BSR set to: 2
  3119  005E1E  8F0D               	bsf	(___xxtofl@arg+3)& (0+255),7,b
  3120  005E20                     l6022:
  3121                           
  3122                           ; BSR set to: 2
  3123  005E20  C20A  F200         	movff	___xxtofl@arg,?___xxtofl
  3124  005E24  C20B  F201         	movff	___xxtofl@arg+1,?___xxtofl+1
  3125  005E28  C20C  F202         	movff	___xxtofl@arg+2,?___xxtofl+2
  3126  005E2C  C20D  F203         	movff	___xxtofl@arg+3,?___xxtofl+3
  3127                           
  3128                           ; BSR set to: 2
  3129  005E30  0012               	return		;funcret
  3130  005E32                     __end_of___xxtofl:
  3131                           	opt callstack 0
  3132                           
  3133 ;; *************** function ___flmul *****************
  3134 ;; Defined at:
  3135 ;;		line 8 in file "C:\Program Files (x86)\Microchip\xc8\v2.10\pic\sources\c99\common\sprcmul.c"
  3136 ;; Parameters:    Size  Location     Type
  3137 ;;  b               4   14[BANK2 ] unsigned char 
  3138 ;;  a               4   18[BANK2 ] unsigned char 
  3139 ;; Auto vars:     Size  Location     Type
  3140 ;;  prod            4   33[BANK2 ] struct .
  3141 ;;  grs             4   27[BANK2 ] unsigned long 
  3142 ;;  temp            2   37[BANK2 ] struct .
  3143 ;;  bexp            1   32[BANK2 ] unsigned char 
  3144 ;;  aexp            1   31[BANK2 ] unsigned char 
  3145 ;;  sign            1   26[BANK2 ] unsigned char 
  3146 ;; Return value:  Size  Location     Type
  3147 ;;                  4   14[BANK2 ] unsigned char 
  3148 ;; Registers used:
  3149 ;;		wreg, status,2, status,0, prodl, prodh
  3150 ;; Tracked objects:
  3151 ;;		On entry : 0/0
  3152 ;;		On exit  : 0/0
  3153 ;;		Unchanged: 0/0
  3154 ;; Data sizes:     COMRAM   BANK0   BANK1   BANK2   BANK3   BANK4   BANK5
  3155 ;;      Params:         0       0       0       8       0       0       0
  3156 ;;      Locals:         0       0       0      13       0       0       0
  3157 ;;      Temps:          0       0       0       4       0       0       0
  3158 ;;      Totals:         0       0       0      25       0       0       0
  3159 ;;Total ram usage:       25 bytes
  3160 ;; Hardware stack levels used:    1
  3161 ;; Hardware stack levels required when called:    9
  3162 ;; This function calls:
  3163 ;;		Nothing
  3164 ;; This function is called by:
  3165 ;;		_ADC_Initialize
  3166 ;; This function uses a non-reentrant model
  3167 ;;
  3168                           
  3169                           	psect	text15
  3170  003B0E                     __ptext15:
  3171                           	opt callstack 0
  3172  003B0E                     ___flmul:
  3173                           	opt callstack 19
  3174                           
  3175                           ; BSR set to: 2
  3176                           ;incstack = 0
  3177  003B0E  0102               	movlb	2	; () banked
  3178  003B10  5111               	movf	(___flmul@b+3)& (0+255),w,b
  3179  003B12  0B80               	andlw	128
  3180  003B14  6F1A               	movwf	___flmul@sign& (0+255),b
  3181  003B16  5111               	movf	(___flmul@b+3)& (0+255),w,b
  3182  003B18  2511               	addwf	(___flmul@b+3)& (0+255),w,b
  3183  003B1A  6F20               	movwf	___flmul@bexp& (0+255),b
  3184                           
  3185                           ; BSR set to: 2
  3186  003B1C  BF10               	btfsc	(___flmul@b+2)& (0+255),7,b
  3187                           
  3188                           ; BSR set to: 2
  3189  003B1E  8120               	bsf	___flmul@bexp& (0+255),0,b
  3190                           
  3191                           ; BSR set to: 2
  3192  003B20  5120               	movf	___flmul@bexp& (0+255),w,b
  3193  003B22  B4D8               	btfsc	status,2,c
  3194  003B24  D00D               	goto	l5864
  3195                           
  3196                           ; BSR set to: 2
  3197  003B26  2920               	incf	___flmul@bexp& (0+255),w,b
  3198  003B28  A4D8               	btfss	status,2,c
  3199  003B2A  D008               	goto	l5862
  3200                           
  3201                           ; BSR set to: 2
  3202  003B2C  0E00               	movlw	0
  3203  003B2E  6F0E               	movwf	___flmul@b& (0+255),b
  3204  003B30  0E00               	movlw	0
  3205  003B32  6F0F               	movwf	(___flmul@b+1)& (0+255),b
  3206  003B34  0E00               	movlw	0
  3207  003B36  6F10               	movwf	(___flmul@b+2)& (0+255),b
  3208  003B38  0E00               	movlw	0
  3209  003B3A  6F11               	movwf	(___flmul@b+3)& (0+255),b
  3210  003B3C                     l5862:
  3211                           
  3212                           ; BSR set to: 2
  3213  003B3C  8F10               	bsf	(___flmul@b+2)& (0+255),7,b
  3214  003B3E  D008               	goto	l5866
  3215  003B40                     l5864:
  3216                           
  3217                           ; BSR set to: 2
  3218  003B40  0E00               	movlw	0
  3219  003B42  6F0E               	movwf	___flmul@b& (0+255),b
  3220  003B44  0E00               	movlw	0
  3221  003B46  6F0F               	movwf	(___flmul@b+1)& (0+255),b
  3222  003B48  0E00               	movlw	0
  3223  003B4A  6F10               	movwf	(___flmul@b+2)& (0+255),b
  3224  003B4C  0E00               	movlw	0
  3225  003B4E  6F11               	movwf	(___flmul@b+3)& (0+255),b
  3226  003B50                     l5866:
  3227                           
  3228                           ; BSR set to: 2
  3229  003B50  5115               	movf	(___flmul@a+3)& (0+255),w,b
  3230  003B52  0B80               	andlw	128
  3231  003B54  1B1A               	xorwf	___flmul@sign& (0+255),f,b
  3232                           
  3233                           ; BSR set to: 2
  3234  003B56  5115               	movf	(___flmul@a+3)& (0+255),w,b
  3235  003B58  2515               	addwf	(___flmul@a+3)& (0+255),w,b
  3236  003B5A  6F1F               	movwf	___flmul@aexp& (0+255),b
  3237                           
  3238                           ; BSR set to: 2
  3239  003B5C  BF14               	btfsc	(___flmul@a+2)& (0+255),7,b
  3240                           
  3241                           ; BSR set to: 2
  3242  003B5E  811F               	bsf	___flmul@aexp& (0+255),0,b
  3243                           
  3244                           ; BSR set to: 2
  3245  003B60  511F               	movf	___flmul@aexp& (0+255),w,b
  3246  003B62  B4D8               	btfsc	status,2,c
  3247  003B64  D00D               	goto	l5882
  3248                           
  3249                           ; BSR set to: 2
  3250  003B66  291F               	incf	___flmul@aexp& (0+255),w,b
  3251  003B68  A4D8               	btfss	status,2,c
  3252  003B6A  D008               	goto	l5880
  3253                           
  3254                           ; BSR set to: 2
  3255  003B6C  0E00               	movlw	0
  3256  003B6E  6F12               	movwf	___flmul@a& (0+255),b
  3257  003B70  0E00               	movlw	0
  3258  003B72  6F13               	movwf	(___flmul@a+1)& (0+255),b
  3259  003B74  0E00               	movlw	0
  3260  003B76  6F14               	movwf	(___flmul@a+2)& (0+255),b
  3261  003B78  0E00               	movlw	0
  3262  003B7A  6F15               	movwf	(___flmul@a+3)& (0+255),b
  3263  003B7C                     l5880:
  3264                           
  3265                           ; BSR set to: 2
  3266  003B7C  8F14               	bsf	(___flmul@a+2)& (0+255),7,b
  3267  003B7E  D008               	goto	l954
  3268  003B80                     l5882:
  3269                           
  3270                           ; BSR set to: 2
  3271  003B80  0E00               	movlw	0
  3272  003B82  6F12               	movwf	___flmul@a& (0+255),b
  3273  003B84  0E00               	movlw	0
  3274  003B86  6F13               	movwf	(___flmul@a+1)& (0+255),b
  3275  003B88  0E00               	movlw	0
  3276  003B8A  6F14               	movwf	(___flmul@a+2)& (0+255),b
  3277  003B8C  0E00               	movlw	0
  3278  003B8E  6F15               	movwf	(___flmul@a+3)& (0+255),b
  3279  003B90                     l954:
  3280                           
  3281                           ; BSR set to: 2
  3282  003B90  511F               	movf	___flmul@aexp& (0+255),w,b
  3283  003B92  B4D8               	btfsc	status,2,c
  3284  003B94  D003               	goto	u7000
  3285                           
  3286                           ; BSR set to: 2
  3287  003B96  5120               	movf	___flmul@bexp& (0+255),w,b
  3288  003B98  A4D8               	btfss	status,2,c
  3289  003B9A  D009               	goto	l5890
  3290  003B9C                     u7000:
  3291                           
  3292                           ; BSR set to: 2
  3293  003B9C  0E00               	movlw	0
  3294  003B9E  6F0E               	movwf	?___flmul& (0+255),b
  3295  003BA0  0E00               	movlw	0
  3296  003BA2  6F0F               	movwf	(?___flmul+1)& (0+255),b
  3297  003BA4  0E00               	movlw	0
  3298  003BA6  6F10               	movwf	(?___flmul+2)& (0+255),b
  3299  003BA8  0E00               	movlw	0
  3300  003BAA  6F11               	movwf	(?___flmul+3)& (0+255),b
  3301  003BAC  0012               	return	
  3302  003BAE                     l5890:
  3303                           
  3304                           ; BSR set to: 2
  3305  003BAE  5114               	movf	(___flmul@a+2)& (0+255),w,b
  3306  003BB0  030E               	mulwf	___flmul@b& (0+255),b
  3307  003BB2  CFF3 F225          	movff	prodl,___flmul@temp
  3308  003BB6  CFF4 F226          	movff	prodh,___flmul@temp+1
  3309                           
  3310                           ; BSR set to: 2
  3311  003BBA  5125               	movf	___flmul@temp& (0+255),w,b
  3312  003BBC  6F1B               	movwf	___flmul@grs& (0+255),b
  3313  003BBE  6B1C               	clrf	(___flmul@grs+1)& (0+255),b
  3314  003BC0  6B1D               	clrf	(___flmul@grs+2)& (0+255),b
  3315  003BC2  6B1E               	clrf	(___flmul@grs+3)& (0+255),b
  3316                           
  3317                           ; BSR set to: 2
  3318  003BC4  5126               	movf	(___flmul@temp+1)& (0+255),w,b
  3319  003BC6  6F21               	movwf	___flmul@prod& (0+255),b
  3320  003BC8  6B22               	clrf	(___flmul@prod+1)& (0+255),b
  3321  003BCA  6B23               	clrf	(___flmul@prod+2)& (0+255),b
  3322  003BCC  6B24               	clrf	(___flmul@prod+3)& (0+255),b
  3323  003BCE  5113               	movf	(___flmul@a+1)& (0+255),w,b
  3324  003BD0  030F               	mulwf	(___flmul@b+1)& (0+255),b
  3325  003BD2  CFF3 F225          	movff	prodl,___flmul@temp
  3326  003BD6  CFF4 F226          	movff	prodh,___flmul@temp+1
  3327                           
  3328                           ; BSR set to: 2
  3329  003BDA  5125               	movf	___flmul@temp& (0+255),w,b
  3330  003BDC  271B               	addwf	___flmul@grs& (0+255),f,b
  3331  003BDE  0E00               	movlw	0
  3332  003BE0  231C               	addwfc	(___flmul@grs+1)& (0+255),f,b
  3333  003BE2  231D               	addwfc	(___flmul@grs+2)& (0+255),f,b
  3334  003BE4  231E               	addwfc	(___flmul@grs+3)& (0+255),f,b
  3335                           
  3336                           ; BSR set to: 2
  3337  003BE6  5126               	movf	(___flmul@temp+1)& (0+255),w,b
  3338  003BE8  2721               	addwf	___flmul@prod& (0+255),f,b
  3339  003BEA  0E00               	movlw	0
  3340  003BEC  2322               	addwfc	(___flmul@prod+1)& (0+255),f,b
  3341  003BEE  2323               	addwfc	(___flmul@prod+2)& (0+255),f,b
  3342  003BF0  2324               	addwfc	(___flmul@prod+3)& (0+255),f,b
  3343  003BF2  5112               	movf	___flmul@a& (0+255),w,b
  3344  003BF4  0310               	mulwf	(___flmul@b+2)& (0+255),b
  3345  003BF6  CFF3 F225          	movff	prodl,___flmul@temp
  3346  003BFA  CFF4 F226          	movff	prodh,___flmul@temp+1
  3347                           
  3348                           ; BSR set to: 2
  3349  003BFE  5125               	movf	___flmul@temp& (0+255),w,b
  3350  003C00  271B               	addwf	___flmul@grs& (0+255),f,b
  3351  003C02  0E00               	movlw	0
  3352  003C04  231C               	addwfc	(___flmul@grs+1)& (0+255),f,b
  3353  003C06  231D               	addwfc	(___flmul@grs+2)& (0+255),f,b
  3354  003C08  231E               	addwfc	(___flmul@grs+3)& (0+255),f,b
  3355                           
  3356                           ; BSR set to: 2
  3357  003C0A  5126               	movf	(___flmul@temp+1)& (0+255),w,b
  3358  003C0C  2721               	addwf	___flmul@prod& (0+255),f,b
  3359  003C0E  0E00               	movlw	0
  3360  003C10  2322               	addwfc	(___flmul@prod+1)& (0+255),f,b
  3361  003C12  2323               	addwfc	(___flmul@prod+2)& (0+255),f,b
  3362  003C14  2324               	addwfc	(___flmul@prod+3)& (0+255),f,b
  3363                           
  3364                           ; BSR set to: 2
  3365  003C16  C21D  F21E         	movff	___flmul@grs+2,___flmul@grs+3
  3366  003C1A  C21C  F21D         	movff	___flmul@grs+1,___flmul@grs+2
  3367  003C1E  C21B  F21C         	movff	___flmul@grs,___flmul@grs+1
  3368  003C22  6B1B               	clrf	___flmul@grs& (0+255),b
  3369                           
  3370                           ; BSR set to: 2
  3371  003C24  5112               	movf	___flmul@a& (0+255),w,b
  3372  003C26  030F               	mulwf	(___flmul@b+1)& (0+255),b
  3373  003C28  CFF3 F225          	movff	prodl,___flmul@temp
  3374  003C2C  CFF4 F226          	movff	prodh,___flmul@temp+1
  3375                           
  3376                           ; BSR set to: 2
  3377  003C30  5125               	movf	___flmul@temp& (0+255),w,b
  3378  003C32  271B               	addwf	___flmul@grs& (0+255),f,b
  3379  003C34  5126               	movf	(___flmul@temp+1)& (0+255),w,b
  3380  003C36  231C               	addwfc	(___flmul@grs+1)& (0+255),f,b
  3381  003C38  0E00               	movlw	0
  3382  003C3A  231D               	addwfc	(___flmul@grs+2)& (0+255),f,b
  3383  003C3C  0E00               	movlw	0
  3384  003C3E  231E               	addwfc	(___flmul@grs+3)& (0+255),f,b
  3385                           
  3386                           ; BSR set to: 2
  3387  003C40  5113               	movf	(___flmul@a+1)& (0+255),w,b
  3388  003C42  030E               	mulwf	___flmul@b& (0+255),b
  3389  003C44  CFF3 F225          	movff	prodl,___flmul@temp
  3390  003C48  CFF4 F226          	movff	prodh,___flmul@temp+1
  3391                           
  3392                           ; BSR set to: 2
  3393  003C4C  5125               	movf	___flmul@temp& (0+255),w,b
  3394  003C4E  271B               	addwf	___flmul@grs& (0+255),f,b
  3395  003C50  5126               	movf	(___flmul@temp+1)& (0+255),w,b
  3396  003C52  231C               	addwfc	(___flmul@grs+1)& (0+255),f,b
  3397  003C54  0E00               	movlw	0
  3398  003C56  231D               	addwfc	(___flmul@grs+2)& (0+255),f,b
  3399  003C58  0E00               	movlw	0
  3400  003C5A  231E               	addwfc	(___flmul@grs+3)& (0+255),f,b
  3401                           
  3402                           ; BSR set to: 2
  3403  003C5C  C21D  F21E         	movff	___flmul@grs+2,___flmul@grs+3
  3404  003C60  C21C  F21D         	movff	___flmul@grs+1,___flmul@grs+2
  3405  003C64  C21B  F21C         	movff	___flmul@grs,___flmul@grs+1
  3406  003C68  6B1B               	clrf	___flmul@grs& (0+255),b
  3407  003C6A  5112               	movf	___flmul@a& (0+255),w,b
  3408  003C6C  030E               	mulwf	___flmul@b& (0+255),b
  3409  003C6E  CFF3 F225          	movff	prodl,___flmul@temp
  3410  003C72  CFF4 F226          	movff	prodh,___flmul@temp+1
  3411                           
  3412                           ; BSR set to: 2
  3413  003C76  5125               	movf	___flmul@temp& (0+255),w,b
  3414  003C78  271B               	addwf	___flmul@grs& (0+255),f,b
  3415  003C7A  5126               	movf	(___flmul@temp+1)& (0+255),w,b
  3416  003C7C  231C               	addwfc	(___flmul@grs+1)& (0+255),f,b
  3417  003C7E  0E00               	movlw	0
  3418  003C80  231D               	addwfc	(___flmul@grs+2)& (0+255),f,b
  3419  003C82  0E00               	movlw	0
  3420  003C84  231E               	addwfc	(___flmul@grs+3)& (0+255),f,b
  3421                           
  3422                           ; BSR set to: 2
  3423  003C86  5114               	movf	(___flmul@a+2)& (0+255),w,b
  3424  003C88  030F               	mulwf	(___flmul@b+1)& (0+255),b
  3425  003C8A  CFF3 F225          	movff	prodl,___flmul@temp
  3426  003C8E  CFF4 F226          	movff	prodh,___flmul@temp+1
  3427  003C92  5125               	movf	___flmul@temp& (0+255),w,b
  3428  003C94  2721               	addwf	___flmul@prod& (0+255),f,b
  3429  003C96  5126               	movf	(___flmul@temp+1)& (0+255),w,b
  3430  003C98  2322               	addwfc	(___flmul@prod+1)& (0+255),f,b
  3431  003C9A  0E00               	movlw	0
  3432  003C9C  2323               	addwfc	(___flmul@prod+2)& (0+255),f,b
  3433  003C9E  0E00               	movlw	0
  3434  003CA0  2324               	addwfc	(___flmul@prod+3)& (0+255),f,b
  3435                           
  3436                           ; BSR set to: 2
  3437  003CA2  5113               	movf	(___flmul@a+1)& (0+255),w,b
  3438  003CA4  0310               	mulwf	(___flmul@b+2)& (0+255),b
  3439  003CA6  CFF3 F225          	movff	prodl,___flmul@temp
  3440  003CAA  CFF4 F226          	movff	prodh,___flmul@temp+1
  3441                           
  3442                           ; BSR set to: 2
  3443  003CAE  5125               	movf	___flmul@temp& (0+255),w,b
  3444  003CB0  2721               	addwf	___flmul@prod& (0+255),f,b
  3445  003CB2  5126               	movf	(___flmul@temp+1)& (0+255),w,b
  3446  003CB4  2322               	addwfc	(___flmul@prod+1)& (0+255),f,b
  3447  003CB6  0E00               	movlw	0
  3448  003CB8  2323               	addwfc	(___flmul@prod+2)& (0+255),f,b
  3449  003CBA  0E00               	movlw	0
  3450  003CBC  2324               	addwfc	(___flmul@prod+3)& (0+255),f,b
  3451  003CBE  5114               	movf	(___flmul@a+2)& (0+255),w,b
  3452  003CC0  0310               	mulwf	(___flmul@b+2)& (0+255),b
  3453  003CC2  CFF3 F225          	movff	prodl,___flmul@temp
  3454  003CC6  CFF4 F226          	movff	prodh,___flmul@temp+1
  3455                           
  3456                           ; BSR set to: 2
  3457  003CCA  5125               	movf	___flmul@temp& (0+255),w,b
  3458  003CCC  6F16               	movwf	??___flmul& (0+255),b
  3459  003CCE  5126               	movf	(___flmul@temp+1)& (0+255),w,b
  3460  003CD0  6F17               	movwf	(??___flmul+1)& (0+255),b
  3461  003CD2  6B18               	clrf	(??___flmul+2)& (0+255),b
  3462  003CD4  6B19               	clrf	(??___flmul+3)& (0+255),b
  3463  003CD6  C218  F219         	movff	??___flmul+2,??___flmul+3
  3464  003CDA  C217  F218         	movff	??___flmul+1,??___flmul+2
  3465  003CDE  C216  F217         	movff	??___flmul,??___flmul+1
  3466  003CE2  6B16               	clrf	??___flmul& (0+255),b
  3467  003CE4  5116               	movf	??___flmul& (0+255),w,b
  3468  003CE6  2721               	addwf	___flmul@prod& (0+255),f,b
  3469  003CE8  5117               	movf	(??___flmul+1)& (0+255),w,b
  3470  003CEA  2322               	addwfc	(___flmul@prod+1)& (0+255),f,b
  3471  003CEC  5118               	movf	(??___flmul+2)& (0+255),w,b
  3472  003CEE  2323               	addwfc	(___flmul@prod+2)& (0+255),f,b
  3473  003CF0  5119               	movf	(??___flmul+3)& (0+255),w,b
  3474  003CF2  2324               	addwfc	(___flmul@prod+3)& (0+255),f,b
  3475                           
  3476                           ; BSR set to: 2
  3477  003CF4  C21B  F216         	movff	___flmul@grs,??___flmul
  3478  003CF8  C21C  F217         	movff	___flmul@grs+1,??___flmul+1
  3479  003CFC  C21D  F218         	movff	___flmul@grs+2,??___flmul+2
  3480  003D00  C21E  F219         	movff	___flmul@grs+3,??___flmul+3
  3481  003D04  0E19               	movlw	25
  3482  003D06  D005               	goto	u7010
  3483  003D08                     u7015:
  3484  003D08  90D8               	bcf	status,0,c
  3485  003D0A  3319               	rrcf	(??___flmul+3)& (0+255),f,b
  3486  003D0C  3318               	rrcf	(??___flmul+2)& (0+255),f,b
  3487  003D0E  3317               	rrcf	(??___flmul+1)& (0+255),f,b
  3488  003D10  3316               	rrcf	??___flmul& (0+255),f,b
  3489  003D12                     u7010:
  3490  003D12  2EE8               	decfsz	wreg,f,c
  3491  003D14  D7F9               	goto	u7015
  3492  003D16  5116               	movf	??___flmul& (0+255),w,b
  3493  003D18  2721               	addwf	___flmul@prod& (0+255),f,b
  3494  003D1A  5117               	movf	(??___flmul+1)& (0+255),w,b
  3495  003D1C  2322               	addwfc	(___flmul@prod+1)& (0+255),f,b
  3496  003D1E  5118               	movf	(??___flmul+2)& (0+255),w,b
  3497  003D20  2323               	addwfc	(___flmul@prod+2)& (0+255),f,b
  3498  003D22  5119               	movf	(??___flmul+3)& (0+255),w,b
  3499  003D24  2324               	addwfc	(___flmul@prod+3)& (0+255),f,b
  3500                           
  3501                           ; BSR set to: 2
  3502  003D26  C21D  F21E         	movff	___flmul@grs+2,___flmul@grs+3
  3503  003D2A  C21C  F21D         	movff	___flmul@grs+1,___flmul@grs+2
  3504  003D2E  C21B  F21C         	movff	___flmul@grs,___flmul@grs+1
  3505  003D32  6B1B               	clrf	___flmul@grs& (0+255),b
  3506                           
  3507                           ; BSR set to: 2
  3508  003D34  511F               	movf	___flmul@aexp& (0+255),w,b
  3509  003D36  C220  F216         	movff	___flmul@bexp,??___flmul
  3510  003D3A  6B17               	clrf	(??___flmul+1)& (0+255),b
  3511  003D3C  2716               	addwf	??___flmul& (0+255),f,b
  3512  003D3E  0E00               	movlw	0
  3513  003D40  2317               	addwfc	(??___flmul+1)& (0+255),f,b
  3514  003D42  0E82               	movlw	130
  3515  003D44  2516               	addwf	??___flmul& (0+255),w,b
  3516  003D46  6F25               	movwf	___flmul@temp& (0+255),b
  3517  003D48  0EFF               	movlw	255
  3518  003D4A  2117               	addwfc	(??___flmul+1)& (0+255),w,b
  3519  003D4C  6F26               	movwf	(___flmul@temp+1)& (0+255),b
  3520  003D4E  D00F               	goto	l5938
  3521  003D50                     l5932:
  3522                           
  3523                           ; BSR set to: 2
  3524  003D50  90D8               	bcf	status,0,c
  3525  003D52  3721               	rlcf	___flmul@prod& (0+255),f,b
  3526  003D54  3722               	rlcf	(___flmul@prod+1)& (0+255),f,b
  3527  003D56  3723               	rlcf	(___flmul@prod+2)& (0+255),f,b
  3528  003D58  3724               	rlcf	(___flmul@prod+3)& (0+255),f,b
  3529                           
  3530                           ; BSR set to: 2
  3531  003D5A  BF1E               	btfsc	(___flmul@grs+3)& (0+255),7,b
  3532                           
  3533                           ; BSR set to: 2
  3534  003D5C  8121               	bsf	___flmul@prod& (0+255),0,b
  3535                           
  3536                           ; BSR set to: 2
  3537  003D5E  90D8               	bcf	status,0,c
  3538  003D60  371B               	rlcf	___flmul@grs& (0+255),f,b
  3539  003D62  371C               	rlcf	(___flmul@grs+1)& (0+255),f,b
  3540  003D64  371D               	rlcf	(___flmul@grs+2)& (0+255),f,b
  3541  003D66  371E               	rlcf	(___flmul@grs+3)& (0+255),f,b
  3542  003D68  0725               	decf	___flmul@temp& (0+255),f,b
  3543  003D6A  A0D8               	btfss	status,0,c
  3544  003D6C  0726               	decf	(___flmul@temp+1)& (0+255),f,b
  3545  003D6E                     l5938:
  3546                           
  3547                           ; BSR set to: 2
  3548  003D6E  AF23               	btfss	(___flmul@prod+2)& (0+255),7,b
  3549  003D70  D7EF               	goto	l5932
  3550                           
  3551                           ; BSR set to: 2
  3552  003D72  0E00               	movlw	0
  3553  003D74  6F1F               	movwf	___flmul@aexp& (0+255),b
  3554                           
  3555                           ; BSR set to: 2
  3556  003D76  AF1E               	btfss	(___flmul@grs+3)& (0+255),7,b
  3557  003D78  D017               	goto	l963
  3558                           
  3559                           ; BSR set to: 2
  3560  003D7A  0EFF               	movlw	255
  3561  003D7C  151B               	andwf	___flmul@grs& (0+255),w,b
  3562  003D7E  6F16               	movwf	??___flmul& (0+255),b
  3563  003D80  0EFF               	movlw	255
  3564  003D82  151C               	andwf	(___flmul@grs+1)& (0+255),w,b
  3565  003D84  6F17               	movwf	(??___flmul+1)& (0+255),b
  3566  003D86  0EFF               	movlw	255
  3567  003D88  151D               	andwf	(___flmul@grs+2)& (0+255),w,b
  3568  003D8A  6F18               	movwf	(??___flmul+2)& (0+255),b
  3569  003D8C  0E7F               	movlw	127
  3570  003D8E  151E               	andwf	(___flmul@grs+3)& (0+255),w,b
  3571  003D90  6F19               	movwf	(??___flmul+3)& (0+255),b
  3572  003D92  5116               	movf	??___flmul& (0+255),w,b
  3573  003D94  1117               	iorwf	(??___flmul+1)& (0+255),w,b
  3574  003D96  1118               	iorwf	(??___flmul+2)& (0+255),w,b
  3575  003D98  1119               	iorwf	(??___flmul+3)& (0+255),w,b
  3576  003D9A  B4D8               	btfsc	status,2,c
  3577  003D9C  D003               	goto	l964
  3578  003D9E                     u7050:
  3579                           
  3580                           ; BSR set to: 2
  3581  003D9E  0E01               	movlw	1
  3582  003DA0  6F1F               	movwf	___flmul@aexp& (0+255),b
  3583  003DA2  D002               	goto	l963
  3584  003DA4                     l964:
  3585                           
  3586                           ; BSR set to: 2
  3587  003DA4  B121               	btfsc	___flmul@prod& (0+255),0,b
  3588  003DA6  D7FB               	goto	u7050
  3589  003DA8                     l963:
  3590                           
  3591                           ; BSR set to: 2
  3592  003DA8  511F               	movf	___flmul@aexp& (0+255),w,b
  3593  003DAA  B4D8               	btfsc	status,2,c
  3594  003DAC  D01F               	goto	l5958
  3595                           
  3596                           ; BSR set to: 2
  3597  003DAE  0E01               	movlw	1
  3598  003DB0  2721               	addwf	___flmul@prod& (0+255),f,b
  3599  003DB2  0E00               	movlw	0
  3600  003DB4  2322               	addwfc	(___flmul@prod+1)& (0+255),f,b
  3601  003DB6  2323               	addwfc	(___flmul@prod+2)& (0+255),f,b
  3602  003DB8  2324               	addwfc	(___flmul@prod+3)& (0+255),f,b
  3603                           
  3604                           ; BSR set to: 2
  3605  003DBA  A124               	btfss	(___flmul@prod+3)& (0+255),0,b
  3606  003DBC  D017               	goto	l5958
  3607                           
  3608                           ; BSR set to: 2
  3609  003DBE  C221  F216         	movff	___flmul@prod,??___flmul
  3610  003DC2  C222  F217         	movff	___flmul@prod+1,??___flmul+1
  3611  003DC6  C223  F218         	movff	___flmul@prod+2,??___flmul+2
  3612  003DCA  C224  F219         	movff	___flmul@prod+3,??___flmul+3
  3613  003DCE  3519               	rlcf	(??___flmul+3)& (0+255),w,b
  3614  003DD0  3319               	rrcf	(??___flmul+3)& (0+255),f,b
  3615  003DD2  3318               	rrcf	(??___flmul+2)& (0+255),f,b
  3616  003DD4  3317               	rrcf	(??___flmul+1)& (0+255),f,b
  3617  003DD6  3316               	rrcf	??___flmul& (0+255),f,b
  3618  003DD8  C216  F221         	movff	??___flmul,___flmul@prod
  3619  003DDC  C217  F222         	movff	??___flmul+1,___flmul@prod+1
  3620  003DE0  C218  F223         	movff	??___flmul+2,___flmul@prod+2
  3621  003DE4  C219  F224         	movff	??___flmul+3,___flmul@prod+3
  3622                           
  3623                           ; BSR set to: 2
  3624  003DE8  4B25               	infsnz	___flmul@temp& (0+255),f,b
  3625  003DEA  2B26               	incf	(___flmul@temp+1)& (0+255),f,b
  3626  003DEC                     l5958:
  3627                           
  3628                           ; BSR set to: 2
  3629  003DEC  BF26               	btfsc	(___flmul@temp+1)& (0+255),7,b
  3630  003DEE  D00D               	goto	l5962
  3631  003DF0  5126               	movf	(___flmul@temp+1)& (0+255),w,b
  3632  003DF2  E103               	bnz	u7090
  3633  003DF4  2925               	incf	___flmul@temp& (0+255),w,b
  3634  003DF6  A0D8               	btfss	status,0,c
  3635  003DF8  D008               	goto	l5962
  3636  003DFA                     u7090:
  3637                           
  3638                           ; BSR set to: 2
  3639  003DFA  0E00               	movlw	0
  3640  003DFC  6F21               	movwf	___flmul@prod& (0+255),b
  3641  003DFE  0E00               	movlw	0
  3642  003E00  6F22               	movwf	(___flmul@prod+1)& (0+255),b
  3643  003E02  0E80               	movlw	128
  3644  003E04  6F23               	movwf	(___flmul@prod+2)& (0+255),b
  3645  003E06  0E7F               	movlw	127
  3646  003E08  D020               	goto	L1
  3647  003E0A                     l5962:
  3648                           
  3649                           ; BSR set to: 2
  3650  003E0A  BF26               	btfsc	(___flmul@temp+1)& (0+255),7,b
  3651  003E0C  D005               	goto	u7100
  3652  003E0E  5126               	movf	(___flmul@temp+1)& (0+255),w,b
  3653  003E10  E10E               	bnz	l971
  3654  003E12  0525               	decf	___flmul@temp& (0+255),w,b
  3655  003E14  B0D8               	btfsc	status,0,c
  3656  003E16  D00B               	goto	l971
  3657  003E18                     u7100:
  3658                           
  3659                           ; BSR set to: 2
  3660  003E18  0E00               	movlw	0
  3661  003E1A  6F21               	movwf	___flmul@prod& (0+255),b
  3662  003E1C  0E00               	movlw	0
  3663  003E1E  6F22               	movwf	(___flmul@prod+1)& (0+255),b
  3664  003E20  0E00               	movlw	0
  3665  003E22  6F23               	movwf	(___flmul@prod+2)& (0+255),b
  3666  003E24  0E00               	movlw	0
  3667  003E26  6F24               	movwf	(___flmul@prod+3)& (0+255),b
  3668  003E28  0E00               	movlw	0
  3669  003E2A  6F1A               	movwf	___flmul@sign& (0+255),b
  3670  003E2C  D00F               	goto	l5974
  3671  003E2E                     l971:
  3672                           
  3673                           ; BSR set to: 2
  3674  003E2E  C225  F220         	movff	___flmul@temp,___flmul@bexp
  3675                           
  3676                           ; BSR set to: 2
  3677  003E32  0EFF               	movlw	255
  3678  003E34  1721               	andwf	___flmul@prod& (0+255),f,b
  3679  003E36  0EFF               	movlw	255
  3680  003E38  1722               	andwf	(___flmul@prod+1)& (0+255),f,b
  3681  003E3A  0E7F               	movlw	127
  3682  003E3C  1723               	andwf	(___flmul@prod+2)& (0+255),f,b
  3683  003E3E  0E00               	movlw	0
  3684  003E40  1724               	andwf	(___flmul@prod+3)& (0+255),f,b
  3685                           
  3686                           ; BSR set to: 2
  3687  003E42  B120               	btfsc	___flmul@bexp& (0+255),0,b
  3688                           
  3689                           ; BSR set to: 2
  3690  003E44  8F23               	bsf	(___flmul@prod+2)& (0+255),7,b
  3691                           
  3692                           ; BSR set to: 2
  3693  003E46  90D8               	bcf	status,0,c
  3694  003E48  3120               	rrcf	___flmul@bexp& (0+255),w,b
  3695  003E4A                     L1:
  3696  003E4A  6F24               	movwf	(___flmul@prod+3)& (0+255),b
  3697  003E4C                     l5974:
  3698                           
  3699                           ; BSR set to: 2
  3700  003E4C  511A               	movf	___flmul@sign& (0+255),w,b
  3701  003E4E  1324               	iorwf	(___flmul@prod+3)& (0+255),f,b
  3702                           
  3703                           ; BSR set to: 2
  3704  003E50  C221  F20E         	movff	___flmul@prod,?___flmul
  3705  003E54  C222  F20F         	movff	___flmul@prod+1,?___flmul+1
  3706  003E58  C223  F210         	movff	___flmul@prod+2,?___flmul+2
  3707  003E5C  C224  F211         	movff	___flmul@prod+3,?___flmul+3
  3708                           
  3709                           ; BSR set to: 2
  3710  003E60  0012               	return		;funcret
  3711  003E62                     __end_of___flmul:
  3712                           	opt callstack 0
  3713                           
  3714 ;; *************** function ___fldiv *****************
  3715 ;; Defined at:
  3716 ;;		line 11 in file "C:\Program Files (x86)\Microchip\xc8\v2.10\pic\sources\c99\common\sprcdiv.c"
  3717 ;; Parameters:    Size  Location     Type
  3718 ;;  b               4   39[BANK2 ] unsigned char 
  3719 ;;  a               4   43[BANK2 ] unsigned char 
  3720 ;; Auto vars:     Size  Location     Type
  3721 ;;  grs             4   58[BANK2 ] unsigned long 
  3722 ;;  rem             4   51[BANK2 ] unsigned long 
  3723 ;;  new_exp         2   56[BANK2 ] short 
  3724 ;;  aexp            1   63[BANK2 ] unsigned char 
  3725 ;;  bexp            1   62[BANK2 ] unsigned char 
  3726 ;;  sign            1   55[BANK2 ] unsigned char 
  3727 ;; Return value:  Size  Location     Type
  3728 ;;                  4   39[BANK2 ] unsigned char 
  3729 ;; Registers used:
  3730 ;;		wreg, status,2, status,0
  3731 ;; Tracked objects:
  3732 ;;		On entry : 0/0
  3733 ;;		On exit  : 0/0
  3734 ;;		Unchanged: 0/0
  3735 ;; Data sizes:     COMRAM   BANK0   BANK1   BANK2   BANK3   BANK4   BANK5
  3736 ;;      Params:         0       0       0       8       0       0       0
  3737 ;;      Locals:         0       0       0      13       0       0       0
  3738 ;;      Temps:          0       0       0       4       0       0       0
  3739 ;;      Totals:         0       0       0      25       0       0       0
  3740 ;;Total ram usage:       25 bytes
  3741 ;; Hardware stack levels used:    1
  3742 ;; Hardware stack levels required when called:    9
  3743 ;; This function calls:
  3744 ;;		Nothing
  3745 ;; This function is called by:
  3746 ;;		_ADC_Initialize
  3747 ;; This function uses a non-reentrant model
  3748 ;;
  3749                           
  3750                           	psect	text16
  3751  004AA6                     __ptext16:
  3752                           	opt callstack 0
  3753  004AA6                     ___fldiv:
  3754                           	opt callstack 19
  3755                           
  3756                           ; BSR set to: 2
  3757                           ;incstack = 0
  3758  004AA6  0102               	movlb	2	; () banked
  3759  004AA8  512A               	movf	(___fldiv@b+3)& (0+255),w,b
  3760  004AAA  0B80               	andlw	128
  3761  004AAC  6F37               	movwf	___fldiv@sign& (0+255),b
  3762  004AAE  512A               	movf	(___fldiv@b+3)& (0+255),w,b
  3763  004AB0  252A               	addwf	(___fldiv@b+3)& (0+255),w,b
  3764  004AB2  6F3E               	movwf	___fldiv@bexp& (0+255),b
  3765                           
  3766                           ; BSR set to: 2
  3767  004AB4  BF29               	btfsc	(___fldiv@b+2)& (0+255),7,b
  3768                           
  3769                           ; BSR set to: 2
  3770  004AB6  813E               	bsf	___fldiv@bexp& (0+255),0,b
  3771                           
  3772                           ; BSR set to: 2
  3773  004AB8  513E               	movf	___fldiv@bexp& (0+255),w,b
  3774  004ABA  B4D8               	btfsc	status,2,c
  3775  004ABC  D00D               	goto	l5728
  3776                           
  3777                           ; BSR set to: 2
  3778  004ABE  293E               	incf	___fldiv@bexp& (0+255),w,b
  3779  004AC0  A4D8               	btfss	status,2,c
  3780  004AC2  D008               	goto	l5724
  3781                           
  3782                           ; BSR set to: 2
  3783  004AC4  0E00               	movlw	0
  3784  004AC6  6F27               	movwf	___fldiv@b& (0+255),b
  3785  004AC8  0E00               	movlw	0
  3786  004ACA  6F28               	movwf	(___fldiv@b+1)& (0+255),b
  3787  004ACC  0E00               	movlw	0
  3788  004ACE  6F29               	movwf	(___fldiv@b+2)& (0+255),b
  3789  004AD0  0E00               	movlw	0
  3790  004AD2  6F2A               	movwf	(___fldiv@b+3)& (0+255),b
  3791  004AD4                     l5724:
  3792                           
  3793                           ; BSR set to: 2
  3794  004AD4  8F29               	bsf	(___fldiv@b+2)& (0+255),7,b
  3795  004AD6  D006               	goto	L2
  3796  004AD8                     l5728:
  3797                           
  3798                           ; BSR set to: 2
  3799  004AD8  0E00               	movlw	0
  3800  004ADA  6F27               	movwf	___fldiv@b& (0+255),b
  3801  004ADC  0E00               	movlw	0
  3802  004ADE  6F28               	movwf	(___fldiv@b+1)& (0+255),b
  3803  004AE0  0E00               	movlw	0
  3804  004AE2  6F29               	movwf	(___fldiv@b+2)& (0+255),b
  3805  004AE4                     L2:
  3806  004AE4  0E00               	movlw	0
  3807  004AE6  6F2A               	movwf	(___fldiv@b+3)& (0+255),b
  3808                           
  3809                           ; BSR set to: 2
  3810  004AE8  512E               	movf	(___fldiv@a+3)& (0+255),w,b
  3811  004AEA  0B80               	andlw	128
  3812  004AEC  1B37               	xorwf	___fldiv@sign& (0+255),f,b
  3813                           
  3814                           ; BSR set to: 2
  3815  004AEE  512E               	movf	(___fldiv@a+3)& (0+255),w,b
  3816  004AF0  252E               	addwf	(___fldiv@a+3)& (0+255),w,b
  3817  004AF2  6F3F               	movwf	___fldiv@aexp& (0+255),b
  3818                           
  3819                           ; BSR set to: 2
  3820  004AF4  BF2D               	btfsc	(___fldiv@a+2)& (0+255),7,b
  3821                           
  3822                           ; BSR set to: 2
  3823  004AF6  813F               	bsf	___fldiv@aexp& (0+255),0,b
  3824                           
  3825                           ; BSR set to: 2
  3826  004AF8  513F               	movf	___fldiv@aexp& (0+255),w,b
  3827  004AFA  B4D8               	btfsc	status,2,c
  3828  004AFC  D00D               	goto	l5748
  3829                           
  3830                           ; BSR set to: 2
  3831  004AFE  293F               	incf	___fldiv@aexp& (0+255),w,b
  3832  004B00  A4D8               	btfss	status,2,c
  3833  004B02  D008               	goto	l5744
  3834                           
  3835                           ; BSR set to: 2
  3836  004B04  0E00               	movlw	0
  3837  004B06  6F2B               	movwf	___fldiv@a& (0+255),b
  3838  004B08  0E00               	movlw	0
  3839  004B0A  6F2C               	movwf	(___fldiv@a+1)& (0+255),b
  3840  004B0C  0E00               	movlw	0
  3841  004B0E  6F2D               	movwf	(___fldiv@a+2)& (0+255),b
  3842  004B10  0E00               	movlw	0
  3843  004B12  6F2E               	movwf	(___fldiv@a+3)& (0+255),b
  3844  004B14                     l5744:
  3845                           
  3846                           ; BSR set to: 2
  3847  004B14  8F2D               	bsf	(___fldiv@a+2)& (0+255),7,b
  3848  004B16  D006               	goto	L3
  3849  004B18                     l5748:
  3850                           
  3851                           ; BSR set to: 2
  3852  004B18  0E00               	movlw	0
  3853  004B1A  6F2B               	movwf	___fldiv@a& (0+255),b
  3854  004B1C  0E00               	movlw	0
  3855  004B1E  6F2C               	movwf	(___fldiv@a+1)& (0+255),b
  3856  004B20  0E00               	movlw	0
  3857  004B22  6F2D               	movwf	(___fldiv@a+2)& (0+255),b
  3858  004B24                     L3:
  3859  004B24  0E00               	movlw	0
  3860  004B26  6F2E               	movwf	(___fldiv@a+3)& (0+255),b
  3861                           
  3862                           ; BSR set to: 2
  3863  004B28  512B               	movf	___fldiv@a& (0+255),w,b
  3864  004B2A  112C               	iorwf	(___fldiv@a+1)& (0+255),w,b
  3865  004B2C  112D               	iorwf	(___fldiv@a+2)& (0+255),w,b
  3866  004B2E  112E               	iorwf	(___fldiv@a+3)& (0+255),w,b
  3867  004B30  A4D8               	btfss	status,2,c
  3868  004B32  D017               	goto	l5762
  3869                           
  3870                           ; BSR set to: 2
  3871  004B34  0E00               	movlw	0
  3872  004B36  6F27               	movwf	___fldiv@b& (0+255),b
  3873  004B38  0E00               	movlw	0
  3874  004B3A  6F28               	movwf	(___fldiv@b+1)& (0+255),b
  3875  004B3C  0E00               	movlw	0
  3876  004B3E  6F29               	movwf	(___fldiv@b+2)& (0+255),b
  3877  004B40  0E00               	movlw	0
  3878  004B42  6F2A               	movwf	(___fldiv@b+3)& (0+255),b
  3879                           
  3880                           ; BSR set to: 2
  3881  004B44  0E80               	movlw	128
  3882  004B46  1329               	iorwf	(___fldiv@b+2)& (0+255),f,b
  3883  004B48  0E7F               	movlw	127
  3884  004B4A  132A               	iorwf	(___fldiv@b+3)& (0+255),f,b
  3885  004B4C                     l5756:
  3886                           
  3887                           ; BSR set to: 2
  3888  004B4C  5137               	movf	___fldiv@sign& (0+255),w,b
  3889  004B4E  132A               	iorwf	(___fldiv@b+3)& (0+255),f,b
  3890                           
  3891                           ; BSR set to: 2
  3892  004B50  C227  F227         	movff	___fldiv@b,?___fldiv
  3893  004B54  C228  F228         	movff	___fldiv@b+1,?___fldiv+1
  3894  004B58  C229  F229         	movff	___fldiv@b+2,?___fldiv+2
  3895  004B5C  C22A  F22A         	movff	___fldiv@b+3,?___fldiv+3
  3896  004B60  0012               	return	
  3897  004B62                     l5762:
  3898                           
  3899                           ; BSR set to: 2
  3900  004B62  513E               	movf	___fldiv@bexp& (0+255),w,b
  3901  004B64  A4D8               	btfss	status,2,c
  3902  004B66  D009               	goto	l5770
  3903                           
  3904                           ; BSR set to: 2
  3905                           
  3906                           ; BSR set to: 2
  3907  004B68  0E00               	movlw	0
  3908  004B6A  6F27               	movwf	?___fldiv& (0+255),b
  3909  004B6C  0E00               	movlw	0
  3910  004B6E  6F28               	movwf	(?___fldiv+1)& (0+255),b
  3911  004B70  0E00               	movlw	0
  3912  004B72  6F29               	movwf	(?___fldiv+2)& (0+255),b
  3913  004B74  0E00               	movlw	0
  3914  004B76  6F2A               	movwf	(?___fldiv+3)& (0+255),b
  3915  004B78  0012               	return	
  3916  004B7A                     l5770:
  3917                           
  3918                           ; BSR set to: 2
  3919  004B7A  513F               	movf	___fldiv@aexp& (0+255),w,b
  3920  004B7C  C23E  F22F         	movff	___fldiv@bexp,??___fldiv
  3921  004B80  6B30               	clrf	(??___fldiv+1)& (0+255),b
  3922  004B82  5F2F               	subwf	??___fldiv& (0+255),f,b
  3923  004B84  0E00               	movlw	0
  3924  004B86  5B30               	subwfb	(??___fldiv+1)& (0+255),f,b
  3925  004B88  0E7F               	movlw	127
  3926  004B8A  252F               	addwf	??___fldiv& (0+255),w,b
  3927  004B8C  6F38               	movwf	___fldiv@new_exp& (0+255),b
  3928  004B8E  0E00               	movlw	0
  3929  004B90  2130               	addwfc	(??___fldiv+1)& (0+255),w,b
  3930  004B92  6F39               	movwf	(___fldiv@new_exp+1)& (0+255),b
  3931                           
  3932                           ; BSR set to: 2
  3933  004B94  C227  F233         	movff	___fldiv@b,___fldiv@rem
  3934  004B98  C228  F234         	movff	___fldiv@b+1,___fldiv@rem+1
  3935  004B9C  C229  F235         	movff	___fldiv@b+2,___fldiv@rem+2
  3936  004BA0  C22A  F236         	movff	___fldiv@b+3,___fldiv@rem+3
  3937                           
  3938                           ; BSR set to: 2
  3939  004BA4  0E00               	movlw	0
  3940  004BA6  6F27               	movwf	___fldiv@b& (0+255),b
  3941  004BA8  0E00               	movlw	0
  3942  004BAA  6F28               	movwf	(___fldiv@b+1)& (0+255),b
  3943  004BAC  0E00               	movlw	0
  3944  004BAE  6F29               	movwf	(___fldiv@b+2)& (0+255),b
  3945  004BB0  0E00               	movlw	0
  3946  004BB2  6F2A               	movwf	(___fldiv@b+3)& (0+255),b
  3947                           
  3948                           ; BSR set to: 2
  3949  004BB4  0E00               	movlw	0
  3950  004BB6  6F3A               	movwf	___fldiv@grs& (0+255),b
  3951  004BB8  0E00               	movlw	0
  3952  004BBA  6F3B               	movwf	(___fldiv@grs+1)& (0+255),b
  3953  004BBC  0E00               	movlw	0
  3954  004BBE  6F3C               	movwf	(___fldiv@grs+2)& (0+255),b
  3955  004BC0  0E00               	movlw	0
  3956  004BC2  6F3D               	movwf	(___fldiv@grs+3)& (0+255),b
  3957                           
  3958                           ; BSR set to: 2
  3959  004BC4  0E00               	movlw	0
  3960  004BC6  6F3F               	movwf	___fldiv@aexp& (0+255),b
  3961  004BC8  D028               	goto	l924
  3962  004BCA                     l5780:
  3963                           
  3964                           ; BSR set to: 2
  3965  004BCA  513F               	movf	___fldiv@aexp& (0+255),w,b
  3966  004BCC  B4D8               	btfsc	status,2,c
  3967  004BCE  D011               	goto	l5788
  3968                           
  3969                           ; BSR set to: 2
  3970  004BD0  90D8               	bcf	status,0,c
  3971  004BD2  3733               	rlcf	___fldiv@rem& (0+255),f,b
  3972  004BD4  3734               	rlcf	(___fldiv@rem+1)& (0+255),f,b
  3973  004BD6  3735               	rlcf	(___fldiv@rem+2)& (0+255),f,b
  3974  004BD8  3736               	rlcf	(___fldiv@rem+3)& (0+255),f,b
  3975  004BDA  90D8               	bcf	status,0,c
  3976  004BDC  3727               	rlcf	___fldiv@b& (0+255),f,b
  3977  004BDE  3728               	rlcf	(___fldiv@b+1)& (0+255),f,b
  3978  004BE0  3729               	rlcf	(___fldiv@b+2)& (0+255),f,b
  3979  004BE2  372A               	rlcf	(___fldiv@b+3)& (0+255),f,b
  3980                           
  3981                           ; BSR set to: 2
  3982  004BE4  BF3D               	btfsc	(___fldiv@grs+3)& (0+255),7,b
  3983                           
  3984                           ; BSR set to: 2
  3985  004BE6  8127               	bsf	___fldiv@b& (0+255),0,b
  3986                           
  3987                           ; BSR set to: 2
  3988  004BE8  90D8               	bcf	status,0,c
  3989  004BEA  373A               	rlcf	___fldiv@grs& (0+255),f,b
  3990  004BEC  373B               	rlcf	(___fldiv@grs+1)& (0+255),f,b
  3991  004BEE  373C               	rlcf	(___fldiv@grs+2)& (0+255),f,b
  3992  004BF0  373D               	rlcf	(___fldiv@grs+3)& (0+255),f,b
  3993  004BF2                     l5788:
  3994                           
  3995                           ; BSR set to: 2
  3996  004BF2  512B               	movf	___fldiv@a& (0+255),w,b
  3997  004BF4  5D33               	subwf	___fldiv@rem& (0+255),w,b
  3998  004BF6  512C               	movf	(___fldiv@a+1)& (0+255),w,b
  3999  004BF8  5934               	subwfb	(___fldiv@rem+1)& (0+255),w,b
  4000  004BFA  512D               	movf	(___fldiv@a+2)& (0+255),w,b
  4001  004BFC  5935               	subwfb	(___fldiv@rem+2)& (0+255),w,b
  4002  004BFE  512E               	movf	(___fldiv@a+3)& (0+255),w,b
  4003  004C00  5936               	subwfb	(___fldiv@rem+3)& (0+255),w,b
  4004  004C02  A0D8               	btfss	status,0,c
  4005  004C04  D009               	goto	l5794
  4006                           
  4007                           ; BSR set to: 2
  4008  004C06  8D3D               	bsf	(___fldiv@grs+3)& (0+255),6,b
  4009                           
  4010                           ; BSR set to: 2
  4011  004C08  512B               	movf	___fldiv@a& (0+255),w,b
  4012  004C0A  5F33               	subwf	___fldiv@rem& (0+255),f,b
  4013  004C0C  512C               	movf	(___fldiv@a+1)& (0+255),w,b
  4014  004C0E  5B34               	subwfb	(___fldiv@rem+1)& (0+255),f,b
  4015  004C10  512D               	movf	(___fldiv@a+2)& (0+255),w,b
  4016  004C12  5B35               	subwfb	(___fldiv@rem+2)& (0+255),f,b
  4017  004C14  512E               	movf	(___fldiv@a+3)& (0+255),w,b
  4018  004C16  5B36               	subwfb	(___fldiv@rem+3)& (0+255),f,b
  4019  004C18                     l5794:
  4020                           
  4021                           ; BSR set to: 2
  4022  004C18  2B3F               	incf	___fldiv@aexp& (0+255),f,b
  4023  004C1A                     l924:
  4024                           
  4025                           ; BSR set to: 2
  4026  004C1A  0E19               	movlw	25
  4027  004C1C  653F               	cpfsgt	___fldiv@aexp& (0+255),b
  4028  004C1E  D7D5               	goto	l5780
  4029                           
  4030                           ; BSR set to: 2
  4031  004C20  5133               	movf	___fldiv@rem& (0+255),w,b
  4032  004C22  1134               	iorwf	(___fldiv@rem+1)& (0+255),w,b
  4033  004C24  1135               	iorwf	(___fldiv@rem+2)& (0+255),w,b
  4034  004C26  1136               	iorwf	(___fldiv@rem+3)& (0+255),w,b
  4035  004C28  B4D8               	btfsc	status,2,c
  4036  004C2A  D011               	goto	l5806
  4037                           
  4038                           ; BSR set to: 2
  4039  004C2C  813A               	bsf	___fldiv@grs& (0+255),0,b
  4040  004C2E  D00F               	goto	l5806
  4041  004C30                     l5800:
  4042                           
  4043                           ; BSR set to: 2
  4044  004C30  90D8               	bcf	status,0,c
  4045  004C32  3727               	rlcf	___fldiv@b& (0+255),f,b
  4046  004C34  3728               	rlcf	(___fldiv@b+1)& (0+255),f,b
  4047  004C36  3729               	rlcf	(___fldiv@b+2)& (0+255),f,b
  4048  004C38  372A               	rlcf	(___fldiv@b+3)& (0+255),f,b
  4049                           
  4050                           ; BSR set to: 2
  4051  004C3A  BF3D               	btfsc	(___fldiv@grs+3)& (0+255),7,b
  4052                           
  4053                           ; BSR set to: 2
  4054  004C3C  8127               	bsf	___fldiv@b& (0+255),0,b
  4055                           
  4056                           ; BSR set to: 2
  4057  004C3E  90D8               	bcf	status,0,c
  4058  004C40  373A               	rlcf	___fldiv@grs& (0+255),f,b
  4059  004C42  373B               	rlcf	(___fldiv@grs+1)& (0+255),f,b
  4060  004C44  373C               	rlcf	(___fldiv@grs+2)& (0+255),f,b
  4061  004C46  373D               	rlcf	(___fldiv@grs+3)& (0+255),f,b
  4062  004C48  0738               	decf	___fldiv@new_exp& (0+255),f,b
  4063  004C4A  A0D8               	btfss	status,0,c
  4064  004C4C  0739               	decf	(___fldiv@new_exp+1)& (0+255),f,b
  4065  004C4E                     l5806:
  4066                           
  4067                           ; BSR set to: 2
  4068  004C4E  AF29               	btfss	(___fldiv@b+2)& (0+255),7,b
  4069  004C50  D7EF               	goto	l5800
  4070                           
  4071                           ; BSR set to: 2
  4072  004C52  0E00               	movlw	0
  4073  004C54  6F3F               	movwf	___fldiv@aexp& (0+255),b
  4074                           
  4075                           ; BSR set to: 2
  4076  004C56  AF3D               	btfss	(___fldiv@grs+3)& (0+255),7,b
  4077  004C58  D017               	goto	l935
  4078                           
  4079                           ; BSR set to: 2
  4080  004C5A  0EFF               	movlw	255
  4081  004C5C  153A               	andwf	___fldiv@grs& (0+255),w,b
  4082  004C5E  6F2F               	movwf	??___fldiv& (0+255),b
  4083  004C60  0EFF               	movlw	255
  4084  004C62  153B               	andwf	(___fldiv@grs+1)& (0+255),w,b
  4085  004C64  6F30               	movwf	(??___fldiv+1)& (0+255),b
  4086  004C66  0EFF               	movlw	255
  4087  004C68  153C               	andwf	(___fldiv@grs+2)& (0+255),w,b
  4088  004C6A  6F31               	movwf	(??___fldiv+2)& (0+255),b
  4089  004C6C  0E7F               	movlw	127
  4090  004C6E  153D               	andwf	(___fldiv@grs+3)& (0+255),w,b
  4091  004C70  6F32               	movwf	(??___fldiv+3)& (0+255),b
  4092  004C72  512F               	movf	??___fldiv& (0+255),w,b
  4093  004C74  1130               	iorwf	(??___fldiv+1)& (0+255),w,b
  4094  004C76  1131               	iorwf	(??___fldiv+2)& (0+255),w,b
  4095  004C78  1132               	iorwf	(??___fldiv+3)& (0+255),w,b
  4096  004C7A  B4D8               	btfsc	status,2,c
  4097  004C7C  D003               	goto	l936
  4098  004C7E                     u6860:
  4099                           
  4100                           ; BSR set to: 2
  4101  004C7E  0E01               	movlw	1
  4102  004C80  6F3F               	movwf	___fldiv@aexp& (0+255),b
  4103  004C82  D002               	goto	l935
  4104  004C84                     l936:
  4105                           
  4106                           ; BSR set to: 2
  4107  004C84  B127               	btfsc	___fldiv@b& (0+255),0,b
  4108  004C86  D7FB               	goto	u6860
  4109  004C88                     l935:
  4110                           
  4111                           ; BSR set to: 2
  4112  004C88  513F               	movf	___fldiv@aexp& (0+255),w,b
  4113  004C8A  B4D8               	btfsc	status,2,c
  4114  004C8C  D01F               	goto	l5826
  4115                           
  4116                           ; BSR set to: 2
  4117  004C8E  0E01               	movlw	1
  4118  004C90  2727               	addwf	___fldiv@b& (0+255),f,b
  4119  004C92  0E00               	movlw	0
  4120  004C94  2328               	addwfc	(___fldiv@b+1)& (0+255),f,b
  4121  004C96  2329               	addwfc	(___fldiv@b+2)& (0+255),f,b
  4122  004C98  232A               	addwfc	(___fldiv@b+3)& (0+255),f,b
  4123                           
  4124                           ; BSR set to: 2
  4125  004C9A  A12A               	btfss	(___fldiv@b+3)& (0+255),0,b
  4126  004C9C  D017               	goto	l5826
  4127                           
  4128                           ; BSR set to: 2
  4129  004C9E  C227  F22F         	movff	___fldiv@b,??___fldiv
  4130  004CA2  C228  F230         	movff	___fldiv@b+1,??___fldiv+1
  4131  004CA6  C229  F231         	movff	___fldiv@b+2,??___fldiv+2
  4132  004CAA  C22A  F232         	movff	___fldiv@b+3,??___fldiv+3
  4133  004CAE  3532               	rlcf	(??___fldiv+3)& (0+255),w,b
  4134  004CB0  3332               	rrcf	(??___fldiv+3)& (0+255),f,b
  4135  004CB2  3331               	rrcf	(??___fldiv+2)& (0+255),f,b
  4136  004CB4  3330               	rrcf	(??___fldiv+1)& (0+255),f,b
  4137  004CB6  332F               	rrcf	??___fldiv& (0+255),f,b
  4138  004CB8  C22F  F227         	movff	??___fldiv,___fldiv@b
  4139  004CBC  C230  F228         	movff	??___fldiv+1,___fldiv@b+1
  4140  004CC0  C231  F229         	movff	??___fldiv+2,___fldiv@b+2
  4141  004CC4  C232  F22A         	movff	??___fldiv+3,___fldiv@b+3
  4142                           
  4143                           ; BSR set to: 2
  4144  004CC8  4B38               	infsnz	___fldiv@new_exp& (0+255),f,b
  4145  004CCA  2B39               	incf	(___fldiv@new_exp+1)& (0+255),f,b
  4146  004CCC                     l5826:
  4147                           
  4148                           ; BSR set to: 2
  4149  004CCC  BF39               	btfsc	(___fldiv@new_exp+1)& (0+255),7,b
  4150  004CCE  D010               	goto	l5830
  4151  004CD0  5139               	movf	(___fldiv@new_exp+1)& (0+255),w,b
  4152  004CD2  E103               	bnz	u6900
  4153  004CD4  2938               	incf	___fldiv@new_exp& (0+255),w,b
  4154  004CD6  A0D8               	btfss	status,0,c
  4155  004CD8  D00B               	goto	l5830
  4156  004CDA                     u6900:
  4157                           
  4158                           ; BSR set to: 2
  4159  004CDA  0E00               	movlw	0
  4160  004CDC  6F39               	movwf	(___fldiv@new_exp+1)& (0+255),b
  4161  004CDE  6938               	setf	___fldiv@new_exp& (0+255),b
  4162  004CE0  0E00               	movlw	0
  4163  004CE2  6F27               	movwf	___fldiv@b& (0+255),b
  4164  004CE4  0E00               	movlw	0
  4165  004CE6  6F28               	movwf	(___fldiv@b+1)& (0+255),b
  4166  004CE8  0E00               	movlw	0
  4167  004CEA  6F29               	movwf	(___fldiv@b+2)& (0+255),b
  4168  004CEC  0E00               	movlw	0
  4169  004CEE  6F2A               	movwf	(___fldiv@b+3)& (0+255),b
  4170  004CF0                     l5830:
  4171                           
  4172                           ; BSR set to: 2
  4173  004CF0  BF39               	btfsc	(___fldiv@new_exp+1)& (0+255),7,b
  4174  004CF2  D005               	goto	u6910
  4175  004CF4  5139               	movf	(___fldiv@new_exp+1)& (0+255),w,b
  4176  004CF6  E111               	bnz	l5834
  4177  004CF8  0538               	decf	___fldiv@new_exp& (0+255),w,b
  4178  004CFA  B0D8               	btfsc	status,0,c
  4179  004CFC  D00E               	goto	l5834
  4180  004CFE                     u6910:
  4181                           
  4182                           ; BSR set to: 2
  4183  004CFE  0E00               	movlw	0
  4184  004D00  6F39               	movwf	(___fldiv@new_exp+1)& (0+255),b
  4185  004D02  0E00               	movlw	0
  4186  004D04  6F38               	movwf	___fldiv@new_exp& (0+255),b
  4187  004D06  0E00               	movlw	0
  4188  004D08  6F27               	movwf	___fldiv@b& (0+255),b
  4189  004D0A  0E00               	movlw	0
  4190  004D0C  6F28               	movwf	(___fldiv@b+1)& (0+255),b
  4191  004D0E  0E00               	movlw	0
  4192  004D10  6F29               	movwf	(___fldiv@b+2)& (0+255),b
  4193  004D12  0E00               	movlw	0
  4194  004D14  6F2A               	movwf	(___fldiv@b+3)& (0+255),b
  4195  004D16  0E00               	movlw	0
  4196  004D18  6F37               	movwf	___fldiv@sign& (0+255),b
  4197  004D1A                     l5834:
  4198                           
  4199                           ; BSR set to: 2
  4200  004D1A  C238  F23E         	movff	___fldiv@new_exp,___fldiv@bexp
  4201                           
  4202                           ; BSR set to: 2
  4203  004D1E  A13E               	btfss	___fldiv@bexp& (0+255),0,b
  4204  004D20  D002               	goto	l5840
  4205                           
  4206                           ; BSR set to: 2
  4207  004D22  8F29               	bsf	(___fldiv@b+2)& (0+255),7,b
  4208  004D24  D001               	goto	l5842
  4209  004D26                     l5840:
  4210                           
  4211                           ; BSR set to: 2
  4212  004D26  9F29               	bcf	(___fldiv@b+2)& (0+255),7,b
  4213  004D28                     l5842:
  4214                           
  4215                           ; BSR set to: 2
  4216  004D28  90D8               	bcf	status,0,c
  4217  004D2A  313E               	rrcf	___fldiv@bexp& (0+255),w,b
  4218  004D2C  6F2A               	movwf	(___fldiv@b+3)& (0+255),b
  4219  004D2E  D70E               	goto	l5756
  4220  004D30                     __end_of___fldiv:
  4221                           	opt callstack 0
  4222                           
  4223 ;; *************** function ___fladd *****************
  4224 ;; Defined at:
  4225 ;;		line 10 in file "C:\Program Files (x86)\Microchip\xc8\v2.10\pic\sources\c99\common\sprcadd.c"
  4226 ;; Parameters:    Size  Location     Type
  4227 ;;  b               4    0[BANK2 ] unsigned char 
  4228 ;;  a               4    4[BANK2 ] unsigned char 
  4229 ;; Auto vars:     Size  Location     Type
  4230 ;;  grs             1   15[BANK2 ] unsigned char 
  4231 ;;  bexp            1   14[BANK2 ] unsigned char 
  4232 ;;  aexp            1   13[BANK2 ] unsigned char 
  4233 ;;  signs           1   12[BANK2 ] unsigned char 
  4234 ;; Return value:  Size  Location     Type
  4235 ;;                  4    0[BANK2 ] unsigned char 
  4236 ;; Registers used:
  4237 ;;		wreg, status,2, status,0
  4238 ;; Tracked objects:
  4239 ;;		On entry : 0/0
  4240 ;;		On exit  : 0/0
  4241 ;;		Unchanged: 0/0
  4242 ;; Data sizes:     COMRAM   BANK0   BANK1   BANK2   BANK3   BANK4   BANK5
  4243 ;;      Params:         0       0       0       8       0       0       0
  4244 ;;      Locals:         0       0       0       4       0       0       0
  4245 ;;      Temps:          0       0       0       4       0       0       0
  4246 ;;      Totals:         0       0       0      16       0       0       0
  4247 ;;Total ram usage:       16 bytes
  4248 ;; Hardware stack levels used:    1
  4249 ;; Hardware stack levels required when called:    9
  4250 ;; This function calls:
  4251 ;;		Nothing
  4252 ;; This function is called by:
  4253 ;;		_ADC_Initialize
  4254 ;; This function uses a non-reentrant model
  4255 ;;
  4256                           
  4257                           	psect	text17
  4258  0041B4                     __ptext17:
  4259                           	opt callstack 0
  4260  0041B4                     ___fladd:
  4261                           	opt callstack 19
  4262                           
  4263                           ; BSR set to: 2
  4264                           ;incstack = 0
  4265  0041B4  0102               	movlb	2	; () banked
  4266  0041B6  5103               	movf	(___fladd@b+3)& (0+255),w,b
  4267  0041B8  0B80               	andlw	128
  4268  0041BA  6F0C               	movwf	___fladd@signs& (0+255),b
  4269  0041BC  5103               	movf	(___fladd@b+3)& (0+255),w,b
  4270  0041BE  2503               	addwf	(___fladd@b+3)& (0+255),w,b
  4271  0041C0  6F0E               	movwf	___fladd@bexp& (0+255),b
  4272                           
  4273                           ; BSR set to: 2
  4274  0041C2  BF02               	btfsc	(___fladd@b+2)& (0+255),7,b
  4275                           
  4276                           ; BSR set to: 2
  4277  0041C4  810E               	bsf	___fladd@bexp& (0+255),0,b
  4278                           
  4279                           ; BSR set to: 2
  4280  0041C6  510E               	movf	___fladd@bexp& (0+255),w,b
  4281  0041C8  B4D8               	btfsc	status,2,c
  4282  0041CA  D00D               	goto	l5526
  4283                           
  4284                           ; BSR set to: 2
  4285  0041CC  290E               	incf	___fladd@bexp& (0+255),w,b
  4286  0041CE  A4D8               	btfss	status,2,c
  4287  0041D0  D008               	goto	l5522
  4288                           
  4289                           ; BSR set to: 2
  4290  0041D2  0E00               	movlw	0
  4291  0041D4  6F00               	movwf	___fladd@b& (0+255),b
  4292  0041D6  0E00               	movlw	0
  4293  0041D8  6F01               	movwf	(___fladd@b+1)& (0+255),b
  4294  0041DA  0E00               	movlw	0
  4295  0041DC  6F02               	movwf	(___fladd@b+2)& (0+255),b
  4296  0041DE  0E00               	movlw	0
  4297  0041E0  6F03               	movwf	(___fladd@b+3)& (0+255),b
  4298  0041E2                     l5522:
  4299                           
  4300                           ; BSR set to: 2
  4301  0041E2  8F02               	bsf	(___fladd@b+2)& (0+255),7,b
  4302  0041E4  D006               	goto	L4
  4303  0041E6                     l5526:
  4304                           
  4305                           ; BSR set to: 2
  4306  0041E6  0E00               	movlw	0
  4307  0041E8  6F00               	movwf	___fladd@b& (0+255),b
  4308  0041EA  0E00               	movlw	0
  4309  0041EC  6F01               	movwf	(___fladd@b+1)& (0+255),b
  4310  0041EE  0E00               	movlw	0
  4311  0041F0  6F02               	movwf	(___fladd@b+2)& (0+255),b
  4312  0041F2                     L4:
  4313  0041F2  0E00               	movlw	0
  4314  0041F4  6F03               	movwf	(___fladd@b+3)& (0+255),b
  4315                           
  4316                           ; BSR set to: 2
  4317  0041F6  5107               	movf	(___fladd@a+3)& (0+255),w,b
  4318  0041F8  0B80               	andlw	128
  4319  0041FA  6F0D               	movwf	___fladd@aexp& (0+255),b
  4320                           
  4321                           ; BSR set to: 2
  4322  0041FC  510C               	movf	___fladd@signs& (0+255),w,b
  4323  0041FE  190D               	xorwf	___fladd@aexp& (0+255),w,b
  4324  004200  A4D8               	btfss	status,2,c
  4325                           
  4326                           ; BSR set to: 2
  4327  004202  8D0C               	bsf	___fladd@signs& (0+255),6,b
  4328                           
  4329                           ; BSR set to: 2
  4330  004204  5107               	movf	(___fladd@a+3)& (0+255),w,b
  4331  004206  2507               	addwf	(___fladd@a+3)& (0+255),w,b
  4332  004208  6F0D               	movwf	___fladd@aexp& (0+255),b
  4333                           
  4334                           ; BSR set to: 2
  4335  00420A  BF06               	btfsc	(___fladd@a+2)& (0+255),7,b
  4336                           
  4337                           ; BSR set to: 2
  4338  00420C  810D               	bsf	___fladd@aexp& (0+255),0,b
  4339                           
  4340                           ; BSR set to: 2
  4341  00420E  510D               	movf	___fladd@aexp& (0+255),w,b
  4342  004210  B4D8               	btfsc	status,2,c
  4343  004212  D00D               	goto	l5550
  4344                           
  4345                           ; BSR set to: 2
  4346  004214  290D               	incf	___fladd@aexp& (0+255),w,b
  4347  004216  A4D8               	btfss	status,2,c
  4348  004218  D008               	goto	l5546
  4349                           
  4350                           ; BSR set to: 2
  4351  00421A  0E00               	movlw	0
  4352  00421C  6F04               	movwf	___fladd@a& (0+255),b
  4353  00421E  0E00               	movlw	0
  4354  004220  6F05               	movwf	(___fladd@a+1)& (0+255),b
  4355  004222  0E00               	movlw	0
  4356  004224  6F06               	movwf	(___fladd@a+2)& (0+255),b
  4357  004226  0E00               	movlw	0
  4358  004228  6F07               	movwf	(___fladd@a+3)& (0+255),b
  4359  00422A                     l5546:
  4360                           
  4361                           ; BSR set to: 2
  4362  00422A  8F06               	bsf	(___fladd@a+2)& (0+255),7,b
  4363  00422C  D006               	goto	L5
  4364  00422E                     l5550:
  4365                           
  4366                           ; BSR set to: 2
  4367  00422E  0E00               	movlw	0
  4368  004230  6F04               	movwf	___fladd@a& (0+255),b
  4369  004232  0E00               	movlw	0
  4370  004234  6F05               	movwf	(___fladd@a+1)& (0+255),b
  4371  004236  0E00               	movlw	0
  4372  004238  6F06               	movwf	(___fladd@a+2)& (0+255),b
  4373  00423A                     L5:
  4374  00423A  0E00               	movlw	0
  4375  00423C  6F07               	movwf	(___fladd@a+3)& (0+255),b
  4376                           
  4377                           ; BSR set to: 2
  4378  00423E  510E               	movf	___fladd@bexp& (0+255),w,b
  4379  004240  5D0D               	subwf	___fladd@aexp& (0+255),w,b
  4380  004242  B0D8               	btfsc	status,0,c
  4381  004244  D022               	goto	l5588
  4382                           
  4383                           ; BSR set to: 2
  4384  004246  AD0C               	btfss	___fladd@signs& (0+255),6,b
  4385  004248  D002               	goto	l5558
  4386                           
  4387                           ; BSR set to: 2
  4388  00424A  0E80               	movlw	128
  4389  00424C  1B0C               	xorwf	___fladd@signs& (0+255),f,b
  4390  00424E                     l5558:
  4391                           
  4392                           ; BSR set to: 2
  4393  00424E  C20E  F20F         	movff	___fladd@bexp,___fladd@grs
  4394                           
  4395                           ; BSR set to: 2
  4396  004252  C20D  F20E         	movff	___fladd@aexp,___fladd@bexp
  4397                           
  4398                           ; BSR set to: 2
  4399  004256  C20F  F20D         	movff	___fladd@grs,___fladd@aexp
  4400                           
  4401                           ; BSR set to: 2
  4402  00425A  C200  F20F         	movff	___fladd@b,___fladd@grs
  4403                           
  4404                           ; BSR set to: 2
  4405  00425E  C204  F200         	movff	___fladd@a,___fladd@b
  4406                           
  4407                           ; BSR set to: 2
  4408  004262  C20F  F204         	movff	___fladd@grs,___fladd@a
  4409                           
  4410                           ; BSR set to: 2
  4411  004266  C201  F20F         	movff	___fladd@b+1,___fladd@grs
  4412                           
  4413                           ; BSR set to: 2
  4414  00426A  C205  F201         	movff	___fladd@a+1,___fladd@b+1
  4415                           
  4416                           ; BSR set to: 2
  4417  00426E  C20F  F205         	movff	___fladd@grs,___fladd@a+1
  4418                           
  4419                           ; BSR set to: 2
  4420  004272  C202  F20F         	movff	___fladd@b+2,___fladd@grs
  4421                           
  4422                           ; BSR set to: 2
  4423  004276  C206  F202         	movff	___fladd@a+2,___fladd@b+2
  4424                           
  4425                           ; BSR set to: 2
  4426  00427A  C20F  F206         	movff	___fladd@grs,___fladd@a+2
  4427                           
  4428                           ; BSR set to: 2
  4429  00427E  C203  F20F         	movff	___fladd@b+3,___fladd@grs
  4430                           
  4431                           ; BSR set to: 2
  4432  004282  C207  F203         	movff	___fladd@a+3,___fladd@b+3
  4433                           
  4434                           ; BSR set to: 2
  4435  004286  C20F  F207         	movff	___fladd@grs,___fladd@a+3
  4436  00428A                     l5588:
  4437                           
  4438                           ; BSR set to: 2
  4439  00428A  0E00               	movlw	0
  4440  00428C  6F0F               	movwf	___fladd@grs& (0+255),b
  4441                           
  4442                           ; BSR set to: 2
  4443  00428E  510E               	movf	___fladd@bexp& (0+255),w,b
  4444  004290  C20D  F208         	movff	___fladd@aexp,??___fladd
  4445  004294  6B09               	clrf	(??___fladd+1)& (0+255),b
  4446  004296  5F08               	subwf	??___fladd& (0+255),f,b
  4447  004298  0E00               	movlw	0
  4448  00429A  5B09               	subwfb	(??___fladd+1)& (0+255),f,b
  4449  00429C  BF09               	btfsc	(??___fladd+1)& (0+255),7,b
  4450  00429E  D02C               	goto	l869
  4451  0042A0  5109               	movf	(??___fladd+1)& (0+255),w,b
  4452  0042A2  E104               	bnz	u6400
  4453  0042A4  0E1A               	movlw	26
  4454  0042A6  5D08               	subwf	??___fladd& (0+255),w,b
  4455  0042A8  A0D8               	btfss	status,0,c
  4456  0042AA  D026               	goto	l869
  4457  0042AC                     u6400:
  4458                           
  4459                           ; BSR set to: 2
  4460  0042AC  5100               	movf	___fladd@b& (0+255),w,b
  4461  0042AE  1101               	iorwf	(___fladd@b+1)& (0+255),w,b
  4462  0042B0  1102               	iorwf	(___fladd@b+2)& (0+255),w,b
  4463  0042B2  1103               	iorwf	(___fladd@b+3)& (0+255),w,b
  4464  0042B4  B4D8               	btfsc	status,2,c
  4465  0042B6  D002               	goto	u6410
  4466  0042B8  0E01               	movlw	1
  4467  0042BA  D001               	goto	u6420
  4468  0042BC                     u6410:
  4469  0042BC  0E00               	movlw	0
  4470  0042BE                     u6420:
  4471  0042BE  6F0F               	movwf	___fladd@grs& (0+255),b
  4472                           
  4473                           ; BSR set to: 2
  4474  0042C0  0E00               	movlw	0
  4475  0042C2  6F00               	movwf	___fladd@b& (0+255),b
  4476  0042C4  0E00               	movlw	0
  4477  0042C6  6F01               	movwf	(___fladd@b+1)& (0+255),b
  4478  0042C8  0E00               	movlw	0
  4479  0042CA  6F02               	movwf	(___fladd@b+2)& (0+255),b
  4480  0042CC  0E00               	movlw	0
  4481  0042CE  6F03               	movwf	(___fladd@b+3)& (0+255),b
  4482                           
  4483                           ; BSR set to: 2
  4484  0042D0  C20D  F20E         	movff	___fladd@aexp,___fladd@bexp
  4485  0042D4  D015               	goto	u6450
  4486  0042D6                     l870:
  4487                           
  4488                           ; BSR set to: 2
  4489  0042D6  A10F               	btfss	___fladd@grs& (0+255),0,b
  4490  0042D8  D005               	goto	l5600
  4491                           
  4492                           ; BSR set to: 2
  4493  0042DA  90D8               	bcf	status,0,c
  4494  0042DC  310F               	rrcf	___fladd@grs& (0+255),w,b
  4495  0042DE  0901               	iorlw	1
  4496  0042E0  6F0F               	movwf	___fladd@grs& (0+255),b
  4497  0042E2  D002               	goto	l5602
  4498  0042E4                     l5600:
  4499                           
  4500                           ; BSR set to: 2
  4501  0042E4  90D8               	bcf	status,0,c
  4502  0042E6  330F               	rrcf	___fladd@grs& (0+255),f,b
  4503  0042E8                     l5602:
  4504                           
  4505                           ; BSR set to: 2
  4506  0042E8  B100               	btfsc	___fladd@b& (0+255),0,b
  4507                           
  4508                           ; BSR set to: 2
  4509  0042EA  8F0F               	bsf	___fladd@grs& (0+255),7,b
  4510                           
  4511                           ; BSR set to: 2
  4512  0042EC  3503               	rlcf	(___fladd@b+3)& (0+255),w,b
  4513  0042EE  3303               	rrcf	(___fladd@b+3)& (0+255),f,b
  4514  0042F0  3302               	rrcf	(___fladd@b+2)& (0+255),f,b
  4515  0042F2  3301               	rrcf	(___fladd@b+1)& (0+255),f,b
  4516  0042F4  3300               	rrcf	___fladd@b& (0+255),f,b
  4517                           
  4518                           ; BSR set to: 2
  4519  0042F6  2B0E               	incf	___fladd@bexp& (0+255),f,b
  4520  0042F8                     l869:
  4521                           
  4522                           ; BSR set to: 2
  4523  0042F8  510D               	movf	___fladd@aexp& (0+255),w,b
  4524  0042FA  5D0E               	subwf	___fladd@bexp& (0+255),w,b
  4525  0042FC  A0D8               	btfss	status,0,c
  4526  0042FE  D7EB               	goto	l870
  4527  004300                     u6450:
  4528                           
  4529                           ; BSR set to: 2
  4530  004300  BD0C               	btfsc	___fladd@signs& (0+255),6,b
  4531  004302  D028               	goto	l5634
  4532                           
  4533                           ; BSR set to: 2
  4534  004304  510E               	movf	___fladd@bexp& (0+255),w,b
  4535  004306  A4D8               	btfss	status,2,c
  4536  004308  D009               	goto	l5616
  4537                           
  4538                           ; BSR set to: 2
  4539  00430A  0E00               	movlw	0
  4540  00430C  6F00               	movwf	?___fladd& (0+255),b
  4541  00430E  0E00               	movlw	0
  4542  004310  6F01               	movwf	(?___fladd+1)& (0+255),b
  4543  004312  0E00               	movlw	0
  4544  004314  6F02               	movwf	(?___fladd+2)& (0+255),b
  4545  004316  0E00               	movlw	0
  4546  004318  6F03               	movwf	(?___fladd+3)& (0+255),b
  4547  00431A  0012               	return	
  4548  00431C                     l5616:
  4549                           
  4550                           ; BSR set to: 2
  4551  00431C  5104               	movf	___fladd@a& (0+255),w,b
  4552  00431E  2700               	addwf	___fladd@b& (0+255),f,b
  4553  004320  5105               	movf	(___fladd@a+1)& (0+255),w,b
  4554  004322  2301               	addwfc	(___fladd@b+1)& (0+255),f,b
  4555  004324  5106               	movf	(___fladd@a+2)& (0+255),w,b
  4556  004326  2302               	addwfc	(___fladd@b+2)& (0+255),f,b
  4557  004328  5107               	movf	(___fladd@a+3)& (0+255),w,b
  4558  00432A  2303               	addwfc	(___fladd@b+3)& (0+255),f,b
  4559                           
  4560                           ; BSR set to: 2
  4561  00432C  A103               	btfss	(___fladd@b+3)& (0+255),0,b
  4562  00432E  D071               	goto	u6580
  4563                           
  4564                           ; BSR set to: 2
  4565  004330  A10F               	btfss	___fladd@grs& (0+255),0,b
  4566  004332  D005               	goto	l5624
  4567                           
  4568                           ; BSR set to: 2
  4569  004334  90D8               	bcf	status,0,c
  4570  004336  310F               	rrcf	___fladd@grs& (0+255),w,b
  4571  004338  0901               	iorlw	1
  4572  00433A  6F0F               	movwf	___fladd@grs& (0+255),b
  4573  00433C  D002               	goto	l5626
  4574  00433E                     l5624:
  4575                           
  4576                           ; BSR set to: 2
  4577  00433E  90D8               	bcf	status,0,c
  4578  004340  330F               	rrcf	___fladd@grs& (0+255),f,b
  4579  004342                     l5626:
  4580                           
  4581                           ; BSR set to: 2
  4582  004342  B100               	btfsc	___fladd@b& (0+255),0,b
  4583                           
  4584                           ; BSR set to: 2
  4585  004344  8F0F               	bsf	___fladd@grs& (0+255),7,b
  4586                           
  4587                           ; BSR set to: 2
  4588  004346  3503               	rlcf	(___fladd@b+3)& (0+255),w,b
  4589  004348  3303               	rrcf	(___fladd@b+3)& (0+255),f,b
  4590  00434A  3302               	rrcf	(___fladd@b+2)& (0+255),f,b
  4591  00434C  3301               	rrcf	(___fladd@b+1)& (0+255),f,b
  4592  00434E  3300               	rrcf	___fladd@b& (0+255),f,b
  4593                           
  4594                           ; BSR set to: 2
  4595  004350  2B0E               	incf	___fladd@bexp& (0+255),f,b
  4596  004352  D05F               	goto	u6580
  4597  004354                     l5634:
  4598                           
  4599                           ; BSR set to: 2
  4600  004354  5104               	movf	___fladd@a& (0+255),w,b
  4601  004356  5D00               	subwf	___fladd@b& (0+255),w,b
  4602  004358  5105               	movf	(___fladd@a+1)& (0+255),w,b
  4603  00435A  5901               	subwfb	(___fladd@b+1)& (0+255),w,b
  4604  00435C  5106               	movf	(___fladd@a+2)& (0+255),w,b
  4605  00435E  5902               	subwfb	(___fladd@b+2)& (0+255),w,b
  4606  004360  5103               	movf	(___fladd@b+3)& (0+255),w,b
  4607  004362  0A80               	xorlw	128
  4608  004364  6F08               	movwf	??___fladd& (0+255),b
  4609  004366  5107               	movf	(___fladd@a+3)& (0+255),w,b
  4610  004368  0A80               	xorlw	128
  4611  00436A  5908               	subwfb	??___fladd& (0+255),w,b
  4612  00436C  B0D8               	btfsc	status,0,c
  4613  00436E  D025               	goto	l5644
  4614                           
  4615                           ; BSR set to: 2
  4616  004370  5100               	movf	___fladd@b& (0+255),w,b
  4617  004372  5D04               	subwf	___fladd@a& (0+255),w,b
  4618  004374  6F08               	movwf	??___fladd& (0+255),b
  4619  004376  5101               	movf	(___fladd@b+1)& (0+255),w,b
  4620  004378  5905               	subwfb	(___fladd@a+1)& (0+255),w,b
  4621  00437A  6F09               	movwf	(??___fladd+1)& (0+255),b
  4622  00437C  5102               	movf	(___fladd@b+2)& (0+255),w,b
  4623  00437E  5906               	subwfb	(___fladd@a+2)& (0+255),w,b
  4624  004380  6F0A               	movwf	(??___fladd+2)& (0+255),b
  4625  004382  5103               	movf	(___fladd@b+3)& (0+255),w,b
  4626  004384  5907               	subwfb	(___fladd@a+3)& (0+255),w,b
  4627  004386  6F0B               	movwf	(??___fladd+3)& (0+255),b
  4628  004388  0EFF               	movlw	255
  4629  00438A  2508               	addwf	??___fladd& (0+255),w,b
  4630  00438C  6F00               	movwf	___fladd@b& (0+255),b
  4631  00438E  0EFF               	movlw	255
  4632  004390  2109               	addwfc	(??___fladd+1)& (0+255),w,b
  4633  004392  6F01               	movwf	(___fladd@b+1)& (0+255),b
  4634  004394  0EFF               	movlw	255
  4635  004396  210A               	addwfc	(??___fladd+2)& (0+255),w,b
  4636  004398  6F02               	movwf	(___fladd@b+2)& (0+255),b
  4637  00439A  0EFF               	movlw	255
  4638  00439C  210B               	addwfc	(??___fladd+3)& (0+255),w,b
  4639  00439E  6F03               	movwf	(___fladd@b+3)& (0+255),b
  4640  0043A0  0E80               	movlw	128
  4641  0043A2  1B0C               	xorwf	___fladd@signs& (0+255),f,b
  4642                           
  4643                           ; BSR set to: 2
  4644  0043A4  6D0F               	negf	___fladd@grs& (0+255),b
  4645                           
  4646                           ; BSR set to: 2
  4647  0043A6  510F               	movf	___fladd@grs& (0+255),w,b
  4648  0043A8  A4D8               	btfss	status,2,c
  4649  0043AA  D00F               	goto	l885
  4650                           
  4651                           ; BSR set to: 2
  4652  0043AC  0E01               	movlw	1
  4653  0043AE  2700               	addwf	___fladd@b& (0+255),f,b
  4654  0043B0  0E00               	movlw	0
  4655  0043B2  2301               	addwfc	(___fladd@b+1)& (0+255),f,b
  4656  0043B4  2302               	addwfc	(___fladd@b+2)& (0+255),f,b
  4657  0043B6  2303               	addwfc	(___fladd@b+3)& (0+255),f,b
  4658  0043B8  D008               	goto	l885
  4659  0043BA                     l5644:
  4660                           
  4661                           ; BSR set to: 2
  4662  0043BA  5104               	movf	___fladd@a& (0+255),w,b
  4663  0043BC  5F00               	subwf	___fladd@b& (0+255),f,b
  4664  0043BE  5105               	movf	(___fladd@a+1)& (0+255),w,b
  4665  0043C0  5B01               	subwfb	(___fladd@b+1)& (0+255),f,b
  4666  0043C2  5106               	movf	(___fladd@a+2)& (0+255),w,b
  4667  0043C4  5B02               	subwfb	(___fladd@b+2)& (0+255),f,b
  4668  0043C6  5107               	movf	(___fladd@a+3)& (0+255),w,b
  4669  0043C8  5B03               	subwfb	(___fladd@b+3)& (0+255),f,b
  4670  0043CA                     l885:
  4671                           
  4672                           ; BSR set to: 2
  4673  0043CA  5100               	movf	___fladd@b& (0+255),w,b
  4674  0043CC  1101               	iorwf	(___fladd@b+1)& (0+255),w,b
  4675  0043CE  1102               	iorwf	(___fladd@b+2)& (0+255),w,b
  4676  0043D0  1103               	iorwf	(___fladd@b+3)& (0+255),w,b
  4677  0043D2  A4D8               	btfss	status,2,c
  4678  0043D4  D01C               	goto	l5668
  4679                           
  4680                           ; BSR set to: 2
  4681  0043D6  510F               	movf	___fladd@grs& (0+255),w,b
  4682  0043D8  A4D8               	btfss	status,2,c
  4683  0043DA  D019               	goto	l5668
  4684                           
  4685                           ; BSR set to: 2
  4686  0043DC  0E00               	movlw	0
  4687  0043DE  6F00               	movwf	?___fladd& (0+255),b
  4688  0043E0  0E00               	movlw	0
  4689  0043E2  6F01               	movwf	(?___fladd+1)& (0+255),b
  4690  0043E4  0E00               	movlw	0
  4691  0043E6  6F02               	movwf	(?___fladd+2)& (0+255),b
  4692  0043E8  0E00               	movlw	0
  4693  0043EA  6F03               	movwf	(?___fladd+3)& (0+255),b
  4694  0043EC  0012               	return	
  4695  0043EE                     l5652:
  4696                           
  4697                           ; BSR set to: 2
  4698  0043EE  90D8               	bcf	status,0,c
  4699  0043F0  3700               	rlcf	___fladd@b& (0+255),f,b
  4700  0043F2  3701               	rlcf	(___fladd@b+1)& (0+255),f,b
  4701  0043F4  3702               	rlcf	(___fladd@b+2)& (0+255),f,b
  4702  0043F6  3703               	rlcf	(___fladd@b+3)& (0+255),f,b
  4703                           
  4704                           ; BSR set to: 2
  4705  0043F8  BF0F               	btfsc	___fladd@grs& (0+255),7,b
  4706                           
  4707                           ; BSR set to: 2
  4708  0043FA  8100               	bsf	___fladd@b& (0+255),0,b
  4709                           
  4710                           ; BSR set to: 2
  4711  0043FC  A10F               	btfss	___fladd@grs& (0+255),0,b
  4712  0043FE  D002               	goto	l5662
  4713                           
  4714                           ; BSR set to: 2
  4715  004400  80D8               	bsf	status,0,c
  4716  004402  D001               	goto	L6
  4717  004404                     l5662:
  4718                           
  4719                           ; BSR set to: 2
  4720  004404  90D8               	bcf	status,0,c
  4721  004406                     L6:
  4722  004406  370F               	rlcf	___fladd@grs& (0+255),f,b
  4723                           
  4724                           ; BSR set to: 2
  4725  004408  510E               	movf	___fladd@bexp& (0+255),w,b
  4726  00440A  A4D8               	btfss	status,2,c
  4727                           
  4728                           ; BSR set to: 2
  4729  00440C  070E               	decf	___fladd@bexp& (0+255),f,b
  4730  00440E                     l5668:
  4731                           
  4732                           ; BSR set to: 2
  4733  00440E  AF02               	btfss	(___fladd@b+2)& (0+255),7,b
  4734  004410  D7EE               	goto	l5652
  4735  004412                     u6580:
  4736                           
  4737                           ; BSR set to: 2
  4738  004412  0E00               	movlw	0
  4739  004414  6F0D               	movwf	___fladd@aexp& (0+255),b
  4740                           
  4741                           ; BSR set to: 2
  4742  004416  AF0F               	btfss	___fladd@grs& (0+255),7,b
  4743  004418  D00B               	goto	l894
  4744                           
  4745                           ; BSR set to: 2
  4746  00441A  C20F  F208         	movff	___fladd@grs,??___fladd
  4747  00441E  0E7F               	movlw	127
  4748  004420  1708               	andwf	??___fladd& (0+255),f,b
  4749  004422  B4D8               	btfsc	status,2,c
  4750  004424  D003               	goto	l895
  4751  004426                     u6600:
  4752                           
  4753                           ; BSR set to: 2
  4754  004426  0E01               	movlw	1
  4755  004428  6F0D               	movwf	___fladd@aexp& (0+255),b
  4756  00442A  D002               	goto	l894
  4757  00442C                     l895:
  4758                           
  4759                           ; BSR set to: 2
  4760  00442C  B100               	btfsc	___fladd@b& (0+255),0,b
  4761  00442E  D7FB               	goto	u6600
  4762  004430                     l894:
  4763                           
  4764                           ; BSR set to: 2
  4765  004430  510D               	movf	___fladd@aexp& (0+255),w,b
  4766  004432  B4D8               	btfsc	status,2,c
  4767  004434  D020               	goto	l5688
  4768                           
  4769                           ; BSR set to: 2
  4770  004436  0E01               	movlw	1
  4771  004438  2700               	addwf	___fladd@b& (0+255),f,b
  4772  00443A  0E00               	movlw	0
  4773  00443C  2301               	addwfc	(___fladd@b+1)& (0+255),f,b
  4774  00443E  2302               	addwfc	(___fladd@b+2)& (0+255),f,b
  4775  004440  2303               	addwfc	(___fladd@b+3)& (0+255),f,b
  4776                           
  4777                           ; BSR set to: 2
  4778  004442  A103               	btfss	(___fladd@b+3)& (0+255),0,b
  4779  004444  D018               	goto	l5688
  4780                           
  4781                           ; BSR set to: 2
  4782  004446  C200  F208         	movff	___fladd@b,??___fladd
  4783  00444A  C201  F209         	movff	___fladd@b+1,??___fladd+1
  4784  00444E  C202  F20A         	movff	___fladd@b+2,??___fladd+2
  4785  004452  C203  F20B         	movff	___fladd@b+3,??___fladd+3
  4786  004456  350B               	rlcf	(??___fladd+3)& (0+255),w,b
  4787  004458  330B               	rrcf	(??___fladd+3)& (0+255),f,b
  4788  00445A  330A               	rrcf	(??___fladd+2)& (0+255),f,b
  4789  00445C  3309               	rrcf	(??___fladd+1)& (0+255),f,b
  4790  00445E  3308               	rrcf	??___fladd& (0+255),f,b
  4791  004460  C208  F200         	movff	??___fladd,___fladd@b
  4792  004464  C209  F201         	movff	??___fladd+1,___fladd@b+1
  4793  004468  C20A  F202         	movff	??___fladd+2,___fladd@b+2
  4794  00446C  C20B  F203         	movff	??___fladd+3,___fladd@b+3
  4795  004470  290E               	incf	___fladd@bexp& (0+255),w,b
  4796  004472  A4D8               	btfss	status,2,c
  4797                           
  4798                           ; BSR set to: 2
  4799  004474  2B0E               	incf	___fladd@bexp& (0+255),f,b
  4800  004476                     l5688:
  4801                           
  4802                           ; BSR set to: 2
  4803  004476  290E               	incf	___fladd@bexp& (0+255),w,b
  4804  004478  B4D8               	btfsc	status,2,c
  4805  00447A  D003               	goto	u6660
  4806                           
  4807                           ; BSR set to: 2
  4808  00447C  510E               	movf	___fladd@bexp& (0+255),w,b
  4809  00447E  A4D8               	btfss	status,2,c
  4810  004480  D00D               	goto	l5696
  4811  004482                     u6660:
  4812                           
  4813                           ; BSR set to: 2
  4814  004482  0E00               	movlw	0
  4815  004484  6F00               	movwf	___fladd@b& (0+255),b
  4816  004486  0E00               	movlw	0
  4817  004488  6F01               	movwf	(___fladd@b+1)& (0+255),b
  4818  00448A  0E00               	movlw	0
  4819  00448C  6F02               	movwf	(___fladd@b+2)& (0+255),b
  4820  00448E  0E00               	movlw	0
  4821  004490  6F03               	movwf	(___fladd@b+3)& (0+255),b
  4822  004492  510E               	movf	___fladd@bexp& (0+255),w,b
  4823  004494  A4D8               	btfss	status,2,c
  4824  004496  D002               	goto	l5696
  4825                           
  4826                           ; BSR set to: 2
  4827  004498  0E00               	movlw	0
  4828  00449A  6F0C               	movwf	___fladd@signs& (0+255),b
  4829  00449C                     l5696:
  4830                           
  4831                           ; BSR set to: 2
  4832  00449C  A10E               	btfss	___fladd@bexp& (0+255),0,b
  4833  00449E  D002               	goto	l5700
  4834                           
  4835                           ; BSR set to: 2
  4836  0044A0  8F02               	bsf	(___fladd@b+2)& (0+255),7,b
  4837  0044A2  D001               	goto	l5702
  4838  0044A4                     l5700:
  4839                           
  4840                           ; BSR set to: 2
  4841  0044A4  9F02               	bcf	(___fladd@b+2)& (0+255),7,b
  4842  0044A6                     l5702:
  4843                           
  4844                           ; BSR set to: 2
  4845  0044A6  90D8               	bcf	status,0,c
  4846  0044A8  310E               	rrcf	___fladd@bexp& (0+255),w,b
  4847  0044AA  6F03               	movwf	(___fladd@b+3)& (0+255),b
  4848                           
  4849                           ; BSR set to: 2
  4850  0044AC  BF0C               	btfsc	___fladd@signs& (0+255),7,b
  4851                           
  4852                           ; BSR set to: 2
  4853  0044AE  8F03               	bsf	(___fladd@b+3)& (0+255),7,b
  4854                           
  4855                           ; BSR set to: 2
  4856  0044B0  C200  F200         	movff	___fladd@b,?___fladd
  4857  0044B4  C201  F201         	movff	___fladd@b+1,?___fladd+1
  4858  0044B8  C202  F202         	movff	___fladd@b+2,?___fladd+2
  4859  0044BC  C203  F203         	movff	___fladd@b+3,?___fladd+3
  4860                           
  4861                           ; BSR set to: 2
  4862  0044C0  0012               	return		;funcret
  4863  0044C2                     __end_of___fladd:
  4864                           	opt callstack 0
  4865                           
  4866 ;; *************** function _Hi_ISR *****************
  4867 ;; Defined at:
  4868 ;;		line 34 in file "main.c"
  4869 ;; Parameters:    Size  Location     Type
  4870 ;;		None
  4871 ;; Auto vars:     Size  Location     Type
  4872 ;;		None
  4873 ;; Return value:  Size  Location     Type
  4874 ;;                  1    wreg      void 
  4875 ;; Registers used:
  4876 ;;		wreg, fsr1l, fsr1h, fsr2l, fsr2h, status,2, status,0, tblptrl, tblptrh, tblptru, prodl, prodh, cstack
  4877 ;; Tracked objects:
  4878 ;;		On entry : 0/0
  4879 ;;		On exit  : 0/0
  4880 ;;		Unchanged: 0/0
  4881 ;; Data sizes:     COMRAM   BANK0   BANK1   BANK2   BANK3   BANK4   BANK5
  4882 ;;      Params:         0       0       0       0       0       0       0
  4883 ;;      Locals:         0       0       0       0       0       0       0
  4884 ;;      Temps:          0       0      11       0       0       0       0
  4885 ;;      Totals:         0       0      11       0       0       0       0
  4886 ;;Total ram usage:       11 bytes
  4887 ;; Hardware stack levels used:    1
  4888 ;; Hardware stack levels required when called:    8
  4889 ;; This function calls:
  4890 ;;		_DHT11_CheckResponse
  4891 ;;		_DHT11_ReadData
  4892 ;;		_DHT11_Start
  4893 ;;		_MQ_Read
  4894 ;;		___flge
  4895 ;;		___fltol
  4896 ;;		_memset
  4897 ;;		_sprintf
  4898 ;;		i2_LCD_clear
  4899 ;;		i2_Send2Lcd
  4900 ;;		i2_speak
  4901 ;; This function is called by:
  4902 ;;		Interrupt level 2
  4903 ;; This function uses a non-reentrant model
  4904 ;;
  4905                           
  4906                           	psect	intcode
  4907  000008                     __pintcode:
  4908                           	opt callstack 0
  4909  000008                     _Hi_ISR:
  4910                           	opt callstack 18
  4911                           
  4912                           ; BSR set to: 2
  4913                           ;incstack = 0
  4914  000008  827F               	bsf	btemp,1,c	;set compiler interrupt flag (level 2)
  4915  00000A  EDDC  F027         	call	int_func,f	;refresh shadow registers
  4916                           
  4917                           	psect	intcode_body
  4918  004FB8                     __pintcode_body:
  4919                           	opt callstack 18
  4920  004FB8                     int_func:
  4921                           	opt callstack 18
  4922  004FB8  0006               	pop		; remove dummy address from shadow register refresh
  4923  004FBA  CFE1 F1D3          	movff	fsr1l,??_Hi_ISR+1
  4924  004FBE  CFE2 F1D4          	movff	fsr1h,??_Hi_ISR+2
  4925  004FC2  CFD9 F1D5          	movff	fsr2l,??_Hi_ISR+3
  4926  004FC6  CFDA F1D6          	movff	fsr2h,??_Hi_ISR+4
  4927  004FCA  CFF3 F1D7          	movff	prodl,??_Hi_ISR+5
  4928  004FCE  CFF4 F1D8          	movff	prodh,??_Hi_ISR+6
  4929  004FD2  CFF6 F1D9          	movff	tblptrl,??_Hi_ISR+7
  4930  004FD6  CFF7 F1DA          	movff	tblptrh,??_Hi_ISR+8
  4931  004FDA  CFF8 F1DB          	movff	tblptru,??_Hi_ISR+9
  4932  004FDE  CFF5 F1DC          	movff	tablat,??_Hi_ISR+10
  4933                           
  4934                           ;main.c: 36:     if (PIR1bits.TMR1IF && PIE1bits.TMR1IE) {
  4935  004FE2  B09E               	btfsc	158,0,c	;volatile
  4936  004FE4  A09D               	btfss	157,0,c	;volatile
  4937  004FE6  D100               	goto	i2l251
  4938                           
  4939                           ;main.c: 37:         if (count < cycle) {
  4940  004FE8  0101               	movlb	1	; () banked
  4941  004FEA  51F5               	movf	_cycle& (0+255),w,b
  4942  004FEC  5DED               	subwf	_count& (0+255),w,b
  4943  004FEE  51EE               	movf	(_count+1)& (0+255),w,b
  4944  004FF0  0A80               	xorlw	128
  4945  004FF2  6FD2               	movwf	??_Hi_ISR& (0+255),b
  4946  004FF4  51F6               	movf	(_cycle+1)& (0+255),w,b
  4947  004FF6  0A80               	xorlw	128
  4948  004FF8  59D2               	subwfb	??_Hi_ISR& (0+255),w,b
  4949  004FFA  B0D8               	btfsc	status,0,c
  4950  004FFC  D003               	goto	i2l6298
  4951                           
  4952                           ; BSR set to: 1
  4953                           ;main.c: 38:             count++;
  4954  004FFE  4BED               	infsnz	_count& (0+255),f,b
  4955  005000  2BEE               	incf	(_count+1)& (0+255),f,b
  4956                           
  4957                           ;main.c: 39:         } else {
  4958  005002  D0ED               	goto	i2l6346
  4959  005004                     i2l6298:
  4960                           
  4961                           ; BSR set to: 1
  4962                           ;main.c: 40:             count = 0;
  4963  005004  0E00               	movlw	0
  4964  005006  6FEE               	movwf	(_count+1)& (0+255),b
  4965  005008  0E00               	movlw	0
  4966  00500A  6FED               	movwf	_count& (0+255),b
  4967                           
  4968                           ; BSR set to: 1
  4969                           ;main.c: 43:             DHT11_Start();
  4970  00500C  EC27  F036         	call	_DHT11_Start	;wreg free
  4971                           
  4972                           ;main.c: 44:             DHT11_CheckResponse();
  4973  005010  EC84  F036         	call	_DHT11_CheckResponse	;wreg free
  4974                           
  4975                           ;main.c: 45:             RH_Integral = DHT11_ReadData();
  4976  005014  EC36  F035         	call	_DHT11_ReadData	;wreg free
  4977  005018  0100               	movlb	0	; () banked
  4978  00501A  6FFF               	movwf	_RH_Integral& (0+255),b
  4979                           
  4980                           ; BSR set to: 0
  4981                           ;main.c: 46:             RH_Decimal = DHT11_ReadData();
  4982  00501C  EC36  F035         	call	_DHT11_ReadData	;wreg free
  4983  005020  0101               	movlb	1	; () banked
  4984  005022  6FF4               	movwf	_RH_Decimal& (0+255),b
  4985                           
  4986                           ; BSR set to: 1
  4987                           ;main.c: 47:             T_Integral = DHT11_ReadData();
  4988  005024  EC36  F035         	call	_DHT11_ReadData	;wreg free
  4989  005028  0101               	movlb	1	; () banked
  4990  00502A  6FF2               	movwf	_T_Integral& (0+255),b
  4991                           
  4992                           ; BSR set to: 1
  4993                           ;main.c: 48:             T_Decimal = DHT11_ReadData();
  4994  00502C  EC36  F035         	call	_DHT11_ReadData	;wreg free
  4995  005030  0101               	movlb	1	; () banked
  4996  005032  6FF3               	movwf	_T_Decimal& (0+255),b
  4997                           
  4998                           ; BSR set to: 1
  4999                           ;main.c: 49:             Checksum = DHT11_ReadData();
  5000  005034  EC36  F035         	call	_DHT11_ReadData	;wreg free
  5001  005038  0101               	movlb	1	; () banked
  5002  00503A  6FF1               	movwf	_Checksum& (0+255),b
  5003                           
  5004                           ; BSR set to: 1
  5005                           ;main.c: 51:             memset(r, '\0', sizeof (r));
  5006  00503C  0E00               	movlw	low _r
  5007  00503E  6E01               	movwf	memset@dest^0,c
  5008  005040  0E03               	movlw	high _r
  5009  005042  6E02               	movwf	(memset@dest+1)^0,c
  5010  005044  0E00               	movlw	0
  5011  005046  6E04               	movwf	(memset@c+1)^0,c
  5012  005048  0E00               	movlw	0
  5013  00504A  6E03               	movwf	memset@c^0,c
  5014  00504C  0E00               	movlw	0
  5015  00504E  6E06               	movwf	(memset@n+1)^0,c
  5016  005050  0E64               	movlw	100
  5017  005052  6E05               	movwf	memset@n^0,c
  5018  005054  EC59  F030         	call	_memset	;wreg free
  5019                           
  5020                           ;main.c: 52:             sprintf(r, "%d.%1d C  %d.%1d H", T_Integral, T_Decimal, RH_Inte
      +                          gral, RH_Decimal);
  5021  005058  0E00               	movlw	low _r
  5022  00505A  0100               	movlb	0	; () banked
  5023  00505C  6FDD               	movwf	sprintf@s& (0+255),b
  5024  00505E  0E03               	movlw	high _r
  5025  005060  6FDE               	movwf	(sprintf@s+1)& (0+255),b
  5026  005062  0E9D               	movlw	low STR_3
  5027  005064  6FDF               	movwf	sprintf@fmt& (0+255),b
  5028  005066  0E06               	movlw	high STR_3
  5029  005068  6FE0               	movwf	(sprintf@fmt+1)& (0+255),b
  5030  00506A  C1F2  F0E1         	movff	_T_Integral,?_sprintf+4
  5031  00506E  6BE2               	clrf	(?_sprintf+5)& (0+255),b
  5032  005070  C1F3  F0E3         	movff	_T_Decimal,?_sprintf+6
  5033  005074  6BE4               	clrf	(?_sprintf+7)& (0+255),b
  5034  005076  C0FF  F0E5         	movff	_RH_Integral,?_sprintf+8
  5035  00507A  6BE6               	clrf	(?_sprintf+9)& (0+255),b
  5036  00507C  C1F4  F0E7         	movff	_RH_Decimal,?_sprintf+10
  5037  005080  6BE8               	clrf	(?_sprintf+11)& (0+255),b
  5038  005082  EC7C  F034         	call	_sprintf	;wreg free
  5039                           
  5040                           ;main.c: 53:             LCD_clear();
  5041  005086  EC7D  F036         	call	i2_LCD_clear	;wreg free
  5042                           
  5043                           ;main.c: 54:             Send2Lcd(0x80, r);
  5044  00508A  0E00               	movlw	low _r
  5045  00508C  6E04               	movwf	i2Send2Lcd@Lcd^0,c
  5046  00508E  0E03               	movlw	high _r
  5047  005090  6E05               	movwf	(i2Send2Lcd@Lcd+1)^0,c
  5048  005092  0E80               	movlw	128
  5049  005094  EC1E  F034         	call	i2_Send2Lcd
  5050                           
  5051                           ;main.c: 57:             MQ_Read(value);
  5052  005098  0E72               	movlw	low _value
  5053  00509A  0100               	movlb	0	; () banked
  5054  00509C  6FF9               	movwf	MQ_Read@values& (0+255),b
  5055  00509E  0E02               	movlw	high _value
  5056  0050A0  6FFA               	movwf	(MQ_Read@values+1)& (0+255),b
  5057  0050A2  ECE7  F023         	call	_MQ_Read	;wreg free
  5058                           
  5059                           ;main.c: 58:             memset(r, '\0', sizeof (r));
  5060  0050A6  0E00               	movlw	low _r
  5061  0050A8  6E01               	movwf	memset@dest^0,c
  5062  0050AA  0E03               	movlw	high _r
  5063  0050AC  6E02               	movwf	(memset@dest+1)^0,c
  5064  0050AE  0E00               	movlw	0
  5065  0050B0  6E04               	movwf	(memset@c+1)^0,c
  5066  0050B2  0E00               	movlw	0
  5067  0050B4  6E03               	movwf	memset@c^0,c
  5068  0050B6  0E00               	movlw	0
  5069  0050B8  6E06               	movwf	(memset@n+1)^0,c
  5070  0050BA  0E64               	movlw	100
  5071  0050BC  6E05               	movwf	memset@n^0,c
  5072  0050BE  EC59  F030         	call	_memset	;wreg free
  5073                           
  5074                           ;main.c: 59:             sprintf(r, "%d %d %d", (int) value[0], (int) value[1], (int) va
      +                          lue[2]);
  5075  0050C2  0E00               	movlw	low _r
  5076  0050C4  0100               	movlb	0	; () banked
  5077  0050C6  6FDD               	movwf	sprintf@s& (0+255),b
  5078  0050C8  0E03               	movlw	high _r
  5079  0050CA  6FDE               	movwf	(sprintf@s+1)& (0+255),b
  5080  0050CC  0EB0               	movlw	low STR_4
  5081  0050CE  6FDF               	movwf	sprintf@fmt& (0+255),b
  5082  0050D0  0E06               	movlw	high STR_4
  5083  0050D2  6FE0               	movwf	(sprintf@fmt+1)& (0+255),b
  5084  0050D4  C272  F077         	movff	_value,___fltol@f1
  5085  0050D8  C273  F078         	movff	_value+1,___fltol@f1+1
  5086  0050DC  C274  F079         	movff	_value+2,___fltol@f1+2
  5087  0050E0  C275  F07A         	movff	_value+3,___fltol@f1+3
  5088  0050E4  EC76  F032         	call	___fltol	;wreg free
  5089  0050E8  C077  F0E1         	movff	?___fltol,?_sprintf+4
  5090  0050EC  C078  F0E2         	movff	?___fltol+1,?_sprintf+5
  5091  0050F0  C276  F077         	movff	_value+4,___fltol@f1
  5092  0050F4  C277  F078         	movff	_value+5,___fltol@f1+1
  5093  0050F8  C278  F079         	movff	_value+6,___fltol@f1+2
  5094  0050FC  C279  F07A         	movff	_value+7,___fltol@f1+3
  5095  005100  EC76  F032         	call	___fltol	;wreg free
  5096  005104  C077  F0E3         	movff	?___fltol,?_sprintf+6
  5097  005108  C078  F0E4         	movff	?___fltol+1,?_sprintf+7
  5098  00510C  C27A  F077         	movff	_value+8,___fltol@f1
  5099  005110  C27B  F078         	movff	_value+9,___fltol@f1+1
  5100  005114  C27C  F079         	movff	_value+10,___fltol@f1+2
  5101  005118  C27D  F07A         	movff	_value+11,___fltol@f1+3
  5102  00511C  EC76  F032         	call	___fltol	;wreg free
  5103  005120  C077  F0E5         	movff	?___fltol,?_sprintf+8
  5104  005124  C078  F0E6         	movff	?___fltol+1,?_sprintf+9
  5105  005128  EC7C  F034         	call	_sprintf	;wreg free
  5106                           
  5107                           ;main.c: 61:             Send2Lcd(0xc0, r);
  5108  00512C  0E00               	movlw	low _r
  5109  00512E  6E04               	movwf	i2Send2Lcd@Lcd^0,c
  5110  005130  0E03               	movlw	high _r
  5111  005132  6E05               	movwf	(i2Send2Lcd@Lcd+1)^0,c
  5112  005134  0EC0               	movlw	192
  5113  005136  EC1E  F034         	call	i2_Send2Lcd
  5114                           
  5115                           ;main.c: 65:             if (value[0] >= 500 || value[1] >= 500 || value[2] >= 500 || T_
      +                          Integral >= 40 || RH_Integral >= 80) {
  5116  00513A  C272  F032         	movff	_value,___flge@ff1
  5117  00513E  C273  F033         	movff	_value+1,___flge@ff1+1
  5118  005142  C274  F034         	movff	_value+2,___flge@ff1+2
  5119  005146  C275  F035         	movff	_value+3,___flge@ff1+3
  5120  00514A  0E00               	movlw	0
  5121  00514C  6E36               	movwf	___flge@ff2^0,c
  5122  00514E  0E00               	movlw	0
  5123  005150  6E37               	movwf	(___flge@ff2+1)^0,c
  5124  005152  0EFA               	movlw	250
  5125  005154  6E38               	movwf	(___flge@ff2+2)^0,c
  5126  005156  0E43               	movlw	67
  5127  005158  6E39               	movwf	(___flge@ff2+3)^0,c
  5128  00515A  EC0E  F032         	call	___flge	;wreg free
  5129  00515E  B0D8               	btfsc	status,0,c
  5130  005160  D030               	goto	i2u754_40
  5131  005162  C276  F032         	movff	_value+4,___flge@ff1
  5132  005166  C277  F033         	movff	_value+5,___flge@ff1+1
  5133  00516A  C278  F034         	movff	_value+6,___flge@ff1+2
  5134  00516E  C279  F035         	movff	_value+7,___flge@ff1+3
  5135  005172  0E00               	movlw	0
  5136  005174  6E36               	movwf	___flge@ff2^0,c
  5137  005176  0E00               	movlw	0
  5138  005178  6E37               	movwf	(___flge@ff2+1)^0,c
  5139  00517A  0EFA               	movlw	250
  5140  00517C  6E38               	movwf	(___flge@ff2+2)^0,c
  5141  00517E  0E43               	movlw	67
  5142  005180  6E39               	movwf	(___flge@ff2+3)^0,c
  5143  005182  EC0E  F032         	call	___flge	;wreg free
  5144  005186  B0D8               	btfsc	status,0,c
  5145  005188  D01C               	goto	i2u754_40
  5146  00518A  C27A  F032         	movff	_value+8,___flge@ff1
  5147  00518E  C27B  F033         	movff	_value+9,___flge@ff1+1
  5148  005192  C27C  F034         	movff	_value+10,___flge@ff1+2
  5149  005196  C27D  F035         	movff	_value+11,___flge@ff1+3
  5150  00519A  0E00               	movlw	0
  5151  00519C  6E36               	movwf	___flge@ff2^0,c
  5152  00519E  0E00               	movlw	0
  5153  0051A0  6E37               	movwf	(___flge@ff2+1)^0,c
  5154  0051A2  0EFA               	movlw	250
  5155  0051A4  6E38               	movwf	(___flge@ff2+2)^0,c
  5156  0051A6  0E43               	movlw	67
  5157  0051A8  6E39               	movwf	(___flge@ff2+3)^0,c
  5158  0051AA  EC0E  F032         	call	___flge	;wreg free
  5159  0051AE  B0D8               	btfsc	status,0,c
  5160  0051B0  D008               	goto	i2u754_40
  5161  0051B2  0E28               	movlw	40
  5162  0051B4  0101               	movlb	1	; () banked
  5163  0051B6  61F2               	cpfslt	_T_Integral& (0+255),b
  5164  0051B8  D004               	goto	i2u754_40
  5165                           
  5166                           ; BSR set to: 1
  5167  0051BA  0E4F               	movlw	79
  5168  0051BC  0100               	movlb	0	; () banked
  5169  0051BE  65FF               	cpfsgt	_RH_Integral& (0+255),b
  5170  0051C0  D009               	goto	i2l6344
  5171  0051C2                     i2u754_40:
  5172                           
  5173                           ;main.c: 66:                 speak();
  5174  0051C2  EC6B  F036         	call	i2_speak	;wreg free
  5175                           
  5176                           ;main.c: 67:                 speak();
  5177  0051C6  EC6B  F036         	call	i2_speak	;wreg free
  5178                           
  5179                           ;main.c: 68:                 cycle = 2;
  5180  0051CA  0E00               	movlw	0
  5181  0051CC  0101               	movlb	1	; () banked
  5182  0051CE  6FF6               	movwf	(_cycle+1)& (0+255),b
  5183  0051D0  0E02               	movlw	2
  5184  0051D2  D004               	goto	L7
  5185  0051D4                     i2l6344:
  5186                           
  5187                           ; BSR set to: 0
  5188                           ;main.c: 70:                 cycle = 4;
  5189  0051D4  0E00               	movlw	0
  5190  0051D6  0101               	movlb	1	; () banked
  5191  0051D8  6FF6               	movwf	(_cycle+1)& (0+255),b
  5192  0051DA  0E04               	movlw	4
  5193  0051DC                     L7:
  5194  0051DC  6FF5               	movwf	_cycle& (0+255),b
  5195  0051DE                     i2l6346:
  5196                           
  5197                           ; BSR set to: 1
  5198                           ;main.c: 75:         PIR1bits.TMR1IF = 0;
  5199  0051DE  909E               	bcf	158,0,c	;volatile
  5200                           
  5201                           ; BSR set to: 1
  5202                           ;main.c: 76:         TMR1 = timer_val;
  5203  0051E0  C1FB  FFCE         	movff	_timer_val,4046	;volatile
  5204  0051E4  C1FC  FFCF         	movff	_timer_val+1,4047	;volatile
  5205  0051E8                     i2l251:
  5206  0051E8  C1DC  FFF5         	movff	??_Hi_ISR+10,tablat
  5207  0051EC  C1DB  FFF8         	movff	??_Hi_ISR+9,tblptru
  5208  0051F0  C1DA  FFF7         	movff	??_Hi_ISR+8,tblptrh
  5209  0051F4  C1D9  FFF6         	movff	??_Hi_ISR+7,tblptrl
  5210  0051F8  C1D8  FFF4         	movff	??_Hi_ISR+6,prodh
  5211  0051FC  C1D7  FFF3         	movff	??_Hi_ISR+5,prodl
  5212  005200  C1D6  FFDA         	movff	??_Hi_ISR+4,fsr2h
  5213  005204  C1D5  FFD9         	movff	??_Hi_ISR+3,fsr2l
  5214  005208  C1D4  FFE2         	movff	??_Hi_ISR+2,fsr1h
  5215  00520C  C1D3  FFE1         	movff	??_Hi_ISR+1,fsr1l
  5216  005210  927F               	bcf	btemp,1,c	;clear compiler interrupt flag (level 2)
  5217  005212  0011               	retfie		f
  5218  005214                     __end_of_Hi_ISR:
  5219                           	opt callstack 0
  5220                           
  5221 ;; *************** function i2_speak *****************
  5222 ;; Defined at:
  5223 ;;		line 6 in file "setting_hardaware/buzzer.c"
  5224 ;; Parameters:    Size  Location     Type
  5225 ;;		None
  5226 ;; Auto vars:     Size  Location     Type
  5227 ;;		None
  5228 ;; Return value:  Size  Location     Type
  5229 ;;                  1    wreg      void 
  5230 ;; Registers used:
  5231 ;;		wreg
  5232 ;; Tracked objects:
  5233 ;;		On entry : 0/0
  5234 ;;		On exit  : 0/0
  5235 ;;		Unchanged: 0/0
  5236 ;; Data sizes:     COMRAM   BANK0   BANK1   BANK2   BANK3   BANK4   BANK5
  5237 ;;      Params:         0       0       0       0       0       0       0
  5238 ;;      Locals:         0       0       0       0       0       0       0
  5239 ;;      Temps:          1       0       0       0       0       0       0
  5240 ;;      Totals:         1       0       0       0       0       0       0
  5241 ;;Total ram usage:        1 bytes
  5242 ;; Hardware stack levels used:    1
  5243 ;; This function calls:
  5244 ;;		Nothing
  5245 ;; This function is called by:
  5246 ;;		_Hi_ISR
  5247 ;; This function uses a non-reentrant model
  5248 ;;
  5249                           
  5250                           	psect	text19
  5251  006CD6                     __ptext19:
  5252                           	opt callstack 0
  5253  006CD6                     i2_speak:
  5254                           	opt callstack 25
  5255                           
  5256                           ;setting_hardaware/buzzer.c: 7:     LATBbits.LATB0 = 1;
  5257                           
  5258                           ;incstack = 0
  5259  006CD6  808A               	bsf	138,0,c	;volatile
  5260                           
  5261                           ;setting_hardaware/buzzer.c: 8:     _delay((unsigned long)((40)*(4000000/4000.0)));
  5262  006CD8  0E34               	movlw	52
  5263  006CDA  6E01               	movwf	??i2_speak^0,c
  5264  006CDC  0EF2               	movlw	242
  5265  006CDE                     i2u766_47:
  5266  006CDE  2EE8               	decfsz	wreg,f,c
  5267  006CE0  D7FE               	bra	i2u766_47
  5268  006CE2  2E01               	decfsz	??i2_speak^0,f,c
  5269  006CE4  D7FC               	bra	i2u766_47
  5270                           
  5271                           ;setting_hardaware/buzzer.c: 9:     LATBbits.LATB0 = 0;
  5272  006CE6  908A               	bcf	138,0,c	;volatile
  5273  006CE8  0012               	return		;funcret
  5274  006CEA                     __end_ofi2_speak:
  5275                           	opt callstack 0
  5276                           
  5277 ;; *************** function i2_Send2Lcd *****************
  5278 ;; Defined at:
  5279 ;;		line 45 in file "setting_hardaware/LCD.c"
  5280 ;; Parameters:    Size  Location     Type
  5281 ;;  Adr             1    wreg     const unsigned char 
  5282 ;;  Lcd             2    3[COMRAM] PTR const unsigned char 
  5283 ;;		 -> r(100), STR_2(6), STR_1(8), 
  5284 ;; Auto vars:     Size  Location     Type
  5285 ;;  Adr             1    6[COMRAM] const unsigned char 
  5286 ;; Return value:  Size  Location     Type
  5287 ;;                  1    wreg      void 
  5288 ;; Registers used:
  5289 ;;		wreg, fsr1l, fsr1h, status,2, status,0, tblptrl, tblptrh, tblptru, cstack
  5290 ;; Tracked objects:
  5291 ;;		On entry : 0/0
  5292 ;;		On exit  : 0/0
  5293 ;;		Unchanged: 0/0
  5294 ;; Data sizes:     COMRAM   BANK0   BANK1   BANK2   BANK3   BANK4   BANK5
  5295 ;;      Params:         2       0       0       0       0       0       0
  5296 ;;      Locals:         1       0       0       0       0       0       0
  5297 ;;      Temps:          1       0       0       0       0       0       0
  5298 ;;      Totals:         4       0       0       0       0       0       0
  5299 ;;Total ram usage:        4 bytes
  5300 ;; Hardware stack levels used:    1
  5301 ;; Hardware stack levels required when called:    1
  5302 ;; This function calls:
  5303 ;;		i2_Cmd
  5304 ;;		i2_Data
  5305 ;; This function is called by:
  5306 ;;		_Hi_ISR
  5307 ;; This function uses a non-reentrant model
  5308 ;;
  5309                           
  5310                           	psect	text20
  5311  00683C                     __ptext20:
  5312                           	opt callstack 0
  5313  00683C                     i2_Send2Lcd:
  5314                           	opt callstack 24
  5315                           
  5316                           ;incstack = 0
  5317                           ;i2Send2Lcd@Adr stored from wreg
  5318  00683C  6E07               	movwf	i2Send2Lcd@Adr^0,c
  5319                           
  5320                           ;setting_hardaware/LCD.c: 46:     Cmd(Adr);
  5321  00683E  C007  F001         	movff	i2Send2Lcd@Adr,i2Cmd@Value
  5322  006842  6A02               	clrf	(i2Cmd@Value+1)^0,c
  5323  006844  ECAE  F035         	call	i2_Cmd	;wreg free
  5324                           
  5325                           ;setting_hardaware/LCD.c: 47:     while (*Lcd != '\0')
  5326  006848  D018               	goto	i2l6278
  5327  00684A                     i2l6274:
  5328                           
  5329                           ;setting_hardaware/LCD.c: 48:     {;setting_hardaware/LCD.c: 49:         Data(*Lcd);
  5330  00684A  C004  FFF6         	movff	i2Send2Lcd@Lcd,tblptrl
  5331  00684E  C005  FFF7         	movff	i2Send2Lcd@Lcd+1,tblptrh
  5332  006852  6AF8               	clrf	tblptru,c
  5333  006854  0E05               	movlw	(high __ramtop+-1)
  5334  006856  64F7               	cpfsgt	tblptrh,c
  5335  006858  D003               	bra	i2u744_47
  5336  00685A  0008               	tblrd		*
  5337  00685C  50F5               	movf	tablat,w,c
  5338  00685E  D005               	bra	i2u744_40
  5339  006860                     i2u744_47:
  5340  006860  CFF6 FFE1          	movff	tblptrl,fsr1l
  5341  006864  CFF7 FFE2          	movff	tblptrh,fsr1h
  5342  006868  50E7               	movf	indf1,w,c
  5343  00686A                     i2u744_40:
  5344  00686A  6E06               	movwf	??i2_Send2Lcd^0,c
  5345  00686C  5006               	movf	??i2_Send2Lcd^0,w,c
  5346  00686E  6E01               	movwf	i2Data@Value^0,c
  5347  006870  6A02               	clrf	(i2Data@Value+1)^0,c
  5348  006872  EC97  F035         	call	i2_Data	;wreg free
  5349                           
  5350                           ;setting_hardaware/LCD.c: 50:         Lcd++;
  5351  006876  4A04               	infsnz	i2Send2Lcd@Lcd^0,f,c
  5352  006878  2A05               	incf	(i2Send2Lcd@Lcd+1)^0,f,c
  5353  00687A                     i2l6278:
  5354                           
  5355                           ;setting_hardaware/LCD.c: 47:     while (*Lcd != '\0')
  5356  00687A  C004  FFF6         	movff	i2Send2Lcd@Lcd,tblptrl
  5357  00687E  C005  FFF7         	movff	i2Send2Lcd@Lcd+1,tblptrh
  5358  006882  6AF8               	clrf	tblptru,c
  5359  006884  0E05               	movlw	(high __ramtop+-1)
  5360  006886  64F7               	cpfsgt	tblptrh,c
  5361  006888  D003               	bra	i2u745_47
  5362  00688A  0008               	tblrd		*
  5363  00688C  50F5               	movf	tablat,w,c
  5364  00688E  D005               	bra	i2u745_40
  5365  006890                     i2u745_47:
  5366  006890  CFF6 FFE1          	movff	tblptrl,fsr1l
  5367  006894  CFF7 FFE2          	movff	tblptrh,fsr1h
  5368  006898  50E7               	movf	indf1,w,c
  5369  00689A                     i2u745_40:
  5370  00689A  0900               	iorlw	0
  5371  00689C  B4D8               	btfsc	status,2,c
  5372  00689E  0012               	return	
  5373  0068A0  D7D4               	goto	i2l6274
  5374  0068A2                     __end_ofi2_Send2Lcd:
  5375                           	opt callstack 0
  5376                           
  5377 ;; *************** function i2_Data *****************
  5378 ;; Defined at:
  5379 ;;		line 26 in file "setting_hardaware/LCD.c"
  5380 ;; Parameters:    Size  Location     Type
  5381 ;;  Value           2    0[COMRAM] int 
  5382 ;; Auto vars:     Size  Location     Type
  5383 ;;		None
  5384 ;; Return value:  Size  Location     Type
  5385 ;;                  1    wreg      void 
  5386 ;; Registers used:
  5387 ;;		wreg
  5388 ;; Tracked objects:
  5389 ;;		On entry : 0/0
  5390 ;;		On exit  : 0/0
  5391 ;;		Unchanged: 0/0
  5392 ;; Data sizes:     COMRAM   BANK0   BANK1   BANK2   BANK3   BANK4   BANK5
  5393 ;;      Params:         2       0       0       0       0       0       0
  5394 ;;      Locals:         0       0       0       0       0       0       0
  5395 ;;      Temps:          1       0       0       0       0       0       0
  5396 ;;      Totals:         3       0       0       0       0       0       0
  5397 ;;Total ram usage:        3 bytes
  5398 ;; Hardware stack levels used:    1
  5399 ;; This function calls:
  5400 ;;		Nothing
  5401 ;; This function is called by:
  5402 ;;		i2_Send2Lcd
  5403 ;; This function uses a non-reentrant model
  5404 ;;
  5405                           
  5406                           	psect	text21
  5407  006B2E                     __ptext21:
  5408                           	opt callstack 0
  5409  006B2E                     i2_Data:
  5410                           	opt callstack 24
  5411                           
  5412                           ;setting_hardaware/LCD.c: 27:     LATD = Value;
  5413                           
  5414                           ;incstack = 0
  5415  006B2E  C001  FF8C         	movff	i2Data@Value,3980	;volatile
  5416                           
  5417                           ;setting_hardaware/LCD.c: 28:     LATCbits.LC4 = 1;
  5418  006B32  888B               	bsf	139,4,c	;volatile
  5419                           
  5420                           ;setting_hardaware/LCD.c: 31:     LATCbits.LC6 = 0;
  5421  006B34  9C8B               	bcf	139,6,c	;volatile
  5422                           
  5423                           ;setting_hardaware/LCD.c: 32:     _delay((unsigned long)((25)*(4000000/4000000.0)));
  5424  006B36  0E08               	movlw	8
  5425  006B38                     i2u767_47:
  5426  006B38  2EE8               	decfsz	wreg,f,c
  5427  006B3A  D7FE               	bra	i2u767_47
  5428  006B3C  F000               	nop	
  5429                           
  5430                           ;setting_hardaware/LCD.c: 33:     LATCbits.LC6 = 1;
  5431  006B3E  8C8B               	bsf	139,6,c	;volatile
  5432                           
  5433                           ;setting_hardaware/LCD.c: 34:     _delay((unsigned long)((25)*(4000000/4000000.0)));
  5434  006B40  0E08               	movlw	8
  5435  006B42                     i2u768_47:
  5436  006B42  2EE8               	decfsz	wreg,f,c
  5437  006B44  D7FE               	bra	i2u768_47
  5438  006B46  F000               	nop	
  5439                           
  5440                           ;setting_hardaware/LCD.c: 35:     LATCbits.LC6 = 0;
  5441  006B48  9C8B               	bcf	139,6,c	;volatile
  5442                           
  5443                           ;setting_hardaware/LCD.c: 36:     _delay((unsigned long)((3)*(4000000/4000.0)));
  5444  006B4A  0E04               	movlw	4
  5445  006B4C  6E03               	movwf	??i2_Data^0,c
  5446  006B4E  0EE4               	movlw	228
  5447  006B50                     i2u769_47:
  5448  006B50  2EE8               	decfsz	wreg,f,c
  5449  006B52  D7FE               	bra	i2u769_47
  5450  006B54  2E03               	decfsz	??i2_Data^0,f,c
  5451  006B56  D7FC               	bra	i2u769_47
  5452  006B58  D000               	nop2	
  5453  006B5A  0012               	return		;funcret
  5454  006B5C                     __end_ofi2_Data:
  5455                           	opt callstack 0
  5456                           
  5457 ;; *************** function i2_LCD_clear *****************
  5458 ;; Defined at:
  5459 ;;		line 57 in file "setting_hardaware/LCD.c"
  5460 ;; Parameters:    Size  Location     Type
  5461 ;;		None
  5462 ;; Auto vars:     Size  Location     Type
  5463 ;;		None
  5464 ;; Return value:  Size  Location     Type
  5465 ;;                  1    wreg      void 
  5466 ;; Registers used:
  5467 ;;		wreg, status,2, cstack
  5468 ;; Tracked objects:
  5469 ;;		On entry : 0/0
  5470 ;;		On exit  : 0/0
  5471 ;;		Unchanged: 0/0
  5472 ;; Data sizes:     COMRAM   BANK0   BANK1   BANK2   BANK3   BANK4   BANK5
  5473 ;;      Params:         0       0       0       0       0       0       0
  5474 ;;      Locals:         0       0       0       0       0       0       0
  5475 ;;      Temps:          0       0       0       0       0       0       0
  5476 ;;      Totals:         0       0       0       0       0       0       0
  5477 ;;Total ram usage:        0 bytes
  5478 ;; Hardware stack levels used:    1
  5479 ;; Hardware stack levels required when called:    1
  5480 ;; This function calls:
  5481 ;;		i2_Cmd
  5482 ;; This function is called by:
  5483 ;;		_Hi_ISR
  5484 ;; This function uses a non-reentrant model
  5485 ;;
  5486                           
  5487                           	psect	text22
  5488  006CFA                     __ptext22:
  5489                           	opt callstack 0
  5490  006CFA                     i2_LCD_clear:
  5491                           	opt callstack 24
  5492                           
  5493                           ;setting_hardaware/LCD.c: 58:     Cmd(0X01);
  5494                           
  5495                           ;incstack = 0
  5496  006CFA  0E00               	movlw	0
  5497  006CFC  6E02               	movwf	(i2Cmd@Value+1)^0,c
  5498  006CFE  0E01               	movlw	1
  5499  006D00  6E01               	movwf	i2Cmd@Value^0,c
  5500  006D02  ECAE  F035         	call	i2_Cmd	;wreg free
  5501  006D06  0012               	return		;funcret
  5502  006D08                     __end_ofi2_LCD_clear:
  5503                           	opt callstack 0
  5504                           
  5505 ;; *************** function i2_Cmd *****************
  5506 ;; Defined at:
  5507 ;;		line 8 in file "setting_hardaware/LCD.c"
  5508 ;; Parameters:    Size  Location     Type
  5509 ;;  Value           2    0[COMRAM] int 
  5510 ;; Auto vars:     Size  Location     Type
  5511 ;;		None
  5512 ;; Return value:  Size  Location     Type
  5513 ;;                  1    wreg      void 
  5514 ;; Registers used:
  5515 ;;		wreg
  5516 ;; Tracked objects:
  5517 ;;		On entry : 0/0
  5518 ;;		On exit  : 0/0
  5519 ;;		Unchanged: 0/0
  5520 ;; Data sizes:     COMRAM   BANK0   BANK1   BANK2   BANK3   BANK4   BANK5
  5521 ;;      Params:         2       0       0       0       0       0       0
  5522 ;;      Locals:         0       0       0       0       0       0       0
  5523 ;;      Temps:          1       0       0       0       0       0       0
  5524 ;;      Totals:         3       0       0       0       0       0       0
  5525 ;;Total ram usage:        3 bytes
  5526 ;; Hardware stack levels used:    1
  5527 ;; This function calls:
  5528 ;;		Nothing
  5529 ;; This function is called by:
  5530 ;;		i2_Send2Lcd
  5531 ;;		i2_LCD_clear
  5532 ;; This function uses a non-reentrant model
  5533 ;;
  5534                           
  5535                           	psect	text23
  5536  006B5C                     __ptext23:
  5537                           	opt callstack 0
  5538  006B5C                     i2_Cmd:
  5539                           	opt callstack 24
  5540                           
  5541                           ;setting_hardaware/LCD.c: 9:     LATD = Value;
  5542                           
  5543                           ;incstack = 0
  5544  006B5C  C001  FF8C         	movff	i2Cmd@Value,3980	;volatile
  5545                           
  5546                           ;setting_hardaware/LCD.c: 10:     LATCbits.LC4 = 0;
  5547  006B60  988B               	bcf	139,4,c	;volatile
  5548                           
  5549                           ;setting_hardaware/LCD.c: 13:     LATCbits.LC6 = 0;
  5550  006B62  9C8B               	bcf	139,6,c	;volatile
  5551                           
  5552                           ;setting_hardaware/LCD.c: 14:     _delay((unsigned long)((25)*(4000000/4000000.0)));
  5553  006B64  0E08               	movlw	8
  5554  006B66                     i2u770_47:
  5555  006B66  2EE8               	decfsz	wreg,f,c
  5556  006B68  D7FE               	bra	i2u770_47
  5557  006B6A  F000               	nop	
  5558                           
  5559                           ;setting_hardaware/LCD.c: 15:     LATCbits.LC6 = 1;
  5560  006B6C  8C8B               	bsf	139,6,c	;volatile
  5561                           
  5562                           ;setting_hardaware/LCD.c: 16:     _delay((unsigned long)((25)*(4000000/4000000.0)));
  5563  006B6E  0E08               	movlw	8
  5564  006B70                     i2u771_47:
  5565  006B70  2EE8               	decfsz	wreg,f,c
  5566  006B72  D7FE               	bra	i2u771_47
  5567  006B74  F000               	nop	
  5568                           
  5569                           ;setting_hardaware/LCD.c: 17:     LATCbits.LC6 = 0;
  5570  006B76  9C8B               	bcf	139,6,c	;volatile
  5571                           
  5572                           ;setting_hardaware/LCD.c: 18:     _delay((unsigned long)((3)*(4000000/4000.0)));
  5573  006B78  0E04               	movlw	4
  5574  006B7A  6E03               	movwf	??i2_Cmd^0,c
  5575  006B7C  0EE4               	movlw	228
  5576  006B7E                     i2u772_47:
  5577  006B7E  2EE8               	decfsz	wreg,f,c
  5578  006B80  D7FE               	bra	i2u772_47
  5579  006B82  2E03               	decfsz	??i2_Cmd^0,f,c
  5580  006B84  D7FC               	bra	i2u772_47
  5581  006B86  D000               	nop2	
  5582  006B88  0012               	return		;funcret
  5583  006B8A                     __end_ofi2_Cmd:
  5584                           	opt callstack 0
  5585                           
  5586 ;; *************** function _sprintf *****************
  5587 ;; Defined at:
  5588 ;;		line 9 in file "C:\Program Files (x86)\Microchip\xc8\v2.10\pic\sources\c99\common\nf_sprintf.c"
  5589 ;; Parameters:    Size  Location     Type
  5590 ;;  s               2   93[BANK0 ] PTR unsigned char 
  5591 ;;		 -> r(100), 
  5592 ;;  fmt             2   95[BANK0 ] PTR const unsigned char 
  5593 ;;		 -> STR_4(9), STR_3(19), 
  5594 ;; Auto vars:     Size  Location     Type
  5595 ;;  f               6  109[BANK0 ] struct _IO_FILE
  5596 ;;  ap              2  107[BANK0 ] PTR void [1]
  5597 ;;		 -> ?_sprintf(2), 
  5598 ;;  ret             2    0        int 
  5599 ;; Return value:  Size  Location     Type
  5600 ;;                  2   93[BANK0 ] int 
  5601 ;; Registers used:
  5602 ;;		wreg, fsr1l, fsr1h, fsr2l, fsr2h, status,2, status,0, tblptrl, tblptrh, tblptru, prodl, prodh, cstack
  5603 ;; Tracked objects:
  5604 ;;		On entry : 0/0
  5605 ;;		On exit  : 0/0
  5606 ;;		Unchanged: 0/0
  5607 ;; Data sizes:     COMRAM   BANK0   BANK1   BANK2   BANK3   BANK4   BANK5
  5608 ;;      Params:         0      12       0       0       0       0       0
  5609 ;;      Locals:         0      10       0       0       0       0       0
  5610 ;;      Temps:          0       0       0       0       0       0       0
  5611 ;;      Totals:         0      22       0       0       0       0       0
  5612 ;;Total ram usage:       22 bytes
  5613 ;; Hardware stack levels used:    1
  5614 ;; Hardware stack levels required when called:    7
  5615 ;; This function calls:
  5616 ;;		_vfprintf
  5617 ;; This function is called by:
  5618 ;;		_Hi_ISR
  5619 ;; This function uses a non-reentrant model
  5620 ;;
  5621                           
  5622                           	psect	text24
  5623  0068F8                     __ptext24:
  5624                           	opt callstack 0
  5625  0068F8                     _sprintf:
  5626                           	opt callstack 18
  5627                           
  5628                           ;incstack = 0
  5629  0068F8  0EE1               	movlw	low (?_sprintf+4)
  5630  0068FA  0100               	movlb	0	; () banked
  5631  0068FC  6FEB               	movwf	sprintf@ap& (0+255),b
  5632  0068FE  0E00               	movlw	high (?_sprintf+4)
  5633  006900  6FEC               	movwf	(sprintf@ap+1)& (0+255),b
  5634  006902  C0DD  F0ED         	movff	sprintf@s,sprintf@f
  5635  006906  C0DE  F0EE         	movff	sprintf@s+1,sprintf@f+1
  5636                           
  5637                           ; BSR set to: 0
  5638  00690A  0E00               	movlw	0
  5639  00690C  6FF0               	movwf	(sprintf@f+3)& (0+255),b
  5640  00690E  0E00               	movlw	0
  5641  006910  6FEF               	movwf	(sprintf@f+2)& (0+255),b
  5642                           
  5643                           ; BSR set to: 0
  5644  006912  0E00               	movlw	0
  5645  006914  6FF2               	movwf	(sprintf@f+5)& (0+255),b
  5646  006916  0E00               	movlw	0
  5647  006918  6FF1               	movwf	(sprintf@f+4)& (0+255),b
  5648                           
  5649                           ; BSR set to: 0
  5650  00691A  0EED               	movlw	low sprintf@f
  5651  00691C  6E54               	movwf	vfprintf@fp^0,c
  5652  00691E  0E00               	movlw	high sprintf@f
  5653  006920  6E55               	movwf	(vfprintf@fp+1)^0,c
  5654  006922  C0DF  F056         	movff	sprintf@fmt,vfprintf@fmt
  5655  006926  C0E0  F057         	movff	sprintf@fmt+1,vfprintf@fmt+1
  5656  00692A  0EEB               	movlw	low sprintf@ap
  5657  00692C  6E58               	movwf	vfprintf@ap^0,c
  5658  00692E  0E00               	movlw	high sprintf@ap
  5659  006930  6E59               	movwf	(vfprintf@ap+1)^0,c
  5660  006932  EC51  F034         	call	_vfprintf	;wreg free
  5661  006936  0100               	movlb	0	; () banked
  5662  006938  51EF               	movf	(sprintf@f+2)& (0+255),w,b
  5663  00693A  25DD               	addwf	sprintf@s& (0+255),w,b
  5664  00693C  6ED9               	movwf	fsr2l,c
  5665  00693E  51F0               	movf	(sprintf@f+3)& (0+255),w,b
  5666  006940  21DE               	addwfc	(sprintf@s+1)& (0+255),w,b
  5667  006942  6EDA               	movwf	fsr2h,c
  5668  006944  0E00               	movlw	0
  5669  006946  6EDF               	movwf	indf2,c
  5670                           
  5671                           ; BSR set to: 0
  5672  006948  0012               	return		;funcret
  5673  00694A                     __end_of_sprintf:
  5674                           	opt callstack 0
  5675                           
  5676 ;; *************** function _vfprintf *****************
  5677 ;; Defined at:
  5678 ;;		line 1368 in file "C:\Program Files (x86)\Microchip\xc8\v2.10\pic\sources\c99\common\doprnt.c"
  5679 ;; Parameters:    Size  Location     Type
  5680 ;;  fp              2   83[COMRAM] PTR struct _IO_FILE
  5681 ;;		 -> sprintf@f(6), 
  5682 ;;  fmt             2   85[COMRAM] PTR const unsigned char 
  5683 ;;		 -> STR_4(9), STR_3(19), 
  5684 ;;  ap              2   87[COMRAM] PTR PTR void 
  5685 ;;		 -> sprintf@ap(2), 
  5686 ;; Auto vars:     Size  Location     Type
  5687 ;;  cfmt            2   89[COMRAM] PTR unsigned char 
  5688 ;;		 -> STR_4(9), STR_3(19), 
  5689 ;; Return value:  Size  Location     Type
  5690 ;;                  2   83[COMRAM] int 
  5691 ;; Registers used:
  5692 ;;		wreg, fsr1l, fsr1h, fsr2l, fsr2h, status,2, status,0, tblptrl, tblptrh, tblptru, prodl, prodh, cstack
  5693 ;; Tracked objects:
  5694 ;;		On entry : 0/0
  5695 ;;		On exit  : 0/0
  5696 ;;		Unchanged: 0/0
  5697 ;; Data sizes:     COMRAM   BANK0   BANK1   BANK2   BANK3   BANK4   BANK5
  5698 ;;      Params:         6       0       0       0       0       0       0
  5699 ;;      Locals:         2       0       0       0       0       0       0
  5700 ;;      Temps:          0       0       0       0       0       0       0
  5701 ;;      Totals:         8       0       0       0       0       0       0
  5702 ;;Total ram usage:        8 bytes
  5703 ;; Hardware stack levels used:    1
  5704 ;; Hardware stack levels required when called:    6
  5705 ;; This function calls:
  5706 ;;		_vfpfcnvrt
  5707 ;; This function is called by:
  5708 ;;		_sprintf
  5709 ;; This function uses a non-reentrant model
  5710 ;;
  5711                           
  5712                           	psect	text25
  5713  0068A2                     __ptext25:
  5714                           	opt callstack 0
  5715  0068A2                     _vfprintf:
  5716                           	opt callstack 18
  5717                           
  5718                           ;C:\Program Files (x86)\Microchip\xc8\v2.10\pic\sources\c99\common\doprnt.c: 1368: int v
      +                          fprintf(FILE *fp, const char *fmt, va_list ap);C:\Program Files (x86)\Microchip\xc8\v2.1
      +                          0\pic\sources\c99\common\doprnt.c: 1369: {;C:\Program Files (x86)\Microchip\xc8\v2.10\pi
      +                          c\sources\c99\common\doprnt.c: 1371:     char *cfmt;;C:\Program Files (x86)\Microchip\xc
      +                          8\v2.10\pic\sources\c99\common\doprnt.c: 1373:     cfmt = (char *)fmt;
  5719                           
  5720                           ; BSR set to: 0
  5721                           ;incstack = 0
  5722  0068A2  C056  F05A         	movff	vfprintf@fmt,vfprintf@cfmt
  5723  0068A6  C057  F05B         	movff	vfprintf@fmt+1,vfprintf@cfmt+1
  5724                           
  5725                           ;C:\Program Files (x86)\Microchip\xc8\v2.10\pic\sources\c99\common\doprnt.c: 1374:     n
      +                          out = 0;
  5726  0068AA  0E00               	movlw	0
  5727  0068AC  0101               	movlb	1	; () banked
  5728  0068AE  6FE8               	movwf	(_nout+1)& (0+255),b
  5729  0068B0  0E00               	movlw	0
  5730  0068B2  6FE7               	movwf	_nout& (0+255),b
  5731                           
  5732                           ;C:\Program Files (x86)\Microchip\xc8\v2.10\pic\sources\c99\common\doprnt.c: 1375:     w
      +                          hile (*cfmt) {
  5733  0068B4  D013               	goto	i2l6126
  5734  0068B6                     i2l6124:
  5735                           
  5736                           ; BSR set to: 1
  5737                           ;C:\Program Files (x86)\Microchip\xc8\v2.10\pic\sources\c99\common\doprnt.c: 1376:      
      +                             nout += vfpfcnvrt(fp, &cfmt, ap);
  5738  0068B6  C054  F040         	movff	vfprintf@fp,vfpfcnvrt@fp
  5739  0068BA  C055  F041         	movff	vfprintf@fp+1,vfpfcnvrt@fp+1
  5740  0068BE  0E5A               	movlw	low vfprintf@cfmt
  5741  0068C0  6E42               	movwf	vfpfcnvrt@fmt^0,c
  5742  0068C2  0E00               	movlw	high vfprintf@cfmt
  5743  0068C4  6E43               	movwf	(vfpfcnvrt@fmt+1)^0,c
  5744  0068C6  C058  F044         	movff	vfprintf@ap,vfpfcnvrt@ap
  5745  0068CA  C059  F045         	movff	vfprintf@ap+1,vfpfcnvrt@ap+1
  5746  0068CE  EC0A  F029         	call	_vfpfcnvrt	;wreg free
  5747  0068D2  5040               	movf	?_vfpfcnvrt^0,w,c
  5748  0068D4  0101               	movlb	1	; () banked
  5749  0068D6  27E7               	addwf	_nout& (0+255),f,b
  5750  0068D8  5041               	movf	(?_vfpfcnvrt+1)^0,w,c
  5751  0068DA  23E8               	addwfc	(_nout+1)& (0+255),f,b
  5752  0068DC                     i2l6126:
  5753                           
  5754                           ; BSR set to: 1
  5755                           ;C:\Program Files (x86)\Microchip\xc8\v2.10\pic\sources\c99\common\doprnt.c: 1375:     w
      +                          hile (*cfmt) {
  5756  0068DC  C05A  FFF6         	movff	vfprintf@cfmt,tblptrl
  5757  0068E0  C05B  FFF7         	movff	vfprintf@cfmt+1,tblptrh
  5758  0068E4                     	if	0	;tblptru may be non-zero
  5759  0068E4                     	endif
  5760  0068E4                     	if	0	;tblptru may be non-zero
  5761  0068E4                     	endif
  5762  0068E4  0008               	tblrd		*
  5763  0068E6  50F5               	movf	tablat,w,c
  5764  0068E8  0900               	iorlw	0
  5765  0068EA  A4D8               	btfss	status,2,c
  5766  0068EC  D7E4               	goto	i2l6124
  5767                           
  5768                           ; BSR set to: 1
  5769                           ;C:\Program Files (x86)\Microchip\xc8\v2.10\pic\sources\c99\common\doprnt.c: 1378:     r
      +                          eturn nout;
  5770  0068EE  C1E7  F054         	movff	_nout,?_vfprintf
  5771  0068F2  C1E8  F055         	movff	_nout+1,?_vfprintf+1
  5772                           
  5773                           ; BSR set to: 1
  5774  0068F6  0012               	return		;funcret
  5775  0068F8                     __end_of_vfprintf:
  5776                           	opt callstack 0
  5777                           
  5778 ;; *************** function _vfpfcnvrt *****************
  5779 ;; Defined at:
  5780 ;;		line 670 in file "C:\Program Files (x86)\Microchip\xc8\v2.10\pic\sources\c99\common\doprnt.c"
  5781 ;; Parameters:    Size  Location     Type
  5782 ;;  fp              2   63[COMRAM] PTR struct _IO_FILE
  5783 ;;		 -> sprintf@f(6), 
  5784 ;;  fmt             2   65[COMRAM] PTR PTR unsigned char 
  5785 ;;		 -> vfprintf@cfmt(2), 
  5786 ;;  ap              2   67[COMRAM] PTR PTR void 
  5787 ;;		 -> sprintf@ap(2), 
  5788 ;; Auto vars:     Size  Location     Type
  5789 ;;  ll              8   73[COMRAM] long long 
  5790 ;;  llu             8    0        unsigned long long 
  5791 ;;  f               4    0        unsigned long long 
  5792 ;;  vp              3    0        PTR void 
  5793 ;;  ct              3    0        unsigned char [3]
  5794 ;;  cp              3    0        PTR unsigned char 
  5795 ;;  i               2    0        int 
  5796 ;;  done            2    0        int 
  5797 ;;  c               1    0        unsigned char 
  5798 ;; Return value:  Size  Location     Type
  5799 ;;                  2   63[COMRAM] int 
  5800 ;; Registers used:
  5801 ;;		wreg, fsr1l, fsr1h, fsr2l, fsr2h, status,2, status,0, tblptrl, tblptrh, tblptru, prodl, prodh, cstack
  5802 ;; Tracked objects:
  5803 ;;		On entry : 0/0
  5804 ;;		On exit  : 0/0
  5805 ;;		Unchanged: 0/0
  5806 ;; Data sizes:     COMRAM   BANK0   BANK1   BANK2   BANK3   BANK4   BANK5
  5807 ;;      Params:         6       0       0       0       0       0       0
  5808 ;;      Locals:        10       0       0       0       0       0       0
  5809 ;;      Temps:          4       0       0       0       0       0       0
  5810 ;;      Totals:        20       0       0       0       0       0       0
  5811 ;;Total ram usage:       20 bytes
  5812 ;; Hardware stack levels used:    1
  5813 ;; Hardware stack levels required when called:    5
  5814 ;; This function calls:
  5815 ;;		_atoi
  5816 ;;		_dtoa
  5817 ;;		_fputc
  5818 ;;		_isdigit
  5819 ;; This function is called by:
  5820 ;;		_vfprintf
  5821 ;; This function uses a non-reentrant model
  5822 ;;
  5823                           
  5824                           	psect	text26
  5825  005214                     __ptext26:
  5826                           	opt callstack 0
  5827  005214                     _vfpfcnvrt:
  5828                           	opt callstack 18
  5829                           
  5830                           ;C:\Program Files (x86)\Microchip\xc8\v2.10\pic\sources\c99\common\doprnt.c: 670: static
      +                           int vfpfcnvrt(FILE *fp, char *fmt[], va_list ap);C:\Program Files (x86)\Microchip\xc8\v
      +                          2.10\pic\sources\c99\common\doprnt.c: 671: {;C:\Program Files (x86)\Microchip\xc8\v2.10\
      +                          pic\sources\c99\common\doprnt.c: 672:     char c, *cp, ct[3];;C:\Program Files (x86)\Mic
      +                          rochip\xc8\v2.10\pic\sources\c99\common\doprnt.c: 673:     int done, i;;C:\Program Files
      +                           (x86)\Microchip\xc8\v2.10\pic\sources\c99\common\doprnt.c: 674:     long long ll;
  5831                           
  5832                           ; BSR set to: 1
  5833                           ;incstack = 0
  5834  005214  C042  FFD9         	movff	vfpfcnvrt@fmt,fsr2l
  5835  005218  C043  FFDA         	movff	vfpfcnvrt@fmt+1,fsr2h
  5836  00521C  CFDE FFF6          	movff	postinc2,tblptrl
  5837  005220  CFDD FFF7          	movff	postdec2,tblptrh
  5838  005224                     	if	0	;tblptru may be non-zero
  5839  005224                     	endif
  5840  005224                     	if	0	;tblptru may be non-zero
  5841  005224                     	endif
  5842  005224  0008               	tblrd		*
  5843  005226  50F5               	movf	tablat,w,c
  5844  005228  0A25               	xorlw	37
  5845  00522A  A4D8               	btfss	status,2,c
  5846  00522C  D105               	goto	i2l5502
  5847                           
  5848                           ;C:\Program Files (x86)\Microchip\xc8\v2.10\pic\sources\c99\common\doprnt.c: 681:       
      +                            ++*fmt;
  5849  00522E  C042  FFD9         	movff	vfpfcnvrt@fmt,fsr2l
  5850  005232  C043  FFDA         	movff	vfpfcnvrt@fmt+1,fsr2h
  5851  005236  2ADE               	incf	postinc2,f,c
  5852  005238  0E00               	movlw	0
  5853  00523A  22DD               	addwfc	postdec2,f,c
  5854                           
  5855                           ;C:\Program Files (x86)\Microchip\xc8\v2.10\pic\sources\c99\common\doprnt.c: 683:       
      +                            flags = width = 0;
  5856  00523C  0E00               	movlw	0
  5857  00523E  0101               	movlb	1	; () banked
  5858  005240  6FEA               	movwf	(_width+1)& (0+255),b
  5859  005242  0E00               	movlw	0
  5860  005244  6FE9               	movwf	_width& (0+255),b
  5861  005246  C1E9  F0FD         	movff	_width,_flags
  5862  00524A  C1EA  F0FE         	movff	_width+1,_flags+1
  5863                           
  5864                           ; BSR set to: 1
  5865                           ;C:\Program Files (x86)\Microchip\xc8\v2.10\pic\sources\c99\common\doprnt.c: 684:       
      +                            prec = -1;
  5866  00524E  69EB               	setf	_prec& (0+255),b
  5867  005250  69EC               	setf	(_prec+1)& (0+255),b
  5868                           
  5869                           ; BSR set to: 1
  5870                           ;C:\Program Files (x86)\Microchip\xc8\v2.10\pic\sources\c99\common\doprnt.c: 723:       
      +                            if ((*fmt)[0] == '*') {
  5871  005252  C042  FFD9         	movff	vfpfcnvrt@fmt,fsr2l
  5872  005256  C043  FFDA         	movff	vfpfcnvrt@fmt+1,fsr2h
  5873  00525A  CFDE FFF6          	movff	postinc2,tblptrl
  5874  00525E  CFDD FFF7          	movff	postdec2,tblptrh
  5875  005262                     	if	0	;tblptru may be non-zero
  5876  005262                     	endif
  5877  005262                     	if	0	;tblptru may be non-zero
  5878  005262                     	endif
  5879  005262  0008               	tblrd		*
  5880  005264  50F5               	movf	tablat,w,c
  5881  005266  0A2A               	xorlw	42
  5882  005268  A4D8               	btfss	status,2,c
  5883  00526A  D025               	goto	i2l5466
  5884                           
  5885                           ; BSR set to: 1
  5886                           ;C:\Program Files (x86)\Microchip\xc8\v2.10\pic\sources\c99\common\doprnt.c: 724:       
      +                                ++*fmt;
  5887  00526C  C042  FFD9         	movff	vfpfcnvrt@fmt,fsr2l
  5888  005270  C043  FFDA         	movff	vfpfcnvrt@fmt+1,fsr2h
  5889  005274  2ADE               	incf	postinc2,f,c
  5890  005276  0E00               	movlw	0
  5891  005278  22DD               	addwfc	postdec2,f,c
  5892                           
  5893                           ;C:\Program Files (x86)\Microchip\xc8\v2.10\pic\sources\c99\common\doprnt.c: 725:       
      +                                width = (*(int *)__va_arg(*(int **)ap, (int)0));
  5894  00527A  C044  FFD9         	movff	vfpfcnvrt@ap,fsr2l
  5895  00527E  C045  FFDA         	movff	vfpfcnvrt@ap+1,fsr2h
  5896  005282  CFDF F046          	movff	indf2,??_vfpfcnvrt
  5897  005286  0E02               	movlw	2
  5898  005288  26DE               	addwf	postinc2,f,c
  5899  00528A  CFDF F047          	movff	indf2,??_vfpfcnvrt+1
  5900  00528E  0E00               	movlw	0
  5901  005290  22DD               	addwfc	postdec2,f,c
  5902  005292  C046  FFD9         	movff	??_vfpfcnvrt,fsr2l
  5903  005296  C047  FFDA         	movff	??_vfpfcnvrt+1,fsr2h
  5904  00529A  CFDE F1E9          	movff	postinc2,_width
  5905  00529E  CFDD F1EA          	movff	postdec2,_width+1
  5906                           
  5907                           ; BSR set to: 1
  5908                           ;C:\Program Files (x86)\Microchip\xc8\v2.10\pic\sources\c99\common\doprnt.c: 726:       
      +                                if (width < 0) {
  5909  0052A2  AFEA               	btfss	(_width+1)& (0+255),7,b
  5910  0052A4  D041               	goto	i2u627_40
  5911                           
  5912                           ; BSR set to: 1
  5913                           ;C:\Program Files (x86)\Microchip\xc8\v2.10\pic\sources\c99\common\doprnt.c: 727:       
      +                                    flags |= (1 << 0);
  5914  0052A6  0100               	movlb	0	; () banked
  5915  0052A8  81FD               	bsf	_flags& (0+255),0,b
  5916                           
  5917                           ;C:\Program Files (x86)\Microchip\xc8\v2.10\pic\sources\c99\common\doprnt.c: 728:       
      +                                    width = -width;
  5918  0052AA  0101               	movlb	1	; () banked
  5919  0052AC  6DE9               	negf	_width& (0+255),b
  5920  0052AE  1FEA               	comf	(_width+1)& (0+255),f,b
  5921  0052B0  B0D8               	btfsc	status,0,c
  5922  0052B2  2BEA               	incf	(_width+1)& (0+255),f,b
  5923  0052B4  D039               	goto	i2u627_40
  5924  0052B6                     i2l5466:
  5925                           
  5926                           ; BSR set to: 1
  5927                           ;C:\Program Files (x86)\Microchip\xc8\v2.10\pic\sources\c99\common\doprnt.c: 731:       
      +                                width = atoi(*fmt);
  5928  0052B6  C042  FFD9         	movff	vfpfcnvrt@fmt,fsr2l
  5929  0052BA  C043  FFDA         	movff	vfpfcnvrt@fmt+1,fsr2h
  5930  0052BE  CFDE F008          	movff	postinc2,atoi@s
  5931  0052C2  CFDD F009          	movff	postdec2,atoi@s+1
  5932  0052C6  EC19  F02F         	call	_atoi	;wreg free
  5933  0052CA  C008  F1E9         	movff	?_atoi,_width
  5934  0052CE  C009  F1EA         	movff	?_atoi+1,_width+1
  5935                           
  5936                           ;C:\Program Files (x86)\Microchip\xc8\v2.10\pic\sources\c99\common\doprnt.c: 732:       
      +                                while ((0 ? isdigit((*fmt)[0]) : ((unsigned)((*fmt)[0])-'0') < 10)) {
  5937  0052D2  D007               	goto	i2l5470
  5938  0052D4                     i2l5468:
  5939                           
  5940                           ;C:\Program Files (x86)\Microchip\xc8\v2.10\pic\sources\c99\common\doprnt.c: 733:       
      +                                    ++*fmt;
  5941  0052D4  C042  FFD9         	movff	vfpfcnvrt@fmt,fsr2l
  5942  0052D8  C043  FFDA         	movff	vfpfcnvrt@fmt+1,fsr2h
  5943  0052DC  2ADE               	incf	postinc2,f,c
  5944  0052DE  0E00               	movlw	0
  5945  0052E0  22DD               	addwfc	postdec2,f,c
  5946  0052E2                     i2l5470:
  5947  0052E2  0ED0               	movlw	208
  5948  0052E4  6E46               	movwf	??_vfpfcnvrt^0,c
  5949  0052E6  0EFF               	movlw	255
  5950  0052E8  6E47               	movwf	(??_vfpfcnvrt+1)^0,c
  5951  0052EA  C042  FFD9         	movff	vfpfcnvrt@fmt,fsr2l
  5952  0052EE  C043  FFDA         	movff	vfpfcnvrt@fmt+1,fsr2h
  5953  0052F2  CFDE FFF6          	movff	postinc2,tblptrl
  5954  0052F6  CFDD FFF7          	movff	postdec2,tblptrh
  5955  0052FA                     	if	0	;tblptru may be non-zero
  5956  0052FA                     	endif
  5957  0052FA                     	if	0	;tblptru may be non-zero
  5958  0052FA                     	endif
  5959  0052FA  0008               	tblrd		*
  5960  0052FC  50F5               	movf	tablat,w,c
  5961  0052FE  6E48               	movwf	(??_vfpfcnvrt+2)^0,c
  5962  005300  6A49               	clrf	(??_vfpfcnvrt+3)^0,c
  5963  005302  5046               	movf	??_vfpfcnvrt^0,w,c
  5964  005304  2648               	addwf	(??_vfpfcnvrt+2)^0,f,c
  5965  005306  5047               	movf	(??_vfpfcnvrt+1)^0,w,c
  5966  005308  2249               	addwfc	(??_vfpfcnvrt+3)^0,f,c
  5967  00530A  5049               	movf	(??_vfpfcnvrt+3)^0,w,c
  5968  00530C  E106               	bnz	i2u625_40
  5969  00530E  0E0A               	movlw	10
  5970  005310  5C48               	subwf	(??_vfpfcnvrt+2)^0,w,c
  5971  005312  B0D8               	btfsc	status,0,c
  5972  005314  D002               	goto	i2u625_40
  5973  005316  0E01               	movlw	1
  5974  005318  D001               	goto	i2u626_40
  5975  00531A                     i2u625_40:
  5976  00531A  0E00               	movlw	0
  5977  00531C                     i2u626_40:
  5978  00531C  6E52               	movwf	_vfpfcnvrt$1032^0,c
  5979  00531E  6A53               	clrf	(_vfpfcnvrt$1032+1)^0,c
  5980  005320  5052               	movf	_vfpfcnvrt$1032^0,w,c
  5981  005322  1053               	iorwf	(_vfpfcnvrt$1032+1)^0,w,c
  5982  005324  A4D8               	btfss	status,2,c
  5983  005326  D7D6               	goto	i2l5468
  5984  005328                     i2u627_40:
  5985                           
  5986                           ;C:\Program Files (x86)\Microchip\xc8\v2.10\pic\sources\c99\common\doprnt.c: 825:       
      +                            if ((*fmt[0] == 'd') || (*fmt[0] == 'i')) {
  5987  005328  C042  FFD9         	movff	vfpfcnvrt@fmt,fsr2l
  5988  00532C  C043  FFDA         	movff	vfpfcnvrt@fmt+1,fsr2h
  5989  005330  CFDE FFF6          	movff	postinc2,tblptrl
  5990  005334  CFDD FFF7          	movff	postdec2,tblptrh
  5991  005338                     	if	0	;tblptru may be non-zero
  5992  005338                     	endif
  5993  005338                     	if	0	;tblptru may be non-zero
  5994  005338                     	endif
  5995  005338  0008               	tblrd		*
  5996  00533A  50F5               	movf	tablat,w,c
  5997  00533C  0A64               	xorlw	100
  5998  00533E  B4D8               	btfsc	status,2,c
  5999  005340  D00D               	goto	i2u629_40
  6000  005342  C042  FFD9         	movff	vfpfcnvrt@fmt,fsr2l
  6001  005346  C043  FFDA         	movff	vfpfcnvrt@fmt+1,fsr2h
  6002  00534A  CFDE FFF6          	movff	postinc2,tblptrl
  6003  00534E  CFDD FFF7          	movff	postdec2,tblptrh
  6004  005352                     	if	0	;tblptru may be non-zero
  6005  005352                     	endif
  6006  005352                     	if	0	;tblptru may be non-zero
  6007  005352                     	endif
  6008  005352  0008               	tblrd		*
  6009  005354  50F5               	movf	tablat,w,c
  6010  005356  0A69               	xorlw	105
  6011  005358  A4D8               	btfss	status,2,c
  6012  00535A  D03F               	goto	i2l5486
  6013  00535C                     i2u629_40:
  6014                           
  6015                           ;C:\Program Files (x86)\Microchip\xc8\v2.10\pic\sources\c99\common\doprnt.c: 827:       
      +                                ++*fmt;
  6016  00535C  C042  FFD9         	movff	vfpfcnvrt@fmt,fsr2l
  6017  005360  C043  FFDA         	movff	vfpfcnvrt@fmt+1,fsr2h
  6018  005364  2ADE               	incf	postinc2,f,c
  6019  005366  0E00               	movlw	0
  6020  005368  22DD               	addwfc	postdec2,f,c
  6021                           
  6022                           ;C:\Program Files (x86)\Microchip\xc8\v2.10\pic\sources\c99\common\doprnt.c: 828:       
      +                                ll = (long long)(*(int *)__va_arg(*(int **)ap, (int)0));
  6023  00536A  C044  FFD9         	movff	vfpfcnvrt@ap,fsr2l
  6024  00536E  C045  FFDA         	movff	vfpfcnvrt@ap+1,fsr2h
  6025  005372  CFDF F046          	movff	indf2,??_vfpfcnvrt
  6026  005376  0E02               	movlw	2
  6027  005378  26DE               	addwf	postinc2,f,c
  6028  00537A  CFDF F047          	movff	indf2,??_vfpfcnvrt+1
  6029  00537E  0E00               	movlw	0
  6030  005380  22DD               	addwfc	postdec2,f,c
  6031  005382  C046  FFD9         	movff	??_vfpfcnvrt,fsr2l
  6032  005386  C047  FFDA         	movff	??_vfpfcnvrt+1,fsr2h
  6033  00538A  CFDE F04A          	movff	postinc2,vfpfcnvrt@ll
  6034  00538E  CFDD F04B          	movff	postdec2,vfpfcnvrt@ll+1
  6035  005392  0E00               	movlw	0
  6036  005394  BE4B               	btfsc	(vfpfcnvrt@ll+1)^0,7,c
  6037  005396  0EFF               	movlw	-1
  6038  005398  6E4C               	movwf	(vfpfcnvrt@ll+2)^0,c
  6039  00539A  6E4D               	movwf	(vfpfcnvrt@ll+3)^0,c
  6040  00539C  6E4E               	movwf	(vfpfcnvrt@ll+4)^0,c
  6041  00539E  6E4F               	movwf	(vfpfcnvrt@ll+5)^0,c
  6042  0053A0  6E50               	movwf	(vfpfcnvrt@ll+6)^0,c
  6043  0053A2  6E51               	movwf	(vfpfcnvrt@ll+7)^0,c
  6044                           
  6045                           ;C:\Program Files (x86)\Microchip\xc8\v2.10\pic\sources\c99\common\doprnt.c: 830:       
      +                                return dtoa(fp, ll);
  6046  0053A4  C040  F01C         	movff	vfpfcnvrt@fp,dtoa@fp
  6047  0053A8  C041  F01D         	movff	vfpfcnvrt@fp+1,dtoa@fp+1
  6048  0053AC  C04A  F01E         	movff	vfpfcnvrt@ll,dtoa@d
  6049  0053B0  C04B  F01F         	movff	vfpfcnvrt@ll+1,dtoa@d+1
  6050  0053B4  C04C  F020         	movff	vfpfcnvrt@ll+2,dtoa@d+2
  6051  0053B8  C04D  F021         	movff	vfpfcnvrt@ll+3,dtoa@d+3
  6052  0053BC  C04E  F022         	movff	vfpfcnvrt@ll+4,dtoa@d+4
  6053  0053C0  C04F  F023         	movff	vfpfcnvrt@ll+5,dtoa@d+5
  6054  0053C4  C050  F024         	movff	vfpfcnvrt@ll+6,dtoa@d+6
  6055  0053C8  C051  F025         	movff	vfpfcnvrt@ll+7,dtoa@d+7
  6056  0053CC  EC36  F02A         	call	_dtoa	;wreg free
  6057  0053D0  C01C  F040         	movff	?_dtoa,?_vfpfcnvrt
  6058  0053D4  C01D  F041         	movff	?_dtoa+1,?_vfpfcnvrt+1
  6059  0053D8  0012               	return	
  6060  0053DA                     i2l5486:
  6061                           
  6062                           ;C:\Program Files (x86)\Microchip\xc8\v2.10\pic\sources\c99\common\doprnt.c: 1350:      
      +                             if ((*fmt)[0] == '%') {
  6063  0053DA  C042  FFD9         	movff	vfpfcnvrt@fmt,fsr2l
  6064  0053DE  C043  FFDA         	movff	vfpfcnvrt@fmt+1,fsr2h
  6065  0053E2  CFDE FFF6          	movff	postinc2,tblptrl
  6066  0053E6  CFDD FFF7          	movff	postdec2,tblptrh
  6067  0053EA                     	if	0	;tblptru may be non-zero
  6068  0053EA                     	endif
  6069  0053EA                     	if	0	;tblptru may be non-zero
  6070  0053EA                     	endif
  6071  0053EA  0008               	tblrd		*
  6072  0053EC  50F5               	movf	tablat,w,c
  6073  0053EE  0A25               	xorlw	37
  6074  0053F0  A4D8               	btfss	status,2,c
  6075  0053F2  D016               	goto	i2l5496
  6076                           
  6077                           ;C:\Program Files (x86)\Microchip\xc8\v2.10\pic\sources\c99\common\doprnt.c: 1351:      
      +                                 ++*fmt;
  6078  0053F4  C042  FFD9         	movff	vfpfcnvrt@fmt,fsr2l
  6079  0053F8  C043  FFDA         	movff	vfpfcnvrt@fmt+1,fsr2h
  6080  0053FC  2ADE               	incf	postinc2,f,c
  6081  0053FE  0E00               	movlw	0
  6082  005400  22DD               	addwfc	postdec2,f,c
  6083                           
  6084                           ;C:\Program Files (x86)\Microchip\xc8\v2.10\pic\sources\c99\common\doprnt.c: 1352:      
      +                                 fputc((int)'%', fp);
  6085  005402  0E00               	movlw	0
  6086  005404  6E02               	movwf	(fputc@c+1)^0,c
  6087  005406  0E25               	movlw	37
  6088  005408  6E01               	movwf	fputc@c^0,c
  6089  00540A  C040  F003         	movff	vfpfcnvrt@fp,fputc@fp
  6090  00540E  C041  F004         	movff	vfpfcnvrt@fp+1,fputc@fp+1
  6091  005412  ECD4  F032         	call	_fputc	;wreg free
  6092  005416                     i2l5492:
  6093                           
  6094                           ;C:\Program Files (x86)\Microchip\xc8\v2.10\pic\sources\c99\common\doprnt.c: 1353:      
      +                                 return 1;
  6095  005416  0E00               	movlw	0
  6096  005418  6E41               	movwf	(?_vfpfcnvrt+1)^0,c
  6097  00541A  0E01               	movlw	1
  6098  00541C  6E40               	movwf	?_vfpfcnvrt^0,c
  6099  00541E  0012               	return	
  6100  005420                     i2l5496:
  6101                           
  6102                           ;C:\Program Files (x86)\Microchip\xc8\v2.10\pic\sources\c99\common\doprnt.c: 1357:      
      +                             ++*fmt;
  6103  005420  C042  FFD9         	movff	vfpfcnvrt@fmt,fsr2l
  6104  005424  C043  FFDA         	movff	vfpfcnvrt@fmt+1,fsr2h
  6105  005428  2ADE               	incf	postinc2,f,c
  6106  00542A  0E00               	movlw	0
  6107  00542C  22DD               	addwfc	postdec2,f,c
  6108                           
  6109                           ;C:\Program Files (x86)\Microchip\xc8\v2.10\pic\sources\c99\common\doprnt.c: 1358:      
      +                             return 0;
  6110  00542E  0E00               	movlw	0
  6111  005430  6E41               	movwf	(?_vfpfcnvrt+1)^0,c
  6112  005432  0E00               	movlw	0
  6113  005434  6E40               	movwf	?_vfpfcnvrt^0,c
  6114  005436  0012               	return	
  6115  005438                     i2l5502:
  6116                           
  6117                           ;C:\Program Files (x86)\Microchip\xc8\v2.10\pic\sources\c99\common\doprnt.c: 1362:     f
      +                          putc((int)(*fmt)[0], fp);
  6118  005438  C042  FFD9         	movff	vfpfcnvrt@fmt,fsr2l
  6119  00543C  C043  FFDA         	movff	vfpfcnvrt@fmt+1,fsr2h
  6120  005440  CFDE FFF6          	movff	postinc2,tblptrl
  6121  005444  CFDD FFF7          	movff	postdec2,tblptrh
  6122  005448                     	if	0	;tblptru may be non-zero
  6123  005448                     	endif
  6124  005448                     	if	0	;tblptru may be non-zero
  6125  005448                     	endif
  6126  005448  0008               	tblrd		*
  6127  00544A  50F5               	movf	tablat,w,c
  6128  00544C  6E01               	movwf	fputc@c^0,c
  6129  00544E  6A02               	clrf	(fputc@c+1)^0,c
  6130  005450  C040  F003         	movff	vfpfcnvrt@fp,fputc@fp
  6131  005454  C041  F004         	movff	vfpfcnvrt@fp+1,fputc@fp+1
  6132  005458  ECD4  F032         	call	_fputc	;wreg free
  6133                           
  6134                           ;C:\Program Files (x86)\Microchip\xc8\v2.10\pic\sources\c99\common\doprnt.c: 1363:     +
      +                          +*fmt;
  6135  00545C  C042  FFD9         	movff	vfpfcnvrt@fmt,fsr2l
  6136  005460  C043  FFDA         	movff	vfpfcnvrt@fmt+1,fsr2h
  6137  005464  2ADE               	incf	postinc2,f,c
  6138  005466  0E00               	movlw	0
  6139  005468  22DD               	addwfc	postdec2,f,c
  6140  00546A  D7D5               	goto	i2l5492
  6141  00546C                     __end_of_vfpfcnvrt:
  6142                           	opt callstack 0
  6143                           
  6144 ;; *************** function _dtoa *****************
  6145 ;; Defined at:
  6146 ;;		line 274 in file "C:\Program Files (x86)\Microchip\xc8\v2.10\pic\sources\c99\common\doprnt.c"
  6147 ;; Parameters:    Size  Location     Type
  6148 ;;  fp              2   27[COMRAM] PTR struct _IO_FILE
  6149 ;;		 -> sprintf@f(6), 
  6150 ;;  d               8   29[COMRAM] long long 
  6151 ;; Auto vars:     Size  Location     Type
  6152 ;;  n               8   53[COMRAM] long long 
  6153 ;;  i               2   61[COMRAM] int 
  6154 ;;  s               2   51[COMRAM] int 
  6155 ;;  w               2   49[COMRAM] int 
  6156 ;;  p               2   47[COMRAM] int 
  6157 ;; Return value:  Size  Location     Type
  6158 ;;                  2   27[COMRAM] int 
  6159 ;; Registers used:
  6160 ;;		wreg, fsr1l, fsr1h, fsr2l, fsr2h, status,2, status,0, cstack
  6161 ;; Tracked objects:
  6162 ;;		On entry : 0/0
  6163 ;;		On exit  : 0/0
  6164 ;;		Unchanged: 0/0
  6165 ;; Data sizes:     COMRAM   BANK0   BANK1   BANK2   BANK3   BANK4   BANK5
  6166 ;;      Params:        10       0       0       0       0       0       0
  6167 ;;      Locals:        18       0       0       0       0       0       0
  6168 ;;      Temps:          8       0       0       0       0       0       0
  6169 ;;      Totals:        36       0       0       0       0       0       0
  6170 ;;Total ram usage:       36 bytes
  6171 ;; Hardware stack levels used:    1
  6172 ;; Hardware stack levels required when called:    4
  6173 ;; This function calls:
  6174 ;;		___aodiv
  6175 ;;		___aomod
  6176 ;;		_abs
  6177 ;;		_pad
  6178 ;; This function is called by:
  6179 ;;		_vfpfcnvrt
  6180 ;; This function uses a non-reentrant model
  6181 ;;
  6182                           
  6183                           	psect	text27
  6184  00546C                     __ptext27:
  6185                           	opt callstack 0
  6186  00546C                     _dtoa:
  6187                           	opt callstack 18
  6188                           
  6189                           ;C:\Program Files (x86)\Microchip\xc8\v2.10\pic\sources\c99\common\doprnt.c: 274: static
      +                           int dtoa(FILE *fp, long long d);C:\Program Files (x86)\Microchip\xc8\v2.10\pic\sources\
      +                          c99\common\doprnt.c: 275: {;C:\Program Files (x86)\Microchip\xc8\v2.10\pic\sources\c99\c
      +                          ommon\doprnt.c: 276:     int i, p, s, w;;C:\Program Files (x86)\Microchip\xc8\v2.10\pic\
      +                          sources\c99\common\doprnt.c: 277:     long long n;;C:\Program Files (x86)\Microchip\xc8\
      +                          v2.10\pic\sources\c99\common\doprnt.c: 280:     n = d;
  6190                           
  6191                           ;incstack = 0
  6192  00546C  C01E  F036         	movff	dtoa@d,dtoa@n
  6193  005470  C01F  F037         	movff	dtoa@d+1,dtoa@n+1
  6194  005474  C020  F038         	movff	dtoa@d+2,dtoa@n+2
  6195  005478  C021  F039         	movff	dtoa@d+3,dtoa@n+3
  6196  00547C  C022  F03A         	movff	dtoa@d+4,dtoa@n+4
  6197  005480  C023  F03B         	movff	dtoa@d+5,dtoa@n+5
  6198  005484  C024  F03C         	movff	dtoa@d+6,dtoa@n+6
  6199  005488  C025  F03D         	movff	dtoa@d+7,dtoa@n+7
  6200                           
  6201                           ;C:\Program Files (x86)\Microchip\xc8\v2.10\pic\sources\c99\common\doprnt.c: 281:     s 
      +                          = n < 0 ? 1 : 0;
  6202  00548C  AE3D               	btfss	(dtoa@n+7)^0,7,c
  6203  00548E  D002               	goto	i2u590_40
  6204  005490  0E01               	movlw	1
  6205  005492  D001               	goto	i2u591_40
  6206  005494                     i2u590_40:
  6207  005494  0E00               	movlw	0
  6208  005496                     i2u591_40:
  6209  005496  6E34               	movwf	dtoa@s^0,c
  6210  005498  6A35               	clrf	(dtoa@s+1)^0,c
  6211                           
  6212                           ;C:\Program Files (x86)\Microchip\xc8\v2.10\pic\sources\c99\common\doprnt.c: 282:     if
      +                           (s) {
  6213  00549A  5034               	movf	dtoa@s^0,w,c
  6214  00549C  1035               	iorwf	(dtoa@s+1)^0,w,c
  6215  00549E  B4D8               	btfsc	status,2,c
  6216  0054A0  D010               	goto	i2l5282
  6217                           
  6218                           ;C:\Program Files (x86)\Microchip\xc8\v2.10\pic\sources\c99\common\doprnt.c: 283:       
      +                            n = -n;
  6219  0054A2  1E3D               	comf	(dtoa@n+7)^0,f,c
  6220  0054A4  1E3C               	comf	(dtoa@n+6)^0,f,c
  6221  0054A6  1E3B               	comf	(dtoa@n+5)^0,f,c
  6222  0054A8  1E3A               	comf	(dtoa@n+4)^0,f,c
  6223  0054AA  1E39               	comf	(dtoa@n+3)^0,f,c
  6224  0054AC  1E38               	comf	(dtoa@n+2)^0,f,c
  6225  0054AE  1E37               	comf	(dtoa@n+1)^0,f,c
  6226  0054B0  6C36               	negf	dtoa@n^0,c
  6227  0054B2  0E00               	movlw	0
  6228  0054B4  2237               	addwfc	(dtoa@n+1)^0,f,c
  6229  0054B6  2238               	addwfc	(dtoa@n+2)^0,f,c
  6230  0054B8  2239               	addwfc	(dtoa@n+3)^0,f,c
  6231  0054BA  223A               	addwfc	(dtoa@n+4)^0,f,c
  6232  0054BC  223B               	addwfc	(dtoa@n+5)^0,f,c
  6233  0054BE  223C               	addwfc	(dtoa@n+6)^0,f,c
  6234  0054C0  223D               	addwfc	(dtoa@n+7)^0,f,c
  6235  0054C2                     i2l5282:
  6236                           
  6237                           ;C:\Program Files (x86)\Microchip\xc8\v2.10\pic\sources\c99\common\doprnt.c: 287:     if
      +                           (!(prec < 0)) {
  6238  0054C2  0101               	movlb	1	; () banked
  6239  0054C4  BFEC               	btfsc	(_prec+1)& (0+255),7,b
  6240  0054C6  D002               	goto	i2l5286
  6241                           
  6242                           ; BSR set to: 1
  6243                           ;C:\Program Files (x86)\Microchip\xc8\v2.10\pic\sources\c99\common\doprnt.c: 288:       
      +                            flags &= ~(1 << 1);
  6244  0054C8  0100               	movlb	0	; () banked
  6245  0054CA  93FD               	bcf	_flags& (0+255),1,b
  6246  0054CC                     i2l5286:
  6247                           
  6248                           ;C:\Program Files (x86)\Microchip\xc8\v2.10\pic\sources\c99\common\doprnt.c: 290:     p 
      +                          = (0 < prec) ? prec : 1;
  6249  0054CC  0101               	movlb	1	; () banked
  6250  0054CE  BFEC               	btfsc	(_prec+1)& (0+255),7,b
  6251  0054D0  D005               	goto	i2u594_40
  6252  0054D2  51EC               	movf	(_prec+1)& (0+255),w,b
  6253  0054D4  E108               	bnz	i2l293
  6254  0054D6  05EB               	decf	_prec& (0+255),w,b
  6255  0054D8  B0D8               	btfsc	status,0,c
  6256  0054DA  D005               	goto	i2l293
  6257  0054DC                     i2u594_40:
  6258                           
  6259                           ; BSR set to: 1
  6260  0054DC  0E00               	movlw	0
  6261  0054DE  6E31               	movwf	(dtoa@p+1)^0,c
  6262  0054E0  0E01               	movlw	1
  6263  0054E2  6E30               	movwf	dtoa@p^0,c
  6264  0054E4  D004               	goto	i2l295
  6265  0054E6                     i2l293:
  6266                           
  6267                           ; BSR set to: 1
  6268  0054E6  C1EB  F030         	movff	_prec,dtoa@p
  6269  0054EA  C1EC  F031         	movff	_prec+1,dtoa@p+1
  6270  0054EE                     i2l295:
  6271                           
  6272                           ; BSR set to: 1
  6273                           ;C:\Program Files (x86)\Microchip\xc8\v2.10\pic\sources\c99\common\doprnt.c: 291:     w 
      +                          = width;
  6274  0054EE  C1E9  F032         	movff	_width,dtoa@w
  6275  0054F2  C1EA  F033         	movff	_width+1,dtoa@w+1
  6276                           
  6277                           ; BSR set to: 1
  6278                           ;C:\Program Files (x86)\Microchip\xc8\v2.10\pic\sources\c99\common\doprnt.c: 292:     if
      +                           (s || (flags & (1 << 2))) {
  6279  0054F6  5034               	movf	dtoa@s^0,w,c
  6280  0054F8  1035               	iorwf	(dtoa@s+1)^0,w,c
  6281  0054FA  A4D8               	btfss	status,2,c
  6282  0054FC  D003               	goto	i2u596_40
  6283                           
  6284                           ; BSR set to: 1
  6285  0054FE  0100               	movlb	0	; () banked
  6286  005500  A5FD               	btfss	_flags& (0+255),2,b
  6287  005502  D003               	goto	i2l5296
  6288  005504                     i2u596_40:
  6289                           
  6290                           ;C:\Program Files (x86)\Microchip\xc8\v2.10\pic\sources\c99\common\doprnt.c: 293:       
      +                            --w;
  6291  005504  0632               	decf	dtoa@w^0,f,c
  6292  005506  A0D8               	btfss	status,0,c
  6293  005508  0633               	decf	(dtoa@w+1)^0,f,c
  6294  00550A                     i2l5296:
  6295                           
  6296                           ;C:\Program Files (x86)\Microchip\xc8\v2.10\pic\sources\c99\common\doprnt.c: 297:     i 
      +                          = sizeof(dbuf) - 1;
  6297  00550A  0E00               	movlw	0
  6298  00550C  6E3F               	movwf	(dtoa@i+1)^0,c
  6299  00550E  0E1F               	movlw	31
  6300  005510  6E3E               	movwf	dtoa@i^0,c
  6301                           
  6302                           ;C:\Program Files (x86)\Microchip\xc8\v2.10\pic\sources\c99\common\doprnt.c: 298:     db
      +                          uf[i] = '\0';
  6303  005512  0E00               	movlw	0
  6304  005514  0102               	movlb	2	; () banked
  6305  005516  6F71               	movwf	(_dbuf+31)& (0+255),b
  6306                           
  6307                           ;C:\Program Files (x86)\Microchip\xc8\v2.10\pic\sources\c99\common\doprnt.c: 299:     wh
      +                          ile (!(i < 1) && (n || (0 < p) || ((0 < w) && (flags & (1 << 1))))) {
  6308  005518  D07C               	goto	i2l5310
  6309  00551A                     i2l5300:
  6310                           
  6311                           ;C:\Program Files (x86)\Microchip\xc8\v2.10\pic\sources\c99\common\doprnt.c: 300:       
      +                            --i;
  6312  00551A  063E               	decf	dtoa@i^0,f,c
  6313  00551C  A0D8               	btfss	status,0,c
  6314  00551E  063F               	decf	(dtoa@i+1)^0,f,c
  6315                           
  6316                           ;C:\Program Files (x86)\Microchip\xc8\v2.10\pic\sources\c99\common\doprnt.c: 301:       
      +                            dbuf[i] = '0' + abs(n % 10);
  6317  005520  0E52               	movlw	low _dbuf
  6318  005522  243E               	addwf	dtoa@i^0,w,c
  6319  005524  6ED9               	movwf	fsr2l,c
  6320  005526  0E02               	movlw	high _dbuf
  6321  005528  203F               	addwfc	(dtoa@i+1)^0,w,c
  6322  00552A  6EDA               	movwf	fsr2h,c
  6323  00552C  C036  F001         	movff	dtoa@n,___aomod@dividend
  6324  005530  C037  F002         	movff	dtoa@n+1,___aomod@dividend+1
  6325  005534  C038  F003         	movff	dtoa@n+2,___aomod@dividend+2
  6326  005538  C039  F004         	movff	dtoa@n+3,___aomod@dividend+3
  6327  00553C  C03A  F005         	movff	dtoa@n+4,___aomod@dividend+4
  6328  005540  C03B  F006         	movff	dtoa@n+5,___aomod@dividend+5
  6329  005544  C03C  F007         	movff	dtoa@n+6,___aomod@dividend+6
  6330  005548  C03D  F008         	movff	dtoa@n+7,___aomod@dividend+7
  6331  00554C  0E0A               	movlw	10
  6332  00554E  6E09               	movwf	___aomod@divisor^0,c
  6333  005550  0E00               	movlw	0
  6334  005552  6E0A               	movwf	(___aomod@divisor+1)^0,c
  6335  005554  0E00               	movlw	0
  6336  005556  6E0B               	movwf	(___aomod@divisor+2)^0,c
  6337  005558  0E00               	movlw	0
  6338  00555A  6E0C               	movwf	(___aomod@divisor+3)^0,c
  6339  00555C  0E00               	movlw	0
  6340  00555E  6E0D               	movwf	(___aomod@divisor+4)^0,c
  6341  005560  0E00               	movlw	0
  6342  005562  6E0E               	movwf	(___aomod@divisor+5)^0,c
  6343  005564  0E00               	movlw	0
  6344  005566  6E0F               	movwf	(___aomod@divisor+6)^0,c
  6345  005568  0E00               	movlw	0
  6346  00556A  6E10               	movwf	(___aomod@divisor+7)^0,c
  6347  00556C  ECF2  F030         	call	___aomod	;wreg free
  6348  005570  C001  F026         	movff	?___aomod,??_dtoa
  6349  005574  C002  F027         	movff	?___aomod+1,??_dtoa+1
  6350  005578  C003  F028         	movff	?___aomod+2,??_dtoa+2
  6351  00557C  C004  F029         	movff	?___aomod+3,??_dtoa+3
  6352  005580  C005  F02A         	movff	?___aomod+4,??_dtoa+4
  6353  005584  C006  F02B         	movff	?___aomod+5,??_dtoa+5
  6354  005588  C007  F02C         	movff	?___aomod+6,??_dtoa+6
  6355  00558C  C008  F02D         	movff	?___aomod+7,??_dtoa+7
  6356  005590  C026  F013         	movff	??_dtoa,abs@a
  6357  005594  C028  F014         	movff	??_dtoa+2,abs@a+1
  6358  005598  EC1D  F035         	call	_abs	;wreg free
  6359  00559C  5013               	movf	?_abs^0,w,c
  6360  00559E  0F30               	addlw	48
  6361  0055A0  6EDF               	movwf	indf2,c
  6362                           
  6363                           ;C:\Program Files (x86)\Microchip\xc8\v2.10\pic\sources\c99\common\doprnt.c: 302:       
      +                            --p;
  6364  0055A2  0630               	decf	dtoa@p^0,f,c
  6365  0055A4  A0D8               	btfss	status,0,c
  6366  0055A6  0631               	decf	(dtoa@p+1)^0,f,c
  6367                           
  6368                           ;C:\Program Files (x86)\Microchip\xc8\v2.10\pic\sources\c99\common\doprnt.c: 303:       
      +                            --w;
  6369  0055A8  0632               	decf	dtoa@w^0,f,c
  6370  0055AA  A0D8               	btfss	status,0,c
  6371  0055AC  0633               	decf	(dtoa@w+1)^0,f,c
  6372                           
  6373                           ;C:\Program Files (x86)\Microchip\xc8\v2.10\pic\sources\c99\common\doprnt.c: 304:       
      +                            n = n / 10;
  6374  0055AE  C036  F001         	movff	dtoa@n,___aodiv@dividend
  6375  0055B2  C037  F002         	movff	dtoa@n+1,___aodiv@dividend+1
  6376  0055B6  C038  F003         	movff	dtoa@n+2,___aodiv@dividend+2
  6377  0055BA  C039  F004         	movff	dtoa@n+3,___aodiv@dividend+3
  6378  0055BE  C03A  F005         	movff	dtoa@n+4,___aodiv@dividend+4
  6379  0055C2  C03B  F006         	movff	dtoa@n+5,___aodiv@dividend+5
  6380  0055C6  C03C  F007         	movff	dtoa@n+6,___aodiv@dividend+6
  6381  0055CA  C03D  F008         	movff	dtoa@n+7,___aodiv@dividend+7
  6382  0055CE  0E0A               	movlw	10
  6383  0055D0  6E09               	movwf	___aodiv@divisor^0,c
  6384  0055D2  0E00               	movlw	0
  6385  0055D4  6E0A               	movwf	(___aodiv@divisor+1)^0,c
  6386  0055D6  0E00               	movlw	0
  6387  0055D8  6E0B               	movwf	(___aodiv@divisor+2)^0,c
  6388  0055DA  0E00               	movlw	0
  6389  0055DC  6E0C               	movwf	(___aodiv@divisor+3)^0,c
  6390  0055DE  0E00               	movlw	0
  6391  0055E0  6E0D               	movwf	(___aodiv@divisor+4)^0,c
  6392  0055E2  0E00               	movlw	0
  6393  0055E4  6E0E               	movwf	(___aodiv@divisor+5)^0,c
  6394  0055E6  0E00               	movlw	0
  6395  0055E8  6E0F               	movwf	(___aodiv@divisor+6)^0,c
  6396  0055EA  0E00               	movlw	0
  6397  0055EC  6E10               	movwf	(___aodiv@divisor+7)^0,c
  6398  0055EE  ECD3  F02D         	call	___aodiv	;wreg free
  6399  0055F2  C001  F036         	movff	?___aodiv,dtoa@n
  6400  0055F6  C002  F037         	movff	?___aodiv+1,dtoa@n+1
  6401  0055FA  C003  F038         	movff	?___aodiv+2,dtoa@n+2
  6402  0055FE  C004  F039         	movff	?___aodiv+3,dtoa@n+3
  6403  005602  C005  F03A         	movff	?___aodiv+4,dtoa@n+4
  6404  005606  C006  F03B         	movff	?___aodiv+5,dtoa@n+5
  6405  00560A  C007  F03C         	movff	?___aodiv+6,dtoa@n+6
  6406  00560E  C008  F03D         	movff	?___aodiv+7,dtoa@n+7
  6407  005612                     i2l5310:
  6408                           
  6409                           ;C:\Program Files (x86)\Microchip\xc8\v2.10\pic\sources\c99\common\doprnt.c: 299:     wh
      +                          ile (!(i < 1) && (n || (0 < p) || ((0 < w) && (flags & (1 << 1))))) {
  6410  005612  BE3F               	btfsc	(dtoa@i+1)^0,7,c
  6411  005614  D020               	goto	i2u601_40
  6412  005616  503F               	movf	(dtoa@i+1)^0,w,c
  6413  005618  E103               	bnz	i2u597_40
  6414  00561A  043E               	decf	dtoa@i^0,w,c
  6415  00561C  A0D8               	btfss	status,0,c
  6416  00561E  D01B               	goto	i2u601_40
  6417  005620                     i2u597_40:
  6418  005620  5036               	movf	dtoa@n^0,w,c
  6419  005622  1037               	iorwf	(dtoa@n+1)^0,w,c
  6420  005624  1038               	iorwf	(dtoa@n+2)^0,w,c
  6421  005626  1039               	iorwf	(dtoa@n+3)^0,w,c
  6422  005628  103A               	iorwf	(dtoa@n+4)^0,w,c
  6423  00562A  103B               	iorwf	(dtoa@n+5)^0,w,c
  6424  00562C  103C               	iorwf	(dtoa@n+6)^0,w,c
  6425  00562E  103D               	iorwf	(dtoa@n+7)^0,w,c
  6426  005630  A4D8               	btfss	status,2,c
  6427  005632  D773               	goto	i2l5300
  6428  005634  BE31               	btfsc	(dtoa@p+1)^0,7,c
  6429  005636  D005               	goto	i2u599_40
  6430  005638  5031               	movf	(dtoa@p+1)^0,w,c
  6431  00563A  E102               	bnz	i2u599_41
  6432  00563C  0430               	decf	dtoa@p^0,w,c
  6433  00563E  B0D8               	btfsc	status,0,c
  6434  005640                     i2u599_41:
  6435  005640  D76C               	goto	i2l5300
  6436  005642                     i2u599_40:
  6437  005642  BE33               	btfsc	(dtoa@w+1)^0,7,c
  6438  005644  D008               	goto	i2u601_40
  6439  005646  5033               	movf	(dtoa@w+1)^0,w,c
  6440  005648  E103               	bnz	i2u600_40
  6441  00564A  0432               	decf	dtoa@w^0,w,c
  6442  00564C  A0D8               	btfss	status,0,c
  6443  00564E  D003               	goto	i2u601_40
  6444  005650                     i2u600_40:
  6445  005650  0100               	movlb	0	; () banked
  6446  005652  B3FD               	btfsc	_flags& (0+255),1,b
  6447  005654  D762               	goto	i2l5300
  6448  005656                     i2u601_40:
  6449                           
  6450                           ;C:\Program Files (x86)\Microchip\xc8\v2.10\pic\sources\c99\common\doprnt.c: 308:     if
      +                           (s || (flags & (1 << 2))) {
  6451  005656  5034               	movf	dtoa@s^0,w,c
  6452  005658  1035               	iorwf	(dtoa@s+1)^0,w,c
  6453  00565A  A4D8               	btfss	status,2,c
  6454  00565C  D003               	goto	i2u603_40
  6455  00565E  0100               	movlb	0	; () banked
  6456  005660  A5FD               	btfss	_flags& (0+255),2,b
  6457  005662  D017               	goto	i2l5334
  6458  005664                     i2u603_40:
  6459                           
  6460                           ;C:\Program Files (x86)\Microchip\xc8\v2.10\pic\sources\c99\common\doprnt.c: 309:       
      +                            --i;
  6461  005664  063E               	decf	dtoa@i^0,f,c
  6462  005666  A0D8               	btfss	status,0,c
  6463  005668  063F               	decf	(dtoa@i+1)^0,f,c
  6464                           
  6465                           ;C:\Program Files (x86)\Microchip\xc8\v2.10\pic\sources\c99\common\doprnt.c: 310:       
      +                            dbuf[i] = s ? '-' : '+';
  6466  00566A  5034               	movf	dtoa@s^0,w,c
  6467  00566C  1035               	iorwf	(dtoa@s+1)^0,w,c
  6468  00566E  A4D8               	btfss	status,2,c
  6469  005670  D004               	goto	i2l5330
  6470  005672  0E00               	movlw	0
  6471  005674  6E2F               	movwf	(_dtoa$1017+1)^0,c
  6472  005676  0E2B               	movlw	43
  6473  005678  D003               	goto	L8
  6474  00567A                     i2l5330:
  6475  00567A  0E00               	movlw	0
  6476  00567C  6E2F               	movwf	(_dtoa$1017+1)^0,c
  6477  00567E  0E2D               	movlw	45
  6478  005680                     L8:
  6479  005680  6E2E               	movwf	_dtoa$1017^0,c
  6480  005682  0E52               	movlw	low _dbuf
  6481  005684  243E               	addwf	dtoa@i^0,w,c
  6482  005686  6ED9               	movwf	fsr2l,c
  6483  005688  0E02               	movlw	high _dbuf
  6484  00568A  203F               	addwfc	(dtoa@i+1)^0,w,c
  6485  00568C  6EDA               	movwf	fsr2h,c
  6486  00568E  C02E  FFDF         	movff	_dtoa$1017,indf2
  6487  005692                     i2l5334:
  6488                           
  6489                           ;C:\Program Files (x86)\Microchip\xc8\v2.10\pic\sources\c99\common\doprnt.c: 314:     re
      +                          turn pad(fp, &dbuf[i], w);
  6490  005692  C01C  F011         	movff	dtoa@fp,pad@fp
  6491  005696  C01D  F012         	movff	dtoa@fp+1,pad@fp+1
  6492  00569A  0E52               	movlw	low _dbuf
  6493  00569C  243E               	addwf	dtoa@i^0,w,c
  6494  00569E  6E13               	movwf	pad@buf^0,c
  6495  0056A0  0E02               	movlw	high _dbuf
  6496  0056A2  203F               	addwfc	(dtoa@i+1)^0,w,c
  6497  0056A4  6E14               	movwf	(pad@buf+1)^0,c
  6498  0056A6  C032  F015         	movff	dtoa@w,pad@p
  6499  0056AA  C033  F016         	movff	dtoa@w+1,pad@p+1
  6500  0056AE  EC24  F033         	call	_pad	;wreg free
  6501  0056B2  C011  F01C         	movff	?_pad,?_dtoa
  6502  0056B6  C012  F01D         	movff	?_pad+1,?_dtoa+1
  6503  0056BA  0012               	return		;funcret
  6504  0056BC                     __end_of_dtoa:
  6505                           	opt callstack 0
  6506                           
  6507 ;; *************** function _pad *****************
  6508 ;; Defined at:
  6509 ;;		line 72 in file "C:\Program Files (x86)\Microchip\xc8\v2.10\pic\sources\c99\common\doprnt.c"
  6510 ;; Parameters:    Size  Location     Type
  6511 ;;  fp              2   16[COMRAM] PTR struct _IO_FILE
  6512 ;;		 -> sprintf@f(6), 
  6513 ;;  buf             2   18[COMRAM] PTR unsigned char 
  6514 ;;		 -> dbuf(32), 
  6515 ;;  p               2   20[COMRAM] int 
  6516 ;; Auto vars:     Size  Location     Type
  6517 ;;  w               2   25[COMRAM] int 
  6518 ;;  i               2   23[COMRAM] int 
  6519 ;; Return value:  Size  Location     Type
  6520 ;;                  2   16[COMRAM] int 
  6521 ;; Registers used:
  6522 ;;		wreg, fsr1l, fsr1h, fsr2l, fsr2h, status,2, status,0, cstack
  6523 ;; Tracked objects:
  6524 ;;		On entry : 0/0
  6525 ;;		On exit  : 0/0
  6526 ;;		Unchanged: 0/0
  6527 ;; Data sizes:     COMRAM   BANK0   BANK1   BANK2   BANK3   BANK4   BANK5
  6528 ;;      Params:         6       0       0       0       0       0       0
  6529 ;;      Locals:         4       0       0       0       0       0       0
  6530 ;;      Temps:          1       0       0       0       0       0       0
  6531 ;;      Totals:        11       0       0       0       0       0       0
  6532 ;;Total ram usage:       11 bytes
  6533 ;; Hardware stack levels used:    1
  6534 ;; Hardware stack levels required when called:    3
  6535 ;; This function calls:
  6536 ;;		_fputc
  6537 ;;		_fputs
  6538 ;;		_strlen
  6539 ;; This function is called by:
  6540 ;;		_dtoa
  6541 ;; This function uses a non-reentrant model
  6542 ;;
  6543                           
  6544                           	psect	text28
  6545  006648                     __ptext28:
  6546                           	opt callstack 0
  6547  006648                     _pad:
  6548                           	opt callstack 18
  6549                           
  6550                           ;C:\Program Files (x86)\Microchip\xc8\v2.10\pic\sources\c99\common\doprnt.c: 72: static 
      +                          int pad(FILE *fp, char *buf, int p);C:\Program Files (x86)\Microchip\xc8\v2.10\pic\sourc
      +                          es\c99\common\doprnt.c: 73: {;C:\Program Files (x86)\Microchip\xc8\v2.10\pic\sources\c99
      +                          \common\doprnt.c: 74:     int i, w;;C:\Program Files (x86)\Microchip\xc8\v2.10\pic\sourc
      +                          es\c99\common\doprnt.c: 77:     if (flags & (1 << 0)) {
  6551                           
  6552                           ;incstack = 0
  6553  006648  0100               	movlb	0	; () banked
  6554  00664A  A1FD               	btfss	_flags& (0+255),0,b
  6555  00664C  D00A               	goto	i2l4268
  6556                           
  6557                           ; BSR set to: 0
  6558                           ;C:\Program Files (x86)\Microchip\xc8\v2.10\pic\sources\c99\common\doprnt.c: 78:        
      +                           fputs((const char *)buf, fp);
  6559  00664E  C013  F00A         	movff	pad@buf,fputs@s
  6560  006652  C014  F00B         	movff	pad@buf+1,fputs@s+1
  6561  006656  C011  F00C         	movff	pad@fp,fputs@fp
  6562  00665A  C012  F00D         	movff	pad@fp+1,fputs@fp+1
  6563  00665E  ECE7  F034         	call	_fputs	;wreg free
  6564  006662                     i2l4268:
  6565                           
  6566                           ;C:\Program Files (x86)\Microchip\xc8\v2.10\pic\sources\c99\common\doprnt.c: 82:     w =
      +                           (p < 0) ? 0 : p;
  6567  006662  BE16               	btfsc	(pad@p+1)^0,7,c
  6568  006664  D005               	goto	i2l4272
  6569  006666  C015  F01A         	movff	pad@p,pad@w
  6570  00666A  C016  F01B         	movff	pad@p+1,pad@w+1
  6571  00666E  D004               	goto	i2l282
  6572  006670                     i2l4272:
  6573  006670  0E00               	movlw	0
  6574  006672  6E1B               	movwf	(pad@w+1)^0,c
  6575  006674  0E00               	movlw	0
  6576  006676  6E1A               	movwf	pad@w^0,c
  6577  006678                     i2l282:
  6578                           
  6579                           ;C:\Program Files (x86)\Microchip\xc8\v2.10\pic\sources\c99\common\doprnt.c: 83:     i =
      +                           0;
  6580  006678  0E00               	movlw	0
  6581  00667A  6E19               	movwf	(pad@i+1)^0,c
  6582  00667C  0E00               	movlw	0
  6583  00667E  6E18               	movwf	pad@i^0,c
  6584                           
  6585                           ;C:\Program Files (x86)\Microchip\xc8\v2.10\pic\sources\c99\common\doprnt.c: 84:     whi
      +                          le (i < w) {
  6586  006680  D00C               	goto	i2l4278
  6587  006682                     i2l4274:
  6588                           
  6589                           ;C:\Program Files (x86)\Microchip\xc8\v2.10\pic\sources\c99\common\doprnt.c: 85:        
      +                           fputc(' ', fp);
  6590  006682  0E00               	movlw	0
  6591  006684  6E02               	movwf	(fputc@c+1)^0,c
  6592  006686  0E20               	movlw	32
  6593  006688  6E01               	movwf	fputc@c^0,c
  6594  00668A  C011  F003         	movff	pad@fp,fputc@fp
  6595  00668E  C012  F004         	movff	pad@fp+1,fputc@fp+1
  6596  006692  ECD4  F032         	call	_fputc	;wreg free
  6597                           
  6598                           ;C:\Program Files (x86)\Microchip\xc8\v2.10\pic\sources\c99\common\doprnt.c: 86:        
      +                           ++i;
  6599  006696  4A18               	infsnz	pad@i^0,f,c
  6600  006698  2A19               	incf	(pad@i+1)^0,f,c
  6601  00669A                     i2l4278:
  6602                           
  6603                           ;C:\Program Files (x86)\Microchip\xc8\v2.10\pic\sources\c99\common\doprnt.c: 84:     whi
      +                          le (i < w) {
  6604  00669A  501A               	movf	pad@w^0,w,c
  6605  00669C  5C18               	subwf	pad@i^0,w,c
  6606  00669E  5019               	movf	(pad@i+1)^0,w,c
  6607  0066A0  0A80               	xorlw	128
  6608  0066A2  6E17               	movwf	??_pad^0,c
  6609  0066A4  501B               	movf	(pad@w+1)^0,w,c
  6610  0066A6  0A80               	xorlw	128
  6611  0066A8  5817               	subwfb	??_pad^0,w,c
  6612  0066AA  A0D8               	btfss	status,0,c
  6613  0066AC  D7EA               	goto	i2l4274
  6614                           
  6615                           ;C:\Program Files (x86)\Microchip\xc8\v2.10\pic\sources\c99\common\doprnt.c: 90:     if 
      +                          (!(flags & (1 << 0))) {
  6616  0066AE  0100               	movlb	0	; () banked
  6617  0066B0  B1FD               	btfsc	_flags& (0+255),0,b
  6618  0066B2  D00A               	goto	i2l4282
  6619                           
  6620                           ; BSR set to: 0
  6621                           ;C:\Program Files (x86)\Microchip\xc8\v2.10\pic\sources\c99\common\doprnt.c: 91:        
      +                           fputs((const char *)buf, fp);
  6622  0066B4  C013  F00A         	movff	pad@buf,fputs@s
  6623  0066B8  C014  F00B         	movff	pad@buf+1,fputs@s+1
  6624  0066BC  C011  F00C         	movff	pad@fp,fputs@fp
  6625  0066C0  C012  F00D         	movff	pad@fp+1,fputs@fp+1
  6626  0066C4  ECE7  F034         	call	_fputs	;wreg free
  6627  0066C8                     i2l4282:
  6628                           
  6629                           ;C:\Program Files (x86)\Microchip\xc8\v2.10\pic\sources\c99\common\doprnt.c: 94:     ret
      +                          urn strlen(buf) + w;
  6630  0066C8  C013  F001         	movff	pad@buf,strlen@s
  6631  0066CC  C014  F002         	movff	pad@buf+1,strlen@s+1
  6632  0066D0  ECDC  F035         	call	_strlen	;wreg free
  6633  0066D4  501A               	movf	pad@w^0,w,c
  6634  0066D6  2401               	addwf	?_strlen^0,w,c
  6635  0066D8  6E11               	movwf	?_pad^0,c
  6636  0066DA  501B               	movf	(pad@w+1)^0,w,c
  6637  0066DC  2002               	addwfc	(?_strlen+1)^0,w,c
  6638  0066DE  6E12               	movwf	(?_pad+1)^0,c
  6639  0066E0  0012               	return		;funcret
  6640  0066E2                     __end_of_pad:
  6641                           	opt callstack 0
  6642                           
  6643 ;; *************** function _strlen *****************
  6644 ;; Defined at:
  6645 ;;		line 5 in file "C:\Program Files (x86)\Microchip\xc8\v2.10\pic\sources\c99\common\strlen.c"
  6646 ;; Parameters:    Size  Location     Type
  6647 ;;  s               2    0[COMRAM] PTR const unsigned char 
  6648 ;;		 -> dbuf(32), 
  6649 ;; Auto vars:     Size  Location     Type
  6650 ;;  a               2    2[COMRAM] PTR const unsigned char 
  6651 ;;		 -> dbuf(32), 
  6652 ;; Return value:  Size  Location     Type
  6653 ;;                  2    0[COMRAM] unsigned int 
  6654 ;; Registers used:
  6655 ;;		wreg, fsr2l, fsr2h, status,2, status,0
  6656 ;; Tracked objects:
  6657 ;;		On entry : 0/0
  6658 ;;		On exit  : 0/0
  6659 ;;		Unchanged: 0/0
  6660 ;; Data sizes:     COMRAM   BANK0   BANK1   BANK2   BANK3   BANK4   BANK5
  6661 ;;      Params:         2       0       0       0       0       0       0
  6662 ;;      Locals:         2       0       0       0       0       0       0
  6663 ;;      Temps:          0       0       0       0       0       0       0
  6664 ;;      Totals:         4       0       0       0       0       0       0
  6665 ;;Total ram usage:        4 bytes
  6666 ;; Hardware stack levels used:    1
  6667 ;; This function calls:
  6668 ;;		Nothing
  6669 ;; This function is called by:
  6670 ;;		_pad
  6671 ;; This function uses a non-reentrant model
  6672 ;;
  6673                           
  6674                           	psect	text29
  6675  006BB8                     __ptext29:
  6676                           	opt callstack 0
  6677  006BB8                     _strlen:
  6678                           	opt callstack 20
  6679                           
  6680                           ;incstack = 0
  6681  006BB8  C001  F003         	movff	strlen@s,strlen@a
  6682  006BBC  C002  F004         	movff	strlen@s+1,strlen@a+1
  6683  006BC0  D002               	goto	i2l3898
  6684  006BC2                     i2l3896:
  6685  006BC2  4A01               	infsnz	strlen@s^0,f,c
  6686  006BC4  2A02               	incf	(strlen@s+1)^0,f,c
  6687  006BC6                     i2l3898:
  6688  006BC6  C001  FFD9         	movff	strlen@s,fsr2l
  6689  006BCA  C002  FFDA         	movff	strlen@s+1,fsr2h
  6690  006BCE  50DF               	movf	indf2,w,c
  6691  006BD0  A4D8               	btfss	status,2,c
  6692  006BD2  D7F7               	goto	i2l3896
  6693  006BD4  5003               	movf	strlen@a^0,w,c
  6694  006BD6  5C01               	subwf	strlen@s^0,w,c
  6695  006BD8  6E01               	movwf	?_strlen^0,c
  6696  006BDA  5004               	movf	(strlen@a+1)^0,w,c
  6697  006BDC  5802               	subwfb	(strlen@s+1)^0,w,c
  6698  006BDE  6E02               	movwf	(?_strlen+1)^0,c
  6699  006BE0  0012               	return		;funcret
  6700  006BE2                     __end_of_strlen:
  6701                           	opt callstack 0
  6702                           
  6703 ;; *************** function _fputs *****************
  6704 ;; Defined at:
  6705 ;;		line 8 in file "C:\Program Files (x86)\Microchip\xc8\v2.10\pic\sources\c99\common\nf_fputs.c"
  6706 ;; Parameters:    Size  Location     Type
  6707 ;;  s               2    9[COMRAM] PTR const unsigned char 
  6708 ;;		 -> dbuf(32), 
  6709 ;;  fp              2   11[COMRAM] PTR struct _IO_FILE
  6710 ;;		 -> sprintf@f(6), 
  6711 ;; Auto vars:     Size  Location     Type
  6712 ;;  i               2   14[COMRAM] int 
  6713 ;;  c               1   13[COMRAM] unsigned char 
  6714 ;; Return value:  Size  Location     Type
  6715 ;;                  2    9[COMRAM] int 
  6716 ;; Registers used:
  6717 ;;		wreg, fsr1l, fsr1h, fsr2l, fsr2h, status,2, status,0, cstack
  6718 ;; Tracked objects:
  6719 ;;		On entry : 0/0
  6720 ;;		On exit  : 0/0
  6721 ;;		Unchanged: 0/0
  6722 ;; Data sizes:     COMRAM   BANK0   BANK1   BANK2   BANK3   BANK4   BANK5
  6723 ;;      Params:         4       0       0       0       0       0       0
  6724 ;;      Locals:         3       0       0       0       0       0       0
  6725 ;;      Temps:          0       0       0       0       0       0       0
  6726 ;;      Totals:         7       0       0       0       0       0       0
  6727 ;;Total ram usage:        7 bytes
  6728 ;; Hardware stack levels used:    1
  6729 ;; Hardware stack levels required when called:    2
  6730 ;; This function calls:
  6731 ;;		_fputc
  6732 ;; This function is called by:
  6733 ;;		_pad
  6734 ;; This function uses a non-reentrant model
  6735 ;;
  6736                           
  6737                           	psect	text30
  6738  0069CE                     __ptext30:
  6739                           	opt callstack 0
  6740  0069CE                     _fputs:
  6741                           	opt callstack 18
  6742                           
  6743                           ;incstack = 0
  6744  0069CE  0E00               	movlw	0
  6745  0069D0  6E10               	movwf	(fputs@i+1)^0,c
  6746  0069D2  0E00               	movlw	0
  6747  0069D4  6E0F               	movwf	fputs@i^0,c
  6748  0069D6  D00B               	goto	i2l3892
  6749  0069D8                     i2l3888:
  6750  0069D8  C00E  F001         	movff	fputs@c,fputc@c
  6751  0069DC  6A02               	clrf	(fputc@c+1)^0,c
  6752  0069DE  C00C  F003         	movff	fputs@fp,fputc@fp
  6753  0069E2  C00D  F004         	movff	fputs@fp+1,fputc@fp+1
  6754  0069E6  ECD4  F032         	call	_fputc	;wreg free
  6755  0069EA  4A0F               	infsnz	fputs@i^0,f,c
  6756  0069EC  2A10               	incf	(fputs@i+1)^0,f,c
  6757  0069EE                     i2l3892:
  6758  0069EE  500F               	movf	fputs@i^0,w,c
  6759  0069F0  240A               	addwf	fputs@s^0,w,c
  6760  0069F2  6ED9               	movwf	fsr2l,c
  6761  0069F4  5010               	movf	(fputs@i+1)^0,w,c
  6762  0069F6  200B               	addwfc	(fputs@s+1)^0,w,c
  6763  0069F8  6EDA               	movwf	fsr2h,c
  6764  0069FA  50DF               	movf	indf2,w,c
  6765  0069FC  6E0E               	movwf	fputs@c^0,c
  6766  0069FE  500E               	movf	fputs@c^0,w,c
  6767  006A00  B4D8               	btfsc	status,2,c
  6768  006A02  0012               	return	
  6769  006A04  D7E9               	goto	i2l3888
  6770  006A06                     __end_of_fputs:
  6771                           	opt callstack 0
  6772                           
  6773 ;; *************** function _fputc *****************
  6774 ;; Defined at:
  6775 ;;		line 8 in file "C:\Program Files (x86)\Microchip\xc8\v2.10\pic\sources\c99\common\nf_fputc.c"
  6776 ;; Parameters:    Size  Location     Type
  6777 ;;  c               2    0[COMRAM] int 
  6778 ;;  fp              2    2[COMRAM] PTR struct _IO_FILE
  6779 ;;		 -> sprintf@f(6), 
  6780 ;; Auto vars:     Size  Location     Type
  6781 ;;		None
  6782 ;; Return value:  Size  Location     Type
  6783 ;;                  2    0[COMRAM] int 
  6784 ;; Registers used:
  6785 ;;		wreg, fsr1l, fsr1h, fsr2l, fsr2h, status,2, status,0, cstack
  6786 ;; Tracked objects:
  6787 ;;		On entry : 0/0
  6788 ;;		On exit  : 0/0
  6789 ;;		Unchanged: 0/0
  6790 ;; Data sizes:     COMRAM   BANK0   BANK1   BANK2   BANK3   BANK4   BANK5
  6791 ;;      Params:         4       0       0       0       0       0       0
  6792 ;;      Locals:         0       0       0       0       0       0       0
  6793 ;;      Temps:          5       0       0       0       0       0       0
  6794 ;;      Totals:         9       0       0       0       0       0       0
  6795 ;;Total ram usage:        9 bytes
  6796 ;; Hardware stack levels used:    1
  6797 ;; Hardware stack levels required when called:    1
  6798 ;; This function calls:
  6799 ;;		_putch
  6800 ;; This function is called by:
  6801 ;;		_pad
  6802 ;;		_vfpfcnvrt
  6803 ;;		_fputs
  6804 ;; This function uses a non-reentrant model
  6805 ;;
  6806                           
  6807                           	psect	text31
  6808  0065A8                     __ptext31:
  6809                           	opt callstack 0
  6810  0065A8                     _fputc:
  6811                           	opt callstack 21
  6812                           
  6813                           ;incstack = 0
  6814  0065A8  5003               	movf	fputc@fp^0,w,c
  6815  0065AA  1004               	iorwf	(fputc@fp+1)^0,w,c
  6816  0065AC  B4D8               	btfsc	status,2,c
  6817  0065AE  D004               	goto	i2u379_40
  6818  0065B0  5003               	movf	fputc@fp^0,w,c
  6819  0065B2  1004               	iorwf	(fputc@fp+1)^0,w,c
  6820  0065B4  A4D8               	btfss	status,2,c
  6821  0065B6  D004               	goto	i2l3878
  6822  0065B8                     i2u379_40:
  6823  0065B8  5001               	movf	fputc@c^0,w,c
  6824  0065BA  EC9D  F036         	call	_putch
  6825  0065BE  0012               	return	
  6826  0065C0                     i2l3878:
  6827  0065C0  EE20 F004          	lfsr	2,4
  6828  0065C4  5003               	movf	fputc@fp^0,w,c
  6829  0065C6  26D9               	addwf	fsr2l,f,c
  6830  0065C8  5004               	movf	(fputc@fp+1)^0,w,c
  6831  0065CA  22DA               	addwfc	fsr2h,f,c
  6832  0065CC  50DE               	movf	postinc2,w,c
  6833  0065CE  10DE               	iorwf	postinc2,w,c
  6834  0065D0  B4D8               	btfsc	status,2,c
  6835  0065D2  D016               	goto	i2u381_40
  6836  0065D4  EE20 F004          	lfsr	2,4
  6837  0065D8  5003               	movf	fputc@fp^0,w,c
  6838  0065DA  26D9               	addwf	fsr2l,f,c
  6839  0065DC  5004               	movf	(fputc@fp+1)^0,w,c
  6840  0065DE  22DA               	addwfc	fsr2h,f,c
  6841  0065E0  EE10 F002          	lfsr	1,2
  6842  0065E4  5003               	movf	fputc@fp^0,w,c
  6843  0065E6  26E1               	addwf	fsr1l,f,c
  6844  0065E8  5004               	movf	(fputc@fp+1)^0,w,c
  6845  0065EA  22E2               	addwfc	fsr1h,f,c
  6846  0065EC  50DE               	movf	postinc2,w,c
  6847  0065EE  5CE6               	subwf	postinc1,w,c
  6848  0065F0  50E6               	movf	postinc1,w,c
  6849  0065F2  0A80               	xorlw	128
  6850  0065F4  6E09               	movwf	(??_fputc+4)^0,c
  6851  0065F6  50DE               	movf	postinc2,w,c
  6852  0065F8  0A80               	xorlw	128
  6853  0065FA  5809               	subwfb	(??_fputc+4)^0,w,c
  6854  0065FC  B0D8               	btfsc	status,0,c
  6855  0065FE  0012               	return	
  6856  006600                     i2u381_40:
  6857  006600  EE20 F002          	lfsr	2,2
  6858  006604  5003               	movf	fputc@fp^0,w,c
  6859  006606  26D9               	addwf	fsr2l,f,c
  6860  006608  5004               	movf	(fputc@fp+1)^0,w,c
  6861  00660A  22DA               	addwfc	fsr2h,f,c
  6862  00660C  CFDE F005          	movff	postinc2,??_fputc
  6863  006610  CFDD F006          	movff	postdec2,??_fputc+1
  6864  006614  C003  FFD9         	movff	fputc@fp,fsr2l
  6865  006618  C004  FFDA         	movff	fputc@fp+1,fsr2h
  6866  00661C  CFDE F007          	movff	postinc2,??_fputc+2
  6867  006620  CFDD F008          	movff	postdec2,??_fputc+3
  6868  006624  5005               	movf	??_fputc^0,w,c
  6869  006626  2407               	addwf	(??_fputc+2)^0,w,c
  6870  006628  6ED9               	movwf	fsr2l,c
  6871  00662A  5006               	movf	(??_fputc+1)^0,w,c
  6872  00662C  2008               	addwfc	(??_fputc+3)^0,w,c
  6873  00662E  6EDA               	movwf	fsr2h,c
  6874  006630  C001  FFDF         	movff	fputc@c,indf2
  6875  006634  EE20 F002          	lfsr	2,2
  6876  006638  5003               	movf	fputc@fp^0,w,c
  6877  00663A  26D9               	addwf	fsr2l,f,c
  6878  00663C  5004               	movf	(fputc@fp+1)^0,w,c
  6879  00663E  22DA               	addwfc	fsr2h,f,c
  6880  006640  2ADE               	incf	postinc2,f,c
  6881  006642  0E00               	movlw	0
  6882  006644  22DD               	addwfc	postdec2,f,c
  6883  006646  0012               	return		;funcret
  6884  006648                     __end_of_fputc:
  6885                           	opt callstack 0
  6886                           
  6887 ;; *************** function _putch *****************
  6888 ;; Defined at:
  6889 ;;		line 7 in file "C:\Program Files (x86)\Microchip\xc8\v2.10\pic\sources\c99\common\putch.c"
  6890 ;; Parameters:    Size  Location     Type
  6891 ;;  c               1    wreg     unsigned char 
  6892 ;; Auto vars:     Size  Location     Type
  6893 ;;  c               1    0[COMRAM] unsigned char 
  6894 ;; Return value:  Size  Location     Type
  6895 ;;                  1    wreg      void 
  6896 ;; Registers used:
  6897 ;;		wreg
  6898 ;; Tracked objects:
  6899 ;;		On entry : 0/0
  6900 ;;		On exit  : 0/0
  6901 ;;		Unchanged: 0/0
  6902 ;; Data sizes:     COMRAM   BANK0   BANK1   BANK2   BANK3   BANK4   BANK5
  6903 ;;      Params:         0       0       0       0       0       0       0
  6904 ;;      Locals:         0       0       0       0       0       0       0
  6905 ;;      Temps:          0       0       0       0       0       0       0
  6906 ;;      Totals:         0       0       0       0       0       0       0
  6907 ;;Total ram usage:        0 bytes
  6908 ;; Hardware stack levels used:    1
  6909 ;; This function calls:
  6910 ;;		Nothing
  6911 ;; This function is called by:
  6912 ;;		_fputc
  6913 ;; This function uses a non-reentrant model
  6914 ;;
  6915                           
  6916                           	psect	text32
  6917  006D3A                     __ptext32:
  6918                           	opt callstack 0
  6919  006D3A                     _putch:
  6920                           	opt callstack 21
  6921                           
  6922                           ;incstack = 0
  6923  006D3A  0012               	return		;funcret
  6924  006D3C                     __end_of_putch:
  6925                           	opt callstack 0
  6926                           
  6927 ;; *************** function _abs *****************
  6928 ;; Defined at:
  6929 ;;		line 1 in file "C:\Program Files (x86)\Microchip\xc8\v2.10\pic\sources\c99\common\abs.c"
  6930 ;; Parameters:    Size  Location     Type
  6931 ;;  a               2   18[COMRAM] int 
  6932 ;; Auto vars:     Size  Location     Type
  6933 ;;		None
  6934 ;; Return value:  Size  Location     Type
  6935 ;;                  2   18[COMRAM] int 
  6936 ;; Registers used:
  6937 ;;		wreg, status,2, status,0
  6938 ;; Tracked objects:
  6939 ;;		On entry : 0/0
  6940 ;;		On exit  : 0/0
  6941 ;;		Unchanged: 0/0
  6942 ;; Data sizes:     COMRAM   BANK0   BANK1   BANK2   BANK3   BANK4   BANK5
  6943 ;;      Params:         2       0       0       0       0       0       0
  6944 ;;      Locals:         0       0       0       0       0       0       0
  6945 ;;      Temps:          2       0       0       0       0       0       0
  6946 ;;      Totals:         4       0       0       0       0       0       0
  6947 ;;Total ram usage:        4 bytes
  6948 ;; Hardware stack levels used:    1
  6949 ;; This function calls:
  6950 ;;		Nothing
  6951 ;; This function is called by:
  6952 ;;		_dtoa
  6953 ;; This function uses a non-reentrant model
  6954 ;;
  6955                           
  6956                           	psect	text33
  6957  006A3A                     __ptext33:
  6958                           	opt callstack 0
  6959  006A3A                     _abs:
  6960                           	opt callstack 21
  6961                           
  6962                           ;incstack = 0
  6963  006A3A  BE14               	btfsc	(abs@a+1)^0,7,c
  6964  006A3C  D005               	goto	i2u451_40
  6965  006A3E  5014               	movf	(abs@a+1)^0,w,c
  6966  006A40  E110               	bnz	i2l1015
  6967  006A42  0413               	decf	abs@a^0,w,c
  6968  006A44  B0D8               	btfsc	status,0,c
  6969  006A46  D00D               	goto	i2l1015
  6970  006A48                     i2u451_40:
  6971  006A48  C013  F015         	movff	abs@a,??_abs
  6972  006A4C  C014  F016         	movff	abs@a+1,??_abs+1
  6973  006A50  1E15               	comf	??_abs^0,f,c
  6974  006A52  1E16               	comf	(??_abs+1)^0,f,c
  6975  006A54  4A15               	infsnz	??_abs^0,f,c
  6976  006A56  2A16               	incf	(??_abs+1)^0,f,c
  6977  006A58  C015  F013         	movff	??_abs,?_abs
  6978  006A5C  C016  F014         	movff	??_abs+1,?_abs+1
  6979  006A60  0012               	return	
  6980  006A62                     i2l1015:
  6981  006A62  C013  F013         	movff	abs@a,?_abs
  6982  006A66  C014  F014         	movff	abs@a+1,?_abs+1
  6983  006A6A  0012               	return		;funcret
  6984  006A6C                     __end_of_abs:
  6985                           	opt callstack 0
  6986                           
  6987 ;; *************** function ___aomod *****************
  6988 ;; Defined at:
  6989 ;;		line 9 in file "C:\Program Files (x86)\Microchip\xc8\v2.10\pic\sources\c99\common\aomod.c"
  6990 ;; Parameters:    Size  Location     Type
  6991 ;;  dividend        8    0[COMRAM] long long 
  6992 ;;  divisor         8    8[COMRAM] long long 
  6993 ;; Auto vars:     Size  Location     Type
  6994 ;;  sign            1   17[COMRAM] unsigned char 
  6995 ;;  counter         1   16[COMRAM] unsigned char 
  6996 ;; Return value:  Size  Location     Type
  6997 ;;                  8    0[COMRAM] long long 
  6998 ;; Registers used:
  6999 ;;		wreg, status,2, status,0
  7000 ;; Tracked objects:
  7001 ;;		On entry : 0/0
  7002 ;;		On exit  : 0/0
  7003 ;;		Unchanged: 0/0
  7004 ;; Data sizes:     COMRAM   BANK0   BANK1   BANK2   BANK3   BANK4   BANK5
  7005 ;;      Params:        16       0       0       0       0       0       0
  7006 ;;      Locals:         2       0       0       0       0       0       0
  7007 ;;      Temps:          0       0       0       0       0       0       0
  7008 ;;      Totals:        18       0       0       0       0       0       0
  7009 ;;Total ram usage:       18 bytes
  7010 ;; Hardware stack levels used:    1
  7011 ;; This function calls:
  7012 ;;		Nothing
  7013 ;; This function is called by:
  7014 ;;		_dtoa
  7015 ;; This function uses a non-reentrant model
  7016 ;;
  7017                           
  7018                           	psect	text34
  7019  0061E4                     __ptext34:
  7020                           	opt callstack 0
  7021  0061E4                     ___aomod:
  7022                           	opt callstack 21
  7023                           
  7024                           ;incstack = 0
  7025  0061E4  0E00               	movlw	0
  7026  0061E6  6E12               	movwf	___aomod@sign^0,c
  7027  0061E8  AE08               	btfss	(___aomod@dividend+7)^0,7,c
  7028  0061EA  D012               	goto	i2l4352
  7029  0061EC  1E08               	comf	(___aomod@dividend+7)^0,f,c
  7030  0061EE  1E07               	comf	(___aomod@dividend+6)^0,f,c
  7031  0061F0  1E06               	comf	(___aomod@dividend+5)^0,f,c
  7032  0061F2  1E05               	comf	(___aomod@dividend+4)^0,f,c
  7033  0061F4  1E04               	comf	(___aomod@dividend+3)^0,f,c
  7034  0061F6  1E03               	comf	(___aomod@dividend+2)^0,f,c
  7035  0061F8  1E02               	comf	(___aomod@dividend+1)^0,f,c
  7036  0061FA  6C01               	negf	___aomod@dividend^0,c
  7037  0061FC  0E00               	movlw	0
  7038  0061FE  2202               	addwfc	(___aomod@dividend+1)^0,f,c
  7039  006200  2203               	addwfc	(___aomod@dividend+2)^0,f,c
  7040  006202  2204               	addwfc	(___aomod@dividend+3)^0,f,c
  7041  006204  2205               	addwfc	(___aomod@dividend+4)^0,f,c
  7042  006206  2206               	addwfc	(___aomod@dividend+5)^0,f,c
  7043  006208  2207               	addwfc	(___aomod@dividend+6)^0,f,c
  7044  00620A  2208               	addwfc	(___aomod@dividend+7)^0,f,c
  7045  00620C  0E01               	movlw	1
  7046  00620E  6E12               	movwf	___aomod@sign^0,c
  7047  006210                     i2l4352:
  7048  006210  AE10               	btfss	(___aomod@divisor+7)^0,7,c
  7049  006212  D010               	goto	i2l4356
  7050  006214  1E10               	comf	(___aomod@divisor+7)^0,f,c
  7051  006216  1E0F               	comf	(___aomod@divisor+6)^0,f,c
  7052  006218  1E0E               	comf	(___aomod@divisor+5)^0,f,c
  7053  00621A  1E0D               	comf	(___aomod@divisor+4)^0,f,c
  7054  00621C  1E0C               	comf	(___aomod@divisor+3)^0,f,c
  7055  00621E  1E0B               	comf	(___aomod@divisor+2)^0,f,c
  7056  006220  1E0A               	comf	(___aomod@divisor+1)^0,f,c
  7057  006222  6C09               	negf	___aomod@divisor^0,c
  7058  006224  0E00               	movlw	0
  7059  006226  220A               	addwfc	(___aomod@divisor+1)^0,f,c
  7060  006228  220B               	addwfc	(___aomod@divisor+2)^0,f,c
  7061  00622A  220C               	addwfc	(___aomod@divisor+3)^0,f,c
  7062  00622C  220D               	addwfc	(___aomod@divisor+4)^0,f,c
  7063  00622E  220E               	addwfc	(___aomod@divisor+5)^0,f,c
  7064  006230  220F               	addwfc	(___aomod@divisor+6)^0,f,c
  7065  006232  2210               	addwfc	(___aomod@divisor+7)^0,f,c
  7066  006234                     i2l4356:
  7067  006234  5009               	movf	___aomod@divisor^0,w,c
  7068  006236  100A               	iorwf	(___aomod@divisor+1)^0,w,c
  7069  006238  100B               	iorwf	(___aomod@divisor+2)^0,w,c
  7070  00623A  100C               	iorwf	(___aomod@divisor+3)^0,w,c
  7071  00623C  100D               	iorwf	(___aomod@divisor+4)^0,w,c
  7072  00623E  100E               	iorwf	(___aomod@divisor+5)^0,w,c
  7073  006240  100F               	iorwf	(___aomod@divisor+6)^0,w,c
  7074  006242  1010               	iorwf	(___aomod@divisor+7)^0,w,c
  7075  006244  B4D8               	btfsc	status,2,c
  7076  006246  D03C               	goto	i2l4372
  7077  006248  0E01               	movlw	1
  7078  00624A  6E11               	movwf	___aomod@counter^0,c
  7079  00624C  D00A               	goto	i2l4362
  7080  00624E                     i2l4360:
  7081  00624E  90D8               	bcf	status,0,c
  7082  006250  3609               	rlcf	___aomod@divisor^0,f,c
  7083  006252  360A               	rlcf	(___aomod@divisor+1)^0,f,c
  7084  006254  360B               	rlcf	(___aomod@divisor+2)^0,f,c
  7085  006256  360C               	rlcf	(___aomod@divisor+3)^0,f,c
  7086  006258  360D               	rlcf	(___aomod@divisor+4)^0,f,c
  7087  00625A  360E               	rlcf	(___aomod@divisor+5)^0,f,c
  7088  00625C  360F               	rlcf	(___aomod@divisor+6)^0,f,c
  7089  00625E  3610               	rlcf	(___aomod@divisor+7)^0,f,c
  7090  006260  2A11               	incf	___aomod@counter^0,f,c
  7091  006262                     i2l4362:
  7092  006262  AE10               	btfss	(___aomod@divisor+7)^0,7,c
  7093  006264  D7F4               	goto	i2l4360
  7094  006266                     i2u464_40:
  7095  006266  5009               	movf	___aomod@divisor^0,w,c
  7096  006268  5C01               	subwf	___aomod@dividend^0,w,c
  7097  00626A  500A               	movf	(___aomod@divisor+1)^0,w,c
  7098  00626C  5802               	subwfb	(___aomod@dividend+1)^0,w,c
  7099  00626E  500B               	movf	(___aomod@divisor+2)^0,w,c
  7100  006270  5803               	subwfb	(___aomod@dividend+2)^0,w,c
  7101  006272  500C               	movf	(___aomod@divisor+3)^0,w,c
  7102  006274  5804               	subwfb	(___aomod@dividend+3)^0,w,c
  7103  006276  500D               	movf	(___aomod@divisor+4)^0,w,c
  7104  006278  5805               	subwfb	(___aomod@dividend+4)^0,w,c
  7105  00627A  500E               	movf	(___aomod@divisor+5)^0,w,c
  7106  00627C  5806               	subwfb	(___aomod@dividend+5)^0,w,c
  7107  00627E  500F               	movf	(___aomod@divisor+6)^0,w,c
  7108  006280  5807               	subwfb	(___aomod@dividend+6)^0,w,c
  7109  006282  5010               	movf	(___aomod@divisor+7)^0,w,c
  7110  006284  5808               	subwfb	(___aomod@dividend+7)^0,w,c
  7111  006286  A0D8               	btfss	status,0,c
  7112  006288  D010               	goto	i2l4368
  7113  00628A  5009               	movf	___aomod@divisor^0,w,c
  7114  00628C  5E01               	subwf	___aomod@dividend^0,f,c
  7115  00628E  500A               	movf	(___aomod@divisor+1)^0,w,c
  7116  006290  5A02               	subwfb	(___aomod@dividend+1)^0,f,c
  7117  006292  500B               	movf	(___aomod@divisor+2)^0,w,c
  7118  006294  5A03               	subwfb	(___aomod@dividend+2)^0,f,c
  7119  006296  500C               	movf	(___aomod@divisor+3)^0,w,c
  7120  006298  5A04               	subwfb	(___aomod@dividend+3)^0,f,c
  7121  00629A  500D               	movf	(___aomod@divisor+4)^0,w,c
  7122  00629C  5A05               	subwfb	(___aomod@dividend+4)^0,f,c
  7123  00629E  500E               	movf	(___aomod@divisor+5)^0,w,c
  7124  0062A0  5A06               	subwfb	(___aomod@dividend+5)^0,f,c
  7125  0062A2  500F               	movf	(___aomod@divisor+6)^0,w,c
  7126  0062A4  5A07               	subwfb	(___aomod@dividend+6)^0,f,c
  7127  0062A6  5010               	movf	(___aomod@divisor+7)^0,w,c
  7128  0062A8  5A08               	subwfb	(___aomod@dividend+7)^0,f,c
  7129  0062AA                     i2l4368:
  7130  0062AA  90D8               	bcf	status,0,c
  7131  0062AC  3210               	rrcf	(___aomod@divisor+7)^0,f,c
  7132  0062AE  320F               	rrcf	(___aomod@divisor+6)^0,f,c
  7133  0062B0  320E               	rrcf	(___aomod@divisor+5)^0,f,c
  7134  0062B2  320D               	rrcf	(___aomod@divisor+4)^0,f,c
  7135  0062B4  320C               	rrcf	(___aomod@divisor+3)^0,f,c
  7136  0062B6  320B               	rrcf	(___aomod@divisor+2)^0,f,c
  7137  0062B8  320A               	rrcf	(___aomod@divisor+1)^0,f,c
  7138  0062BA  3209               	rrcf	___aomod@divisor^0,f,c
  7139  0062BC  2E11               	decfsz	___aomod@counter^0,f,c
  7140  0062BE  D7D3               	goto	i2u464_40
  7141  0062C0                     i2l4372:
  7142  0062C0  5012               	movf	___aomod@sign^0,w,c
  7143  0062C2  B4D8               	btfsc	status,2,c
  7144  0062C4  D010               	goto	i2l4376
  7145  0062C6  1E08               	comf	(___aomod@dividend+7)^0,f,c
  7146  0062C8  1E07               	comf	(___aomod@dividend+6)^0,f,c
  7147  0062CA  1E06               	comf	(___aomod@dividend+5)^0,f,c
  7148  0062CC  1E05               	comf	(___aomod@dividend+4)^0,f,c
  7149  0062CE  1E04               	comf	(___aomod@dividend+3)^0,f,c
  7150  0062D0  1E03               	comf	(___aomod@dividend+2)^0,f,c
  7151  0062D2  1E02               	comf	(___aomod@dividend+1)^0,f,c
  7152  0062D4  6C01               	negf	___aomod@dividend^0,c
  7153  0062D6  0E00               	movlw	0
  7154  0062D8  2202               	addwfc	(___aomod@dividend+1)^0,f,c
  7155  0062DA  2203               	addwfc	(___aomod@dividend+2)^0,f,c
  7156  0062DC  2204               	addwfc	(___aomod@dividend+3)^0,f,c
  7157  0062DE  2205               	addwfc	(___aomod@dividend+4)^0,f,c
  7158  0062E0  2206               	addwfc	(___aomod@dividend+5)^0,f,c
  7159  0062E2  2207               	addwfc	(___aomod@dividend+6)^0,f,c
  7160  0062E4  2208               	addwfc	(___aomod@dividend+7)^0,f,c
  7161  0062E6                     i2l4376:
  7162  0062E6  C001  F001         	movff	___aomod@dividend,?___aomod
  7163  0062EA  C002  F002         	movff	___aomod@dividend+1,?___aomod+1
  7164  0062EE  C003  F003         	movff	___aomod@dividend+2,?___aomod+2
  7165  0062F2  C004  F004         	movff	___aomod@dividend+3,?___aomod+3
  7166  0062F6  C005  F005         	movff	___aomod@dividend+4,?___aomod+4
  7167  0062FA  C006  F006         	movff	___aomod@dividend+5,?___aomod+5
  7168  0062FE  C007  F007         	movff	___aomod@dividend+6,?___aomod+6
  7169  006302  C008  F008         	movff	___aomod@dividend+7,?___aomod+7
  7170  006306  0012               	return		;funcret
  7171  006308                     __end_of___aomod:
  7172                           	opt callstack 0
  7173                           
  7174 ;; *************** function ___aodiv *****************
  7175 ;; Defined at:
  7176 ;;		line 9 in file "C:\Program Files (x86)\Microchip\xc8\v2.10\pic\sources\c99\common\aodiv.c"
  7177 ;; Parameters:    Size  Location     Type
  7178 ;;  dividend        8    0[COMRAM] long long 
  7179 ;;  divisor         8    8[COMRAM] long long 
  7180 ;; Auto vars:     Size  Location     Type
  7181 ;;  quotient        8   18[COMRAM] long long 
  7182 ;;  sign            1   17[COMRAM] unsigned char 
  7183 ;;  counter         1   16[COMRAM] unsigned char 
  7184 ;; Return value:  Size  Location     Type
  7185 ;;                  8    0[COMRAM] long long 
  7186 ;; Registers used:
  7187 ;;		wreg, fsr2l, fsr2h, status,2, status,0
  7188 ;; Tracked objects:
  7189 ;;		On entry : 0/0
  7190 ;;		On exit  : 0/0
  7191 ;;		Unchanged: 0/0
  7192 ;; Data sizes:     COMRAM   BANK0   BANK1   BANK2   BANK3   BANK4   BANK5
  7193 ;;      Params:        16       0       0       0       0       0       0
  7194 ;;      Locals:        10       0       0       0       0       0       0
  7195 ;;      Temps:          0       0       0       0       0       0       0
  7196 ;;      Totals:        26       0       0       0       0       0       0
  7197 ;;Total ram usage:       26 bytes
  7198 ;; Hardware stack levels used:    1
  7199 ;; This function calls:
  7200 ;;		Nothing
  7201 ;; This function is called by:
  7202 ;;		_dtoa
  7203 ;; This function uses a non-reentrant model
  7204 ;;
  7205                           
  7206                           	psect	text35
  7207  005BA6                     __ptext35:
  7208                           	opt callstack 0
  7209  005BA6                     ___aodiv:
  7210                           	opt callstack 21
  7211                           
  7212                           ;incstack = 0
  7213  005BA6  0E00               	movlw	0
  7214  005BA8  6E12               	movwf	___aodiv@sign^0,c
  7215  005BAA  AE10               	btfss	(___aodiv@divisor+7)^0,7,c
  7216  005BAC  D012               	goto	i2l4308
  7217  005BAE  1E10               	comf	(___aodiv@divisor+7)^0,f,c
  7218  005BB0  1E0F               	comf	(___aodiv@divisor+6)^0,f,c
  7219  005BB2  1E0E               	comf	(___aodiv@divisor+5)^0,f,c
  7220  005BB4  1E0D               	comf	(___aodiv@divisor+4)^0,f,c
  7221  005BB6  1E0C               	comf	(___aodiv@divisor+3)^0,f,c
  7222  005BB8  1E0B               	comf	(___aodiv@divisor+2)^0,f,c
  7223  005BBA  1E0A               	comf	(___aodiv@divisor+1)^0,f,c
  7224  005BBC  6C09               	negf	___aodiv@divisor^0,c
  7225  005BBE  0E00               	movlw	0
  7226  005BC0  220A               	addwfc	(___aodiv@divisor+1)^0,f,c
  7227  005BC2  220B               	addwfc	(___aodiv@divisor+2)^0,f,c
  7228  005BC4  220C               	addwfc	(___aodiv@divisor+3)^0,f,c
  7229  005BC6  220D               	addwfc	(___aodiv@divisor+4)^0,f,c
  7230  005BC8  220E               	addwfc	(___aodiv@divisor+5)^0,f,c
  7231  005BCA  220F               	addwfc	(___aodiv@divisor+6)^0,f,c
  7232  005BCC  2210               	addwfc	(___aodiv@divisor+7)^0,f,c
  7233  005BCE  0E01               	movlw	1
  7234  005BD0  6E12               	movwf	___aodiv@sign^0,c
  7235  005BD2                     i2l4308:
  7236  005BD2  AE08               	btfss	(___aodiv@dividend+7)^0,7,c
  7237  005BD4  D012               	goto	i2l4314
  7238  005BD6  1E08               	comf	(___aodiv@dividend+7)^0,f,c
  7239  005BD8  1E07               	comf	(___aodiv@dividend+6)^0,f,c
  7240  005BDA  1E06               	comf	(___aodiv@dividend+5)^0,f,c
  7241  005BDC  1E05               	comf	(___aodiv@dividend+4)^0,f,c
  7242  005BDE  1E04               	comf	(___aodiv@dividend+3)^0,f,c
  7243  005BE0  1E03               	comf	(___aodiv@dividend+2)^0,f,c
  7244  005BE2  1E02               	comf	(___aodiv@dividend+1)^0,f,c
  7245  005BE4  6C01               	negf	___aodiv@dividend^0,c
  7246  005BE6  0E00               	movlw	0
  7247  005BE8  2202               	addwfc	(___aodiv@dividend+1)^0,f,c
  7248  005BEA  2203               	addwfc	(___aodiv@dividend+2)^0,f,c
  7249  005BEC  2204               	addwfc	(___aodiv@dividend+3)^0,f,c
  7250  005BEE  2205               	addwfc	(___aodiv@dividend+4)^0,f,c
  7251  005BF0  2206               	addwfc	(___aodiv@dividend+5)^0,f,c
  7252  005BF2  2207               	addwfc	(___aodiv@dividend+6)^0,f,c
  7253  005BF4  2208               	addwfc	(___aodiv@dividend+7)^0,f,c
  7254  005BF6  0E01               	movlw	1
  7255  005BF8  1A12               	xorwf	___aodiv@sign^0,f,c
  7256  005BFA                     i2l4314:
  7257  005BFA  EE20  F013         	lfsr	2,___aodiv@quotient
  7258  005BFE  0E07               	movlw	7
  7259  005C00                     i2u456_41:
  7260  005C00  6ADE               	clrf	postinc2,c
  7261  005C02  06E8               	decf	wreg,f,c
  7262  005C04  E2FD               	bc	i2u456_41
  7263  005C06  5009               	movf	___aodiv@divisor^0,w,c
  7264  005C08  100A               	iorwf	(___aodiv@divisor+1)^0,w,c
  7265  005C0A  100B               	iorwf	(___aodiv@divisor+2)^0,w,c
  7266  005C0C  100C               	iorwf	(___aodiv@divisor+3)^0,w,c
  7267  005C0E  100D               	iorwf	(___aodiv@divisor+4)^0,w,c
  7268  005C10  100E               	iorwf	(___aodiv@divisor+5)^0,w,c
  7269  005C12  100F               	iorwf	(___aodiv@divisor+6)^0,w,c
  7270  005C14  1010               	iorwf	(___aodiv@divisor+7)^0,w,c
  7271  005C16  B4D8               	btfsc	status,2,c
  7272  005C18  D046               	goto	i2l4336
  7273  005C1A  0E01               	movlw	1
  7274  005C1C  6E11               	movwf	___aodiv@counter^0,c
  7275  005C1E  D00A               	goto	i2l4322
  7276  005C20                     i2l4320:
  7277  005C20  90D8               	bcf	status,0,c
  7278  005C22  3609               	rlcf	___aodiv@divisor^0,f,c
  7279  005C24  360A               	rlcf	(___aodiv@divisor+1)^0,f,c
  7280  005C26  360B               	rlcf	(___aodiv@divisor+2)^0,f,c
  7281  005C28  360C               	rlcf	(___aodiv@divisor+3)^0,f,c
  7282  005C2A  360D               	rlcf	(___aodiv@divisor+4)^0,f,c
  7283  005C2C  360E               	rlcf	(___aodiv@divisor+5)^0,f,c
  7284  005C2E  360F               	rlcf	(___aodiv@divisor+6)^0,f,c
  7285  005C30  3610               	rlcf	(___aodiv@divisor+7)^0,f,c
  7286  005C32  2A11               	incf	___aodiv@counter^0,f,c
  7287  005C34                     i2l4322:
  7288  005C34  AE10               	btfss	(___aodiv@divisor+7)^0,7,c
  7289  005C36  D7F4               	goto	i2l4320
  7290  005C38                     i2u458_40:
  7291  005C38  90D8               	bcf	status,0,c
  7292  005C3A  3613               	rlcf	___aodiv@quotient^0,f,c
  7293  005C3C  3614               	rlcf	(___aodiv@quotient+1)^0,f,c
  7294  005C3E  3615               	rlcf	(___aodiv@quotient+2)^0,f,c
  7295  005C40  3616               	rlcf	(___aodiv@quotient+3)^0,f,c
  7296  005C42  3617               	rlcf	(___aodiv@quotient+4)^0,f,c
  7297  005C44  3618               	rlcf	(___aodiv@quotient+5)^0,f,c
  7298  005C46  3619               	rlcf	(___aodiv@quotient+6)^0,f,c
  7299  005C48  361A               	rlcf	(___aodiv@quotient+7)^0,f,c
  7300  005C4A  5009               	movf	___aodiv@divisor^0,w,c
  7301  005C4C  5C01               	subwf	___aodiv@dividend^0,w,c
  7302  005C4E  500A               	movf	(___aodiv@divisor+1)^0,w,c
  7303  005C50  5802               	subwfb	(___aodiv@dividend+1)^0,w,c
  7304  005C52  500B               	movf	(___aodiv@divisor+2)^0,w,c
  7305  005C54  5803               	subwfb	(___aodiv@dividend+2)^0,w,c
  7306  005C56  500C               	movf	(___aodiv@divisor+3)^0,w,c
  7307  005C58  5804               	subwfb	(___aodiv@dividend+3)^0,w,c
  7308  005C5A  500D               	movf	(___aodiv@divisor+4)^0,w,c
  7309  005C5C  5805               	subwfb	(___aodiv@dividend+4)^0,w,c
  7310  005C5E  500E               	movf	(___aodiv@divisor+5)^0,w,c
  7311  005C60  5806               	subwfb	(___aodiv@dividend+5)^0,w,c
  7312  005C62  500F               	movf	(___aodiv@divisor+6)^0,w,c
  7313  005C64  5807               	subwfb	(___aodiv@dividend+6)^0,w,c
  7314  005C66  5010               	movf	(___aodiv@divisor+7)^0,w,c
  7315  005C68  5808               	subwfb	(___aodiv@dividend+7)^0,w,c
  7316  005C6A  A0D8               	btfss	status,0,c
  7317  005C6C  D011               	goto	i2l4332
  7318  005C6E  5009               	movf	___aodiv@divisor^0,w,c
  7319  005C70  5E01               	subwf	___aodiv@dividend^0,f,c
  7320  005C72  500A               	movf	(___aodiv@divisor+1)^0,w,c
  7321  005C74  5A02               	subwfb	(___aodiv@dividend+1)^0,f,c
  7322  005C76  500B               	movf	(___aodiv@divisor+2)^0,w,c
  7323  005C78  5A03               	subwfb	(___aodiv@dividend+2)^0,f,c
  7324  005C7A  500C               	movf	(___aodiv@divisor+3)^0,w,c
  7325  005C7C  5A04               	subwfb	(___aodiv@dividend+3)^0,f,c
  7326  005C7E  500D               	movf	(___aodiv@divisor+4)^0,w,c
  7327  005C80  5A05               	subwfb	(___aodiv@dividend+4)^0,f,c
  7328  005C82  500E               	movf	(___aodiv@divisor+5)^0,w,c
  7329  005C84  5A06               	subwfb	(___aodiv@dividend+5)^0,f,c
  7330  005C86  500F               	movf	(___aodiv@divisor+6)^0,w,c
  7331  005C88  5A07               	subwfb	(___aodiv@dividend+6)^0,f,c
  7332  005C8A  5010               	movf	(___aodiv@divisor+7)^0,w,c
  7333  005C8C  5A08               	subwfb	(___aodiv@dividend+7)^0,f,c
  7334  005C8E  8013               	bsf	___aodiv@quotient^0,0,c
  7335  005C90                     i2l4332:
  7336  005C90  90D8               	bcf	status,0,c
  7337  005C92  3210               	rrcf	(___aodiv@divisor+7)^0,f,c
  7338  005C94  320F               	rrcf	(___aodiv@divisor+6)^0,f,c
  7339  005C96  320E               	rrcf	(___aodiv@divisor+5)^0,f,c
  7340  005C98  320D               	rrcf	(___aodiv@divisor+4)^0,f,c
  7341  005C9A  320C               	rrcf	(___aodiv@divisor+3)^0,f,c
  7342  005C9C  320B               	rrcf	(___aodiv@divisor+2)^0,f,c
  7343  005C9E  320A               	rrcf	(___aodiv@divisor+1)^0,f,c
  7344  005CA0  3209               	rrcf	___aodiv@divisor^0,f,c
  7345  005CA2  2E11               	decfsz	___aodiv@counter^0,f,c
  7346  005CA4  D7C9               	goto	i2u458_40
  7347  005CA6                     i2l4336:
  7348  005CA6  5012               	movf	___aodiv@sign^0,w,c
  7349  005CA8  B4D8               	btfsc	status,2,c
  7350  005CAA  D010               	goto	i2l4340
  7351  005CAC  1E1A               	comf	(___aodiv@quotient+7)^0,f,c
  7352  005CAE  1E19               	comf	(___aodiv@quotient+6)^0,f,c
  7353  005CB0  1E18               	comf	(___aodiv@quotient+5)^0,f,c
  7354  005CB2  1E17               	comf	(___aodiv@quotient+4)^0,f,c
  7355  005CB4  1E16               	comf	(___aodiv@quotient+3)^0,f,c
  7356  005CB6  1E15               	comf	(___aodiv@quotient+2)^0,f,c
  7357  005CB8  1E14               	comf	(___aodiv@quotient+1)^0,f,c
  7358  005CBA  6C13               	negf	___aodiv@quotient^0,c
  7359  005CBC  0E00               	movlw	0
  7360  005CBE  2214               	addwfc	(___aodiv@quotient+1)^0,f,c
  7361  005CC0  2215               	addwfc	(___aodiv@quotient+2)^0,f,c
  7362  005CC2  2216               	addwfc	(___aodiv@quotient+3)^0,f,c
  7363  005CC4  2217               	addwfc	(___aodiv@quotient+4)^0,f,c
  7364  005CC6  2218               	addwfc	(___aodiv@quotient+5)^0,f,c
  7365  005CC8  2219               	addwfc	(___aodiv@quotient+6)^0,f,c
  7366  005CCA  221A               	addwfc	(___aodiv@quotient+7)^0,f,c
  7367  005CCC                     i2l4340:
  7368  005CCC  C013  F001         	movff	___aodiv@quotient,?___aodiv
  7369  005CD0  C014  F002         	movff	___aodiv@quotient+1,?___aodiv+1
  7370  005CD4  C015  F003         	movff	___aodiv@quotient+2,?___aodiv+2
  7371  005CD8  C016  F004         	movff	___aodiv@quotient+3,?___aodiv+3
  7372  005CDC  C017  F005         	movff	___aodiv@quotient+4,?___aodiv+4
  7373  005CE0  C018  F006         	movff	___aodiv@quotient+5,?___aodiv+5
  7374  005CE4  C019  F007         	movff	___aodiv@quotient+6,?___aodiv+6
  7375  005CE8  C01A  F008         	movff	___aodiv@quotient+7,?___aodiv+7
  7376  005CEC  0012               	return		;funcret
  7377  005CEE                     __end_of___aodiv:
  7378                           	opt callstack 0
  7379                           
  7380 ;; *************** function _atoi *****************
  7381 ;; Defined at:
  7382 ;;		line 4 in file "C:\Program Files (x86)\Microchip\xc8\v2.10\pic\sources\c99\common\atoi.c"
  7383 ;; Parameters:    Size  Location     Type
  7384 ;;  s               2    7[COMRAM] PTR const unsigned char 
  7385 ;;		 -> STR_4(9), STR_3(19), 
  7386 ;; Auto vars:     Size  Location     Type
  7387 ;;  n               2   20[COMRAM] int 
  7388 ;;  neg             2   13[COMRAM] int 
  7389 ;; Return value:  Size  Location     Type
  7390 ;;                  2    7[COMRAM] int 
  7391 ;; Registers used:
  7392 ;;		wreg, status,2, status,0, tblptrl, tblptrh, tblptru, prodl, prodh, cstack
  7393 ;; Tracked objects:
  7394 ;;		On entry : 0/0
  7395 ;;		On exit  : 0/0
  7396 ;;		Unchanged: 0/0
  7397 ;; Data sizes:     COMRAM   BANK0   BANK1   BANK2   BANK3   BANK4   BANK5
  7398 ;;      Params:         2       0       0       0       0       0       0
  7399 ;;      Locals:         9       0       0       0       0       0       0
  7400 ;;      Temps:          4       0       0       0       0       0       0
  7401 ;;      Totals:        15       0       0       0       0       0       0
  7402 ;;Total ram usage:       15 bytes
  7403 ;; Hardware stack levels used:    1
  7404 ;; Hardware stack levels required when called:    1
  7405 ;; This function calls:
  7406 ;;		___wmul
  7407 ;;		_isdigit
  7408 ;;		_isspace
  7409 ;; This function is called by:
  7410 ;;		_vfpfcnvrt
  7411 ;; This function uses a non-reentrant model
  7412 ;;
  7413                           
  7414                           	psect	text36
  7415  005E32                     __ptext36:
  7416                           	opt callstack 0
  7417  005E32                     _atoi:
  7418                           	opt callstack 21
  7419                           
  7420                           ;incstack = 0
  7421  005E32  0E00               	movlw	0
  7422  005E34  6E16               	movwf	(atoi@n+1)^0,c
  7423  005E36  0E00               	movlw	0
  7424  005E38  6E15               	movwf	atoi@n^0,c
  7425  005E3A  0E00               	movlw	0
  7426  005E3C  6E0F               	movwf	(atoi@neg+1)^0,c
  7427  005E3E  0E00               	movlw	0
  7428  005E40  6E0E               	movwf	atoi@neg^0,c
  7429  005E42  D002               	goto	i2l5342
  7430  005E44                     i2l5340:
  7431  005E44  4A08               	infsnz	atoi@s^0,f,c
  7432  005E46  2A09               	incf	(atoi@s+1)^0,f,c
  7433  005E48                     i2l5342:
  7434  005E48  0E01               	movlw	1
  7435  005E4A  6E14               	movwf	_atoi$1490^0,c
  7436  005E4C  C008  FFF6         	movff	atoi@s,tblptrl
  7437  005E50  C009  FFF7         	movff	atoi@s+1,tblptrh
  7438  005E54                     	if	0	;tblptru may be non-zero
  7439  005E54                     	endif
  7440  005E54                     	if	0	;tblptru may be non-zero
  7441  005E54                     	endif
  7442  005E54  0008               	tblrd		*
  7443  005E56  50F5               	movf	tablat,w,c
  7444  005E58  0A20               	xorlw	32
  7445  005E5A  B4D8               	btfsc	status,2,c
  7446  005E5C  D018               	goto	i2l5350
  7447  005E5E  0EF7               	movlw	247
  7448  005E60  6E0A               	movwf	??_atoi^0,c
  7449  005E62  0EFF               	movlw	255
  7450  005E64  6E0B               	movwf	(??_atoi+1)^0,c
  7451  005E66  C008  FFF6         	movff	atoi@s,tblptrl
  7452  005E6A  C009  FFF7         	movff	atoi@s+1,tblptrh
  7453  005E6E                     	if	0	;tblptru may be non-zero
  7454  005E6E                     	endif
  7455  005E6E                     	if	0	;tblptru may be non-zero
  7456  005E6E                     	endif
  7457  005E6E  0008               	tblrd		*
  7458  005E70  50F5               	movf	tablat,w,c
  7459  005E72  6E0C               	movwf	(??_atoi+2)^0,c
  7460  005E74  6A0D               	clrf	(??_atoi+3)^0,c
  7461  005E76  500A               	movf	??_atoi^0,w,c
  7462  005E78  260C               	addwf	(??_atoi+2)^0,f,c
  7463  005E7A  500B               	movf	(??_atoi+1)^0,w,c
  7464  005E7C  220D               	addwfc	(??_atoi+3)^0,f,c
  7465  005E7E  500D               	movf	(??_atoi+3)^0,w,c
  7466  005E80  E104               	bnz	i2u606_40
  7467  005E82  0E05               	movlw	5
  7468  005E84  5C0C               	subwf	(??_atoi+2)^0,w,c
  7469  005E86  A0D8               	btfss	status,0,c
  7470  005E88  D002               	goto	i2l5350
  7471  005E8A                     i2u606_40:
  7472  005E8A  0E00               	movlw	0
  7473  005E8C  6E14               	movwf	_atoi$1490^0,c
  7474  005E8E                     i2l5350:
  7475  005E8E  C014  F010         	movff	_atoi$1490,_atoi$1489
  7476  005E92  6A11               	clrf	(_atoi$1489+1)^0,c
  7477  005E94  5010               	movf	_atoi$1489^0,w,c
  7478  005E96  1011               	iorwf	(_atoi$1489+1)^0,w,c
  7479  005E98  B4D8               	btfsc	status,2,c
  7480  005E9A  D008               	goto	i2l5360
  7481  005E9C  D7D3               	goto	i2l5340
  7482  005E9E                     i2l5356:
  7483  005E9E  0E00               	movlw	0
  7484  005EA0  6E0F               	movwf	(atoi@neg+1)^0,c
  7485  005EA2  0E01               	movlw	1
  7486  005EA4  6E0E               	movwf	atoi@neg^0,c
  7487  005EA6                     i2l5358:
  7488  005EA6  4A08               	infsnz	atoi@s^0,f,c
  7489  005EA8  2A09               	incf	(atoi@s+1)^0,f,c
  7490  005EAA  D02E               	goto	i2l5366
  7491  005EAC                     i2l5360:
  7492  005EAC  C008  FFF6         	movff	atoi@s,tblptrl
  7493  005EB0  C009  FFF7         	movff	atoi@s+1,tblptrh
  7494  005EB4                     	if	0	;tblptru may be non-zero
  7495  005EB4                     	endif
  7496  005EB4                     	if	0	;tblptru may be non-zero
  7497  005EB4                     	endif
  7498  005EB4  0008               	tblrd		*
  7499  005EB6  50F5               	movf	tablat,w,c
  7500  005EB8  6E0A               	movwf	??_atoi^0,c
  7501  005EBA  6A0B               	clrf	(??_atoi+1)^0,c
  7502                           
  7503                           ; Switch on 2 bytes has been partitioned into a top level switch of size 1, and 1 sub-sw
      +                          itches
  7504                           ; Switch size 1, requested type "simple"
  7505                           ; Number of cases is 1, Range of values is 0 to 0
  7506                           ; switch strategies available:
  7507                           ; Name         Instructions Cycles
  7508                           ; simple_byte            4     3 (average)
  7509                           ;	Chosen strategy is simple_byte
  7510  005EBC  500B               	movf	(??_atoi+1)^0,w,c
  7511  005EBE  0A00               	xorlw	0	; case 0
  7512  005EC0  A4D8               	btfss	status,2,c
  7513  005EC2  D022               	goto	i2l5366
  7514                           
  7515                           ; Switch size 1, requested type "simple"
  7516                           ; Number of cases is 2, Range of values is 43 to 45
  7517                           ; switch strategies available:
  7518                           ; Name         Instructions Cycles
  7519                           ; simple_byte            7     4 (average)
  7520                           ;	Chosen strategy is simple_byte
  7521  005EC4  500A               	movf	??_atoi^0,w,c
  7522  005EC6  0A2B               	xorlw	43	; case 43
  7523  005EC8  B4D8               	btfsc	status,2,c
  7524  005ECA  D7ED               	goto	i2l5358
  7525  005ECC  0A06               	xorlw	6	; case 45
  7526  005ECE  B4D8               	btfsc	status,2,c
  7527  005ED0  D7E6               	goto	i2l5356
  7528  005ED2  D01A               	goto	i2l5366
  7529  005ED4                     i2l5362:
  7530  005ED4  C015  F001         	movff	atoi@n,___wmul@multiplier
  7531  005ED8  C016  F002         	movff	atoi@n+1,___wmul@multiplier+1
  7532  005EDC  0E00               	movlw	0
  7533  005EDE  6E04               	movwf	(___wmul@multiplicand+1)^0,c
  7534  005EE0  0E0A               	movlw	10
  7535  005EE2  6E03               	movwf	___wmul@multiplicand^0,c
  7536  005EE4  ECF1  F035         	call	___wmul	;wreg free
  7537  005EE8  C008  FFF6         	movff	atoi@s,tblptrl
  7538  005EEC  C009  FFF7         	movff	atoi@s+1,tblptrh
  7539  005EF0                     	if	0	;tblptru may be non-zero
  7540  005EF0                     	endif
  7541  005EF0                     	if	0	;tblptru may be non-zero
  7542  005EF0                     	endif
  7543  005EF0  0008               	tblrd		*
  7544  005EF2  50F5               	movf	tablat,w,c
  7545  005EF4  5E01               	subwf	?___wmul^0,f,c
  7546  005EF6  0E00               	movlw	0
  7547  005EF8  5A02               	subwfb	(?___wmul+1)^0,f,c
  7548  005EFA  0E30               	movlw	48
  7549  005EFC  2401               	addwf	?___wmul^0,w,c
  7550  005EFE  6E15               	movwf	atoi@n^0,c
  7551  005F00  0E00               	movlw	0
  7552  005F02  2002               	addwfc	(?___wmul+1)^0,w,c
  7553  005F04  6E16               	movwf	(atoi@n+1)^0,c
  7554  005F06  D7CF               	goto	i2l5358
  7555  005F08                     i2l5366:
  7556  005F08  0ED0               	movlw	208
  7557  005F0A  6E0A               	movwf	??_atoi^0,c
  7558  005F0C  0EFF               	movlw	255
  7559  005F0E  6E0B               	movwf	(??_atoi+1)^0,c
  7560  005F10  C008  FFF6         	movff	atoi@s,tblptrl
  7561  005F14  C009  FFF7         	movff	atoi@s+1,tblptrh
  7562  005F18                     	if	0	;tblptru may be non-zero
  7563  005F18                     	endif
  7564  005F18                     	if	0	;tblptru may be non-zero
  7565  005F18                     	endif
  7566  005F18  0008               	tblrd		*
  7567  005F1A  50F5               	movf	tablat,w,c
  7568  005F1C  6E0C               	movwf	(??_atoi+2)^0,c
  7569  005F1E  6A0D               	clrf	(??_atoi+3)^0,c
  7570  005F20  500A               	movf	??_atoi^0,w,c
  7571  005F22  260C               	addwf	(??_atoi+2)^0,f,c
  7572  005F24  500B               	movf	(??_atoi+1)^0,w,c
  7573  005F26  220D               	addwfc	(??_atoi+3)^0,f,c
  7574  005F28  500D               	movf	(??_atoi+3)^0,w,c
  7575  005F2A  E106               	bnz	i2u608_40
  7576  005F2C  0E0A               	movlw	10
  7577  005F2E  5C0C               	subwf	(??_atoi+2)^0,w,c
  7578  005F30  B0D8               	btfsc	status,0,c
  7579  005F32  D002               	goto	i2u608_40
  7580  005F34  0E01               	movlw	1
  7581  005F36  D001               	goto	i2u609_40
  7582  005F38                     i2u608_40:
  7583  005F38  0E00               	movlw	0
  7584  005F3A                     i2u609_40:
  7585  005F3A  6E12               	movwf	_atoi$1491^0,c
  7586  005F3C  6A13               	clrf	(_atoi$1491+1)^0,c
  7587  005F3E  5012               	movf	_atoi$1491^0,w,c
  7588  005F40  1013               	iorwf	(_atoi$1491+1)^0,w,c
  7589  005F42  A4D8               	btfss	status,2,c
  7590  005F44  D7C7               	goto	i2l5362
  7591  005F46  500E               	movf	atoi@neg^0,w,c
  7592  005F48  100F               	iorwf	(atoi@neg+1)^0,w,c
  7593  005F4A  A4D8               	btfss	status,2,c
  7594  005F4C  D00D               	goto	i2l1046
  7595  005F4E  C015  F00A         	movff	atoi@n,??_atoi
  7596  005F52  C016  F00B         	movff	atoi@n+1,??_atoi+1
  7597  005F56  1E0A               	comf	??_atoi^0,f,c
  7598  005F58  1E0B               	comf	(??_atoi+1)^0,f,c
  7599  005F5A  4A0A               	infsnz	??_atoi^0,f,c
  7600  005F5C  2A0B               	incf	(??_atoi+1)^0,f,c
  7601  005F5E  C00A  F008         	movff	??_atoi,?_atoi
  7602  005F62  C00B  F009         	movff	??_atoi+1,?_atoi+1
  7603  005F66  0012               	return	
  7604  005F68                     i2l1046:
  7605  005F68  C015  F008         	movff	atoi@n,?_atoi
  7606  005F6C  C016  F009         	movff	atoi@n+1,?_atoi+1
  7607  005F70  0012               	return		;funcret
  7608  005F72                     __end_of_atoi:
  7609                           	opt callstack 0
  7610                           
  7611 ;; *************** function _isspace *****************
  7612 ;; Defined at:
  7613 ;;		line 5 in file "C:\Program Files (x86)\Microchip\xc8\v2.10\pic\sources\c99\common\isspace.c"
  7614 ;; Parameters:    Size  Location     Type
  7615 ;;  c               2    0[COMRAM] int 
  7616 ;; Auto vars:     Size  Location     Type
  7617 ;;		None
  7618 ;; Return value:  Size  Location     Type
  7619 ;;                  2    0[COMRAM] int 
  7620 ;; Registers used:
  7621 ;;		wreg, status,2, status,0
  7622 ;; Tracked objects:
  7623 ;;		On entry : 0/0
  7624 ;;		On exit  : 0/0
  7625 ;;		Unchanged: 0/0
  7626 ;; Data sizes:     COMRAM   BANK0   BANK1   BANK2   BANK3   BANK4   BANK5
  7627 ;;      Params:         2       0       0       0       0       0       0
  7628 ;;      Locals:         1       0       0       0       0       0       0
  7629 ;;      Temps:          4       0       0       0       0       0       0
  7630 ;;      Totals:         7       0       0       0       0       0       0
  7631 ;;Total ram usage:        7 bytes
  7632 ;; Hardware stack levels used:    1
  7633 ;; This function calls:
  7634 ;;		Nothing
  7635 ;; This function is called by:
  7636 ;;		_atoi
  7637 ;; This function uses a non-reentrant model
  7638 ;;
  7639                           
  7640                           	psect	text37
  7641  006990                     __ptext37:
  7642                           	opt callstack 0
  7643  006990                     _isspace:
  7644                           	opt callstack 21
  7645                           
  7646                           ;incstack = 0
  7647  006990  0E01               	movlw	1
  7648  006992  6E07               	movwf	_isspace$1507^0,c
  7649  006994  0E20               	movlw	32
  7650  006996  1801               	xorwf	isspace@c^0,w,c
  7651  006998  1002               	iorwf	(isspace@c+1)^0,w,c
  7652  00699A  B4D8               	btfsc	status,2,c
  7653  00699C  D014               	goto	i2l4402
  7654  00699E  0EF7               	movlw	247
  7655  0069A0  6E03               	movwf	??_isspace^0,c
  7656  0069A2  0EFF               	movlw	255
  7657  0069A4  6E04               	movwf	(??_isspace+1)^0,c
  7658  0069A6  C001  F005         	movff	isspace@c,??_isspace+2
  7659  0069AA  C002  F006         	movff	isspace@c+1,??_isspace+3
  7660  0069AE  5003               	movf	??_isspace^0,w,c
  7661  0069B0  2605               	addwf	(??_isspace+2)^0,f,c
  7662  0069B2  5004               	movf	(??_isspace+1)^0,w,c
  7663  0069B4  2206               	addwfc	(??_isspace+3)^0,f,c
  7664  0069B6  5006               	movf	(??_isspace+3)^0,w,c
  7665  0069B8  E104               	bnz	i2u469_40
  7666  0069BA  0E05               	movlw	5
  7667  0069BC  5C05               	subwf	(??_isspace+2)^0,w,c
  7668  0069BE  A0D8               	btfss	status,0,c
  7669  0069C0  D002               	goto	i2l4402
  7670  0069C2                     i2u469_40:
  7671  0069C2  0E00               	movlw	0
  7672  0069C4  6E07               	movwf	_isspace$1507^0,c
  7673  0069C6                     i2l4402:
  7674  0069C6  C007  F001         	movff	_isspace$1507,?_isspace
  7675  0069CA  6A02               	clrf	(?_isspace+1)^0,c
  7676  0069CC  0012               	return		;funcret
  7677  0069CE                     __end_of_isspace:
  7678                           	opt callstack 0
  7679                           
  7680 ;; *************** function _isdigit *****************
  7681 ;; Defined at:
  7682 ;;		line 5 in file "C:\Program Files (x86)\Microchip\xc8\v2.10\pic\sources\c99\common\isdigit.c"
  7683 ;; Parameters:    Size  Location     Type
  7684 ;;  c               2    0[COMRAM] int 
  7685 ;; Auto vars:     Size  Location     Type
  7686 ;;		None
  7687 ;; Return value:  Size  Location     Type
  7688 ;;                  2    0[COMRAM] int 
  7689 ;; Registers used:
  7690 ;;		wreg, status,2, status,0
  7691 ;; Tracked objects:
  7692 ;;		On entry : 0/0
  7693 ;;		On exit  : 0/0
  7694 ;;		Unchanged: 0/0
  7695 ;; Data sizes:     COMRAM   BANK0   BANK1   BANK2   BANK3   BANK4   BANK5
  7696 ;;      Params:         2       0       0       0       0       0       0
  7697 ;;      Locals:         0       0       0       0       0       0       0
  7698 ;;      Temps:          4       0       0       0       0       0       0
  7699 ;;      Totals:         6       0       0       0       0       0       0
  7700 ;;Total ram usage:        6 bytes
  7701 ;; Hardware stack levels used:    1
  7702 ;; This function calls:
  7703 ;;		Nothing
  7704 ;; This function is called by:
  7705 ;;		_vfpfcnvrt
  7706 ;;		_atoi
  7707 ;; This function uses a non-reentrant model
  7708 ;;
  7709                           
  7710                           	psect	text38
  7711  006AFE                     __ptext38:
  7712                           	opt callstack 0
  7713  006AFE                     _isdigit:
  7714                           	opt callstack 22
  7715                           
  7716                           ;incstack = 0
  7717  006AFE  0ED0               	movlw	208
  7718  006B00  6E03               	movwf	??_isdigit^0,c
  7719  006B02  0EFF               	movlw	255
  7720  006B04  6E04               	movwf	(??_isdigit+1)^0,c
  7721  006B06  C001  F005         	movff	isdigit@c,??_isdigit+2
  7722  006B0A  C002  F006         	movff	isdigit@c+1,??_isdigit+3
  7723  006B0E  5003               	movf	??_isdigit^0,w,c
  7724  006B10  2605               	addwf	(??_isdigit+2)^0,f,c
  7725  006B12  5004               	movf	(??_isdigit+1)^0,w,c
  7726  006B14  2206               	addwfc	(??_isdigit+3)^0,f,c
  7727  006B16  5006               	movf	(??_isdigit+3)^0,w,c
  7728  006B18  E106               	bnz	i2u452_40
  7729  006B1A  0E0A               	movlw	10
  7730  006B1C  5C05               	subwf	(??_isdigit+2)^0,w,c
  7731  006B1E  B0D8               	btfsc	status,0,c
  7732  006B20  D002               	goto	i2u452_40
  7733  006B22  0E01               	movlw	1
  7734  006B24  D001               	goto	i2u453_40
  7735  006B26                     i2u452_40:
  7736  006B26  0E00               	movlw	0
  7737  006B28                     i2u453_40:
  7738  006B28  6E01               	movwf	?_isdigit^0,c
  7739  006B2A  6A02               	clrf	(?_isdigit+1)^0,c
  7740  006B2C  0012               	return		;funcret
  7741  006B2E                     __end_of_isdigit:
  7742                           	opt callstack 0
  7743                           
  7744 ;; *************** function ___wmul *****************
  7745 ;; Defined at:
  7746 ;;		line 15 in file "C:\Program Files (x86)\Microchip\xc8\v2.10\pic\sources\c99\common\Umul16.c"
  7747 ;; Parameters:    Size  Location     Type
  7748 ;;  multiplier      2    0[COMRAM] unsigned int 
  7749 ;;  multiplicand    2    2[COMRAM] unsigned int 
  7750 ;; Auto vars:     Size  Location     Type
  7751 ;;  product         2    4[COMRAM] unsigned int 
  7752 ;; Return value:  Size  Location     Type
  7753 ;;                  2    0[COMRAM] unsigned int 
  7754 ;; Registers used:
  7755 ;;		wreg, status,2, status,0, prodl, prodh
  7756 ;; Tracked objects:
  7757 ;;		On entry : 0/0
  7758 ;;		On exit  : 0/0
  7759 ;;		Unchanged: 0/0
  7760 ;; Data sizes:     COMRAM   BANK0   BANK1   BANK2   BANK3   BANK4   BANK5
  7761 ;;      Params:         4       0       0       0       0       0       0
  7762 ;;      Locals:         2       0       0       0       0       0       0
  7763 ;;      Temps:          0       0       0       0       0       0       0
  7764 ;;      Totals:         6       0       0       0       0       0       0
  7765 ;;Total ram usage:        6 bytes
  7766 ;; Hardware stack levels used:    1
  7767 ;; This function calls:
  7768 ;;		Nothing
  7769 ;; This function is called by:
  7770 ;;		_atoi
  7771 ;; This function uses a non-reentrant model
  7772 ;;
  7773                           
  7774                           	psect	text39
  7775  006BE2                     __ptext39:
  7776                           	opt callstack 0
  7777  006BE2                     ___wmul:
  7778                           	opt callstack 21
  7779                           
  7780                           ;incstack = 0
  7781  006BE2  5001               	movf	___wmul@multiplier^0,w,c
  7782  006BE4  0203               	mulwf	___wmul@multiplicand^0,c
  7783  006BE6  CFF3 F005          	movff	prodl,___wmul@product
  7784  006BEA  CFF4 F006          	movff	prodh,___wmul@product+1
  7785  006BEE  5001               	movf	___wmul@multiplier^0,w,c
  7786  006BF0  0204               	mulwf	(___wmul@multiplicand+1)^0,c
  7787  006BF2  50F3               	movf	243,w,c
  7788  006BF4  2606               	addwf	(___wmul@product+1)^0,f,c
  7789  006BF6  5002               	movf	(___wmul@multiplier+1)^0,w,c
  7790  006BF8  0203               	mulwf	___wmul@multiplicand^0,c
  7791  006BFA  50F3               	movf	243,w,c
  7792  006BFC  2606               	addwf	(___wmul@product+1)^0,f,c
  7793  006BFE  C005  F001         	movff	___wmul@product,?___wmul
  7794  006C02  C006  F002         	movff	___wmul@product+1,?___wmul+1
  7795  006C06  0012               	return		;funcret
  7796  006C08                     __end_of___wmul:
  7797                           	opt callstack 0
  7798                           
  7799 ;; *************** function _memset *****************
  7800 ;; Defined at:
  7801 ;;		line 4 in file "C:\Program Files (x86)\Microchip\xc8\v2.10\pic\sources\c99\common\memset.c"
  7802 ;; Parameters:    Size  Location     Type
  7803 ;;  dest            2    0[COMRAM] PTR void 
  7804 ;;		 -> r(100), 
  7805 ;;  c               2    2[COMRAM] int 
  7806 ;;  n               2    4[COMRAM] unsigned int 
  7807 ;; Auto vars:     Size  Location     Type
  7808 ;;  s               2   10[COMRAM] PTR unsigned char 
  7809 ;;		 -> r(100), 
  7810 ;;  k               2    8[COMRAM] unsigned int 
  7811 ;; Return value:  Size  Location     Type
  7812 ;;                  2    0[COMRAM] PTR void 
  7813 ;; Registers used:
  7814 ;;		wreg, fsr2l, fsr2h, status,2, status,0
  7815 ;; Tracked objects:
  7816 ;;		On entry : 0/0
  7817 ;;		On exit  : 0/0
  7818 ;;		Unchanged: 0/0
  7819 ;; Data sizes:     COMRAM   BANK0   BANK1   BANK2   BANK3   BANK4   BANK5
  7820 ;;      Params:         6       0       0       0       0       0       0
  7821 ;;      Locals:         4       0       0       0       0       0       0
  7822 ;;      Temps:          2       0       0       0       0       0       0
  7823 ;;      Totals:        12       0       0       0       0       0       0
  7824 ;;Total ram usage:       12 bytes
  7825 ;; Hardware stack levels used:    1
  7826 ;; This function calls:
  7827 ;;		Nothing
  7828 ;; This function is called by:
  7829 ;;		_Hi_ISR
  7830 ;; This function uses a non-reentrant model
  7831 ;;
  7832                           
  7833                           	psect	text40
  7834  0060B2                     __ptext40:
  7835                           	opt callstack 0
  7836  0060B2                     _memset:
  7837                           	opt callstack 25
  7838                           
  7839                           ;incstack = 0
  7840  0060B2  C001  F00B         	movff	memset@dest,memset@s
  7841  0060B6  C002  F00C         	movff	memset@dest+1,memset@s+1
  7842  0060BA  5005               	movf	memset@n^0,w,c
  7843  0060BC  1006               	iorwf	(memset@n+1)^0,w,c
  7844  0060BE  B4D8               	btfsc	status,2,c
  7845  0060C0  0012               	return	
  7846  0060C2  C00B  FFD9         	movff	memset@s,fsr2l
  7847  0060C6  C00C  FFDA         	movff	memset@s+1,fsr2h
  7848  0060CA  C003  FFDF         	movff	memset@c,indf2
  7849  0060CE  5005               	movf	memset@n^0,w,c
  7850  0060D0  240B               	addwf	memset@s^0,w,c
  7851  0060D2  6E07               	movwf	??_memset^0,c
  7852  0060D4  5006               	movf	(memset@n+1)^0,w,c
  7853  0060D6  200C               	addwfc	(memset@s+1)^0,w,c
  7854  0060D8  6E08               	movwf	(??_memset+1)^0,c
  7855  0060DA  0EFF               	movlw	255
  7856  0060DC  2407               	addwf	??_memset^0,w,c
  7857  0060DE  6ED9               	movwf	fsr2l,c
  7858  0060E0  0EFF               	movlw	255
  7859  0060E2  2008               	addwfc	(??_memset+1)^0,w,c
  7860  0060E4  6EDA               	movwf	fsr2h,c
  7861  0060E6  C003  FFDF         	movff	memset@c,indf2
  7862  0060EA  5006               	movf	(memset@n+1)^0,w,c
  7863  0060EC  E104               	bnz	i2l6238
  7864  0060EE  0E03               	movlw	3
  7865  0060F0  5C05               	subwf	memset@n^0,w,c
  7866  0060F2  A0D8               	btfss	status,0,c
  7867  0060F4  0012               	return	
  7868  0060F6                     i2l6238:
  7869  0060F6  EE20 F001          	lfsr	2,1
  7870  0060FA  500B               	movf	memset@s^0,w,c
  7871  0060FC  26D9               	addwf	fsr2l,f,c
  7872  0060FE  500C               	movf	(memset@s+1)^0,w,c
  7873  006100  22DA               	addwfc	fsr2h,f,c
  7874  006102  C003  FFDF         	movff	memset@c,indf2
  7875  006106  EE20 F002          	lfsr	2,2
  7876  00610A  500B               	movf	memset@s^0,w,c
  7877  00610C  26D9               	addwf	fsr2l,f,c
  7878  00610E  500C               	movf	(memset@s+1)^0,w,c
  7879  006110  22DA               	addwfc	fsr2h,f,c
  7880  006112  C003  FFDF         	movff	memset@c,indf2
  7881  006116  5005               	movf	memset@n^0,w,c
  7882  006118  240B               	addwf	memset@s^0,w,c
  7883  00611A  6E07               	movwf	??_memset^0,c
  7884  00611C  5006               	movf	(memset@n+1)^0,w,c
  7885  00611E  200C               	addwfc	(memset@s+1)^0,w,c
  7886  006120  6E08               	movwf	(??_memset+1)^0,c
  7887  006122  0EFE               	movlw	254
  7888  006124  2407               	addwf	??_memset^0,w,c
  7889  006126  6ED9               	movwf	fsr2l,c
  7890  006128  0EFF               	movlw	255
  7891  00612A  2008               	addwfc	(??_memset+1)^0,w,c
  7892  00612C  6EDA               	movwf	fsr2h,c
  7893  00612E  C003  FFDF         	movff	memset@c,indf2
  7894  006132  5005               	movf	memset@n^0,w,c
  7895  006134  240B               	addwf	memset@s^0,w,c
  7896  006136  6E07               	movwf	??_memset^0,c
  7897  006138  5006               	movf	(memset@n+1)^0,w,c
  7898  00613A  200C               	addwfc	(memset@s+1)^0,w,c
  7899  00613C  6E08               	movwf	(??_memset+1)^0,c
  7900  00613E  0EFD               	movlw	253
  7901  006140  2407               	addwf	??_memset^0,w,c
  7902  006142  6ED9               	movwf	fsr2l,c
  7903  006144  0EFF               	movlw	255
  7904  006146  2008               	addwfc	(??_memset+1)^0,w,c
  7905  006148  6EDA               	movwf	fsr2h,c
  7906  00614A  C003  FFDF         	movff	memset@c,indf2
  7907  00614E  5006               	movf	(memset@n+1)^0,w,c
  7908  006150  E104               	bnz	i2l6244
  7909  006152  0E07               	movlw	7
  7910  006154  5C05               	subwf	memset@n^0,w,c
  7911  006156  A0D8               	btfss	status,0,c
  7912  006158  0012               	return	
  7913  00615A                     i2l6244:
  7914  00615A  EE20 F003          	lfsr	2,3
  7915  00615E  500B               	movf	memset@s^0,w,c
  7916  006160  26D9               	addwf	fsr2l,f,c
  7917  006162  500C               	movf	(memset@s+1)^0,w,c
  7918  006164  22DA               	addwfc	fsr2h,f,c
  7919  006166  C003  FFDF         	movff	memset@c,indf2
  7920  00616A  5005               	movf	memset@n^0,w,c
  7921  00616C  240B               	addwf	memset@s^0,w,c
  7922  00616E  6E07               	movwf	??_memset^0,c
  7923  006170  5006               	movf	(memset@n+1)^0,w,c
  7924  006172  200C               	addwfc	(memset@s+1)^0,w,c
  7925  006174  6E08               	movwf	(??_memset+1)^0,c
  7926  006176  0EFC               	movlw	252
  7927  006178  2407               	addwf	??_memset^0,w,c
  7928  00617A  6ED9               	movwf	fsr2l,c
  7929  00617C  0EFF               	movlw	255
  7930  00617E  2008               	addwfc	(??_memset+1)^0,w,c
  7931  006180  6EDA               	movwf	fsr2h,c
  7932  006182  C003  FFDF         	movff	memset@c,indf2
  7933  006186  5006               	movf	(memset@n+1)^0,w,c
  7934  006188  E104               	bnz	i2l6250
  7935  00618A  0E09               	movlw	9
  7936  00618C  5C05               	subwf	memset@n^0,w,c
  7937  00618E  A0D8               	btfss	status,0,c
  7938  006190  0012               	return	
  7939  006192                     i2l6250:
  7940  006192  C00B  F007         	movff	memset@s,??_memset
  7941  006196  C00C  F008         	movff	memset@s+1,??_memset+1
  7942  00619A  1E07               	comf	??_memset^0,f,c
  7943  00619C  1E08               	comf	(??_memset+1)^0,f,c
  7944  00619E  4A07               	infsnz	??_memset^0,f,c
  7945  0061A0  2A08               	incf	(??_memset+1)^0,f,c
  7946  0061A2  0E03               	movlw	3
  7947  0061A4  1407               	andwf	??_memset^0,w,c
  7948  0061A6  6E09               	movwf	memset@k^0,c
  7949  0061A8  6A0A               	clrf	(memset@k+1)^0,c
  7950  0061AA  5009               	movf	memset@k^0,w,c
  7951  0061AC  260B               	addwf	memset@s^0,f,c
  7952  0061AE  500A               	movf	(memset@k+1)^0,w,c
  7953  0061B0  220C               	addwfc	(memset@s+1)^0,f,c
  7954  0061B2  5009               	movf	memset@k^0,w,c
  7955  0061B4  5E05               	subwf	memset@n^0,f,c
  7956  0061B6  500A               	movf	(memset@k+1)^0,w,c
  7957  0061B8  5A06               	subwfb	(memset@n+1)^0,f,c
  7958  0061BA  0EFC               	movlw	252
  7959  0061BC  1605               	andwf	memset@n^0,f,c
  7960  0061BE  0EFF               	movlw	255
  7961  0061C0  1606               	andwf	(memset@n+1)^0,f,c
  7962  0061C2  D00B               	goto	i2l6258
  7963  0061C4                     i2l6252:
  7964  0061C4  C00B  FFD9         	movff	memset@s,fsr2l
  7965  0061C8  C00C  FFDA         	movff	memset@s+1,fsr2h
  7966  0061CC  C003  FFDF         	movff	memset@c,indf2
  7967  0061D0  0605               	decf	memset@n^0,f,c
  7968  0061D2  A0D8               	btfss	status,0,c
  7969  0061D4  0606               	decf	(memset@n+1)^0,f,c
  7970  0061D6  4A0B               	infsnz	memset@s^0,f,c
  7971  0061D8  2A0C               	incf	(memset@s+1)^0,f,c
  7972  0061DA                     i2l6258:
  7973  0061DA  5005               	movf	memset@n^0,w,c
  7974  0061DC  1006               	iorwf	(memset@n+1)^0,w,c
  7975  0061DE  B4D8               	btfsc	status,2,c
  7976  0061E0  0012               	return	
  7977  0061E2  D7F0               	goto	i2l6252
  7978  0061E4                     __end_of_memset:
  7979                           	opt callstack 0
  7980                           
  7981 ;; *************** function _MQ_Read *****************
  7982 ;; Defined at:
  7983 ;;		line 48 in file "setting_hardaware/adc.c"
  7984 ;; Parameters:    Size  Location     Type
  7985 ;;  values          2  121[BANK0 ] PTR 
  7986 ;;		 -> value(12), 
  7987 ;; Auto vars:     Size  Location     Type
  7988 ;;  res             4  202[BANK1 ] PTR 
  7989 ;;  smoke           4  198[BANK1 ] PTR 
  7990 ;;  co              4  194[BANK1 ] PTR 
  7991 ;;  lpg             4  190[BANK1 ] PTR 
  7992 ;;  digital         2  188[BANK1 ] int 
  7993 ;; Return value:  Size  Location     Type
  7994 ;;                  1    wreg      void 
  7995 ;; Registers used:
  7996 ;;		wreg, fsr2l, fsr2h, status,2, status,0, tblptrl, tblptrh, tblptru, prodl, prodh, cstack
  7997 ;; Tracked objects:
  7998 ;;		On entry : 0/0
  7999 ;;		On exit  : 0/0
  8000 ;;		Unchanged: 0/0
  8001 ;; Data sizes:     COMRAM   BANK0   BANK1   BANK2   BANK3   BANK4   BANK5
  8002 ;;      Params:         0       2       0       0       0       0       0
  8003 ;;      Locals:         0       0      22       0       0       0       0
  8004 ;;      Temps:          0       2       0       0       0       0       0
  8005 ;;      Totals:         0       4      22       0       0       0       0
  8006 ;;Total ram usage:       26 bytes
  8007 ;; Hardware stack levels used:    1
  8008 ;; Hardware stack levels required when called:    5
  8009 ;; This function calls:
  8010 ;;		_MQGetGasPercentage
  8011 ;;		___flge
  8012 ;;		i2___fldiv
  8013 ;;		i2___flmul
  8014 ;;		i2___xxtofl
  8015 ;; This function is called by:
  8016 ;;		_Hi_ISR
  8017 ;; This function uses a non-reentrant model
  8018 ;;
  8019                           
  8020                           	psect	text41
  8021  0047CE                     __ptext41:
  8022                           	opt callstack 0
  8023  0047CE                     _MQ_Read:
  8024                           	opt callstack 20
  8025                           
  8026                           ;setting_hardaware/adc.c: 50:     int digital;;setting_hardaware/adc.c: 53:     double l
      +                          pg;;setting_hardaware/adc.c: 54:     double co;;setting_hardaware/adc.c: 55:     double 
      +                          smoke;;setting_hardaware/adc.c: 57:     ADCON0bits.CHS = 0;
  8027                           
  8028                           ;incstack = 0
  8029  0047CE  0EC3               	movlw	-61
  8030  0047D0  16C2               	andwf	194,f,c	;volatile
  8031                           
  8032                           ;setting_hardaware/adc.c: 58:     ADCON0bits.ADON = 1;
  8033  0047D2  80C2               	bsf	194,0,c	;volatile
  8034                           
  8035                           ;setting_hardaware/adc.c: 59:     ADCON0bits.GO = 1;
  8036  0047D4  82C2               	bsf	194,1,c	;volatile
  8037  0047D6                     i2l88:
  8038  0047D6  B2C2               	btfsc	194,1,c	;volatile
  8039  0047D8  D7FE               	goto	i2l88
  8040                           
  8041                           ;setting_hardaware/adc.c: 64:     digital = ADRES;
  8042  0047DA  CFC3 F1BC          	movff	4035,MQ_Read@digital	;volatile
  8043  0047DE  CFC4 F1BD          	movff	4036,MQ_Read@digital+1	;volatile
  8044                           
  8045                           ;setting_hardaware/adc.c: 67:     double res = 1.00 * (1023 - digital) / (double) digita
      +                          l;
  8046  0047E2  0E00               	movlw	0
  8047  0047E4  6E15               	movwf	i2___flmul@a^0,c
  8048  0047E6  0E00               	movlw	0
  8049  0047E8  6E16               	movwf	(i2___flmul@a+1)^0,c
  8050  0047EA  0E80               	movlw	128
  8051  0047EC  6E17               	movwf	(i2___flmul@a+2)^0,c
  8052  0047EE  0E3F               	movlw	63
  8053  0047F0  6E18               	movwf	(i2___flmul@a+3)^0,c
  8054  0047F2  0EFF               	movlw	255
  8055  0047F4  0100               	movlb	0	; () banked
  8056  0047F6  6FFB               	movwf	??_MQ_Read& (0+255),b
  8057  0047F8  0E03               	movlw	3
  8058  0047FA  6FFC               	movwf	(??_MQ_Read+1)& (0+255),b
  8059  0047FC  0101               	movlb	1	; () banked
  8060  0047FE  51BC               	movf	MQ_Read@digital& (0+255),w,b
  8061  004800  0100               	movlb	0	; () banked
  8062  004802  5FFB               	subwf	??_MQ_Read& (0+255),f,b
  8063  004804  0101               	movlb	1	; () banked
  8064  004806  51BD               	movf	(MQ_Read@digital+1)& (0+255),w,b
  8065  004808  0100               	movlb	0	; () banked
  8066  00480A  5BFC               	subwfb	(??_MQ_Read+1)& (0+255),f,b
  8067  00480C  C0FB  F001         	movff	??_MQ_Read,i2___xxtofl@val
  8068  004810  C0FC  F002         	movff	??_MQ_Read+1,i2___xxtofl@val+1
  8069  004814  0E00               	movlw	0
  8070  004816  BE02               	btfsc	(i2___xxtofl@val+1)^0,7,c
  8071  004818  0EFF               	movlw	-1
  8072  00481A  6E03               	movwf	(i2___xxtofl@val+2)^0,c
  8073  00481C  6E04               	movwf	(i2___xxtofl@val+3)^0,c
  8074  00481E  0E01               	movlw	1
  8075  004820  ECB9  F02F         	call	i2___xxtofl
  8076  004824  C001  F011         	movff	?i2___xxtofl,i2___flmul@b
  8077  004828  C002  F012         	movff	?i2___xxtofl+1,i2___flmul@b+1
  8078  00482C  C003  F013         	movff	?i2___xxtofl+2,i2___flmul@b+2
  8079  004830  C004  F014         	movff	?i2___xxtofl+3,i2___flmul@b+3
  8080  004834  EC31  F01F         	call	i2___flmul	;wreg free
  8081  004838  C011  F032         	movff	?i2___flmul,i2___fldiv@b
  8082  00483C  C012  F033         	movff	?i2___flmul+1,i2___fldiv@b+1
  8083  004840  C013  F034         	movff	?i2___flmul+2,i2___fldiv@b+2
  8084  004844  C014  F035         	movff	?i2___flmul+3,i2___fldiv@b+3
  8085  004848  C1BC  F001         	movff	MQ_Read@digital,i2___xxtofl@val
  8086  00484C  C1BD  F002         	movff	MQ_Read@digital+1,i2___xxtofl@val+1
  8087  004850  0E00               	movlw	0
  8088  004852  BE02               	btfsc	(i2___xxtofl@val+1)^0,7,c
  8089  004854  0EFF               	movlw	-1
  8090  004856  6E03               	movwf	(i2___xxtofl@val+2)^0,c
  8091  004858  6E04               	movwf	(i2___xxtofl@val+3)^0,c
  8092  00485A  0E01               	movlw	1
  8093  00485C  ECB9  F02F         	call	i2___xxtofl
  8094  004860  C001  F036         	movff	?i2___xxtofl,i2___fldiv@a
  8095  004864  C002  F037         	movff	?i2___xxtofl+1,i2___fldiv@a+1
  8096  004868  C003  F038         	movff	?i2___xxtofl+2,i2___fldiv@a+2
  8097  00486C  C004  F039         	movff	?i2___xxtofl+3,i2___fldiv@a+3
  8098  004870  EC98  F026         	call	i2___fldiv	;wreg free
  8099  004874  C032  F1CA         	movff	?i2___fldiv,MQ_Read@res
  8100  004878  C033  F1CB         	movff	?i2___fldiv+1,MQ_Read@res+1
  8101  00487C  C034  F1CC         	movff	?i2___fldiv+2,MQ_Read@res+2
  8102  004880  C035  F1CD         	movff	?i2___fldiv+3,MQ_Read@res+3
  8103                           
  8104                           ;setting_hardaware/adc.c: 68:     lpg = MQGetGasPercentage(res / Ro, GAS_LPG);
  8105  004884  C1CA  F032         	movff	MQ_Read@res,i2___fldiv@b
  8106  004888  C1CB  F033         	movff	MQ_Read@res+1,i2___fldiv@b+1
  8107  00488C  C1CC  F034         	movff	MQ_Read@res+2,i2___fldiv@b+2
  8108  004890  C1CD  F035         	movff	MQ_Read@res+3,i2___fldiv@b+3
  8109  004894  C1E1  F036         	movff	_Ro,i2___fldiv@a
  8110  004898  C1E2  F037         	movff	_Ro+1,i2___fldiv@a+1
  8111  00489C  C1E3  F038         	movff	_Ro+2,i2___fldiv@a+2
  8112  0048A0  C1E4  F039         	movff	_Ro+3,i2___fldiv@a+3
  8113  0048A4  EC98  F026         	call	i2___fldiv	;wreg free
  8114  0048A8  C032  F1CE         	movff	?i2___fldiv,_MQ_Read$2093
  8115  0048AC  C033  F1CF         	movff	?i2___fldiv+1,_MQ_Read$2093+1
  8116  0048B0  C034  F1D0         	movff	?i2___fldiv+2,_MQ_Read$2093+2
  8117  0048B4  C035  F1D1         	movff	?i2___fldiv+3,_MQ_Read$2093+3
  8118                           
  8119                           ;setting_hardaware/adc.c: 68:     lpg = MQGetGasPercentage(res / Ro, GAS_LPG);
  8120  0048B8  C1CE  F0EF         	movff	_MQ_Read$2093,MQGetGasPercentage@rs_ro_ratio
  8121  0048BC  C1CF  F0F0         	movff	_MQ_Read$2093+1,MQGetGasPercentage@rs_ro_ratio+1
  8122  0048C0  C1D0  F0F1         	movff	_MQ_Read$2093+2,MQGetGasPercentage@rs_ro_ratio+2
  8123  0048C4  C1D1  F0F2         	movff	_MQ_Read$2093+3,MQGetGasPercentage@rs_ro_ratio+3
  8124  0048C8  C1EF  F0F3         	movff	_GAS_LPG,MQGetGasPercentage@gas_id
  8125  0048CC  C1F0  F0F4         	movff	_GAS_LPG+1,MQGetGasPercentage@gas_id+1
  8126  0048D0  EC25  F02D         	call	_MQGetGasPercentage	;wreg free
  8127  0048D4  C0EF  F1BE         	movff	?_MQGetGasPercentage,MQ_Read@lpg
  8128  0048D8  C0F0  F1BF         	movff	?_MQGetGasPercentage+1,MQ_Read@lpg+1
  8129  0048DC  C0F1  F1C0         	movff	?_MQGetGasPercentage+2,MQ_Read@lpg+2
  8130  0048E0  C0F2  F1C1         	movff	?_MQGetGasPercentage+3,MQ_Read@lpg+3
  8131                           
  8132                           ;setting_hardaware/adc.c: 69:     if (lpg >= 9000) {
  8133  0048E4  C1BE  F032         	movff	MQ_Read@lpg,___flge@ff1
  8134  0048E8  C1BF  F033         	movff	MQ_Read@lpg+1,___flge@ff1+1
  8135  0048EC  C1C0  F034         	movff	MQ_Read@lpg+2,___flge@ff1+2
  8136  0048F0  C1C1  F035         	movff	MQ_Read@lpg+3,___flge@ff1+3
  8137  0048F4  0E00               	movlw	0
  8138  0048F6  6E36               	movwf	___flge@ff2^0,c
  8139  0048F8  0EA0               	movlw	160
  8140  0048FA  6E37               	movwf	(___flge@ff2+1)^0,c
  8141  0048FC  0E0C               	movlw	12
  8142  0048FE  6E38               	movwf	(___flge@ff2+2)^0,c
  8143  004900  0E46               	movlw	70
  8144  004902  6E39               	movwf	(___flge@ff2+3)^0,c
  8145  004904  EC0E  F032         	call	___flge	;wreg free
  8146  004908  A0D8               	btfss	status,0,c
  8147  00490A  D009               	goto	i2l6174
  8148                           
  8149                           ;setting_hardaware/adc.c: 70:         lpg = 9000;
  8150  00490C  0E00               	movlw	0
  8151  00490E  0101               	movlb	1	; () banked
  8152  004910  6FBE               	movwf	MQ_Read@lpg& (0+255),b
  8153  004912  0EA0               	movlw	160
  8154  004914  6FBF               	movwf	(MQ_Read@lpg+1)& (0+255),b
  8155  004916  0E0C               	movlw	12
  8156  004918  6FC0               	movwf	(MQ_Read@lpg+2)& (0+255),b
  8157  00491A  0E46               	movlw	70
  8158  00491C  6FC1               	movwf	(MQ_Read@lpg+3)& (0+255),b
  8159  00491E                     i2l6174:
  8160                           
  8161                           ;setting_hardaware/adc.c: 72:     co = MQGetGasPercentage(res / Ro, GAS_CO);
  8162  00491E  C1CA  F032         	movff	MQ_Read@res,i2___fldiv@b
  8163  004922  C1CB  F033         	movff	MQ_Read@res+1,i2___fldiv@b+1
  8164  004926  C1CC  F034         	movff	MQ_Read@res+2,i2___fldiv@b+2
  8165  00492A  C1CD  F035         	movff	MQ_Read@res+3,i2___fldiv@b+3
  8166  00492E  C1E1  F036         	movff	_Ro,i2___fldiv@a
  8167  004932  C1E2  F037         	movff	_Ro+1,i2___fldiv@a+1
  8168  004936  C1E3  F038         	movff	_Ro+2,i2___fldiv@a+2
  8169  00493A  C1E4  F039         	movff	_Ro+3,i2___fldiv@a+3
  8170  00493E  EC98  F026         	call	i2___fldiv	;wreg free
  8171  004942  C032  F1CE         	movff	?i2___fldiv,_MQ_Read$2093
  8172  004946  C033  F1CF         	movff	?i2___fldiv+1,_MQ_Read$2093+1
  8173  00494A  C034  F1D0         	movff	?i2___fldiv+2,_MQ_Read$2093+2
  8174  00494E  C035  F1D1         	movff	?i2___fldiv+3,_MQ_Read$2093+3
  8175                           
  8176                           ;setting_hardaware/adc.c: 72:     co = MQGetGasPercentage(res / Ro, GAS_CO);
  8177  004952  C1CE  F0EF         	movff	_MQ_Read$2093,MQGetGasPercentage@rs_ro_ratio
  8178  004956  C1CF  F0F0         	movff	_MQ_Read$2093+1,MQGetGasPercentage@rs_ro_ratio+1
  8179  00495A  C1D0  F0F1         	movff	_MQ_Read$2093+2,MQGetGasPercentage@rs_ro_ratio+2
  8180  00495E  C1D1  F0F2         	movff	_MQ_Read$2093+3,MQGetGasPercentage@rs_ro_ratio+3
  8181  004962  C1F9  F0F3         	movff	_GAS_CO,MQGetGasPercentage@gas_id
  8182  004966  C1FA  F0F4         	movff	_GAS_CO+1,MQGetGasPercentage@gas_id+1
  8183  00496A  EC25  F02D         	call	_MQGetGasPercentage	;wreg free
  8184  00496E  C0EF  F1C2         	movff	?_MQGetGasPercentage,MQ_Read@co
  8185  004972  C0F0  F1C3         	movff	?_MQGetGasPercentage+1,MQ_Read@co+1
  8186  004976  C0F1  F1C4         	movff	?_MQGetGasPercentage+2,MQ_Read@co+2
  8187  00497A  C0F2  F1C5         	movff	?_MQGetGasPercentage+3,MQ_Read@co+3
  8188                           
  8189                           ;setting_hardaware/adc.c: 73:     if (co >= 9000) {
  8190  00497E  C1C2  F032         	movff	MQ_Read@co,___flge@ff1
  8191  004982  C1C3  F033         	movff	MQ_Read@co+1,___flge@ff1+1
  8192  004986  C1C4  F034         	movff	MQ_Read@co+2,___flge@ff1+2
  8193  00498A  C1C5  F035         	movff	MQ_Read@co+3,___flge@ff1+3
  8194  00498E  0E00               	movlw	0
  8195  004990  6E36               	movwf	___flge@ff2^0,c
  8196  004992  0EA0               	movlw	160
  8197  004994  6E37               	movwf	(___flge@ff2+1)^0,c
  8198  004996  0E0C               	movlw	12
  8199  004998  6E38               	movwf	(___flge@ff2+2)^0,c
  8200  00499A  0E46               	movlw	70
  8201  00499C  6E39               	movwf	(___flge@ff2+3)^0,c
  8202  00499E  EC0E  F032         	call	___flge	;wreg free
  8203  0049A2  A0D8               	btfss	status,0,c
  8204  0049A4  D009               	goto	i2l6182
  8205                           
  8206                           ;setting_hardaware/adc.c: 74:         co = 9000;
  8207  0049A6  0E00               	movlw	0
  8208  0049A8  0101               	movlb	1	; () banked
  8209  0049AA  6FC2               	movwf	MQ_Read@co& (0+255),b
  8210  0049AC  0EA0               	movlw	160
  8211  0049AE  6FC3               	movwf	(MQ_Read@co+1)& (0+255),b
  8212  0049B0  0E0C               	movlw	12
  8213  0049B2  6FC4               	movwf	(MQ_Read@co+2)& (0+255),b
  8214  0049B4  0E46               	movlw	70
  8215  0049B6  6FC5               	movwf	(MQ_Read@co+3)& (0+255),b
  8216  0049B8                     i2l6182:
  8217                           
  8218                           ;setting_hardaware/adc.c: 76:     smoke = MQGetGasPercentage(res / Ro, GAS_SMOKE);
  8219  0049B8  C1CA  F032         	movff	MQ_Read@res,i2___fldiv@b
  8220  0049BC  C1CB  F033         	movff	MQ_Read@res+1,i2___fldiv@b+1
  8221  0049C0  C1CC  F034         	movff	MQ_Read@res+2,i2___fldiv@b+2
  8222  0049C4  C1CD  F035         	movff	MQ_Read@res+3,i2___fldiv@b+3
  8223  0049C8  C1E1  F036         	movff	_Ro,i2___fldiv@a
  8224  0049CC  C1E2  F037         	movff	_Ro+1,i2___fldiv@a+1
  8225  0049D0  C1E3  F038         	movff	_Ro+2,i2___fldiv@a+2
  8226  0049D4  C1E4  F039         	movff	_Ro+3,i2___fldiv@a+3
  8227  0049D8  EC98  F026         	call	i2___fldiv	;wreg free
  8228  0049DC  C032  F1CE         	movff	?i2___fldiv,_MQ_Read$2093
  8229  0049E0  C033  F1CF         	movff	?i2___fldiv+1,_MQ_Read$2093+1
  8230  0049E4  C034  F1D0         	movff	?i2___fldiv+2,_MQ_Read$2093+2
  8231  0049E8  C035  F1D1         	movff	?i2___fldiv+3,_MQ_Read$2093+3
  8232                           
  8233                           ;setting_hardaware/adc.c: 76:     smoke = MQGetGasPercentage(res / Ro, GAS_SMOKE);
  8234  0049EC  C1CE  F0EF         	movff	_MQ_Read$2093,MQGetGasPercentage@rs_ro_ratio
  8235  0049F0  C1CF  F0F0         	movff	_MQ_Read$2093+1,MQGetGasPercentage@rs_ro_ratio+1
  8236  0049F4  C1D0  F0F1         	movff	_MQ_Read$2093+2,MQGetGasPercentage@rs_ro_ratio+2
  8237  0049F8  C1D1  F0F2         	movff	_MQ_Read$2093+3,MQGetGasPercentage@rs_ro_ratio+3
  8238  0049FC  C1F7  F0F3         	movff	_GAS_SMOKE,MQGetGasPercentage@gas_id
  8239  004A00  C1F8  F0F4         	movff	_GAS_SMOKE+1,MQGetGasPercentage@gas_id+1
  8240  004A04  EC25  F02D         	call	_MQGetGasPercentage	;wreg free
  8241  004A08  C0EF  F1C6         	movff	?_MQGetGasPercentage,MQ_Read@smoke
  8242  004A0C  C0F0  F1C7         	movff	?_MQGetGasPercentage+1,MQ_Read@smoke+1
  8243  004A10  C0F1  F1C8         	movff	?_MQGetGasPercentage+2,MQ_Read@smoke+2
  8244  004A14  C0F2  F1C9         	movff	?_MQGetGasPercentage+3,MQ_Read@smoke+3
  8245                           
  8246                           ;setting_hardaware/adc.c: 77:     if (smoke >= 9000) {
  8247  004A18  C1C6  F032         	movff	MQ_Read@smoke,___flge@ff1
  8248  004A1C  C1C7  F033         	movff	MQ_Read@smoke+1,___flge@ff1+1
  8249  004A20  C1C8  F034         	movff	MQ_Read@smoke+2,___flge@ff1+2
  8250  004A24  C1C9  F035         	movff	MQ_Read@smoke+3,___flge@ff1+3
  8251  004A28  0E00               	movlw	0
  8252  004A2A  6E36               	movwf	___flge@ff2^0,c
  8253  004A2C  0EA0               	movlw	160
  8254  004A2E  6E37               	movwf	(___flge@ff2+1)^0,c
  8255  004A30  0E0C               	movlw	12
  8256  004A32  6E38               	movwf	(___flge@ff2+2)^0,c
  8257  004A34  0E46               	movlw	70
  8258  004A36  6E39               	movwf	(___flge@ff2+3)^0,c
  8259  004A38  EC0E  F032         	call	___flge	;wreg free
  8260  004A3C  A0D8               	btfss	status,0,c
  8261  004A3E  D009               	goto	i2l6190
  8262                           
  8263                           ;setting_hardaware/adc.c: 78:         smoke = 9000;
  8264  004A40  0E00               	movlw	0
  8265  004A42  0101               	movlb	1	; () banked
  8266  004A44  6FC6               	movwf	MQ_Read@smoke& (0+255),b
  8267  004A46  0EA0               	movlw	160
  8268  004A48  6FC7               	movwf	(MQ_Read@smoke+1)& (0+255),b
  8269  004A4A  0E0C               	movlw	12
  8270  004A4C  6FC8               	movwf	(MQ_Read@smoke+2)& (0+255),b
  8271  004A4E  0E46               	movlw	70
  8272  004A50  6FC9               	movwf	(MQ_Read@smoke+3)& (0+255),b
  8273  004A52                     i2l6190:
  8274                           
  8275                           ;setting_hardaware/adc.c: 82:     values[0] = lpg;
  8276  004A52  C0F9  FFD9         	movff	MQ_Read@values,fsr2l
  8277  004A56  C0FA  FFDA         	movff	MQ_Read@values+1,fsr2h
  8278  004A5A  C1BE  FFDE         	movff	MQ_Read@lpg,postinc2
  8279  004A5E  C1BF  FFDE         	movff	MQ_Read@lpg+1,postinc2
  8280  004A62  C1C0  FFDE         	movff	MQ_Read@lpg+2,postinc2
  8281  004A66  C1C1  FFDE         	movff	MQ_Read@lpg+3,postinc2
  8282                           
  8283                           ;setting_hardaware/adc.c: 83:     values[1] = co;
  8284  004A6A  0100               	movlb	0	; () banked
  8285  004A6C  EE20 F004          	lfsr	2,4
  8286  004A70  51F9               	movf	MQ_Read@values& (0+255),w,b
  8287  004A72  26D9               	addwf	fsr2l,f,c
  8288  004A74  51FA               	movf	(MQ_Read@values+1)& (0+255),w,b
  8289  004A76  22DA               	addwfc	fsr2h,f,c
  8290  004A78  C1C2  FFDE         	movff	MQ_Read@co,postinc2
  8291  004A7C  C1C3  FFDE         	movff	MQ_Read@co+1,postinc2
  8292  004A80  C1C4  FFDE         	movff	MQ_Read@co+2,postinc2
  8293  004A84  C1C5  FFDE         	movff	MQ_Read@co+3,postinc2
  8294                           
  8295                           ; BSR set to: 0
  8296                           ;setting_hardaware/adc.c: 84:     values[2] = smoke;
  8297  004A88  EE20 F008          	lfsr	2,8
  8298  004A8C  51F9               	movf	MQ_Read@values& (0+255),w,b
  8299  004A8E  26D9               	addwf	fsr2l,f,c
  8300  004A90  51FA               	movf	(MQ_Read@values+1)& (0+255),w,b
  8301  004A92  22DA               	addwfc	fsr2h,f,c
  8302  004A94  C1C6  FFDE         	movff	MQ_Read@smoke,postinc2
  8303  004A98  C1C7  FFDE         	movff	MQ_Read@smoke+1,postinc2
  8304  004A9C  C1C8  FFDE         	movff	MQ_Read@smoke+2,postinc2
  8305  004AA0  C1C9  FFDE         	movff	MQ_Read@smoke+3,postinc2
  8306                           
  8307                           ; BSR set to: 0
  8308  004AA4  0012               	return		;funcret
  8309  004AA6                     __end_of_MQ_Read:
  8310                           	opt callstack 0
  8311                           
  8312 ;; *************** function _MQGetGasPercentage *****************
  8313 ;; Defined at:
  8314 ;;		line 32 in file "setting_hardaware/adc.c"
  8315 ;; Parameters:    Size  Location     Type
  8316 ;;  rs_ro_ratio     4  111[BANK0 ] void 
  8317 ;;  gas_id          2  115[BANK0 ] int 
  8318 ;; Auto vars:     Size  Location     Type
  8319 ;;		None
  8320 ;; Return value:  Size  Location     Type
  8321 ;;                  4  111[BANK0 ] int 
  8322 ;; Registers used:
  8323 ;;		wreg, fsr2l, fsr2h, status,2, status,0, tblptrl, tblptrh, tblptru, prodl, prodh, cstack
  8324 ;; Tracked objects:
  8325 ;;		On entry : 0/0
  8326 ;;		On exit  : 0/0
  8327 ;;		Unchanged: 0/0
  8328 ;; Data sizes:     COMRAM   BANK0   BANK1   BANK2   BANK3   BANK4   BANK5
  8329 ;;      Params:         0       6       0       0       0       0       0
  8330 ;;      Locals:         0       4       0       0       0       0       0
  8331 ;;      Temps:          0       0       0       0       0       0       0
  8332 ;;      Totals:         0      10       0       0       0       0       0
  8333 ;;Total ram usage:       10 bytes
  8334 ;; Hardware stack levels used:    1
  8335 ;; Hardware stack levels required when called:    4
  8336 ;; This function calls:
  8337 ;;		_MQGetPercentage
  8338 ;;		i2___xxtofl
  8339 ;; This function is called by:
  8340 ;;		_MQ_Read
  8341 ;; This function uses a non-reentrant model
  8342 ;;
  8343                           
  8344                           	psect	text42
  8345  005A4A                     __ptext42:
  8346                           	opt callstack 0
  8347  005A4A                     _MQGetGasPercentage:
  8348                           	opt callstack 20
  8349                           
  8350                           ;setting_hardaware/adc.c: 33:     if (gas_id == GAS_LPG) {
  8351                           
  8352                           ; BSR set to: 0
  8353                           ;incstack = 0
  8354  005A4A  0101               	movlb	1	; () banked
  8355  005A4C  51EF               	movf	_GAS_LPG& (0+255),w,b
  8356  005A4E  0100               	movlb	0	; () banked
  8357  005A50  19F3               	xorwf	MQGetGasPercentage@gas_id& (0+255),w,b
  8358  005A52  E132               	bnz	i2l6098
  8359  005A54  0101               	movlb	1	; () banked
  8360  005A56  51F0               	movf	(_GAS_LPG+1)& (0+255),w,b
  8361  005A58  0100               	movlb	0	; () banked
  8362  005A5A  19F4               	xorwf	(MQGetGasPercentage@gas_id+1)& (0+255),w,b
  8363  005A5C  A4D8               	btfss	status,2,c
  8364  005A5E  D02C               	goto	i2l6098
  8365                           
  8366                           ; BSR set to: 0
  8367                           ;setting_hardaware/adc.c: 34:         return MQGetPercentage(rs_ro_ratio, LPGCurve);
  8368  005A60  0E96               	movlw	low _LPGCurve
  8369  005A62  6FE1               	movwf	MQGetPercentage@pcurve& (0+255),b
  8370  005A64  0E02               	movlw	high _LPGCurve
  8371  005A66  6FE2               	movwf	(MQGetPercentage@pcurve+1)& (0+255),b
  8372  005A68  C0EF  F0DD         	movff	MQGetGasPercentage@rs_ro_ratio,MQGetPercentage@rs_ro_ratio
  8373  005A6C  C0F0  F0DE         	movff	MQGetGasPercentage@rs_ro_ratio+1,MQGetPercentage@rs_ro_ratio+1
  8374  005A70  C0F1  F0DF         	movff	MQGetGasPercentage@rs_ro_ratio+2,MQGetPercentage@rs_ro_ratio+2
  8375  005A74  C0F2  F0E0         	movff	MQGetGasPercentage@rs_ro_ratio+3,MQGetPercentage@rs_ro_ratio+3
  8376  005A78  EC84  F031         	call	_MQGetPercentage	;wreg free
  8377  005A7C  0100               	movlb	0	; () banked
  8378  005A7E  C0DD  F0F5         	movff	?_MQGetPercentage,_MQGetGasPercentage$2092
  8379  005A82  C0DE  F0F6         	movff	?_MQGetPercentage+1,_MQGetGasPercentage$2092+1
  8380  005A86  0E00               	movlw	0
  8381  005A88  BFF6               	btfsc	(_MQGetGasPercentage$2092+1)& (0+255),7,b
  8382  005A8A  0EFF               	movlw	-1
  8383  005A8C  6FF7               	movwf	(_MQGetGasPercentage$2092+2)& (0+255),b
  8384  005A8E  6FF8               	movwf	(_MQGetGasPercentage$2092+3)& (0+255),b
  8385                           
  8386                           ; BSR set to: 0
  8387                           ;setting_hardaware/adc.c: 34:         return MQGetPercentage(rs_ro_ratio, LPGCurve);
  8388  005A90  C0F5  F001         	movff	_MQGetGasPercentage$2092,i2___xxtofl@val
  8389  005A94  C0F6  F002         	movff	_MQGetGasPercentage$2092+1,i2___xxtofl@val+1
  8390  005A98  C0F7  F003         	movff	_MQGetGasPercentage$2092+2,i2___xxtofl@val+2
  8391  005A9C  C0F8  F004         	movff	_MQGetGasPercentage$2092+3,i2___xxtofl@val+3
  8392  005AA0  0E01               	movlw	1
  8393  005AA2  ECB9  F02F         	call	i2___xxtofl
  8394  005AA6  C001  F0EF         	movff	?i2___xxtofl,?_MQGetGasPercentage
  8395  005AAA  C002  F0F0         	movff	?i2___xxtofl+1,?_MQGetGasPercentage+1
  8396  005AAE  C003  F0F1         	movff	?i2___xxtofl+2,?_MQGetGasPercentage+2
  8397  005AB2  C004  F0F2         	movff	?i2___xxtofl+3,?_MQGetGasPercentage+3
  8398  005AB6  0012               	return	
  8399  005AB8                     i2l6098:
  8400                           
  8401                           ; BSR set to: 0
  8402  005AB8  0101               	movlb	1	; () banked
  8403  005ABA  51F9               	movf	_GAS_CO& (0+255),w,b
  8404  005ABC  0100               	movlb	0	; () banked
  8405  005ABE  19F3               	xorwf	MQGetGasPercentage@gas_id& (0+255),w,b
  8406  005AC0  E132               	bnz	i2l6108
  8407  005AC2  0101               	movlb	1	; () banked
  8408  005AC4  51FA               	movf	(_GAS_CO+1)& (0+255),w,b
  8409  005AC6  0100               	movlb	0	; () banked
  8410  005AC8  19F4               	xorwf	(MQGetGasPercentage@gas_id+1)& (0+255),w,b
  8411  005ACA  A4D8               	btfss	status,2,c
  8412  005ACC  D02C               	goto	i2l6108
  8413                           
  8414                           ; BSR set to: 0
  8415                           ;setting_hardaware/adc.c: 36:         return MQGetPercentage(rs_ro_ratio, COCurve);
  8416  005ACE  0E8A               	movlw	low _COCurve
  8417  005AD0  6FE1               	movwf	MQGetPercentage@pcurve& (0+255),b
  8418  005AD2  0E02               	movlw	high _COCurve
  8419  005AD4  6FE2               	movwf	(MQGetPercentage@pcurve+1)& (0+255),b
  8420  005AD6  C0EF  F0DD         	movff	MQGetGasPercentage@rs_ro_ratio,MQGetPercentage@rs_ro_ratio
  8421  005ADA  C0F0  F0DE         	movff	MQGetGasPercentage@rs_ro_ratio+1,MQGetPercentage@rs_ro_ratio+1
  8422  005ADE  C0F1  F0DF         	movff	MQGetGasPercentage@rs_ro_ratio+2,MQGetPercentage@rs_ro_ratio+2
  8423  005AE2  C0F2  F0E0         	movff	MQGetGasPercentage@rs_ro_ratio+3,MQGetPercentage@rs_ro_ratio+3
  8424  005AE6  EC84  F031         	call	_MQGetPercentage	;wreg free
  8425  005AEA  0100               	movlb	0	; () banked
  8426  005AEC  C0DD  F0F5         	movff	?_MQGetPercentage,_MQGetGasPercentage$2092
  8427  005AF0  C0DE  F0F6         	movff	?_MQGetPercentage+1,_MQGetGasPercentage$2092+1
  8428  005AF4  0E00               	movlw	0
  8429  005AF6  BFF6               	btfsc	(_MQGetGasPercentage$2092+1)& (0+255),7,b
  8430  005AF8  0EFF               	movlw	-1
  8431  005AFA  6FF7               	movwf	(_MQGetGasPercentage$2092+2)& (0+255),b
  8432  005AFC  6FF8               	movwf	(_MQGetGasPercentage$2092+3)& (0+255),b
  8433                           
  8434                           ; BSR set to: 0
  8435                           ;setting_hardaware/adc.c: 36:         return MQGetPercentage(rs_ro_ratio, COCurve);
  8436  005AFE  C0F5  F001         	movff	_MQGetGasPercentage$2092,i2___xxtofl@val
  8437  005B02  C0F6  F002         	movff	_MQGetGasPercentage$2092+1,i2___xxtofl@val+1
  8438  005B06  C0F7  F003         	movff	_MQGetGasPercentage$2092+2,i2___xxtofl@val+2
  8439  005B0A  C0F8  F004         	movff	_MQGetGasPercentage$2092+3,i2___xxtofl@val+3
  8440  005B0E  0E01               	movlw	1
  8441  005B10  ECB9  F02F         	call	i2___xxtofl
  8442  005B14  C001  F0EF         	movff	?i2___xxtofl,?_MQGetGasPercentage
  8443  005B18  C002  F0F0         	movff	?i2___xxtofl+1,?_MQGetGasPercentage+1
  8444  005B1C  C003  F0F1         	movff	?i2___xxtofl+2,?_MQGetGasPercentage+2
  8445  005B20  C004  F0F2         	movff	?i2___xxtofl+3,?_MQGetGasPercentage+3
  8446  005B24  0012               	return	
  8447  005B26                     i2l6108:
  8448                           
  8449                           ; BSR set to: 0
  8450  005B26  0101               	movlb	1	; () banked
  8451  005B28  51F7               	movf	_GAS_SMOKE& (0+255),w,b
  8452  005B2A  0100               	movlb	0	; () banked
  8453  005B2C  19F3               	xorwf	MQGetGasPercentage@gas_id& (0+255),w,b
  8454  005B2E  E132               	bnz	i2l6116
  8455  005B30  0101               	movlb	1	; () banked
  8456  005B32  51F8               	movf	(_GAS_SMOKE+1)& (0+255),w,b
  8457  005B34  0100               	movlb	0	; () banked
  8458  005B36  19F4               	xorwf	(MQGetGasPercentage@gas_id+1)& (0+255),w,b
  8459  005B38  A4D8               	btfss	status,2,c
  8460  005B3A  D02C               	goto	i2l6116
  8461                           
  8462                           ; BSR set to: 0
  8463                           ;setting_hardaware/adc.c: 38:         return MQGetPercentage(rs_ro_ratio, SmokeCurve);
  8464  005B3C  0E7E               	movlw	low _SmokeCurve
  8465  005B3E  6FE1               	movwf	MQGetPercentage@pcurve& (0+255),b
  8466  005B40  0E02               	movlw	high _SmokeCurve
  8467  005B42  6FE2               	movwf	(MQGetPercentage@pcurve+1)& (0+255),b
  8468  005B44  C0EF  F0DD         	movff	MQGetGasPercentage@rs_ro_ratio,MQGetPercentage@rs_ro_ratio
  8469  005B48  C0F0  F0DE         	movff	MQGetGasPercentage@rs_ro_ratio+1,MQGetPercentage@rs_ro_ratio+1
  8470  005B4C  C0F1  F0DF         	movff	MQGetGasPercentage@rs_ro_ratio+2,MQGetPercentage@rs_ro_ratio+2
  8471  005B50  C0F2  F0E0         	movff	MQGetGasPercentage@rs_ro_ratio+3,MQGetPercentage@rs_ro_ratio+3
  8472  005B54  EC84  F031         	call	_MQGetPercentage	;wreg free
  8473  005B58  0100               	movlb	0	; () banked
  8474  005B5A  C0DD  F0F5         	movff	?_MQGetPercentage,_MQGetGasPercentage$2092
  8475  005B5E  C0DE  F0F6         	movff	?_MQGetPercentage+1,_MQGetGasPercentage$2092+1
  8476  005B62  0E00               	movlw	0
  8477  005B64  BFF6               	btfsc	(_MQGetGasPercentage$2092+1)& (0+255),7,b
  8478  005B66  0EFF               	movlw	-1
  8479  005B68  6FF7               	movwf	(_MQGetGasPercentage$2092+2)& (0+255),b
  8480  005B6A  6FF8               	movwf	(_MQGetGasPercentage$2092+3)& (0+255),b
  8481                           
  8482                           ; BSR set to: 0
  8483                           ;setting_hardaware/adc.c: 38:         return MQGetPercentage(rs_ro_ratio, SmokeCurve);
  8484  005B6C  C0F5  F001         	movff	_MQGetGasPercentage$2092,i2___xxtofl@val
  8485  005B70  C0F6  F002         	movff	_MQGetGasPercentage$2092+1,i2___xxtofl@val+1
  8486  005B74  C0F7  F003         	movff	_MQGetGasPercentage$2092+2,i2___xxtofl@val+2
  8487  005B78  C0F8  F004         	movff	_MQGetGasPercentage$2092+3,i2___xxtofl@val+3
  8488  005B7C  0E01               	movlw	1
  8489  005B7E  ECB9  F02F         	call	i2___xxtofl
  8490  005B82  C001  F0EF         	movff	?i2___xxtofl,?_MQGetGasPercentage
  8491  005B86  C002  F0F0         	movff	?i2___xxtofl+1,?_MQGetGasPercentage+1
  8492  005B8A  C003  F0F1         	movff	?i2___xxtofl+2,?_MQGetGasPercentage+2
  8493  005B8E  C004  F0F2         	movff	?i2___xxtofl+3,?_MQGetGasPercentage+3
  8494  005B92  0012               	return	
  8495  005B94                     i2l6116:
  8496                           
  8497                           ; BSR set to: 0
  8498                           ;setting_hardaware/adc.c: 40:     return 0;
  8499  005B94  0E00               	movlw	0
  8500  005B96  6FEF               	movwf	?_MQGetGasPercentage& (0+255),b
  8501  005B98  0E00               	movlw	0
  8502  005B9A  6FF0               	movwf	(?_MQGetGasPercentage+1)& (0+255),b
  8503  005B9C  0E00               	movlw	0
  8504  005B9E  6FF1               	movwf	(?_MQGetGasPercentage+2)& (0+255),b
  8505  005BA0  0E00               	movlw	0
  8506  005BA2  6FF2               	movwf	(?_MQGetGasPercentage+3)& (0+255),b
  8507  005BA4  0012               	return		;funcret
  8508  005BA6                     __end_of_MQGetGasPercentage:
  8509                           	opt callstack 0
  8510                           
  8511 ;; *************** function _MQGetPercentage *****************
  8512 ;; Defined at:
  8513 ;;		line 22 in file "setting_hardaware/adc.c"
  8514 ;; Parameters:    Size  Location     Type
  8515 ;;  rs_ro_ratio     4   93[BANK0 ] int 
  8516 ;;  pcurve          2   97[BANK0 ] PTR 
  8517 ;;		 -> SmokeCurve(12), COCurve(12), LPGCurve(12), 
  8518 ;; Auto vars:     Size  Location     Type
  8519 ;;		None
  8520 ;; Return value:  Size  Location     Type
  8521 ;;                  2   93[BANK0 ] int 
  8522 ;; Registers used:
  8523 ;;		wreg, fsr2l, fsr2h, status,2, status,0, tblptrl, tblptrh, tblptru, prodl, prodh, cstack
  8524 ;; Tracked objects:
  8525 ;;		On entry : 0/0
  8526 ;;		On exit  : 0/0
  8527 ;;		Unchanged: 0/0
  8528 ;; Data sizes:     COMRAM   BANK0   BANK1   BANK2   BANK3   BANK4   BANK5
  8529 ;;      Params:         0       6       0       0       0       0       0
  8530 ;;      Locals:         0      12       0       0       0       0       0
  8531 ;;      Temps:          0       0       0       0       0       0       0
  8532 ;;      Totals:         0      18       0       0       0       0       0
  8533 ;;Total ram usage:       18 bytes
  8534 ;; Hardware stack levels used:    1
  8535 ;; Hardware stack levels required when called:    3
  8536 ;; This function calls:
  8537 ;;		___flsub
  8538 ;;		___fltol
  8539 ;;		_log10f
  8540 ;;		_powf
  8541 ;;		i2___fladd
  8542 ;;		i2___fldiv
  8543 ;; This function is called by:
  8544 ;;		_MQGetGasPercentage
  8545 ;; This function uses a non-reentrant model
  8546 ;;
  8547                           
  8548                           	psect	text43
  8549  006308                     __ptext43:
  8550                           	opt callstack 0
  8551  006308                     _MQGetPercentage:
  8552                           	opt callstack 20
  8553                           
  8554                           ;setting_hardaware/adc.c: 23:     return (powf(10,(((log10f(rs_ro_ratio) - pcurve[1]) / 
      +                          pcurve[2]) + pcurve[0])));
  8555                           
  8556                           ;incstack = 0
  8557  006308  C0DD  F04B         	movff	MQGetPercentage@rs_ro_ratio,log10f@x
  8558  00630C  C0DE  F04C         	movff	MQGetPercentage@rs_ro_ratio+1,log10f@x+1
  8559  006310  C0DF  F04D         	movff	MQGetPercentage@rs_ro_ratio+2,log10f@x+2
  8560  006314  C0E0  F04E         	movff	MQGetPercentage@rs_ro_ratio+3,log10f@x+3
  8561  006318  EC2A  F017         	call	_log10f	;wreg free
  8562  00631C  C04B  F0E3         	movff	?_log10f,_MQGetPercentage$1955
  8563  006320  C04C  F0E4         	movff	?_log10f+1,_MQGetPercentage$1955+1
  8564  006324  C04D  F0E5         	movff	?_log10f+2,_MQGetPercentage$1955+2
  8565  006328  C04E  F0E6         	movff	?_log10f+3,_MQGetPercentage$1955+3
  8566                           
  8567                           ;setting_hardaware/adc.c: 23:     return (powf(10,(((log10f(rs_ro_ratio) - pcurve[1]) / 
      +                          pcurve[2]) + pcurve[0])));
  8568  00632C  0100               	movlb	0	; () banked
  8569  00632E  EE20 F008          	lfsr	2,8
  8570  006332  51E1               	movf	MQGetPercentage@pcurve& (0+255),w,b
  8571  006334  26D9               	addwf	fsr2l,f,c
  8572  006336  51E2               	movf	(MQGetPercentage@pcurve+1)& (0+255),w,b
  8573  006338  22DA               	addwfc	fsr2h,f,c
  8574  00633A  CFDE F036          	movff	postinc2,i2___fldiv@a
  8575  00633E  CFDE F037          	movff	postinc2,i2___fldiv@a+1
  8576  006342  CFDE F038          	movff	postinc2,i2___fldiv@a+2
  8577  006346  CFDE F039          	movff	postinc2,i2___fldiv@a+3
  8578  00634A  EE20 F004          	lfsr	2,4
  8579  00634E  51E1               	movf	MQGetPercentage@pcurve& (0+255),w,b
  8580  006350  26D9               	addwf	fsr2l,f,c
  8581  006352  51E2               	movf	(MQGetPercentage@pcurve+1)& (0+255),w,b
  8582  006354  22DA               	addwfc	fsr2h,f,c
  8583  006356  CFDE F02E          	movff	postinc2,___flsub@a
  8584  00635A  CFDE F02F          	movff	postinc2,___flsub@a+1
  8585  00635E  CFDE F030          	movff	postinc2,___flsub@a+2
  8586  006362  CFDE F031          	movff	postinc2,___flsub@a+3
  8587  006366  C0E3  F02A         	movff	_MQGetPercentage$1955,___flsub@b
  8588  00636A  C0E4  F02B         	movff	_MQGetPercentage$1955+1,___flsub@b+1
  8589  00636E  C0E5  F02C         	movff	_MQGetPercentage$1955+2,___flsub@b+2
  8590  006372  C0E6  F02D         	movff	_MQGetPercentage$1955+3,___flsub@b+3
  8591  006376  ECA5  F034         	call	___flsub	;wreg free
  8592  00637A  C02A  F032         	movff	?___flsub,i2___fldiv@b
  8593  00637E  C02B  F033         	movff	?___flsub+1,i2___fldiv@b+1
  8594  006382  C02C  F034         	movff	?___flsub+2,i2___fldiv@b+2
  8595  006386  C02D  F035         	movff	?___flsub+3,i2___fldiv@b+3
  8596  00638A  EC98  F026         	call	i2___fldiv	;wreg free
  8597  00638E  C032  F0E7         	movff	?i2___fldiv,_MQGetPercentage$2090
  8598  006392  C033  F0E8         	movff	?i2___fldiv+1,_MQGetPercentage$2090+1
  8599  006396  C034  F0E9         	movff	?i2___fldiv+2,_MQGetPercentage$2090+2
  8600  00639A  C035  F0EA         	movff	?i2___fldiv+3,_MQGetPercentage$2090+3
  8601                           
  8602                           ;setting_hardaware/adc.c: 23:     return (powf(10,(((log10f(rs_ro_ratio) - pcurve[1]) / 
      +                          pcurve[2]) + pcurve[0])));
  8603  00639E  C0E1  FFD9         	movff	MQGetPercentage@pcurve,fsr2l
  8604  0063A2  C0E2  FFDA         	movff	MQGetPercentage@pcurve+1,fsr2h
  8605  0063A6  CFDE F005          	movff	postinc2,i2___fladd@a
  8606  0063AA  CFDE F006          	movff	postinc2,i2___fladd@a+1
  8607  0063AE  CFDE F007          	movff	postinc2,i2___fladd@a+2
  8608  0063B2  CFDE F008          	movff	postinc2,i2___fladd@a+3
  8609  0063B6  C0E7  F001         	movff	_MQGetPercentage$2090,i2___fladd@b
  8610  0063BA  C0E8  F002         	movff	_MQGetPercentage$2090+1,i2___fladd@b+1
  8611  0063BE  C0E9  F003         	movff	_MQGetPercentage$2090+2,i2___fladd@b+2
  8612  0063C2  C0EA  F004         	movff	_MQGetPercentage$2090+3,i2___fladd@b+3
  8613  0063C6  EC61  F022         	call	i2___fladd	;wreg free
  8614  0063CA  C001  F0EB         	movff	?i2___fladd,_MQGetPercentage$2091
  8615  0063CE  C002  F0EC         	movff	?i2___fladd+1,_MQGetPercentage$2091+1
  8616  0063D2  C003  F0ED         	movff	?i2___fladd+2,_MQGetPercentage$2091+2
  8617  0063D6  C004  F0EE         	movff	?i2___fladd+3,_MQGetPercentage$2091+3
  8618                           
  8619                           ;setting_hardaware/adc.c: 23:     return (powf(10,(((log10f(rs_ro_ratio) - pcurve[1]) / 
      +                          pcurve[2]) + pcurve[0])));
  8620  0063DA  C0EB  F073         	movff	_MQGetPercentage$2091,powf@y
  8621  0063DE  C0EC  F074         	movff	_MQGetPercentage$2091+1,powf@y+1
  8622  0063E2  C0ED  F075         	movff	_MQGetPercentage$2091+2,powf@y+2
  8623  0063E6  C0EE  F076         	movff	_MQGetPercentage$2091+3,powf@y+3
  8624  0063EA  0E00               	movlw	0
  8625  0063EC  6E6F               	movwf	powf@x^0,c
  8626  0063EE  0E00               	movlw	0
  8627  0063F0  6E70               	movwf	(powf@x+1)^0,c
  8628  0063F2  0E20               	movlw	32
  8629  0063F4  6E71               	movwf	(powf@x+2)^0,c
  8630  0063F6  0E41               	movlw	65
  8631  0063F8  6E72               	movwf	(powf@x+3)^0,c
  8632  0063FA  EC64  F003         	call	_powf	;wreg free
  8633  0063FE  C06F  F077         	movff	?_powf,___fltol@f1
  8634  006402  C070  F078         	movff	?_powf+1,___fltol@f1+1
  8635  006406  C071  F079         	movff	?_powf+2,___fltol@f1+2
  8636  00640A  C072  F07A         	movff	?_powf+3,___fltol@f1+3
  8637  00640E  EC76  F032         	call	___fltol	;wreg free
  8638  006412  C077  F0DD         	movff	?___fltol,?_MQGetPercentage
  8639  006416  C078  F0DE         	movff	?___fltol+1,?_MQGetPercentage+1
  8640  00641A  0012               	return		;funcret
  8641  00641C                     __end_of_MQGetPercentage:
  8642                           	opt callstack 0
  8643                           
  8644 ;; *************** function _powf *****************
  8645 ;; Defined at:
  8646 ;;		line 52 in file "C:\Program Files (x86)\Microchip\xc8\v2.10\pic\sources\c99\common\powf.c"
  8647 ;; Parameters:    Size  Location     Type
  8648 ;;  x               4  110[COMRAM] float 
  8649 ;;  y               4  114[COMRAM] float 
  8650 ;; Auto vars:     Size  Location     Type
  8651 ;;  s2              4  140[BANK1 ] float 
  8652 ;;  s_h             4  108[BANK1 ] float 
  8653 ;;  t_h             4  104[BANK1 ] float 
  8654 ;;  t_l             4   52[BANK1 ] float 
  8655 ;;  s_l             4   48[BANK1 ] float 
  8656 ;;  __xc8_float_    4  184[BANK1 ] struct .
  8657 ;;  z               4  180[BANK1 ] float 
  8658 ;;  t               4  176[BANK1 ] float 
  8659 ;;  j               4  172[BANK1 ] long 
  8660 ;;  ix              4  168[BANK1 ] long 
  8661 ;;  k               4  160[BANK1 ] long 
  8662 ;;  p_h             4  156[BANK1 ] float 
  8663 ;;  iy              4  152[BANK1 ] long 
  8664 ;;  is              4  144[BANK1 ] long 
  8665 ;;  sn              4  136[BANK1 ] float 
  8666 ;;  hy              4  132[BANK1 ] long 
  8667 ;;  t1              4  128[BANK1 ] float 
  8668 ;;  n               4  124[BANK1 ] long 
  8669 ;;  v               4  120[BANK1 ] float 
  8670 ;;  u               4  116[BANK1 ] float 
  8671 ;;  ax              4  112[BANK1 ] float 
  8672 ;;  p_l             4  100[BANK1 ] float 
  8673 ;;  hx              4   96[BANK1 ] long 
  8674 ;;  s               4   92[BANK1 ] float 
  8675 ;;  yisint          4   80[BANK1 ] long 
  8676 ;;  r               4   76[BANK1 ] float 
  8677 ;;  w               4   68[BANK1 ] float 
  8678 ;;  i               4   44[BANK1 ] long 
  8679 ;;  y1              4   40[BANK1 ] float 
  8680 ;;  z_l             4   36[BANK1 ] float 
  8681 ;;  z_h             4   32[BANK1 ] float 
  8682 ;;  t2              4   28[BANK1 ] float 
  8683 ;; Return value:  Size  Location     Type
  8684 ;;                  4  110[COMRAM] float 
  8685 ;; Registers used:
  8686 ;;		wreg, status,2, status,0, tblptrl, tblptrh, tblptru, prodl, prodh, cstack
  8687 ;; Tracked objects:
  8688 ;;		On entry : 0/0
  8689 ;;		On exit  : 0/0
  8690 ;;		Unchanged: 0/0
  8691 ;; Data sizes:     COMRAM   BANK0   BANK1   BANK2   BANK3   BANK4   BANK5
  8692 ;;      Params:         8       0       0       0       0       0       0
  8693 ;;      Locals:         0       0     188       0       0       0       0
  8694 ;;      Temps:          0       9       0       0       0       0       0
  8695 ;;      Totals:         8       9     188       0       0       0       0
  8696 ;;Total ram usage:      205 bytes
  8697 ;; Hardware stack levels used:    1
  8698 ;; Hardware stack levels required when called:    2
  8699 ;; This function calls:
  8700 ;;		___flge
  8701 ;;		___flneg
  8702 ;;		___flsub
  8703 ;;		_fabsf
  8704 ;;		_scalbnf
  8705 ;;		_sqrtf
  8706 ;;		i2___fladd
  8707 ;;		i2___fldiv
  8708 ;;		i2___flmul
  8709 ;;		i2___xxtofl
  8710 ;; This function is called by:
  8711 ;;		_MQGetPercentage
  8712 ;; This function uses a non-reentrant model
  8713 ;;
  8714                           
  8715                           	psect	text44
  8716  0006C8                     __ptext44:
  8717                           	opt callstack 0
  8718  0006C8                     _powf:
  8719                           	opt callstack 20
  8720                           
  8721                           ;incstack = 0
  8722  0006C8  C06F  F1B8         	movff	powf@x,powf@__xc8_float_word
  8723  0006CC  C070  F1B9         	movff	powf@x+1,powf@__xc8_float_word+1
  8724  0006D0  C071  F1BA         	movff	powf@x+2,powf@__xc8_float_word+2
  8725  0006D4  C072  F1BB         	movff	powf@x+3,powf@__xc8_float_word+3
  8726  0006D8  C1B8  F160         	movff	powf@__xc8_float_word,powf@hx
  8727  0006DC  C1B9  F161         	movff	powf@__xc8_float_word+1,powf@hx+1
  8728  0006E0  C1BA  F162         	movff	powf@__xc8_float_word+2,powf@hx+2
  8729  0006E4  C1BB  F163         	movff	powf@__xc8_float_word+3,powf@hx+3
  8730  0006E8  C073  F1B8         	movff	powf@y,powf@__xc8_float_word
  8731  0006EC  C074  F1B9         	movff	powf@y+1,powf@__xc8_float_word+1
  8732  0006F0  C075  F1BA         	movff	powf@y+2,powf@__xc8_float_word+2
  8733  0006F4  C076  F1BB         	movff	powf@y+3,powf@__xc8_float_word+3
  8734  0006F8  C1B8  F184         	movff	powf@__xc8_float_word,powf@hy
  8735  0006FC  C1B9  F185         	movff	powf@__xc8_float_word+1,powf@hy+1
  8736  000700  C1BA  F186         	movff	powf@__xc8_float_word+2,powf@hy+2
  8737  000704  C1BB  F187         	movff	powf@__xc8_float_word+3,powf@hy+3
  8738  000708  0EFF               	movlw	255
  8739  00070A  0101               	movlb	1	; () banked
  8740  00070C  1560               	andwf	powf@hx& (0+255),w,b
  8741  00070E  6FA8               	movwf	powf@ix& (0+255),b
  8742  000710  0EFF               	movlw	255
  8743  000712  1561               	andwf	(powf@hx+1)& (0+255),w,b
  8744  000714  6FA9               	movwf	(powf@ix+1)& (0+255),b
  8745  000716  0EFF               	movlw	255
  8746  000718  1562               	andwf	(powf@hx+2)& (0+255),w,b
  8747  00071A  6FAA               	movwf	(powf@ix+2)& (0+255),b
  8748  00071C  0E7F               	movlw	127
  8749  00071E  1563               	andwf	(powf@hx+3)& (0+255),w,b
  8750  000720  6FAB               	movwf	(powf@ix+3)& (0+255),b
  8751  000722  0EFF               	movlw	255
  8752  000724  1584               	andwf	powf@hy& (0+255),w,b
  8753  000726  6F98               	movwf	powf@iy& (0+255),b
  8754  000728  0EFF               	movlw	255
  8755  00072A  1585               	andwf	(powf@hy+1)& (0+255),w,b
  8756  00072C  6F99               	movwf	(powf@iy+1)& (0+255),b
  8757  00072E  0EFF               	movlw	255
  8758  000730  1586               	andwf	(powf@hy+2)& (0+255),w,b
  8759  000732  6F9A               	movwf	(powf@iy+2)& (0+255),b
  8760  000734  0E7F               	movlw	127
  8761  000736  1587               	andwf	(powf@hy+3)& (0+255),w,b
  8762  000738  6F9B               	movwf	(powf@iy+3)& (0+255),b
  8763  00073A  5198               	movf	powf@iy& (0+255),w,b
  8764  00073C  1199               	iorwf	(powf@iy+1)& (0+255),w,b
  8765  00073E  119A               	iorwf	(powf@iy+2)& (0+255),w,b
  8766  000740  119B               	iorwf	(powf@iy+3)& (0+255),w,b
  8767  000742  A4D8               	btfss	status,2,c
  8768  000744  D009               	goto	i2l4818
  8769                           
  8770                           ; BSR set to: 1
  8771  000746  0E00               	movlw	0
  8772  000748  6E6F               	movwf	?_powf^0,c
  8773  00074A  0E00               	movlw	0
  8774  00074C  6E70               	movwf	(?_powf+1)^0,c
  8775  00074E  0E80               	movlw	128
  8776  000750  6E71               	movwf	(?_powf+2)^0,c
  8777  000752  0E3F               	movlw	63
  8778  000754  6E72               	movwf	(?_powf+3)^0,c
  8779  000756  0012               	return	
  8780  000758                     i2l4818:
  8781                           
  8782                           ; BSR set to: 1
  8783  000758  0E80               	movlw	128
  8784  00075A  1962               	xorwf	(powf@hx+2)& (0+255),w,b
  8785  00075C  E10F               	bnz	i2l4824
  8786  00075E  0E3F               	movlw	63
  8787  000760  1963               	xorwf	(powf@hx+3)& (0+255),w,b
  8788  000762  1160               	iorwf	powf@hx& (0+255),w,b
  8789  000764  1161               	iorwf	(powf@hx+1)& (0+255),w,b
  8790  000766  A4D8               	btfss	status,2,c
  8791  000768  D009               	goto	i2l4824
  8792                           
  8793                           ; BSR set to: 1
  8794  00076A  0E00               	movlw	0
  8795  00076C  6E6F               	movwf	?_powf^0,c
  8796  00076E  0E00               	movlw	0
  8797  000770  6E70               	movwf	(?_powf+1)^0,c
  8798  000772  0E80               	movlw	128
  8799  000774  6E71               	movwf	(?_powf+2)^0,c
  8800  000776  0E3F               	movlw	63
  8801  000778  6E72               	movwf	(?_powf+3)^0,c
  8802  00077A  0012               	return	
  8803  00077C                     i2l4824:
  8804                           
  8805                           ; BSR set to: 1
  8806  00077C  BFAB               	btfsc	(powf@ix+3)& (0+255),7,b
  8807  00077E  D009               	goto	i2u535_40
  8808  000780  05A8               	decf	powf@ix& (0+255),w,b
  8809  000782  0E00               	movlw	0
  8810  000784  59A9               	subwfb	(powf@ix+1)& (0+255),w,b
  8811  000786  0E80               	movlw	128
  8812  000788  59AA               	subwfb	(powf@ix+2)& (0+255),w,b
  8813  00078A  0E7F               	movlw	127
  8814  00078C  59AB               	subwfb	(powf@ix+3)& (0+255),w,b
  8815  00078E  B0D8               	btfsc	status,0,c
  8816  000790  D00B               	goto	i2u536_40
  8817  000792                     i2u535_40:
  8818                           
  8819                           ; BSR set to: 1
  8820  000792  BF9B               	btfsc	(powf@iy+3)& (0+255),7,b
  8821  000794  D024               	goto	i2l4832
  8822  000796  0598               	decf	powf@iy& (0+255),w,b
  8823  000798  0E00               	movlw	0
  8824  00079A  5999               	subwfb	(powf@iy+1)& (0+255),w,b
  8825  00079C  0E80               	movlw	128
  8826  00079E  599A               	subwfb	(powf@iy+2)& (0+255),w,b
  8827  0007A0  0E7F               	movlw	127
  8828  0007A2  599B               	subwfb	(powf@iy+3)& (0+255),w,b
  8829  0007A4  A0D8               	btfss	status,0,c
  8830  0007A6  D01B               	goto	i2l4832
  8831  0007A8                     i2u536_40:
  8832                           
  8833                           ; BSR set to: 1
  8834  0007A8  C06F  F001         	movff	powf@x,i2___fladd@b
  8835  0007AC  C070  F002         	movff	powf@x+1,i2___fladd@b+1
  8836  0007B0  C071  F003         	movff	powf@x+2,i2___fladd@b+2
  8837  0007B4  C072  F004         	movff	powf@x+3,i2___fladd@b+3
  8838  0007B8  C073  F005         	movff	powf@y,i2___fladd@a
  8839  0007BC  C074  F006         	movff	powf@y+1,i2___fladd@a+1
  8840  0007C0  C075  F007         	movff	powf@y+2,i2___fladd@a+2
  8841  0007C4  C076  F008         	movff	powf@y+3,i2___fladd@a+3
  8842  0007C8  EC61  F022         	call	i2___fladd	;wreg free
  8843  0007CC  C001  F06F         	movff	?i2___fladd,?_powf
  8844  0007D0  C002  F070         	movff	?i2___fladd+1,?_powf+1
  8845  0007D4  C003  F071         	movff	?i2___fladd+2,?_powf+2
  8846  0007D8  C004  F072         	movff	?i2___fladd+3,?_powf+3
  8847  0007DC  0012               	return	
  8848  0007DE                     i2l4832:
  8849                           
  8850                           ; BSR set to: 1
  8851  0007DE  0E00               	movlw	0
  8852  0007E0  6F50               	movwf	powf@yisint& (0+255),b
  8853  0007E2  0E00               	movlw	0
  8854  0007E4  6F51               	movwf	(powf@yisint+1)& (0+255),b
  8855  0007E6  0E00               	movlw	0
  8856  0007E8  6F52               	movwf	(powf@yisint+2)& (0+255),b
  8857  0007EA  0E00               	movlw	0
  8858  0007EC  6F53               	movwf	(powf@yisint+3)& (0+255),b
  8859                           
  8860                           ; BSR set to: 1
  8861  0007EE  AF63               	btfss	(powf@hx+3)& (0+255),7,b
  8862  0007F0  D0B1               	goto	i2l1203
  8863                           
  8864                           ; BSR set to: 1
  8865  0007F2  BF9B               	btfsc	(powf@iy+3)& (0+255),7,b
  8866  0007F4  D00E               	goto	i2l4840
  8867  0007F6  0E80               	movlw	128
  8868  0007F8  5D9A               	subwf	(powf@iy+2)& (0+255),w,b
  8869  0007FA  0E4B               	movlw	75
  8870  0007FC  599B               	subwfb	(powf@iy+3)& (0+255),w,b
  8871  0007FE  A0D8               	btfss	status,0,c
  8872  000800  D008               	goto	i2l4840
  8873                           
  8874                           ; BSR set to: 1
  8875  000802  0E02               	movlw	2
  8876  000804  6F50               	movwf	powf@yisint& (0+255),b
  8877  000806  0E00               	movlw	0
  8878  000808  6F51               	movwf	(powf@yisint+1)& (0+255),b
  8879  00080A  0E00               	movlw	0
  8880  00080C  6F52               	movwf	(powf@yisint+2)& (0+255),b
  8881  00080E  0E00               	movlw	0
  8882  000810  D0A0               	goto	L9
  8883  000812                     i2l4840:
  8884                           
  8885                           ; BSR set to: 1
  8886  000812  BF9B               	btfsc	(powf@iy+3)& (0+255),7,b
  8887  000814  D09F               	goto	i2l1203
  8888  000816  0E80               	movlw	128
  8889  000818  5D9A               	subwf	(powf@iy+2)& (0+255),w,b
  8890  00081A  0E3F               	movlw	63
  8891  00081C  599B               	subwfb	(powf@iy+3)& (0+255),w,b
  8892  00081E  A0D8               	btfss	status,0,c
  8893  000820  D099               	goto	i2l1203
  8894                           
  8895                           ; BSR set to: 1
  8896  000822  0E17               	movlw	23
  8897  000824  0100               	movlb	0	; () banked
  8898  000826  6FD2               	movwf	??_powf& (0+255),b
  8899  000828  C198  F0D3         	movff	powf@iy,??_powf+1
  8900  00082C  C199  F0D4         	movff	powf@iy+1,??_powf+2
  8901  000830  C19A  F0D5         	movff	powf@iy+2,??_powf+3
  8902  000834  C19B  F0D6         	movff	powf@iy+3,??_powf+4
  8903  000838                     i2u540_45:
  8904  000838  67D2               	tstfsz	??_powf& (0+255),b
  8905  00083A  D001               	goto	i2u540_46
  8906  00083C  D007               	goto	i2u540_47
  8907  00083E                     i2u540_46:
  8908  00083E  35D6               	rlcf	(??_powf+4)& (0+255),w,b
  8909  000840  33D6               	rrcf	(??_powf+4)& (0+255),f,b
  8910  000842  33D5               	rrcf	(??_powf+3)& (0+255),f,b
  8911  000844  33D4               	rrcf	(??_powf+2)& (0+255),f,b
  8912  000846  33D3               	rrcf	(??_powf+1)& (0+255),f,b
  8913  000848  2FD2               	decfsz	??_powf& (0+255),f,b
  8914  00084A  D7F6               	goto	i2u540_45
  8915  00084C                     i2u540_47:
  8916  00084C  0E81               	movlw	129
  8917  00084E  0100               	movlb	0	; () banked
  8918  000850  25D3               	addwf	(??_powf+1)& (0+255),w,b
  8919  000852  0101               	movlb	1	; () banked
  8920  000854  6FA0               	movwf	powf@k& (0+255),b
  8921  000856  0EFF               	movlw	255
  8922  000858  0100               	movlb	0	; () banked
  8923  00085A  21D4               	addwfc	(??_powf+2)& (0+255),w,b
  8924  00085C  0101               	movlb	1	; () banked
  8925  00085E  6FA1               	movwf	(powf@k+1)& (0+255),b
  8926  000860  0EFF               	movlw	255
  8927  000862  0100               	movlb	0	; () banked
  8928  000864  21D5               	addwfc	(??_powf+3)& (0+255),w,b
  8929  000866  0101               	movlb	1	; () banked
  8930  000868  6FA2               	movwf	(powf@k+2)& (0+255),b
  8931  00086A  0EFF               	movlw	255
  8932  00086C  0100               	movlb	0	; () banked
  8933  00086E  21D6               	addwfc	(??_powf+4)& (0+255),w,b
  8934  000870  0101               	movlb	1	; () banked
  8935  000872  6FA3               	movwf	(powf@k+3)& (0+255),b
  8936  000874  51A0               	movf	powf@k& (0+255),w,b
  8937  000876  0817               	sublw	23
  8938  000878  0100               	movlb	0	; () banked
  8939  00087A  6FD2               	movwf	??_powf& (0+255),b
  8940  00087C  C198  F0D3         	movff	powf@iy,??_powf+1
  8941  000880  C199  F0D4         	movff	powf@iy+1,??_powf+2
  8942  000884  C19A  F0D5         	movff	powf@iy+2,??_powf+3
  8943  000888  C19B  F0D6         	movff	powf@iy+3,??_powf+4
  8944  00088C                     i2u541_45:
  8945  00088C  67D2               	tstfsz	??_powf& (0+255),b
  8946  00088E  D001               	goto	i2u541_46
  8947  000890  D007               	goto	i2u541_47
  8948  000892                     i2u541_46:
  8949  000892  35D6               	rlcf	(??_powf+4)& (0+255),w,b
  8950  000894  33D6               	rrcf	(??_powf+4)& (0+255),f,b
  8951  000896  33D5               	rrcf	(??_powf+3)& (0+255),f,b
  8952  000898  33D4               	rrcf	(??_powf+2)& (0+255),f,b
  8953  00089A  33D3               	rrcf	(??_powf+1)& (0+255),f,b
  8954  00089C  2FD2               	decfsz	??_powf& (0+255),f,b
  8955  00089E  D7F6               	goto	i2u541_45
  8956  0008A0                     i2u541_47:
  8957  0008A0  C0D3  F1AC         	movff	??_powf+1,powf@j
  8958  0008A4  C0D4  F1AD         	movff	??_powf+2,powf@j+1
  8959  0008A8  C0D5  F1AE         	movff	??_powf+3,powf@j+2
  8960  0008AC  C0D6  F1AF         	movff	??_powf+4,powf@j+3
  8961  0008B0  0101               	movlb	1	; () banked
  8962  0008B2  51A0               	movf	powf@k& (0+255),w,b
  8963  0008B4  0817               	sublw	23
  8964  0008B6  0100               	movlb	0	; () banked
  8965  0008B8  6FD2               	movwf	??_powf& (0+255),b
  8966  0008BA  C1AC  F0D3         	movff	powf@j,??_powf+1
  8967  0008BE  C1AD  F0D4         	movff	powf@j+1,??_powf+2
  8968  0008C2  C1AE  F0D5         	movff	powf@j+2,??_powf+3
  8969  0008C6  C1AF  F0D6         	movff	powf@j+3,??_powf+4
  8970  0008CA  2BD2               	incf	??_powf& (0+255),f,b
  8971  0008CC  D005               	goto	i2u542_40
  8972  0008CE                     i2u542_45:
  8973  0008CE  90D8               	bcf	status,0,c
  8974  0008D0  37D3               	rlcf	(??_powf+1)& (0+255),f,b
  8975  0008D2  37D4               	rlcf	(??_powf+2)& (0+255),f,b
  8976  0008D4  37D5               	rlcf	(??_powf+3)& (0+255),f,b
  8977  0008D6  37D6               	rlcf	(??_powf+4)& (0+255),f,b
  8978  0008D8                     i2u542_40:
  8979  0008D8  2FD2               	decfsz	??_powf& (0+255),f,b
  8980  0008DA  D7F9               	goto	i2u542_45
  8981  0008DC  0101               	movlb	1	; () banked
  8982  0008DE  5198               	movf	powf@iy& (0+255),w,b
  8983  0008E0  0100               	movlb	0	; () banked
  8984  0008E2  19D3               	xorwf	(??_powf+1)& (0+255),w,b
  8985  0008E4  E137               	bnz	i2l1203
  8986  0008E6  0101               	movlb	1	; () banked
  8987  0008E8  5199               	movf	(powf@iy+1)& (0+255),w,b
  8988  0008EA  0100               	movlb	0	; () banked
  8989  0008EC  19D4               	xorwf	(??_powf+2)& (0+255),w,b
  8990  0008EE  E132               	bnz	i2l1203
  8991  0008F0  0101               	movlb	1	; () banked
  8992  0008F2  519A               	movf	(powf@iy+2)& (0+255),w,b
  8993  0008F4  0100               	movlb	0	; () banked
  8994  0008F6  19D5               	xorwf	(??_powf+3)& (0+255),w,b
  8995  0008F8  E12D               	bnz	i2l1203
  8996  0008FA  0101               	movlb	1	; () banked
  8997  0008FC  519B               	movf	(powf@iy+3)& (0+255),w,b
  8998  0008FE  0100               	movlb	0	; () banked
  8999  000900  19D6               	xorwf	(??_powf+4)& (0+255),w,b
  9000  000902  A4D8               	btfss	status,2,c
  9001  000904  D027               	goto	i2l1203
  9002                           
  9003                           ; BSR set to: 0
  9004  000906  0E01               	movlw	1
  9005  000908  0101               	movlb	1	; () banked
  9006  00090A  15AC               	andwf	powf@j& (0+255),w,b
  9007  00090C  0100               	movlb	0	; () banked
  9008  00090E  6FD2               	movwf	??_powf& (0+255),b
  9009  000910  0E00               	movlw	0
  9010  000912  0101               	movlb	1	; () banked
  9011  000914  15AD               	andwf	(powf@j+1)& (0+255),w,b
  9012  000916  0100               	movlb	0	; () banked
  9013  000918  6FD3               	movwf	(??_powf+1)& (0+255),b
  9014  00091A  0E00               	movlw	0
  9015  00091C  0101               	movlb	1	; () banked
  9016  00091E  15AE               	andwf	(powf@j+2)& (0+255),w,b
  9017  000920  0100               	movlb	0	; () banked
  9018  000922  6FD4               	movwf	(??_powf+2)& (0+255),b
  9019  000924  0E00               	movlw	0
  9020  000926  0101               	movlb	1	; () banked
  9021  000928  15AF               	andwf	(powf@j+3)& (0+255),w,b
  9022  00092A  0100               	movlb	0	; () banked
  9023  00092C  6FD5               	movwf	(??_powf+3)& (0+255),b
  9024  00092E  51D2               	movf	??_powf& (0+255),w,b
  9025  000930  0802               	sublw	2
  9026  000932  0101               	movlb	1	; () banked
  9027  000934  6F50               	movwf	powf@yisint& (0+255),b
  9028  000936  0E00               	movlw	0
  9029  000938  0100               	movlb	0	; () banked
  9030  00093A  55D3               	subfwb	(??_powf+1)& (0+255),w,b
  9031  00093C  0101               	movlb	1	; () banked
  9032  00093E  6F51               	movwf	(powf@yisint+1)& (0+255),b
  9033  000940  0E00               	movlw	0
  9034  000942  0100               	movlb	0	; () banked
  9035  000944  55D4               	subfwb	(??_powf+2)& (0+255),w,b
  9036  000946  0101               	movlb	1	; () banked
  9037  000948  6F52               	movwf	(powf@yisint+2)& (0+255),b
  9038  00094A  0E00               	movlw	0
  9039  00094C  0100               	movlb	0	; () banked
  9040  00094E  55D5               	subfwb	(??_powf+3)& (0+255),w,b
  9041  000950  0101               	movlb	1	; () banked
  9042  000952                     L9:
  9043  000952  6F53               	movwf	(powf@yisint+3)& (0+255),b
  9044  000954                     i2l1203:
  9045  000954  0E80               	movlw	128
  9046  000956  0101               	movlb	1	; () banked
  9047  000958  199A               	xorwf	(powf@iy+2)& (0+255),w,b
  9048  00095A  E155               	bnz	i2l4870
  9049  00095C  0E7F               	movlw	127
  9050  00095E  199B               	xorwf	(powf@iy+3)& (0+255),w,b
  9051  000960  1198               	iorwf	powf@iy& (0+255),w,b
  9052  000962  1199               	iorwf	(powf@iy+1)& (0+255),w,b
  9053  000964  A4D8               	btfss	status,2,c
  9054  000966  D04F               	goto	i2l4870
  9055                           
  9056                           ; BSR set to: 1
  9057  000968  0E80               	movlw	128
  9058  00096A  19AA               	xorwf	(powf@ix+2)& (0+255),w,b
  9059  00096C  E10F               	bnz	i2l4854
  9060  00096E  0E3F               	movlw	63
  9061  000970  19AB               	xorwf	(powf@ix+3)& (0+255),w,b
  9062  000972  11A8               	iorwf	powf@ix& (0+255),w,b
  9063  000974  11A9               	iorwf	(powf@ix+1)& (0+255),w,b
  9064  000976  A4D8               	btfss	status,2,c
  9065  000978  D009               	goto	i2l4854
  9066                           
  9067                           ; BSR set to: 1
  9068  00097A  0E00               	movlw	0
  9069  00097C  6E6F               	movwf	?_powf^0,c
  9070  00097E  0E00               	movlw	0
  9071  000980  6E70               	movwf	(?_powf+1)^0,c
  9072  000982  0E80               	movlw	128
  9073  000984  6E71               	movwf	(?_powf+2)^0,c
  9074  000986  0E3F               	movlw	63
  9075  000988  6E72               	movwf	(?_powf+3)^0,c
  9076  00098A  0012               	return	
  9077  00098C                     i2l4854:
  9078                           
  9079                           ; BSR set to: 1
  9080  00098C  BFAB               	btfsc	(powf@ix+3)& (0+255),7,b
  9081  00098E  D01D               	goto	i2l4862
  9082  000990  05A8               	decf	powf@ix& (0+255),w,b
  9083  000992  0E00               	movlw	0
  9084  000994  59A9               	subwfb	(powf@ix+1)& (0+255),w,b
  9085  000996  0E80               	movlw	128
  9086  000998  59AA               	subwfb	(powf@ix+2)& (0+255),w,b
  9087  00099A  0E3F               	movlw	63
  9088  00099C  59AB               	subwfb	(powf@ix+3)& (0+255),w,b
  9089  00099E  A0D8               	btfss	status,0,c
  9090  0009A0  D014               	goto	i2l4862
  9091                           
  9092                           ; BSR set to: 1
  9093  0009A2  AF87               	btfss	(powf@hy+3)& (0+255),7,b
  9094  0009A4  D009               	goto	i2l1213
  9095                           
  9096                           ; BSR set to: 1
  9097  0009A6  0E00               	movlw	0
  9098  0009A8  6E6F               	movwf	?_powf^0,c
  9099  0009AA  0E00               	movlw	0
  9100  0009AC  6E70               	movwf	(?_powf+1)^0,c
  9101  0009AE  0E00               	movlw	0
  9102  0009B0  6E71               	movwf	(?_powf+2)^0,c
  9103  0009B2  0E00               	movlw	0
  9104  0009B4  6E72               	movwf	(?_powf+3)^0,c
  9105  0009B6  0012               	return	
  9106  0009B8                     i2l1213:
  9107                           
  9108                           ; BSR set to: 1
  9109  0009B8  C073  F06F         	movff	powf@y,?_powf
  9110  0009BC  C074  F070         	movff	powf@y+1,?_powf+1
  9111  0009C0  C075  F071         	movff	powf@y+2,?_powf+2
  9112  0009C4  C076  F072         	movff	powf@y+3,?_powf+3
  9113  0009C8  0012               	return	
  9114  0009CA                     i2l4862:
  9115                           
  9116                           ; BSR set to: 1
  9117  0009CA  AF87               	btfss	(powf@hy+3)& (0+255),7,b
  9118  0009CC  D013               	goto	i2l4866
  9119                           
  9120                           ; BSR set to: 1
  9121  0009CE  C073  F001         	movff	powf@y,___flneg@f1
  9122  0009D2  C074  F002         	movff	powf@y+1,___flneg@f1+1
  9123  0009D6  C075  F003         	movff	powf@y+2,___flneg@f1+2
  9124  0009DA  C076  F004         	movff	powf@y+3,___flneg@f1+3
  9125  0009DE  ECC5  F035         	call	___flneg	;wreg free
  9126  0009E2  C001  F06F         	movff	?___flneg,?_powf
  9127  0009E6  C002  F070         	movff	?___flneg+1,?_powf+1
  9128  0009EA  C003  F071         	movff	?___flneg+2,?_powf+2
  9129  0009EE  C004  F072         	movff	?___flneg+3,?_powf+3
  9130  0009F2  0012               	return	
  9131  0009F4                     i2l4866:
  9132                           
  9133                           ; BSR set to: 1
  9134  0009F4  0E00               	movlw	0
  9135  0009F6  6E6F               	movwf	?_powf^0,c
  9136  0009F8  0E00               	movlw	0
  9137  0009FA  6E70               	movwf	(?_powf+1)^0,c
  9138  0009FC  0E00               	movlw	0
  9139  0009FE  6E71               	movwf	(?_powf+2)^0,c
  9140  000A00  0E00               	movlw	0
  9141  000A02  6E72               	movwf	(?_powf+3)^0,c
  9142  000A04  0012               	return	
  9143  000A06                     i2l4870:
  9144                           
  9145                           ; BSR set to: 1
  9146  000A06  0E80               	movlw	128
  9147  000A08  199A               	xorwf	(powf@iy+2)& (0+255),w,b
  9148  000A0A  E12C               	bnz	i2l4876
  9149  000A0C  0E3F               	movlw	63
  9150  000A0E  199B               	xorwf	(powf@iy+3)& (0+255),w,b
  9151  000A10  1198               	iorwf	powf@iy& (0+255),w,b
  9152  000A12  1199               	iorwf	(powf@iy+1)& (0+255),w,b
  9153  000A14  A4D8               	btfss	status,2,c
  9154  000A16  D026               	goto	i2l4876
  9155                           
  9156                           ; BSR set to: 1
  9157  000A18  AF87               	btfss	(powf@hy+3)& (0+255),7,b
  9158  000A1A  D01B               	goto	i2l1223
  9159                           
  9160                           ; BSR set to: 1
  9161  000A1C  0E00               	movlw	0
  9162  000A1E  6E32               	movwf	i2___fldiv@b^0,c
  9163  000A20  0E00               	movlw	0
  9164  000A22  6E33               	movwf	(i2___fldiv@b+1)^0,c
  9165  000A24  0E80               	movlw	128
  9166  000A26  6E34               	movwf	(i2___fldiv@b+2)^0,c
  9167  000A28  0E3F               	movlw	63
  9168  000A2A  6E35               	movwf	(i2___fldiv@b+3)^0,c
  9169  000A2C  C06F  F036         	movff	powf@x,i2___fldiv@a
  9170  000A30  C070  F037         	movff	powf@x+1,i2___fldiv@a+1
  9171  000A34  C071  F038         	movff	powf@x+2,i2___fldiv@a+2
  9172  000A38  C072  F039         	movff	powf@x+3,i2___fldiv@a+3
  9173  000A3C  EC98  F026         	call	i2___fldiv	;wreg free
  9174  000A40  C032  F06F         	movff	?i2___fldiv,?_powf
  9175  000A44  C033  F070         	movff	?i2___fldiv+1,?_powf+1
  9176  000A48  C034  F071         	movff	?i2___fldiv+2,?_powf+2
  9177  000A4C  C035  F072         	movff	?i2___fldiv+3,?_powf+3
  9178  000A50  0012               	return	
  9179  000A52                     i2l1223:
  9180                           
  9181                           ; BSR set to: 1
  9182  000A52  C06F  F06F         	movff	powf@x,?_powf
  9183  000A56  C070  F070         	movff	powf@x+1,?_powf+1
  9184  000A5A  C071  F071         	movff	powf@x+2,?_powf+2
  9185  000A5E  C072  F072         	movff	powf@x+3,?_powf+3
  9186  000A62  0012               	return	
  9187  000A64                     i2l4876:
  9188                           
  9189                           ; BSR set to: 1
  9190  000A64  0E40               	movlw	64
  9191  000A66  1987               	xorwf	(powf@hy+3)& (0+255),w,b
  9192  000A68  1184               	iorwf	powf@hy& (0+255),w,b
  9193  000A6A  1185               	iorwf	(powf@hy+1)& (0+255),w,b
  9194  000A6C  1186               	iorwf	(powf@hy+2)& (0+255),w,b
  9195  000A6E  A4D8               	btfss	status,2,c
  9196  000A70  D01B               	goto	i2l4882
  9197                           
  9198                           ; BSR set to: 1
  9199  000A72  C06F  F011         	movff	powf@x,i2___flmul@b
  9200  000A76  C070  F012         	movff	powf@x+1,i2___flmul@b+1
  9201  000A7A  C071  F013         	movff	powf@x+2,i2___flmul@b+2
  9202  000A7E  C072  F014         	movff	powf@x+3,i2___flmul@b+3
  9203  000A82  C06F  F015         	movff	powf@x,i2___flmul@a
  9204  000A86  C070  F016         	movff	powf@x+1,i2___flmul@a+1
  9205  000A8A  C071  F017         	movff	powf@x+2,i2___flmul@a+2
  9206  000A8E  C072  F018         	movff	powf@x+3,i2___flmul@a+3
  9207  000A92  EC31  F01F         	call	i2___flmul	;wreg free
  9208  000A96  C011  F06F         	movff	?i2___flmul,?_powf
  9209  000A9A  C012  F070         	movff	?i2___flmul+1,?_powf+1
  9210  000A9E  C013  F071         	movff	?i2___flmul+2,?_powf+2
  9211  000AA2  C014  F072         	movff	?i2___flmul+3,?_powf+3
  9212  000AA6  0012               	return	
  9213  000AA8                     i2l4882:
  9214                           
  9215                           ; BSR set to: 1
  9216  000AA8  0E3F               	movlw	63
  9217  000AAA  1987               	xorwf	(powf@hy+3)& (0+255),w,b
  9218  000AAC  1184               	iorwf	powf@hy& (0+255),w,b
  9219  000AAE  1185               	iorwf	(powf@hy+1)& (0+255),w,b
  9220  000AB0  1186               	iorwf	(powf@hy+2)& (0+255),w,b
  9221  000AB2  B4D8               	btfsc	status,2,c
  9222                           
  9223                           ; BSR set to: 1
  9224  000AB4  BF63               	btfsc	(powf@hx+3)& (0+255),7,b
  9225  000AB6  D013               	goto	i2l4890
  9226                           
  9227                           ; BSR set to: 1
  9228  000AB8  C06F  F03E         	movff	powf@x,sqrtf@x
  9229  000ABC  C070  F03F         	movff	powf@x+1,sqrtf@x+1
  9230  000AC0  C071  F040         	movff	powf@x+2,sqrtf@x+2
  9231  000AC4  C072  F041         	movff	powf@x+3,sqrtf@x+3
  9232  000AC8  EC74  F01B         	call	_sqrtf	;wreg free
  9233  000ACC  C03E  F06F         	movff	?_sqrtf,?_powf
  9234  000AD0  C03F  F070         	movff	?_sqrtf+1,?_powf+1
  9235  000AD4  C040  F071         	movff	?_sqrtf+2,?_powf+2
  9236  000AD8  C041  F072         	movff	?_sqrtf+3,?_powf+3
  9237  000ADC  0012               	return	
  9238  000ADE                     i2l4890:
  9239                           
  9240                           ; BSR set to: 1
  9241  000ADE  C06F  F001         	movff	powf@x,fabsf@x
  9242  000AE2  C070  F002         	movff	powf@x+1,fabsf@x+1
  9243  000AE6  C071  F003         	movff	powf@x+2,fabsf@x+2
  9244  000AEA  C072  F004         	movff	powf@x+3,fabsf@x+3
  9245  000AEE  EC03  F035         	call	_fabsf	;wreg free
  9246  000AF2  C001  F170         	movff	?_fabsf,powf@ax
  9247  000AF6  C002  F171         	movff	?_fabsf+1,powf@ax+1
  9248  000AFA  C003  F172         	movff	?_fabsf+2,powf@ax+2
  9249  000AFE  C004  F173         	movff	?_fabsf+3,powf@ax+3
  9250  000B02  0E80               	movlw	128
  9251  000B04  0101               	movlb	1	; () banked
  9252  000B06  19AA               	xorwf	(powf@ix+2)& (0+255),w,b
  9253  000B08  E106               	bnz	i2u554_40
  9254  000B0A  0E7F               	movlw	127
  9255  000B0C  19AB               	xorwf	(powf@ix+3)& (0+255),w,b
  9256  000B0E  11A8               	iorwf	powf@ix& (0+255),w,b
  9257  000B10  11A9               	iorwf	(powf@ix+1)& (0+255),w,b
  9258  000B12  B4D8               	btfsc	status,2,c
  9259  000B14  D00F               	goto	i2u556_40
  9260  000B16                     i2u554_40:
  9261                           
  9262                           ; BSR set to: 1
  9263  000B16  51A8               	movf	powf@ix& (0+255),w,b
  9264  000B18  11A9               	iorwf	(powf@ix+1)& (0+255),w,b
  9265  000B1A  11AA               	iorwf	(powf@ix+2)& (0+255),w,b
  9266  000B1C  11AB               	iorwf	(powf@ix+3)& (0+255),w,b
  9267  000B1E  B4D8               	btfsc	status,2,c
  9268  000B20  D009               	goto	i2u556_40
  9269                           
  9270                           ; BSR set to: 1
  9271  000B22  0E80               	movlw	128
  9272  000B24  19AA               	xorwf	(powf@ix+2)& (0+255),w,b
  9273  000B26  E105               	bnz	i2u556_41
  9274  000B28  0E3F               	movlw	63
  9275  000B2A  19AB               	xorwf	(powf@ix+3)& (0+255),w,b
  9276  000B2C  11A8               	iorwf	powf@ix& (0+255),w,b
  9277  000B2E  11A9               	iorwf	(powf@ix+1)& (0+255),w,b
  9278  000B30  A4D8               	btfss	status,2,c
  9279  000B32                     i2u556_41:
  9280  000B32  D0B5               	goto	i2l4916
  9281  000B34                     i2u556_40:
  9282                           
  9283                           ; BSR set to: 1
  9284  000B34  C170  F1B4         	movff	powf@ax,powf@z
  9285  000B38  C171  F1B5         	movff	powf@ax+1,powf@z+1
  9286  000B3C  C172  F1B6         	movff	powf@ax+2,powf@z+2
  9287  000B40  C173  F1B7         	movff	powf@ax+3,powf@z+3
  9288                           
  9289                           ; BSR set to: 1
  9290  000B44  AF87               	btfss	(powf@hy+3)& (0+255),7,b
  9291  000B46  D01A               	goto	i2l4902
  9292                           
  9293                           ; BSR set to: 1
  9294  000B48  0E00               	movlw	0
  9295  000B4A  6E32               	movwf	i2___fldiv@b^0,c
  9296  000B4C  0E00               	movlw	0
  9297  000B4E  6E33               	movwf	(i2___fldiv@b+1)^0,c
  9298  000B50  0E80               	movlw	128
  9299  000B52  6E34               	movwf	(i2___fldiv@b+2)^0,c
  9300  000B54  0E3F               	movlw	63
  9301  000B56  6E35               	movwf	(i2___fldiv@b+3)^0,c
  9302  000B58  C1B4  F036         	movff	powf@z,i2___fldiv@a
  9303  000B5C  C1B5  F037         	movff	powf@z+1,i2___fldiv@a+1
  9304  000B60  C1B6  F038         	movff	powf@z+2,i2___fldiv@a+2
  9305  000B64  C1B7  F039         	movff	powf@z+3,i2___fldiv@a+3
  9306  000B68  EC98  F026         	call	i2___fldiv	;wreg free
  9307  000B6C  C032  F1B4         	movff	?i2___fldiv,powf@z
  9308  000B70  C033  F1B5         	movff	?i2___fldiv+1,powf@z+1
  9309  000B74  C034  F1B6         	movff	?i2___fldiv+2,powf@z+2
  9310  000B78  C035  F1B7         	movff	?i2___fldiv+3,powf@z+3
  9311  000B7C                     i2l4902:
  9312  000B7C  0101               	movlb	1	; () banked
  9313  000B7E  AF63               	btfss	(powf@hx+3)& (0+255),7,b
  9314  000B80  D085               	goto	i2l4912
  9315                           
  9316                           ; BSR set to: 1
  9317  000B82  0E00               	movlw	0
  9318  000B84  25A8               	addwf	powf@ix& (0+255),w,b
  9319  000B86  0100               	movlb	0	; () banked
  9320  000B88  6FD2               	movwf	??_powf& (0+255),b
  9321  000B8A  0E00               	movlw	0
  9322  000B8C  0101               	movlb	1	; () banked
  9323  000B8E  21A9               	addwfc	(powf@ix+1)& (0+255),w,b
  9324  000B90  0100               	movlb	0	; () banked
  9325  000B92  6FD3               	movwf	(??_powf+1)& (0+255),b
  9326  000B94  0E80               	movlw	128
  9327  000B96  0101               	movlb	1	; () banked
  9328  000B98  21AA               	addwfc	(powf@ix+2)& (0+255),w,b
  9329  000B9A  0100               	movlb	0	; () banked
  9330  000B9C  6FD4               	movwf	(??_powf+2)& (0+255),b
  9331  000B9E  0EC0               	movlw	192
  9332  000BA0  0101               	movlb	1	; () banked
  9333  000BA2  21AB               	addwfc	(powf@ix+3)& (0+255),w,b
  9334  000BA4  0100               	movlb	0	; () banked
  9335  000BA6  6FD5               	movwf	(??_powf+3)& (0+255),b
  9336  000BA8  0101               	movlb	1	; () banked
  9337  000BAA  5150               	movf	powf@yisint& (0+255),w,b
  9338  000BAC  0100               	movlb	0	; () banked
  9339  000BAE  11D2               	iorwf	??_powf& (0+255),w,b
  9340  000BB0  6FD6               	movwf	(??_powf+4)& (0+255),b
  9341  000BB2  0101               	movlb	1	; () banked
  9342  000BB4  5151               	movf	(powf@yisint+1)& (0+255),w,b
  9343  000BB6  0100               	movlb	0	; () banked
  9344  000BB8  11D3               	iorwf	(??_powf+1)& (0+255),w,b
  9345  000BBA  6FD7               	movwf	(??_powf+5)& (0+255),b
  9346  000BBC  0101               	movlb	1	; () banked
  9347  000BBE  5152               	movf	(powf@yisint+2)& (0+255),w,b
  9348  000BC0  0100               	movlb	0	; () banked
  9349  000BC2  11D4               	iorwf	(??_powf+2)& (0+255),w,b
  9350  000BC4  6FD8               	movwf	(??_powf+6)& (0+255),b
  9351  000BC6  0101               	movlb	1	; () banked
  9352  000BC8  5153               	movf	(powf@yisint+3)& (0+255),w,b
  9353  000BCA  0100               	movlb	0	; () banked
  9354  000BCC  11D5               	iorwf	(??_powf+3)& (0+255),w,b
  9355  000BCE  6FD9               	movwf	(??_powf+7)& (0+255),b
  9356  000BD0  51D6               	movf	(??_powf+4)& (0+255),w,b
  9357  000BD2  11D7               	iorwf	(??_powf+5)& (0+255),w,b
  9358  000BD4  11D8               	iorwf	(??_powf+6)& (0+255),w,b
  9359  000BD6  11D9               	iorwf	(??_powf+7)& (0+255),w,b
  9360  000BD8  A4D8               	btfss	status,2,c
  9361  000BDA  D03F               	goto	i2l4908
  9362                           
  9363                           ; BSR set to: 0
  9364  000BDC  C1B4  F02E         	movff	powf@z,___flsub@a
  9365  000BE0  C1B5  F02F         	movff	powf@z+1,___flsub@a+1
  9366  000BE4  C1B6  F030         	movff	powf@z+2,___flsub@a+2
  9367  000BE8  C1B7  F031         	movff	powf@z+3,___flsub@a+3
  9368  000BEC  C1B4  F02A         	movff	powf@z,___flsub@b
  9369  000BF0  C1B5  F02B         	movff	powf@z+1,___flsub@b+1
  9370  000BF4  C1B6  F02C         	movff	powf@z+2,___flsub@b+2
  9371  000BF8  C1B7  F02D         	movff	powf@z+3,___flsub@b+3
  9372  000BFC  ECA5  F034         	call	___flsub	;wreg free
  9373  000C00  C02A  F032         	movff	?___flsub,i2___fldiv@b
  9374  000C04  C02B  F033         	movff	?___flsub+1,i2___fldiv@b+1
  9375  000C08  C02C  F034         	movff	?___flsub+2,i2___fldiv@b+2
  9376  000C0C  C02D  F035         	movff	?___flsub+3,i2___fldiv@b+3
  9377  000C10  C1B4  F02E         	movff	powf@z,___flsub@a
  9378  000C14  C1B5  F02F         	movff	powf@z+1,___flsub@a+1
  9379  000C18  C1B6  F030         	movff	powf@z+2,___flsub@a+2
  9380  000C1C  C1B7  F031         	movff	powf@z+3,___flsub@a+3
  9381  000C20  C1B4  F02A         	movff	powf@z,___flsub@b
  9382  000C24  C1B5  F02B         	movff	powf@z+1,___flsub@b+1
  9383  000C28  C1B6  F02C         	movff	powf@z+2,___flsub@b+2
  9384  000C2C  C1B7  F02D         	movff	powf@z+3,___flsub@b+3
  9385  000C30  ECA5  F034         	call	___flsub	;wreg free
  9386  000C34  C02A  F036         	movff	?___flsub,i2___fldiv@a
  9387  000C38  C02B  F037         	movff	?___flsub+1,i2___fldiv@a+1
  9388  000C3C  C02C  F038         	movff	?___flsub+2,i2___fldiv@a+2
  9389  000C40  C02D  F039         	movff	?___flsub+3,i2___fldiv@a+3
  9390  000C44  EC98  F026         	call	i2___fldiv	;wreg free
  9391  000C48  C032  F1B4         	movff	?i2___fldiv,powf@z
  9392  000C4C  C033  F1B5         	movff	?i2___fldiv+1,powf@z+1
  9393  000C50  C034  F1B6         	movff	?i2___fldiv+2,powf@z+2
  9394  000C54  C035  F1B7         	movff	?i2___fldiv+3,powf@z+3
  9395  000C58  D019               	goto	i2l4912
  9396  000C5A                     i2l4908:
  9397                           
  9398                           ; BSR set to: 0
  9399  000C5A  0101               	movlb	1	; () banked
  9400  000C5C  0550               	decf	powf@yisint& (0+255),w,b
  9401  000C5E  1151               	iorwf	(powf@yisint+1)& (0+255),w,b
  9402  000C60  1152               	iorwf	(powf@yisint+2)& (0+255),w,b
  9403  000C62  1153               	iorwf	(powf@yisint+3)& (0+255),w,b
  9404  000C64  A4D8               	btfss	status,2,c
  9405  000C66  D012               	goto	i2l4912
  9406                           
  9407                           ; BSR set to: 1
  9408  000C68  C1B4  F001         	movff	powf@z,___flneg@f1
  9409  000C6C  C1B5  F002         	movff	powf@z+1,___flneg@f1+1
  9410  000C70  C1B6  F003         	movff	powf@z+2,___flneg@f1+2
  9411  000C74  C1B7  F004         	movff	powf@z+3,___flneg@f1+3
  9412  000C78  ECC5  F035         	call	___flneg	;wreg free
  9413  000C7C  C001  F1B4         	movff	?___flneg,powf@z
  9414  000C80  C002  F1B5         	movff	?___flneg+1,powf@z+1
  9415  000C84  C003  F1B6         	movff	?___flneg+2,powf@z+2
  9416  000C88  C004  F1B7         	movff	?___flneg+3,powf@z+3
  9417  000C8C                     i2l4912:
  9418  000C8C  C1B4  F06F         	movff	powf@z,?_powf
  9419  000C90  C1B5  F070         	movff	powf@z+1,?_powf+1
  9420  000C94  C1B6  F071         	movff	powf@z+2,?_powf+2
  9421  000C98  C1B7  F072         	movff	powf@z+3,?_powf+3
  9422  000C9C  0012               	return	
  9423  000C9E                     i2l4916:
  9424                           
  9425                           ; BSR set to: 1
  9426  000C9E  0E00               	movlw	0
  9427  000CA0  6F88               	movwf	powf@sn& (0+255),b
  9428  000CA2  0E00               	movlw	0
  9429  000CA4  6F89               	movwf	(powf@sn+1)& (0+255),b
  9430  000CA6  0E80               	movlw	128
  9431  000CA8  6F8A               	movwf	(powf@sn+2)& (0+255),b
  9432  000CAA  0E3F               	movlw	63
  9433  000CAC  6F8B               	movwf	(powf@sn+3)& (0+255),b
  9434                           
  9435                           ; BSR set to: 1
  9436  000CAE  AF63               	btfss	(powf@hx+3)& (0+255),7,b
  9437  000CB0  D053               	goto	i2l4930
  9438                           
  9439                           ; BSR set to: 1
  9440  000CB2  5150               	movf	powf@yisint& (0+255),w,b
  9441  000CB4  1151               	iorwf	(powf@yisint+1)& (0+255),w,b
  9442  000CB6  1152               	iorwf	(powf@yisint+2)& (0+255),w,b
  9443  000CB8  1153               	iorwf	(powf@yisint+3)& (0+255),w,b
  9444  000CBA  A4D8               	btfss	status,2,c
  9445  000CBC  D03F               	goto	i2l4926
  9446                           
  9447                           ; BSR set to: 1
  9448  000CBE  C06F  F02E         	movff	powf@x,___flsub@a
  9449  000CC2  C070  F02F         	movff	powf@x+1,___flsub@a+1
  9450  000CC6  C071  F030         	movff	powf@x+2,___flsub@a+2
  9451  000CCA  C072  F031         	movff	powf@x+3,___flsub@a+3
  9452  000CCE  C06F  F02A         	movff	powf@x,___flsub@b
  9453  000CD2  C070  F02B         	movff	powf@x+1,___flsub@b+1
  9454  000CD6  C071  F02C         	movff	powf@x+2,___flsub@b+2
  9455  000CDA  C072  F02D         	movff	powf@x+3,___flsub@b+3
  9456  000CDE  ECA5  F034         	call	___flsub	;wreg free
  9457  000CE2  C02A  F032         	movff	?___flsub,i2___fldiv@b
  9458  000CE6  C02B  F033         	movff	?___flsub+1,i2___fldiv@b+1
  9459  000CEA  C02C  F034         	movff	?___flsub+2,i2___fldiv@b+2
  9460  000CEE  C02D  F035         	movff	?___flsub+3,i2___fldiv@b+3
  9461  000CF2  C06F  F02E         	movff	powf@x,___flsub@a
  9462  000CF6  C070  F02F         	movff	powf@x+1,___flsub@a+1
  9463  000CFA  C071  F030         	movff	powf@x+2,___flsub@a+2
  9464  000CFE  C072  F031         	movff	powf@x+3,___flsub@a+3
  9465  000D02  C06F  F02A         	movff	powf@x,___flsub@b
  9466  000D06  C070  F02B         	movff	powf@x+1,___flsub@b+1
  9467  000D0A  C071  F02C         	movff	powf@x+2,___flsub@b+2
  9468  000D0E  C072  F02D         	movff	powf@x+3,___flsub@b+3
  9469  000D12  ECA5  F034         	call	___flsub	;wreg free
  9470  000D16  C02A  F036         	movff	?___flsub,i2___fldiv@a
  9471  000D1A  C02B  F037         	movff	?___flsub+1,i2___fldiv@a+1
  9472  000D1E  C02C  F038         	movff	?___flsub+2,i2___fldiv@a+2
  9473  000D22  C02D  F039         	movff	?___flsub+3,i2___fldiv@a+3
  9474  000D26  EC98  F026         	call	i2___fldiv	;wreg free
  9475  000D2A  C032  F06F         	movff	?i2___fldiv,?_powf
  9476  000D2E  C033  F070         	movff	?i2___fldiv+1,?_powf+1
  9477  000D32  C034  F071         	movff	?i2___fldiv+2,?_powf+2
  9478  000D36  C035  F072         	movff	?i2___fldiv+3,?_powf+3
  9479  000D3A  0012               	return	
  9480  000D3C                     i2l4926:
  9481                           
  9482                           ; BSR set to: 1
  9483  000D3C  0550               	decf	powf@yisint& (0+255),w,b
  9484  000D3E  1151               	iorwf	(powf@yisint+1)& (0+255),w,b
  9485  000D40  1152               	iorwf	(powf@yisint+2)& (0+255),w,b
  9486  000D42  1153               	iorwf	(powf@yisint+3)& (0+255),w,b
  9487  000D44  A4D8               	btfss	status,2,c
  9488  000D46  D008               	goto	i2l4930
  9489                           
  9490                           ; BSR set to: 1
  9491  000D48  0E00               	movlw	0
  9492  000D4A  6F88               	movwf	powf@sn& (0+255),b
  9493  000D4C  0E00               	movlw	0
  9494  000D4E  6F89               	movwf	(powf@sn+1)& (0+255),b
  9495  000D50  0E80               	movlw	128
  9496  000D52  6F8A               	movwf	(powf@sn+2)& (0+255),b
  9497  000D54  0EBF               	movlw	191
  9498  000D56  6F8B               	movwf	(powf@sn+3)& (0+255),b
  9499  000D58                     i2l4930:
  9500                           
  9501                           ; BSR set to: 1
  9502  000D58  BF9B               	btfsc	(powf@iy+3)& (0+255),7,b
  9503  000D5A  D26B               	goto	i2l4978
  9504  000D5C  0598               	decf	powf@iy& (0+255),w,b
  9505  000D5E  0E00               	movlw	0
  9506  000D60  5999               	subwfb	(powf@iy+1)& (0+255),w,b
  9507  000D62  0E00               	movlw	0
  9508  000D64  599A               	subwfb	(powf@iy+2)& (0+255),w,b
  9509  000D66  0E4D               	movlw	77
  9510  000D68  599B               	subwfb	(powf@iy+3)& (0+255),w,b
  9511  000D6A  A0D8               	btfss	status,0,c
  9512  000D6C  D262               	goto	i2l4978
  9513                           
  9514                           ; BSR set to: 1
  9515  000D6E  BFAB               	btfsc	(powf@ix+3)& (0+255),7,b
  9516  000D70  D00A               	goto	i2u565_40
  9517  000D72  0EF8               	movlw	248
  9518  000D74  5DA8               	subwf	powf@ix& (0+255),w,b
  9519  000D76  0EFF               	movlw	255
  9520  000D78  59A9               	subwfb	(powf@ix+1)& (0+255),w,b
  9521  000D7A  0E7F               	movlw	127
  9522  000D7C  59AA               	subwfb	(powf@ix+2)& (0+255),w,b
  9523  000D7E  0E3F               	movlw	63
  9524  000D80  59AB               	subwfb	(powf@ix+3)& (0+255),w,b
  9525  000D82  B0D8               	btfsc	status,0,c
  9526  000D84  D06C               	goto	i2l4942
  9527  000D86                     i2u565_40:
  9528                           
  9529                           ; BSR set to: 1
  9530  000D86  BF87               	btfsc	(powf@hy+3)& (0+255),7,b
  9531  000D88  D035               	goto	i2l4938
  9532                           
  9533                           ; BSR set to: 1
  9534  000D8A  0E60               	movlw	96
  9535  000D8C  6E15               	movwf	i2___flmul@a^0,c
  9536  000D8E  0E42               	movlw	66
  9537  000D90  6E16               	movwf	(i2___flmul@a+1)^0,c
  9538  000D92  0EA2               	movlw	162
  9539  000D94  6E17               	movwf	(i2___flmul@a+2)^0,c
  9540  000D96  0E0D               	movlw	13
  9541  000D98  6E18               	movwf	(i2___flmul@a+3)^0,c
  9542  000D9A  C188  F011         	movff	powf@sn,i2___flmul@b
  9543  000D9E  C189  F012         	movff	powf@sn+1,i2___flmul@b+1
  9544  000DA2  C18A  F013         	movff	powf@sn+2,i2___flmul@b+2
  9545  000DA6  C18B  F014         	movff	powf@sn+3,i2___flmul@b+3
  9546  000DAA  EC31  F01F         	call	i2___flmul	;wreg free
  9547  000DAE  C011  F1A4         	movff	?i2___flmul,_powf$2100
  9548  000DB2  C012  F1A5         	movff	?i2___flmul+1,_powf$2100+1
  9549  000DB6  C013  F1A6         	movff	?i2___flmul+2,_powf$2100+2
  9550  000DBA  C014  F1A7         	movff	?i2___flmul+3,_powf$2100+3
  9551  000DBE  C1A4  F011         	movff	_powf$2100,i2___flmul@b
  9552  000DC2  C1A5  F012         	movff	_powf$2100+1,i2___flmul@b+1
  9553  000DC6  C1A6  F013         	movff	_powf$2100+2,i2___flmul@b+2
  9554  000DCA  C1A7  F014         	movff	_powf$2100+3,i2___flmul@b+3
  9555  000DCE  0E60               	movlw	96
  9556  000DD0  6E15               	movwf	i2___flmul@a^0,c
  9557  000DD2  0E42               	movlw	66
  9558  000DD4  6E16               	movwf	(i2___flmul@a+1)^0,c
  9559  000DD6  0EA2               	movlw	162
  9560  000DD8  6E17               	movwf	(i2___flmul@a+2)^0,c
  9561  000DDA  0E0D               	movlw	13
  9562  000DDC  6E18               	movwf	(i2___flmul@a+3)^0,c
  9563  000DDE  EC31  F01F         	call	i2___flmul	;wreg free
  9564  000DE2  C011  F06F         	movff	?i2___flmul,?_powf
  9565  000DE6  C012  F070         	movff	?i2___flmul+1,?_powf+1
  9566  000DEA  C013  F071         	movff	?i2___flmul+2,?_powf+2
  9567  000DEE  C014  F072         	movff	?i2___flmul+3,?_powf+3
  9568  000DF2  0012               	return	
  9569  000DF4                     i2l4938:
  9570                           
  9571                           ; BSR set to: 1
  9572  000DF4  0ECA               	movlw	202
  9573  000DF6  6E15               	movwf	i2___flmul@a^0,c
  9574  000DF8  0EF2               	movlw	242
  9575  000DFA  6E16               	movwf	(i2___flmul@a+1)^0,c
  9576  000DFC  0E49               	movlw	73
  9577  000DFE  6E17               	movwf	(i2___flmul@a+2)^0,c
  9578  000E00  0E71               	movlw	113
  9579  000E02  6E18               	movwf	(i2___flmul@a+3)^0,c
  9580  000E04  C188  F011         	movff	powf@sn,i2___flmul@b
  9581  000E08  C189  F012         	movff	powf@sn+1,i2___flmul@b+1
  9582  000E0C  C18A  F013         	movff	powf@sn+2,i2___flmul@b+2
  9583  000E10  C18B  F014         	movff	powf@sn+3,i2___flmul@b+3
  9584  000E14  EC31  F01F         	call	i2___flmul	;wreg free
  9585  000E18  C011  F1A4         	movff	?i2___flmul,_powf$2100
  9586  000E1C  C012  F1A5         	movff	?i2___flmul+1,_powf$2100+1
  9587  000E20  C013  F1A6         	movff	?i2___flmul+2,_powf$2100+2
  9588  000E24  C014  F1A7         	movff	?i2___flmul+3,_powf$2100+3
  9589  000E28  C1A4  F011         	movff	_powf$2100,i2___flmul@b
  9590  000E2C  C1A5  F012         	movff	_powf$2100+1,i2___flmul@b+1
  9591  000E30  C1A6  F013         	movff	_powf$2100+2,i2___flmul@b+2
  9592  000E34  C1A7  F014         	movff	_powf$2100+3,i2___flmul@b+3
  9593  000E38  0ECA               	movlw	202
  9594  000E3A  6E15               	movwf	i2___flmul@a^0,c
  9595  000E3C  0EF2               	movlw	242
  9596  000E3E  6E16               	movwf	(i2___flmul@a+1)^0,c
  9597  000E40  0E49               	movlw	73
  9598  000E42  6E17               	movwf	(i2___flmul@a+2)^0,c
  9599  000E44  0E71               	movlw	113
  9600  000E46  6E18               	movwf	(i2___flmul@a+3)^0,c
  9601  000E48  EC31  F01F         	call	i2___flmul	;wreg free
  9602  000E4C  C011  F06F         	movff	?i2___flmul,?_powf
  9603  000E50  C012  F070         	movff	?i2___flmul+1,?_powf+1
  9604  000E54  C013  F071         	movff	?i2___flmul+2,?_powf+2
  9605  000E58  C014  F072         	movff	?i2___flmul+3,?_powf+3
  9606  000E5C  0012               	return	
  9607  000E5E                     i2l4942:
  9608                           
  9609                           ; BSR set to: 1
  9610  000E5E  BFAB               	btfsc	(powf@ix+3)& (0+255),7,b
  9611  000E60  D07D               	goto	i2l4952
  9612  000E62  0E08               	movlw	8
  9613  000E64  5DA8               	subwf	powf@ix& (0+255),w,b
  9614  000E66  0E00               	movlw	0
  9615  000E68  59A9               	subwfb	(powf@ix+1)& (0+255),w,b
  9616  000E6A  0E80               	movlw	128
  9617  000E6C  59AA               	subwfb	(powf@ix+2)& (0+255),w,b
  9618  000E6E  0E3F               	movlw	63
  9619  000E70  59AB               	subwfb	(powf@ix+3)& (0+255),w,b
  9620  000E72  A0D8               	btfss	status,0,c
  9621  000E74  D073               	goto	i2l4952
  9622                           
  9623                           ; BSR set to: 1
  9624  000E76  BF87               	btfsc	(powf@hy+3)& (0+255),7,b
  9625  000E78  D007               	goto	i2u568_40
  9626  000E7A  5187               	movf	(powf@hy+3)& (0+255),w,b
  9627  000E7C  1186               	iorwf	(powf@hy+2)& (0+255),w,b
  9628  000E7E  1185               	iorwf	(powf@hy+1)& (0+255),w,b
  9629  000E80  E138               	bnz	i2l4948
  9630  000E82  0584               	decf	powf@hy& (0+255),w,b
  9631  000E84  B0D8               	btfsc	status,0,c
  9632  000E86  D035               	goto	i2l4948
  9633  000E88                     i2u568_40:
  9634                           
  9635                           ; BSR set to: 1
  9636  000E88  0E60               	movlw	96
  9637  000E8A  6E15               	movwf	i2___flmul@a^0,c
  9638  000E8C  0E42               	movlw	66
  9639  000E8E  6E16               	movwf	(i2___flmul@a+1)^0,c
  9640  000E90  0EA2               	movlw	162
  9641  000E92  6E17               	movwf	(i2___flmul@a+2)^0,c
  9642  000E94  0E0D               	movlw	13
  9643  000E96  6E18               	movwf	(i2___flmul@a+3)^0,c
  9644  000E98  C188  F011         	movff	powf@sn,i2___flmul@b
  9645  000E9C  C189  F012         	movff	powf@sn+1,i2___flmul@b+1
  9646  000EA0  C18A  F013         	movff	powf@sn+2,i2___flmul@b+2
  9647  000EA4  C18B  F014         	movff	powf@sn+3,i2___flmul@b+3
  9648  000EA8  EC31  F01F         	call	i2___flmul	;wreg free
  9649  000EAC  C011  F1A4         	movff	?i2___flmul,_powf$2100
  9650  000EB0  C012  F1A5         	movff	?i2___flmul+1,_powf$2100+1
  9651  000EB4  C013  F1A6         	movff	?i2___flmul+2,_powf$2100+2
  9652  000EB8  C014  F1A7         	movff	?i2___flmul+3,_powf$2100+3
  9653  000EBC  C1A4  F011         	movff	_powf$2100,i2___flmul@b
  9654  000EC0  C1A5  F012         	movff	_powf$2100+1,i2___flmul@b+1
  9655  000EC4  C1A6  F013         	movff	_powf$2100+2,i2___flmul@b+2
  9656  000EC8  C1A7  F014         	movff	_powf$2100+3,i2___flmul@b+3
  9657  000ECC  0E60               	movlw	96
  9658  000ECE  6E15               	movwf	i2___flmul@a^0,c
  9659  000ED0  0E42               	movlw	66
  9660  000ED2  6E16               	movwf	(i2___flmul@a+1)^0,c
  9661  000ED4  0EA2               	movlw	162
  9662  000ED6  6E17               	movwf	(i2___flmul@a+2)^0,c
  9663  000ED8  0E0D               	movlw	13
  9664  000EDA  6E18               	movwf	(i2___flmul@a+3)^0,c
  9665  000EDC  EC31  F01F         	call	i2___flmul	;wreg free
  9666  000EE0  C011  F06F         	movff	?i2___flmul,?_powf
  9667  000EE4  C012  F070         	movff	?i2___flmul+1,?_powf+1
  9668  000EE8  C013  F071         	movff	?i2___flmul+2,?_powf+2
  9669  000EEC  C014  F072         	movff	?i2___flmul+3,?_powf+3
  9670  000EF0  0012               	return	
  9671  000EF2                     i2l4948:
  9672                           
  9673                           ; BSR set to: 1
  9674  000EF2  0ECA               	movlw	202
  9675  000EF4  6E15               	movwf	i2___flmul@a^0,c
  9676  000EF6  0EF2               	movlw	242
  9677  000EF8  6E16               	movwf	(i2___flmul@a+1)^0,c
  9678  000EFA  0E49               	movlw	73
  9679  000EFC  6E17               	movwf	(i2___flmul@a+2)^0,c
  9680  000EFE  0E71               	movlw	113
  9681  000F00  6E18               	movwf	(i2___flmul@a+3)^0,c
  9682  000F02  C188  F011         	movff	powf@sn,i2___flmul@b
  9683  000F06  C189  F012         	movff	powf@sn+1,i2___flmul@b+1
  9684  000F0A  C18A  F013         	movff	powf@sn+2,i2___flmul@b+2
  9685  000F0E  C18B  F014         	movff	powf@sn+3,i2___flmul@b+3
  9686  000F12  EC31  F01F         	call	i2___flmul	;wreg free
  9687  000F16  C011  F1A4         	movff	?i2___flmul,_powf$2100
  9688  000F1A  C012  F1A5         	movff	?i2___flmul+1,_powf$2100+1
  9689  000F1E  C013  F1A6         	movff	?i2___flmul+2,_powf$2100+2
  9690  000F22  C014  F1A7         	movff	?i2___flmul+3,_powf$2100+3
  9691  000F26  C1A4  F011         	movff	_powf$2100,i2___flmul@b
  9692  000F2A  C1A5  F012         	movff	_powf$2100+1,i2___flmul@b+1
  9693  000F2E  C1A6  F013         	movff	_powf$2100+2,i2___flmul@b+2
  9694  000F32  C1A7  F014         	movff	_powf$2100+3,i2___flmul@b+3
  9695  000F36  0ECA               	movlw	202
  9696  000F38  6E15               	movwf	i2___flmul@a^0,c
  9697  000F3A  0EF2               	movlw	242
  9698  000F3C  6E16               	movwf	(i2___flmul@a+1)^0,c
  9699  000F3E  0E49               	movlw	73
  9700  000F40  6E17               	movwf	(i2___flmul@a+2)^0,c
  9701  000F42  0E71               	movlw	113
  9702  000F44  6E18               	movwf	(i2___flmul@a+3)^0,c
  9703  000F46  EC31  F01F         	call	i2___flmul	;wreg free
  9704  000F4A  C011  F06F         	movff	?i2___flmul,?_powf
  9705  000F4E  C012  F070         	movff	?i2___flmul+1,?_powf+1
  9706  000F52  C013  F071         	movff	?i2___flmul+2,?_powf+2
  9707  000F56  C014  F072         	movff	?i2___flmul+3,?_powf+3
  9708  000F5A  0012               	return	
  9709  000F5C                     i2l4952:
  9710                           
  9711                           ; BSR set to: 1
  9712  000F5C  C170  F001         	movff	powf@ax,i2___fladd@b
  9713  000F60  C171  F002         	movff	powf@ax+1,i2___fladd@b+1
  9714  000F64  C172  F003         	movff	powf@ax+2,i2___fladd@b+2
  9715  000F68  C173  F004         	movff	powf@ax+3,i2___fladd@b+3
  9716  000F6C  0E00               	movlw	0
  9717  000F6E  6E05               	movwf	i2___fladd@a^0,c
  9718  000F70  0E00               	movlw	0
  9719  000F72  6E06               	movwf	(i2___fladd@a+1)^0,c
  9720  000F74  0E80               	movlw	128
  9721  000F76  6E07               	movwf	(i2___fladd@a+2)^0,c
  9722  000F78  0EBF               	movlw	191
  9723  000F7A  6E08               	movwf	(i2___fladd@a+3)^0,c
  9724  000F7C  EC61  F022         	call	i2___fladd	;wreg free
  9725  000F80  C001  F1B0         	movff	?i2___fladd,powf@t
  9726  000F84  C002  F1B1         	movff	?i2___fladd+1,powf@t+1
  9727  000F88  C003  F1B2         	movff	?i2___fladd+2,powf@t+2
  9728  000F8C  C004  F1B3         	movff	?i2___fladd+3,powf@t+3
  9729  000F90  0E00               	movlw	0
  9730  000F92  6E15               	movwf	i2___flmul@a^0,c
  9731  000F94  0E00               	movlw	0
  9732  000F96  6E16               	movwf	(i2___flmul@a+1)^0,c
  9733  000F98  0E80               	movlw	128
  9734  000F9A  6E17               	movwf	(i2___flmul@a+2)^0,c
  9735  000F9C  0E3E               	movlw	62
  9736  000F9E  6E18               	movwf	(i2___flmul@a+3)^0,c
  9737  000FA0  C1B0  F011         	movff	powf@t,i2___flmul@b
  9738  000FA4  C1B1  F012         	movff	powf@t+1,i2___flmul@b+1
  9739  000FA8  C1B2  F013         	movff	powf@t+2,i2___flmul@b+2
  9740  000FAC  C1B3  F014         	movff	powf@t+3,i2___flmul@b+3
  9741  000FB0  EC31  F01F         	call	i2___flmul	;wreg free
  9742  000FB4  C011  F02E         	movff	?i2___flmul,___flsub@a
  9743  000FB8  C012  F02F         	movff	?i2___flmul+1,___flsub@a+1
  9744  000FBC  C013  F030         	movff	?i2___flmul+2,___flsub@a+2
  9745  000FC0  C014  F031         	movff	?i2___flmul+3,___flsub@a+3
  9746  000FC4  0EAB               	movlw	171
  9747  000FC6  6E2A               	movwf	___flsub@b^0,c
  9748  000FC8  0EAA               	movlw	170
  9749  000FCA  6E2B               	movwf	(___flsub@b+1)^0,c
  9750  000FCC  0EAA               	movlw	170
  9751  000FCE  6E2C               	movwf	(___flsub@b+2)^0,c
  9752  000FD0  0E3E               	movlw	62
  9753  000FD2  6E2D               	movwf	(___flsub@b+3)^0,c
  9754  000FD4  ECA5  F034         	call	___flsub	;wreg free
  9755  000FD8  C02A  F1A4         	movff	?___flsub,_powf$2100
  9756  000FDC  C02B  F1A5         	movff	?___flsub+1,_powf$2100+1
  9757  000FE0  C02C  F1A6         	movff	?___flsub+2,_powf$2100+2
  9758  000FE4  C02D  F1A7         	movff	?___flsub+3,_powf$2100+3
  9759  000FE8  C1B0  F015         	movff	powf@t,i2___flmul@a
  9760  000FEC  C1B1  F016         	movff	powf@t+1,i2___flmul@a+1
  9761  000FF0  C1B2  F017         	movff	powf@t+2,i2___flmul@a+2
  9762  000FF4  C1B3  F018         	movff	powf@t+3,i2___flmul@a+3
  9763  000FF8  C1B0  F011         	movff	powf@t,i2___flmul@b
  9764  000FFC  C1B1  F012         	movff	powf@t+1,i2___flmul@b+1
  9765  001000  C1B2  F013         	movff	powf@t+2,i2___flmul@b+2
  9766  001004  C1B3  F014         	movff	powf@t+3,i2___flmul@b+3
  9767  001008  EC31  F01F         	call	i2___flmul	;wreg free
  9768  00100C  C011  F154         	movff	?i2___flmul,_powf$2101
  9769  001010  C012  F155         	movff	?i2___flmul+1,_powf$2101+1
  9770  001014  C013  F156         	movff	?i2___flmul+2,_powf$2101+2
  9771  001018  C014  F157         	movff	?i2___flmul+3,_powf$2101+3
  9772  00101C  C1B0  F015         	movff	powf@t,i2___flmul@a
  9773  001020  C1B1  F016         	movff	powf@t+1,i2___flmul@a+1
  9774  001024  C1B2  F017         	movff	powf@t+2,i2___flmul@a+2
  9775  001028  C1B3  F018         	movff	powf@t+3,i2___flmul@a+3
  9776  00102C  C1A4  F011         	movff	_powf$2100,i2___flmul@b
  9777  001030  C1A5  F012         	movff	_powf$2100+1,i2___flmul@b+1
  9778  001034  C1A6  F013         	movff	_powf$2100+2,i2___flmul@b+2
  9779  001038  C1A7  F014         	movff	_powf$2100+3,i2___flmul@b+3
  9780  00103C  EC31  F01F         	call	i2___flmul	;wreg free
  9781  001040  C011  F02E         	movff	?i2___flmul,___flsub@a
  9782  001044  C012  F02F         	movff	?i2___flmul+1,___flsub@a+1
  9783  001048  C013  F030         	movff	?i2___flmul+2,___flsub@a+2
  9784  00104C  C014  F031         	movff	?i2___flmul+3,___flsub@a+3
  9785  001050  0E00               	movlw	0
  9786  001052  6E2A               	movwf	___flsub@b^0,c
  9787  001054  0E00               	movlw	0
  9788  001056  6E2B               	movwf	(___flsub@b+1)^0,c
  9789  001058  0E00               	movlw	0
  9790  00105A  6E2C               	movwf	(___flsub@b+2)^0,c
  9791  00105C  0E3F               	movlw	63
  9792  00105E  6E2D               	movwf	(___flsub@b+3)^0,c
  9793  001060  ECA5  F034         	call	___flsub	;wreg free
  9794  001064  C02A  F148         	movff	?___flsub,_powf$2102
  9795  001068  C02B  F149         	movff	?___flsub+1,_powf$2102+1
  9796  00106C  C02C  F14A         	movff	?___flsub+2,_powf$2102+2
  9797  001070  C02D  F14B         	movff	?___flsub+3,_powf$2102+3
  9798  001074  C154  F011         	movff	_powf$2101,i2___flmul@b
  9799  001078  C155  F012         	movff	_powf$2101+1,i2___flmul@b+1
  9800  00107C  C156  F013         	movff	_powf$2101+2,i2___flmul@b+2
  9801  001080  C157  F014         	movff	_powf$2101+3,i2___flmul@b+3
  9802  001084  C148  F015         	movff	_powf$2102,i2___flmul@a
  9803  001088  C149  F016         	movff	_powf$2102+1,i2___flmul@a+1
  9804  00108C  C14A  F017         	movff	_powf$2102+2,i2___flmul@a+2
  9805  001090  C14B  F018         	movff	_powf$2102+3,i2___flmul@a+3
  9806  001094  EC31  F01F         	call	i2___flmul	;wreg free
  9807  001098  C011  F144         	movff	?i2___flmul,powf@w
  9808  00109C  C012  F145         	movff	?i2___flmul+1,powf@w+1
  9809  0010A0  C013  F146         	movff	?i2___flmul+2,powf@w+2
  9810  0010A4  C014  F147         	movff	?i2___flmul+3,powf@w+3
  9811  0010A8  C1B0  F011         	movff	powf@t,i2___flmul@b
  9812  0010AC  C1B1  F012         	movff	powf@t+1,i2___flmul@b+1
  9813  0010B0  C1B2  F013         	movff	powf@t+2,i2___flmul@b+2
  9814  0010B4  C1B3  F014         	movff	powf@t+3,i2___flmul@b+3
  9815  0010B8  0E00               	movlw	0
  9816  0010BA  6E15               	movwf	i2___flmul@a^0,c
  9817  0010BC  0EAA               	movlw	170
  9818  0010BE  6E16               	movwf	(i2___flmul@a+1)^0,c
  9819  0010C0  0EB8               	movlw	184
  9820  0010C2  6E17               	movwf	(i2___flmul@a+2)^0,c
  9821  0010C4  0E3F               	movlw	63
  9822  0010C6  6E18               	movwf	(i2___flmul@a+3)^0,c
  9823  0010C8  EC31  F01F         	call	i2___flmul	;wreg free
  9824  0010CC  C011  F174         	movff	?i2___flmul,powf@u
  9825  0010D0  C012  F175         	movff	?i2___flmul+1,powf@u+1
  9826  0010D4  C013  F176         	movff	?i2___flmul+2,powf@u+2
  9827  0010D8  C014  F177         	movff	?i2___flmul+3,powf@u+3
  9828  0010DC  0E70               	movlw	112
  9829  0010DE  6E15               	movwf	i2___flmul@a^0,c
  9830  0010E0  0EA5               	movlw	165
  9831  0010E2  6E16               	movwf	(i2___flmul@a+1)^0,c
  9832  0010E4  0EEC               	movlw	236
  9833  0010E6  6E17               	movwf	(i2___flmul@a+2)^0,c
  9834  0010E8  0E36               	movlw	54
  9835  0010EA  6E18               	movwf	(i2___flmul@a+3)^0,c
  9836  0010EC  C1B0  F011         	movff	powf@t,i2___flmul@b
  9837  0010F0  C1B1  F012         	movff	powf@t+1,i2___flmul@b+1
  9838  0010F4  C1B2  F013         	movff	powf@t+2,i2___flmul@b+2
  9839  0010F8  C1B3  F014         	movff	powf@t+3,i2___flmul@b+3
  9840  0010FC  EC31  F01F         	call	i2___flmul	;wreg free
  9841  001100  C011  F02A         	movff	?i2___flmul,___flsub@b
  9842  001104  C012  F02B         	movff	?i2___flmul+1,___flsub@b+1
  9843  001108  C013  F02C         	movff	?i2___flmul+2,___flsub@b+2
  9844  00110C  C014  F02D         	movff	?i2___flmul+3,___flsub@b+3
  9845  001110  0E3B               	movlw	59
  9846  001112  6E15               	movwf	i2___flmul@a^0,c
  9847  001114  0EAA               	movlw	170
  9848  001116  6E16               	movwf	(i2___flmul@a+1)^0,c
  9849  001118  0EB8               	movlw	184
  9850  00111A  6E17               	movwf	(i2___flmul@a+2)^0,c
  9851  00111C  0E3F               	movlw	63
  9852  00111E  6E18               	movwf	(i2___flmul@a+3)^0,c
  9853  001120  C144  F011         	movff	powf@w,i2___flmul@b
  9854  001124  C145  F012         	movff	powf@w+1,i2___flmul@b+1
  9855  001128  C146  F013         	movff	powf@w+2,i2___flmul@b+2
  9856  00112C  C147  F014         	movff	powf@w+3,i2___flmul@b+3
  9857  001130  EC31  F01F         	call	i2___flmul	;wreg free
  9858  001134  C011  F02E         	movff	?i2___flmul,___flsub@a
  9859  001138  C012  F02F         	movff	?i2___flmul+1,___flsub@a+1
  9860  00113C  C013  F030         	movff	?i2___flmul+2,___flsub@a+2
  9861  001140  C014  F031         	movff	?i2___flmul+3,___flsub@a+3
  9862  001144  ECA5  F034         	call	___flsub	;wreg free
  9863  001148  C02A  F178         	movff	?___flsub,powf@v
  9864  00114C  C02B  F179         	movff	?___flsub+1,powf@v+1
  9865  001150  C02C  F17A         	movff	?___flsub+2,powf@v+2
  9866  001154  C02D  F17B         	movff	?___flsub+3,powf@v+3
  9867  001158  C174  F001         	movff	powf@u,i2___fladd@b
  9868  00115C  C175  F002         	movff	powf@u+1,i2___fladd@b+1
  9869  001160  C176  F003         	movff	powf@u+2,i2___fladd@b+2
  9870  001164  C177  F004         	movff	powf@u+3,i2___fladd@b+3
  9871  001168  C178  F005         	movff	powf@v,i2___fladd@a
  9872  00116C  C179  F006         	movff	powf@v+1,i2___fladd@a+1
  9873  001170  C17A  F007         	movff	powf@v+2,i2___fladd@a+2
  9874  001174  C17B  F008         	movff	powf@v+3,i2___fladd@a+3
  9875  001178  EC61  F022         	call	i2___fladd	;wreg free
  9876  00117C  C001  F180         	movff	?i2___fladd,powf@t1
  9877  001180  C002  F181         	movff	?i2___fladd+1,powf@t1+1
  9878  001184  C003  F182         	movff	?i2___fladd+2,powf@t1+2
  9879  001188  C004  F183         	movff	?i2___fladd+3,powf@t1+3
  9880  00118C  C180  F1B8         	movff	powf@t1,powf@__xc8_float_word
  9881  001190  C181  F1B9         	movff	powf@t1+1,powf@__xc8_float_word+1
  9882  001194  C182  F1BA         	movff	powf@t1+2,powf@__xc8_float_word+2
  9883  001198  C183  F1BB         	movff	powf@t1+3,powf@__xc8_float_word+3
  9884  00119C  C1B8  F190         	movff	powf@__xc8_float_word,powf@is
  9885  0011A0  C1B9  F191         	movff	powf@__xc8_float_word+1,powf@is+1
  9886  0011A4  C1BA  F192         	movff	powf@__xc8_float_word+2,powf@is+2
  9887  0011A8  C1BB  F193         	movff	powf@__xc8_float_word+3,powf@is+3
  9888  0011AC  0E00               	movlw	0
  9889  0011AE  0101               	movlb	1	; () banked
  9890  0011B0  1590               	andwf	powf@is& (0+255),w,b
  9891  0011B2  6FB8               	movwf	powf@__xc8_float_word& (0+255),b
  9892  0011B4  0EF0               	movlw	240
  9893  0011B6  1591               	andwf	(powf@is+1)& (0+255),w,b
  9894  0011B8  6FB9               	movwf	(powf@__xc8_float_word+1)& (0+255),b
  9895  0011BA  0EFF               	movlw	255
  9896  0011BC  1592               	andwf	(powf@is+2)& (0+255),w,b
  9897  0011BE  6FBA               	movwf	(powf@__xc8_float_word+2)& (0+255),b
  9898  0011C0  0EFF               	movlw	255
  9899  0011C2  1593               	andwf	(powf@is+3)& (0+255),w,b
  9900  0011C4  6FBB               	movwf	(powf@__xc8_float_word+3)& (0+255),b
  9901                           
  9902                           ; BSR set to: 1
  9903  0011C6  C1B8  F180         	movff	powf@__xc8_float_word,powf@t1
  9904  0011CA  C1B9  F181         	movff	powf@__xc8_float_word+1,powf@t1+1
  9905  0011CE  C1BA  F182         	movff	powf@__xc8_float_word+2,powf@t1+2
  9906  0011D2  C1BB  F183         	movff	powf@__xc8_float_word+3,powf@t1+3
  9907                           
  9908                           ; BSR set to: 1
  9909  0011D6  C174  F02E         	movff	powf@u,___flsub@a
  9910  0011DA  C175  F02F         	movff	powf@u+1,___flsub@a+1
  9911  0011DE  C176  F030         	movff	powf@u+2,___flsub@a+2
  9912  0011E2  C177  F031         	movff	powf@u+3,___flsub@a+3
  9913  0011E6  C180  F02A         	movff	powf@t1,___flsub@b
  9914  0011EA  C181  F02B         	movff	powf@t1+1,___flsub@b+1
  9915  0011EE  C182  F02C         	movff	powf@t1+2,___flsub@b+2
  9916  0011F2  C183  F02D         	movff	powf@t1+3,___flsub@b+3
  9917  0011F6  ECA5  F034         	call	___flsub	;wreg free
  9918  0011FA  C02A  F194         	movff	?___flsub,_powf$1970
  9919  0011FE  C02B  F195         	movff	?___flsub+1,_powf$1970+1
  9920  001202  C02C  F196         	movff	?___flsub+2,_powf$1970+2
  9921  001206  C02D  F197         	movff	?___flsub+3,_powf$1970+3
  9922  00120A  C178  F02A         	movff	powf@v,___flsub@b
  9923  00120E  C179  F02B         	movff	powf@v+1,___flsub@b+1
  9924  001212  C17A  F02C         	movff	powf@v+2,___flsub@b+2
  9925  001216  C17B  F02D         	movff	powf@v+3,___flsub@b+3
  9926  00121A  C194  F02E         	movff	_powf$1970,___flsub@a
  9927  00121E  C195  F02F         	movff	_powf$1970+1,___flsub@a+1
  9928  001222  C196  F030         	movff	_powf$1970+2,___flsub@a+2
  9929  001226  C197  F031         	movff	_powf$1970+3,___flsub@a+3
  9930  00122A  ECA5  F034         	call	___flsub	;wreg free
  9931  00122E  EF60  F010         	goto	L10
  9932  001232                     i2l4978:
  9933                           
  9934                           ; BSR set to: 1
  9935  001232  0E00               	movlw	0
  9936  001234  6F7C               	movwf	powf@n& (0+255),b
  9937  001236  0E00               	movlw	0
  9938  001238  6F7D               	movwf	(powf@n+1)& (0+255),b
  9939  00123A  0E00               	movlw	0
  9940  00123C  6F7E               	movwf	(powf@n+2)& (0+255),b
  9941  00123E  0E00               	movlw	0
  9942  001240  6F7F               	movwf	(powf@n+3)& (0+255),b
  9943                           
  9944                           ; BSR set to: 1
  9945  001242  BFAB               	btfsc	(powf@ix+3)& (0+255),7,b
  9946  001244  D006               	goto	i2u569_40
  9947  001246  51AB               	movf	(powf@ix+3)& (0+255),w,b
  9948  001248  E137               	bnz	i2l4990
  9949  00124A  0E80               	movlw	128
  9950  00124C  5DAA               	subwf	(powf@ix+2)& (0+255),w,b
  9951  00124E  B0D8               	btfsc	status,0,c
  9952  001250  D033               	goto	i2l4990
  9953  001252                     i2u569_40:
  9954                           
  9955                           ; BSR set to: 1
  9956  001252  C170  F011         	movff	powf@ax,i2___flmul@b
  9957  001256  C171  F012         	movff	powf@ax+1,i2___flmul@b+1
  9958  00125A  C172  F013         	movff	powf@ax+2,i2___flmul@b+2
  9959  00125E  C173  F014         	movff	powf@ax+3,i2___flmul@b+3
  9960  001262  0E00               	movlw	0
  9961  001264  6E15               	movwf	i2___flmul@a^0,c
  9962  001266  0E00               	movlw	0
  9963  001268  6E16               	movwf	(i2___flmul@a+1)^0,c
  9964  00126A  0E80               	movlw	128
  9965  00126C  6E17               	movwf	(i2___flmul@a+2)^0,c
  9966  00126E  0E4B               	movlw	75
  9967  001270  6E18               	movwf	(i2___flmul@a+3)^0,c
  9968  001272  EC31  F01F         	call	i2___flmul	;wreg free
  9969  001276  C011  F170         	movff	?i2___flmul,powf@ax
  9970  00127A  C012  F171         	movff	?i2___flmul+1,powf@ax+1
  9971  00127E  C013  F172         	movff	?i2___flmul+2,powf@ax+2
  9972  001282  C014  F173         	movff	?i2___flmul+3,powf@ax+3
  9973  001286  0EE8               	movlw	232
  9974  001288  0101               	movlb	1	; () banked
  9975  00128A  277C               	addwf	powf@n& (0+255),f,b
  9976  00128C  0EFF               	movlw	255
  9977  00128E  237D               	addwfc	(powf@n+1)& (0+255),f,b
  9978  001290  0EFF               	movlw	255
  9979  001292  237E               	addwfc	(powf@n+2)& (0+255),f,b
  9980  001294  0EFF               	movlw	255
  9981  001296  237F               	addwfc	(powf@n+3)& (0+255),f,b
  9982                           
  9983                           ; BSR set to: 1
  9984  001298  C170  F1B8         	movff	powf@ax,powf@__xc8_float_word
  9985  00129C  C171  F1B9         	movff	powf@ax+1,powf@__xc8_float_word+1
  9986  0012A0  C172  F1BA         	movff	powf@ax+2,powf@__xc8_float_word+2
  9987  0012A4  C173  F1BB         	movff	powf@ax+3,powf@__xc8_float_word+3
  9988                           
  9989                           ; BSR set to: 1
  9990  0012A8  C1B8  F1A8         	movff	powf@__xc8_float_word,powf@ix
  9991  0012AC  C1B9  F1A9         	movff	powf@__xc8_float_word+1,powf@ix+1
  9992  0012B0  C1BA  F1AA         	movff	powf@__xc8_float_word+2,powf@ix+2
  9993  0012B4  C1BB  F1AB         	movff	powf@__xc8_float_word+3,powf@ix+3
  9994  0012B8                     i2l4990:
  9995                           
  9996                           ; BSR set to: 1
  9997  0012B8  0E17               	movlw	23
  9998  0012BA  0100               	movlb	0	; () banked
  9999  0012BC  6FD2               	movwf	??_powf& (0+255),b
 10000  0012BE  C1A8  F0D3         	movff	powf@ix,??_powf+1
 10001  0012C2  C1A9  F0D4         	movff	powf@ix+1,??_powf+2
 10002  0012C6  C1AA  F0D5         	movff	powf@ix+2,??_powf+3
 10003  0012CA  C1AB  F0D6         	movff	powf@ix+3,??_powf+4
 10004  0012CE                     i2u570_45:
 10005  0012CE  67D2               	tstfsz	??_powf& (0+255),b
 10006  0012D0  D001               	goto	i2u570_46
 10007  0012D2  D007               	goto	i2u570_47
 10008  0012D4                     i2u570_46:
 10009  0012D4  35D6               	rlcf	(??_powf+4)& (0+255),w,b
 10010  0012D6  33D6               	rrcf	(??_powf+4)& (0+255),f,b
 10011  0012D8  33D5               	rrcf	(??_powf+3)& (0+255),f,b
 10012  0012DA  33D4               	rrcf	(??_powf+2)& (0+255),f,b
 10013  0012DC  33D3               	rrcf	(??_powf+1)& (0+255),f,b
 10014  0012DE  2FD2               	decfsz	??_powf& (0+255),f,b
 10015  0012E0  D7F6               	goto	i2u570_45
 10016  0012E2                     i2u570_47:
 10017  0012E2  0E81               	movlw	129
 10018  0012E4  0100               	movlb	0	; () banked
 10019  0012E6  25D3               	addwf	(??_powf+1)& (0+255),w,b
 10020  0012E8  6FD7               	movwf	(??_powf+5)& (0+255),b
 10021  0012EA  0EFF               	movlw	255
 10022  0012EC  21D4               	addwfc	(??_powf+2)& (0+255),w,b
 10023  0012EE  6FD8               	movwf	(??_powf+6)& (0+255),b
 10024  0012F0  0EFF               	movlw	255
 10025  0012F2  21D5               	addwfc	(??_powf+3)& (0+255),w,b
 10026  0012F4  6FD9               	movwf	(??_powf+7)& (0+255),b
 10027  0012F6  0EFF               	movlw	255
 10028  0012F8  21D6               	addwfc	(??_powf+4)& (0+255),w,b
 10029  0012FA  6FDA               	movwf	(??_powf+8)& (0+255),b
 10030  0012FC  51D7               	movf	(??_powf+5)& (0+255),w,b
 10031  0012FE  0101               	movlb	1	; () banked
 10032  001300  277C               	addwf	powf@n& (0+255),f,b
 10033  001302  0100               	movlb	0	; () banked
 10034  001304  51D8               	movf	(??_powf+6)& (0+255),w,b
 10035  001306  0101               	movlb	1	; () banked
 10036  001308  237D               	addwfc	(powf@n+1)& (0+255),f,b
 10037  00130A  0100               	movlb	0	; () banked
 10038  00130C  51D9               	movf	(??_powf+7)& (0+255),w,b
 10039  00130E  0101               	movlb	1	; () banked
 10040  001310  237E               	addwfc	(powf@n+2)& (0+255),f,b
 10041  001312  0100               	movlb	0	; () banked
 10042  001314  51DA               	movf	(??_powf+8)& (0+255),w,b
 10043  001316  0101               	movlb	1	; () banked
 10044  001318  237F               	addwfc	(powf@n+3)& (0+255),f,b
 10045                           
 10046                           ; BSR set to: 1
 10047  00131A  0EFF               	movlw	255
 10048  00131C  15A8               	andwf	powf@ix& (0+255),w,b
 10049  00131E  6FAC               	movwf	powf@j& (0+255),b
 10050  001320  0EFF               	movlw	255
 10051  001322  15A9               	andwf	(powf@ix+1)& (0+255),w,b
 10052  001324  6FAD               	movwf	(powf@j+1)& (0+255),b
 10053  001326  0E7F               	movlw	127
 10054  001328  15AA               	andwf	(powf@ix+2)& (0+255),w,b
 10055  00132A  6FAE               	movwf	(powf@j+2)& (0+255),b
 10056  00132C  0E00               	movlw	0
 10057  00132E  15AB               	andwf	(powf@ix+3)& (0+255),w,b
 10058  001330  6FAF               	movwf	(powf@j+3)& (0+255),b
 10059                           
 10060                           ; BSR set to: 1
 10061  001332  0E00               	movlw	0
 10062  001334  11AC               	iorwf	powf@j& (0+255),w,b
 10063  001336  6FA8               	movwf	powf@ix& (0+255),b
 10064  001338  0E00               	movlw	0
 10065  00133A  11AD               	iorwf	(powf@j+1)& (0+255),w,b
 10066  00133C  6FA9               	movwf	(powf@ix+1)& (0+255),b
 10067  00133E  0E80               	movlw	128
 10068  001340  11AE               	iorwf	(powf@j+2)& (0+255),w,b
 10069  001342  6FAA               	movwf	(powf@ix+2)& (0+255),b
 10070  001344  0E3F               	movlw	63
 10071  001346  11AF               	iorwf	(powf@j+3)& (0+255),w,b
 10072  001348  6FAB               	movwf	(powf@ix+3)& (0+255),b
 10073                           
 10074                           ; BSR set to: 1
 10075  00134A  BFAF               	btfsc	(powf@j+3)& (0+255),7,b
 10076  00134C  D00A               	goto	i2u571_40
 10077  00134E  51AF               	movf	(powf@j+3)& (0+255),w,b
 10078  001350  E10A               	bnz	i2l5000
 10079  001352  0E72               	movlw	114
 10080  001354  5DAC               	subwf	powf@j& (0+255),w,b
 10081  001356  0EC4               	movlw	196
 10082  001358  59AD               	subwfb	(powf@j+1)& (0+255),w,b
 10083  00135A  0E1C               	movlw	28
 10084  00135C  59AE               	subwfb	(powf@j+2)& (0+255),w,b
 10085  00135E  B0D8               	btfsc	status,0,c
 10086  001360  D002               	goto	i2l5000
 10087  001362                     i2u571_40:
 10088                           
 10089                           ; BSR set to: 1
 10090  001362  0E00               	movlw	0
 10091  001364  D00D               	goto	L11
 10092  001366                     i2l5000:
 10093                           
 10094                           ; BSR set to: 1
 10095  001366  BFAF               	btfsc	(powf@j+3)& (0+255),7,b
 10096  001368  D00A               	goto	i2u572_40
 10097  00136A  51AF               	movf	(powf@j+3)& (0+255),w,b
 10098  00136C  E111               	bnz	i2l5004
 10099  00136E  0ED7               	movlw	215
 10100  001370  5DAC               	subwf	powf@j& (0+255),w,b
 10101  001372  0EB3               	movlw	179
 10102  001374  59AD               	subwfb	(powf@j+1)& (0+255),w,b
 10103  001376  0E5D               	movlw	93
 10104  001378  59AE               	subwfb	(powf@j+2)& (0+255),w,b
 10105  00137A  B0D8               	btfsc	status,0,c
 10106  00137C  D009               	goto	i2l5004
 10107  00137E                     i2u572_40:
 10108                           
 10109                           ; BSR set to: 1
 10110  00137E  0E01               	movlw	1
 10111  001380                     L11:
 10112  001380  6FA0               	movwf	powf@k& (0+255),b
 10113  001382  0E00               	movlw	0
 10114  001384  6FA1               	movwf	(powf@k+1)& (0+255),b
 10115  001386  0E00               	movlw	0
 10116  001388  6FA2               	movwf	(powf@k+2)& (0+255),b
 10117  00138A  0E00               	movlw	0
 10118  00138C  6FA3               	movwf	(powf@k+3)& (0+255),b
 10119  00138E  D016               	goto	i2l5010
 10120  001390                     i2l5004:
 10121                           
 10122                           ; BSR set to: 1
 10123  001390  0E00               	movlw	0
 10124  001392  6FA0               	movwf	powf@k& (0+255),b
 10125  001394  0E00               	movlw	0
 10126  001396  6FA1               	movwf	(powf@k+1)& (0+255),b
 10127  001398  0E00               	movlw	0
 10128  00139A  6FA2               	movwf	(powf@k+2)& (0+255),b
 10129  00139C  0E00               	movlw	0
 10130  00139E  6FA3               	movwf	(powf@k+3)& (0+255),b
 10131                           
 10132                           ; BSR set to: 1
 10133  0013A0  0E01               	movlw	1
 10134  0013A2  277C               	addwf	powf@n& (0+255),f,b
 10135  0013A4  0E00               	movlw	0
 10136  0013A6  237D               	addwfc	(powf@n+1)& (0+255),f,b
 10137  0013A8  237E               	addwfc	(powf@n+2)& (0+255),f,b
 10138  0013AA  237F               	addwfc	(powf@n+3)& (0+255),f,b
 10139                           
 10140                           ; BSR set to: 1
 10141  0013AC  0E00               	movlw	0
 10142  0013AE  27A8               	addwf	powf@ix& (0+255),f,b
 10143  0013B0  0E00               	movlw	0
 10144  0013B2  23A9               	addwfc	(powf@ix+1)& (0+255),f,b
 10145  0013B4  0E80               	movlw	128
 10146  0013B6  23AA               	addwfc	(powf@ix+2)& (0+255),f,b
 10147  0013B8  0EFF               	movlw	255
 10148  0013BA  23AB               	addwfc	(powf@ix+3)& (0+255),f,b
 10149  0013BC                     i2l5010:
 10150                           
 10151                           ; BSR set to: 1
 10152  0013BC  C1A8  F1B8         	movff	powf@ix,powf@__xc8_float_word
 10153  0013C0  C1A9  F1B9         	movff	powf@ix+1,powf@__xc8_float_word+1
 10154  0013C4  C1AA  F1BA         	movff	powf@ix+2,powf@__xc8_float_word+2
 10155  0013C8  C1AB  F1BB         	movff	powf@ix+3,powf@__xc8_float_word+3
 10156                           
 10157                           ; BSR set to: 1
 10158  0013CC  C1B8  F170         	movff	powf@__xc8_float_word,powf@ax
 10159  0013D0  C1B9  F171         	movff	powf@__xc8_float_word+1,powf@ax+1
 10160  0013D4  C1BA  F172         	movff	powf@__xc8_float_word+2,powf@ax+2
 10161  0013D8  C1BB  F173         	movff	powf@__xc8_float_word+3,powf@ax+3
 10162                           
 10163                           ; BSR set to: 1
 10164  0013DC  C170  F02A         	movff	powf@ax,___flsub@b
 10165  0013E0  C171  F02B         	movff	powf@ax+1,___flsub@b+1
 10166  0013E4  C172  F02C         	movff	powf@ax+2,___flsub@b+2
 10167  0013E8  C173  F02D         	movff	powf@ax+3,___flsub@b+3
 10168  0013EC  C1A0  F0D2         	movff	powf@k,??_powf
 10169  0013F0  C1A1  F0D3         	movff	powf@k+1,??_powf+1
 10170  0013F4  0100               	movlb	0	; () banked
 10171  0013F6  90D8               	bcf	status,0,c
 10172  0013F8  37D2               	rlcf	??_powf& (0+255),f,b
 10173  0013FA  37D3               	rlcf	(??_powf+1)& (0+255),f,b
 10174  0013FC  90D8               	bcf	status,0,c
 10175  0013FE  37D2               	rlcf	??_powf& (0+255),f,b
 10176  001400  37D3               	rlcf	(??_powf+1)& (0+255),f,b
 10177  001402  0E89               	movlw	low _bp
 10178  001404  25D2               	addwf	??_powf& (0+255),w,b
 10179  001406  6EF6               	movwf	tblptrl,c
 10180  001408  0E06               	movlw	high _bp
 10181  00140A  21D3               	addwfc	(??_powf+1)& (0+255),w,b
 10182  00140C  6EF7               	movwf	tblptrh,c
 10183  00140E                     	if	0	;There are less than 3 active tblptr bytes
 10184  00140E                     	endif
 10185  00140E  0009               	tblrd		*+
 10186  001410  CFF5 F02E          	movff	tablat,___flsub@a
 10187  001414  0009               	tblrd		*+
 10188  001416  CFF5 F02F          	movff	tablat,___flsub@a+1
 10189  00141A  0009               	tblrd		*+
 10190  00141C  CFF5 F030          	movff	tablat,___flsub@a+2
 10191  001420  000A               	tblrd		*-
 10192  001422  CFF5 F031          	movff	tablat,___flsub@a+3
 10193  001426  ECA5  F034         	call	___flsub	;wreg free
 10194  00142A  C02A  F174         	movff	?___flsub,powf@u
 10195  00142E  C02B  F175         	movff	?___flsub+1,powf@u+1
 10196  001432  C02C  F176         	movff	?___flsub+2,powf@u+2
 10197  001436  C02D  F177         	movff	?___flsub+3,powf@u+3
 10198  00143A  0E00               	movlw	0
 10199  00143C  6E32               	movwf	i2___fldiv@b^0,c
 10200  00143E  0E00               	movlw	0
 10201  001440  6E33               	movwf	(i2___fldiv@b+1)^0,c
 10202  001442  0E80               	movlw	128
 10203  001444  6E34               	movwf	(i2___fldiv@b+2)^0,c
 10204  001446  0E3F               	movlw	63
 10205  001448  6E35               	movwf	(i2___fldiv@b+3)^0,c
 10206  00144A  C170  F005         	movff	powf@ax,i2___fladd@a
 10207  00144E  C171  F006         	movff	powf@ax+1,i2___fladd@a+1
 10208  001452  C172  F007         	movff	powf@ax+2,i2___fladd@a+2
 10209  001456  C173  F008         	movff	powf@ax+3,i2___fladd@a+3
 10210  00145A  C1A0  F0D2         	movff	powf@k,??_powf
 10211  00145E  C1A1  F0D3         	movff	powf@k+1,??_powf+1
 10212  001462  0100               	movlb	0	; () banked
 10213  001464  90D8               	bcf	status,0,c
 10214  001466  37D2               	rlcf	??_powf& (0+255),f,b
 10215  001468  37D3               	rlcf	(??_powf+1)& (0+255),f,b
 10216  00146A  90D8               	bcf	status,0,c
 10217  00146C  37D2               	rlcf	??_powf& (0+255),f,b
 10218  00146E  37D3               	rlcf	(??_powf+1)& (0+255),f,b
 10219  001470  0E89               	movlw	low _bp
 10220  001472  25D2               	addwf	??_powf& (0+255),w,b
 10221  001474  6EF6               	movwf	tblptrl,c
 10222  001476  0E06               	movlw	high _bp
 10223  001478  21D3               	addwfc	(??_powf+1)& (0+255),w,b
 10224  00147A  6EF7               	movwf	tblptrh,c
 10225  00147C                     	if	0	;There are less than 3 active tblptr bytes
 10226  00147C                     	endif
 10227  00147C  0009               	tblrd		*+
 10228  00147E  CFF5 F001          	movff	tablat,i2___fladd@b
 10229  001482  0009               	tblrd		*+
 10230  001484  CFF5 F002          	movff	tablat,i2___fladd@b+1
 10231  001488  0009               	tblrd		*+
 10232  00148A  CFF5 F003          	movff	tablat,i2___fladd@b+2
 10233  00148E  000A               	tblrd		*-
 10234  001490  CFF5 F004          	movff	tablat,i2___fladd@b+3
 10235  001494  EC61  F022         	call	i2___fladd	;wreg free
 10236  001498  C001  F036         	movff	?i2___fladd,i2___fldiv@a
 10237  00149C  C002  F037         	movff	?i2___fladd+1,i2___fldiv@a+1
 10238  0014A0  C003  F038         	movff	?i2___fladd+2,i2___fldiv@a+2
 10239  0014A4  C004  F039         	movff	?i2___fladd+3,i2___fldiv@a+3
 10240  0014A8  EC98  F026         	call	i2___fldiv	;wreg free
 10241  0014AC  C032  F178         	movff	?i2___fldiv,powf@v
 10242  0014B0  C033  F179         	movff	?i2___fldiv+1,powf@v+1
 10243  0014B4  C034  F17A         	movff	?i2___fldiv+2,powf@v+2
 10244  0014B8  C035  F17B         	movff	?i2___fldiv+3,powf@v+3
 10245  0014BC  C174  F011         	movff	powf@u,i2___flmul@b
 10246  0014C0  C175  F012         	movff	powf@u+1,i2___flmul@b+1
 10247  0014C4  C176  F013         	movff	powf@u+2,i2___flmul@b+2
 10248  0014C8  C177  F014         	movff	powf@u+3,i2___flmul@b+3
 10249  0014CC  C178  F015         	movff	powf@v,i2___flmul@a
 10250  0014D0  C179  F016         	movff	powf@v+1,i2___flmul@a+1
 10251  0014D4  C17A  F017         	movff	powf@v+2,i2___flmul@a+2
 10252  0014D8  C17B  F018         	movff	powf@v+3,i2___flmul@a+3
 10253  0014DC  EC31  F01F         	call	i2___flmul	;wreg free
 10254  0014E0  C011  F15C         	movff	?i2___flmul,powf@s
 10255  0014E4  C012  F15D         	movff	?i2___flmul+1,powf@s+1
 10256  0014E8  C013  F15E         	movff	?i2___flmul+2,powf@s+2
 10257  0014EC  C014  F15F         	movff	?i2___flmul+3,powf@s+3
 10258  0014F0  C15C  F16C         	movff	powf@s,powf@s_h
 10259  0014F4  C15D  F16D         	movff	powf@s+1,powf@s_h+1
 10260  0014F8  C15E  F16E         	movff	powf@s+2,powf@s_h+2
 10261  0014FC  C15F  F16F         	movff	powf@s+3,powf@s_h+3
 10262  001500  C16C  F1B8         	movff	powf@s_h,powf@__xc8_float_word
 10263  001504  C16D  F1B9         	movff	powf@s_h+1,powf@__xc8_float_word+1
 10264  001508  C16E  F1BA         	movff	powf@s_h+2,powf@__xc8_float_word+2
 10265  00150C  C16F  F1BB         	movff	powf@s_h+3,powf@__xc8_float_word+3
 10266  001510  C1B8  F190         	movff	powf@__xc8_float_word,powf@is
 10267  001514  C1B9  F191         	movff	powf@__xc8_float_word+1,powf@is+1
 10268  001518  C1BA  F192         	movff	powf@__xc8_float_word+2,powf@is+2
 10269  00151C  C1BB  F193         	movff	powf@__xc8_float_word+3,powf@is+3
 10270  001520  0E00               	movlw	0
 10271  001522  0101               	movlb	1	; () banked
 10272  001524  1590               	andwf	powf@is& (0+255),w,b
 10273  001526  6FB8               	movwf	powf@__xc8_float_word& (0+255),b
 10274  001528  0EF0               	movlw	240
 10275  00152A  1591               	andwf	(powf@is+1)& (0+255),w,b
 10276  00152C  6FB9               	movwf	(powf@__xc8_float_word+1)& (0+255),b
 10277  00152E  0EFF               	movlw	255
 10278  001530  1592               	andwf	(powf@is+2)& (0+255),w,b
 10279  001532  6FBA               	movwf	(powf@__xc8_float_word+2)& (0+255),b
 10280  001534  0EFF               	movlw	255
 10281  001536  1593               	andwf	(powf@is+3)& (0+255),w,b
 10282  001538  6FBB               	movwf	(powf@__xc8_float_word+3)& (0+255),b
 10283                           
 10284                           ; BSR set to: 1
 10285  00153A  C1B8  F16C         	movff	powf@__xc8_float_word,powf@s_h
 10286  00153E  C1B9  F16D         	movff	powf@__xc8_float_word+1,powf@s_h+1
 10287  001542  C1BA  F16E         	movff	powf@__xc8_float_word+2,powf@s_h+2
 10288  001546  C1BB  F16F         	movff	powf@__xc8_float_word+3,powf@s_h+3
 10289                           
 10290                           ; BSR set to: 1
 10291  00154A  C1A8  F0D2         	movff	powf@ix,??_powf
 10292  00154E  C1A9  F0D3         	movff	powf@ix+1,??_powf+1
 10293  001552  C1AA  F0D4         	movff	powf@ix+2,??_powf+2
 10294  001556  C1AB  F0D5         	movff	powf@ix+3,??_powf+3
 10295  00155A  0100               	movlb	0	; () banked
 10296  00155C  35D5               	rlcf	(??_powf+3)& (0+255),w,b
 10297  00155E  33D5               	rrcf	(??_powf+3)& (0+255),f,b
 10298  001560  33D4               	rrcf	(??_powf+2)& (0+255),f,b
 10299  001562  33D3               	rrcf	(??_powf+1)& (0+255),f,b
 10300  001564  33D2               	rrcf	??_powf& (0+255),f,b
 10301  001566  0E00               	movlw	0
 10302  001568  15D2               	andwf	??_powf& (0+255),w,b
 10303  00156A  6FD6               	movwf	(??_powf+4)& (0+255),b
 10304  00156C  0EF0               	movlw	240
 10305  00156E  15D3               	andwf	(??_powf+1)& (0+255),w,b
 10306  001570  6FD7               	movwf	(??_powf+5)& (0+255),b
 10307  001572  0EFF               	movlw	255
 10308  001574  15D4               	andwf	(??_powf+2)& (0+255),w,b
 10309  001576  6FD8               	movwf	(??_powf+6)& (0+255),b
 10310  001578  0EFF               	movlw	255
 10311  00157A  15D5               	andwf	(??_powf+3)& (0+255),w,b
 10312  00157C  6FD9               	movwf	(??_powf+7)& (0+255),b
 10313  00157E  0E00               	movlw	0
 10314  001580  11D6               	iorwf	(??_powf+4)& (0+255),w,b
 10315  001582  0101               	movlb	1	; () banked
 10316  001584  6F90               	movwf	powf@is& (0+255),b
 10317  001586  0E00               	movlw	0
 10318  001588  0100               	movlb	0	; () banked
 10319  00158A  11D7               	iorwf	(??_powf+5)& (0+255),w,b
 10320  00158C  0101               	movlb	1	; () banked
 10321  00158E  6F91               	movwf	(powf@is+1)& (0+255),b
 10322  001590  0E00               	movlw	0
 10323  001592  0100               	movlb	0	; () banked
 10324  001594  11D8               	iorwf	(??_powf+6)& (0+255),w,b
 10325  001596  0101               	movlb	1	; () banked
 10326  001598  6F92               	movwf	(powf@is+2)& (0+255),b
 10327  00159A  0E20               	movlw	32
 10328  00159C  0100               	movlb	0	; () banked
 10329  00159E  11D9               	iorwf	(??_powf+7)& (0+255),w,b
 10330  0015A0  0101               	movlb	1	; () banked
 10331  0015A2  6F93               	movwf	(powf@is+3)& (0+255),b
 10332                           
 10333                           ; BSR set to: 1
 10334  0015A4  C1A0  F0D2         	movff	powf@k,??_powf
 10335  0015A8  C1A1  F0D3         	movff	powf@k+1,??_powf+1
 10336  0015AC  C1A2  F0D4         	movff	powf@k+2,??_powf+2
 10337  0015B0  C1A3  F0D5         	movff	powf@k+3,??_powf+3
 10338  0015B4  0E15               	movlw	21
 10339  0015B6                     i2u573_45:
 10340  0015B6  90D8               	bcf	status,0,c
 10341  0015B8  0100               	movlb	0	; () banked
 10342  0015BA  37D2               	rlcf	??_powf& (0+255),f,b
 10343  0015BC  37D3               	rlcf	(??_powf+1)& (0+255),f,b
 10344  0015BE  37D4               	rlcf	(??_powf+2)& (0+255),f,b
 10345  0015C0  37D5               	rlcf	(??_powf+3)& (0+255),f,b
 10346  0015C2  2EE8               	decfsz	wreg,f,c
 10347  0015C4  D7F8               	goto	i2u573_45
 10348  0015C6  0101               	movlb	1	; () banked
 10349  0015C8  5190               	movf	powf@is& (0+255),w,b
 10350  0015CA  0100               	movlb	0	; () banked
 10351  0015CC  25D2               	addwf	??_powf& (0+255),w,b
 10352  0015CE  6FD6               	movwf	(??_powf+4)& (0+255),b
 10353  0015D0  0101               	movlb	1	; () banked
 10354  0015D2  5191               	movf	(powf@is+1)& (0+255),w,b
 10355  0015D4  0100               	movlb	0	; () banked
 10356  0015D6  21D3               	addwfc	(??_powf+1)& (0+255),w,b
 10357  0015D8  6FD7               	movwf	(??_powf+5)& (0+255),b
 10358  0015DA  0101               	movlb	1	; () banked
 10359  0015DC  5192               	movf	(powf@is+2)& (0+255),w,b
 10360  0015DE  0100               	movlb	0	; () banked
 10361  0015E0  21D4               	addwfc	(??_powf+2)& (0+255),w,b
 10362  0015E2  6FD8               	movwf	(??_powf+6)& (0+255),b
 10363  0015E4  0101               	movlb	1	; () banked
 10364  0015E6  5193               	movf	(powf@is+3)& (0+255),w,b
 10365  0015E8  0100               	movlb	0	; () banked
 10366  0015EA  21D5               	addwfc	(??_powf+3)& (0+255),w,b
 10367  0015EC  6FD9               	movwf	(??_powf+7)& (0+255),b
 10368  0015EE  0E00               	movlw	0
 10369  0015F0  25D6               	addwf	(??_powf+4)& (0+255),w,b
 10370  0015F2  0101               	movlb	1	; () banked
 10371  0015F4  6FB8               	movwf	powf@__xc8_float_word& (0+255),b
 10372  0015F6  0E00               	movlw	0
 10373  0015F8  0100               	movlb	0	; () banked
 10374  0015FA  21D7               	addwfc	(??_powf+5)& (0+255),w,b
 10375  0015FC  0101               	movlb	1	; () banked
 10376  0015FE  6FB9               	movwf	(powf@__xc8_float_word+1)& (0+255),b
 10377  001600  0E40               	movlw	64
 10378  001602  0100               	movlb	0	; () banked
 10379  001604  21D8               	addwfc	(??_powf+6)& (0+255),w,b
 10380  001606  0101               	movlb	1	; () banked
 10381  001608  6FBA               	movwf	(powf@__xc8_float_word+2)& (0+255),b
 10382  00160A  0E00               	movlw	0
 10383  00160C  0100               	movlb	0	; () banked
 10384  00160E  21D9               	addwfc	(??_powf+7)& (0+255),w,b
 10385  001610  0101               	movlb	1	; () banked
 10386  001612  6FBB               	movwf	(powf@__xc8_float_word+3)& (0+255),b
 10387                           
 10388                           ; BSR set to: 1
 10389  001614  C1B8  F168         	movff	powf@__xc8_float_word,powf@t_h
 10390  001618  C1B9  F169         	movff	powf@__xc8_float_word+1,powf@t_h+1
 10391  00161C  C1BA  F16A         	movff	powf@__xc8_float_word+2,powf@t_h+2
 10392  001620  C1BB  F16B         	movff	powf@__xc8_float_word+3,powf@t_h+3
 10393                           
 10394                           ; BSR set to: 1
 10395  001624  C1A0  F0D2         	movff	powf@k,??_powf
 10396  001628  C1A1  F0D3         	movff	powf@k+1,??_powf+1
 10397  00162C  0100               	movlb	0	; () banked
 10398  00162E  90D8               	bcf	status,0,c
 10399  001630  37D2               	rlcf	??_powf& (0+255),f,b
 10400  001632  37D3               	rlcf	(??_powf+1)& (0+255),f,b
 10401  001634  90D8               	bcf	status,0,c
 10402  001636  37D2               	rlcf	??_powf& (0+255),f,b
 10403  001638  37D3               	rlcf	(??_powf+1)& (0+255),f,b
 10404  00163A  0E89               	movlw	low _bp
 10405  00163C  25D2               	addwf	??_powf& (0+255),w,b
 10406  00163E  6EF6               	movwf	tblptrl,c
 10407  001640  0E06               	movlw	high _bp
 10408  001642  21D3               	addwfc	(??_powf+1)& (0+255),w,b
 10409  001644  6EF7               	movwf	tblptrh,c
 10410  001646                     	if	0	;There are less than 3 active tblptr bytes
 10411  001646                     	endif
 10412  001646  0009               	tblrd		*+
 10413  001648  CFF5 F02E          	movff	tablat,___flsub@a
 10414  00164C  0009               	tblrd		*+
 10415  00164E  CFF5 F02F          	movff	tablat,___flsub@a+1
 10416  001652  0009               	tblrd		*+
 10417  001654  CFF5 F030          	movff	tablat,___flsub@a+2
 10418  001658  000A               	tblrd		*-
 10419  00165A  CFF5 F031          	movff	tablat,___flsub@a+3
 10420  00165E  C168  F02A         	movff	powf@t_h,___flsub@b
 10421  001662  C169  F02B         	movff	powf@t_h+1,___flsub@b+1
 10422  001666  C16A  F02C         	movff	powf@t_h+2,___flsub@b+2
 10423  00166A  C16B  F02D         	movff	powf@t_h+3,___flsub@b+3
 10424  00166E  ECA5  F034         	call	___flsub	;wreg free
 10425  001672  C02A  F194         	movff	?___flsub,_powf$1970
 10426  001676  C02B  F195         	movff	?___flsub+1,_powf$1970+1
 10427  00167A  C02C  F196         	movff	?___flsub+2,_powf$1970+2
 10428  00167E  C02D  F197         	movff	?___flsub+3,_powf$1970+3
 10429  001682  C170  F02A         	movff	powf@ax,___flsub@b
 10430  001686  C171  F02B         	movff	powf@ax+1,___flsub@b+1
 10431  00168A  C172  F02C         	movff	powf@ax+2,___flsub@b+2
 10432  00168E  C173  F02D         	movff	powf@ax+3,___flsub@b+3
 10433  001692  C194  F02E         	movff	_powf$1970,___flsub@a
 10434  001696  C195  F02F         	movff	_powf$1970+1,___flsub@a+1
 10435  00169A  C196  F030         	movff	_powf$1970+2,___flsub@a+2
 10436  00169E  C197  F031         	movff	_powf$1970+3,___flsub@a+3
 10437  0016A2  ECA5  F034         	call	___flsub	;wreg free
 10438  0016A6  C02A  F134         	movff	?___flsub,powf@t_l
 10439  0016AA  C02B  F135         	movff	?___flsub+1,powf@t_l+1
 10440  0016AE  C02C  F136         	movff	?___flsub+2,powf@t_l+2
 10441  0016B2  C02D  F137         	movff	?___flsub+3,powf@t_l+3
 10442  0016B6  C168  F015         	movff	powf@t_h,i2___flmul@a
 10443  0016BA  C169  F016         	movff	powf@t_h+1,i2___flmul@a+1
 10444  0016BE  C16A  F017         	movff	powf@t_h+2,i2___flmul@a+2
 10445  0016C2  C16B  F018         	movff	powf@t_h+3,i2___flmul@a+3
 10446  0016C6  C16C  F011         	movff	powf@s_h,i2___flmul@b
 10447  0016CA  C16D  F012         	movff	powf@s_h+1,i2___flmul@b+1
 10448  0016CE  C16E  F013         	movff	powf@s_h+2,i2___flmul@b+2
 10449  0016D2  C16F  F014         	movff	powf@s_h+3,i2___flmul@b+3
 10450  0016D6  EC31  F01F         	call	i2___flmul	;wreg free
 10451  0016DA  C011  F02E         	movff	?i2___flmul,___flsub@a
 10452  0016DE  C012  F02F         	movff	?i2___flmul+1,___flsub@a+1
 10453  0016E2  C013  F030         	movff	?i2___flmul+2,___flsub@a+2
 10454  0016E6  C014  F031         	movff	?i2___flmul+3,___flsub@a+3
 10455  0016EA  C174  F02A         	movff	powf@u,___flsub@b
 10456  0016EE  C175  F02B         	movff	powf@u+1,___flsub@b+1
 10457  0016F2  C176  F02C         	movff	powf@u+2,___flsub@b+2
 10458  0016F6  C177  F02D         	movff	powf@u+3,___flsub@b+3
 10459  0016FA  ECA5  F034         	call	___flsub	;wreg free
 10460  0016FE  C02A  F194         	movff	?___flsub,_powf$1970
 10461  001702  C02B  F195         	movff	?___flsub+1,_powf$1970+1
 10462  001706  C02C  F196         	movff	?___flsub+2,_powf$1970+2
 10463  00170A  C02D  F197         	movff	?___flsub+3,_powf$1970+3
 10464  00170E  C134  F015         	movff	powf@t_l,i2___flmul@a
 10465  001712  C135  F016         	movff	powf@t_l+1,i2___flmul@a+1
 10466  001716  C136  F017         	movff	powf@t_l+2,i2___flmul@a+2
 10467  00171A  C137  F018         	movff	powf@t_l+3,i2___flmul@a+3
 10468  00171E  C16C  F011         	movff	powf@s_h,i2___flmul@b
 10469  001722  C16D  F012         	movff	powf@s_h+1,i2___flmul@b+1
 10470  001726  C16E  F013         	movff	powf@s_h+2,i2___flmul@b+2
 10471  00172A  C16F  F014         	movff	powf@s_h+3,i2___flmul@b+3
 10472  00172E  EC31  F01F         	call	i2___flmul	;wreg free
 10473  001732  C011  F02E         	movff	?i2___flmul,___flsub@a
 10474  001736  C012  F02F         	movff	?i2___flmul+1,___flsub@a+1
 10475  00173A  C013  F030         	movff	?i2___flmul+2,___flsub@a+2
 10476  00173E  C014  F031         	movff	?i2___flmul+3,___flsub@a+3
 10477  001742  C194  F02A         	movff	_powf$1970,___flsub@b
 10478  001746  C195  F02B         	movff	_powf$1970+1,___flsub@b+1
 10479  00174A  C196  F02C         	movff	_powf$1970+2,___flsub@b+2
 10480  00174E  C197  F02D         	movff	_powf$1970+3,___flsub@b+3
 10481  001752  ECA5  F034         	call	___flsub	;wreg free
 10482  001756  C02A  F154         	movff	?___flsub,_powf$2101
 10483  00175A  C02B  F155         	movff	?___flsub+1,_powf$2101+1
 10484  00175E  C02C  F156         	movff	?___flsub+2,_powf$2101+2
 10485  001762  C02D  F157         	movff	?___flsub+3,_powf$2101+3
 10486  001766  C154  F011         	movff	_powf$2101,i2___flmul@b
 10487  00176A  C155  F012         	movff	_powf$2101+1,i2___flmul@b+1
 10488  00176E  C156  F013         	movff	_powf$2101+2,i2___flmul@b+2
 10489  001772  C157  F014         	movff	_powf$2101+3,i2___flmul@b+3
 10490  001776  C178  F015         	movff	powf@v,i2___flmul@a
 10491  00177A  C179  F016         	movff	powf@v+1,i2___flmul@a+1
 10492  00177E  C17A  F017         	movff	powf@v+2,i2___flmul@a+2
 10493  001782  C17B  F018         	movff	powf@v+3,i2___flmul@a+3
 10494  001786  EC31  F01F         	call	i2___flmul	;wreg free
 10495  00178A  C011  F130         	movff	?i2___flmul,powf@s_l
 10496  00178E  C012  F131         	movff	?i2___flmul+1,powf@s_l+1
 10497  001792  C013  F132         	movff	?i2___flmul+2,powf@s_l+2
 10498  001796  C014  F133         	movff	?i2___flmul+3,powf@s_l+3
 10499  00179A  C15C  F011         	movff	powf@s,i2___flmul@b
 10500  00179E  C15D  F012         	movff	powf@s+1,i2___flmul@b+1
 10501  0017A2  C15E  F013         	movff	powf@s+2,i2___flmul@b+2
 10502  0017A6  C15F  F014         	movff	powf@s+3,i2___flmul@b+3
 10503  0017AA  C15C  F015         	movff	powf@s,i2___flmul@a
 10504  0017AE  C15D  F016         	movff	powf@s+1,i2___flmul@a+1
 10505  0017B2  C15E  F017         	movff	powf@s+2,i2___flmul@a+2
 10506  0017B6  C15F  F018         	movff	powf@s+3,i2___flmul@a+3
 10507  0017BA  EC31  F01F         	call	i2___flmul	;wreg free
 10508  0017BE  C011  F18C         	movff	?i2___flmul,powf@s2
 10509  0017C2  C012  F18D         	movff	?i2___flmul+1,powf@s2+1
 10510  0017C6  C013  F18E         	movff	?i2___flmul+2,powf@s2+2
 10511  0017CA  C014  F18F         	movff	?i2___flmul+3,powf@s2+3
 10512  0017CE  0E55               	movlw	85
 10513  0017D0  6E05               	movwf	i2___fladd@a^0,c
 10514  0017D2  0E32               	movlw	50
 10515  0017D4  6E06               	movwf	(i2___fladd@a+1)^0,c
 10516  0017D6  0E6C               	movlw	108
 10517  0017D8  6E07               	movwf	(i2___fladd@a+2)^0,c
 10518  0017DA  0E3E               	movlw	62
 10519  0017DC  6E08               	movwf	(i2___fladd@a+3)^0,c
 10520  0017DE  0E42               	movlw	66
 10521  0017E0  6E15               	movwf	i2___flmul@a^0,c
 10522  0017E2  0EF1               	movlw	241
 10523  0017E4  6E16               	movwf	(i2___flmul@a+1)^0,c
 10524  0017E6  0E53               	movlw	83
 10525  0017E8  6E17               	movwf	(i2___flmul@a+2)^0,c
 10526  0017EA  0E3E               	movlw	62
 10527  0017EC  6E18               	movwf	(i2___flmul@a+3)^0,c
 10528  0017EE  C18C  F011         	movff	powf@s2,i2___flmul@b
 10529  0017F2  C18D  F012         	movff	powf@s2+1,i2___flmul@b+1
 10530  0017F6  C18E  F013         	movff	powf@s2+2,i2___flmul@b+2
 10531  0017FA  C18F  F014         	movff	powf@s2+3,i2___flmul@b+3
 10532  0017FE  EC31  F01F         	call	i2___flmul	;wreg free
 10533  001802  C011  F001         	movff	?i2___flmul,i2___fladd@b
 10534  001806  C012  F002         	movff	?i2___flmul+1,i2___fladd@b+1
 10535  00180A  C013  F003         	movff	?i2___flmul+2,i2___fladd@b+2
 10536  00180E  C014  F004         	movff	?i2___flmul+3,i2___fladd@b+3
 10537  001812  EC61  F022         	call	i2___fladd	;wreg free
 10538  001816  C001  F1A4         	movff	?i2___fladd,_powf$2100
 10539  00181A  C002  F1A5         	movff	?i2___fladd+1,_powf$2100+1
 10540  00181E  C003  F1A6         	movff	?i2___fladd+2,_powf$2100+2
 10541  001822  C004  F1A7         	movff	?i2___fladd+3,_powf$2100+3
 10542  001826  0E05               	movlw	5
 10543  001828  6E05               	movwf	i2___fladd@a^0,c
 10544  00182A  0EA3               	movlw	163
 10545  00182C  6E06               	movwf	(i2___fladd@a+1)^0,c
 10546  00182E  0E8B               	movlw	139
 10547  001830  6E07               	movwf	(i2___fladd@a+2)^0,c
 10548  001832  0E3E               	movlw	62
 10549  001834  6E08               	movwf	(i2___fladd@a+3)^0,c
 10550  001836  C18C  F015         	movff	powf@s2,i2___flmul@a
 10551  00183A  C18D  F016         	movff	powf@s2+1,i2___flmul@a+1
 10552  00183E  C18E  F017         	movff	powf@s2+2,i2___flmul@a+2
 10553  001842  C18F  F018         	movff	powf@s2+3,i2___flmul@a+3
 10554  001846  C1A4  F011         	movff	_powf$2100,i2___flmul@b
 10555  00184A  C1A5  F012         	movff	_powf$2100+1,i2___flmul@b+1
 10556  00184E  C1A6  F013         	movff	_powf$2100+2,i2___flmul@b+2
 10557  001852  C1A7  F014         	movff	_powf$2100+3,i2___flmul@b+3
 10558  001856  EC31  F01F         	call	i2___flmul	;wreg free
 10559  00185A  C011  F001         	movff	?i2___flmul,i2___fladd@b
 10560  00185E  C012  F002         	movff	?i2___flmul+1,i2___fladd@b+1
 10561  001862  C013  F003         	movff	?i2___flmul+2,i2___fladd@b+2
 10562  001866  C014  F004         	movff	?i2___flmul+3,i2___fladd@b+3
 10563  00186A  EC61  F022         	call	i2___fladd	;wreg free
 10564  00186E  C001  F154         	movff	?i2___fladd,_powf$2101
 10565  001872  C002  F155         	movff	?i2___fladd+1,_powf$2101+1
 10566  001876  C003  F156         	movff	?i2___fladd+2,_powf$2101+2
 10567  00187A  C004  F157         	movff	?i2___fladd+3,_powf$2101+3
 10568  00187E  0EAB               	movlw	171
 10569  001880  6E05               	movwf	i2___fladd@a^0,c
 10570  001882  0EAA               	movlw	170
 10571  001884  6E06               	movwf	(i2___fladd@a+1)^0,c
 10572  001886  0EAA               	movlw	170
 10573  001888  6E07               	movwf	(i2___fladd@a+2)^0,c
 10574  00188A  0E3E               	movlw	62
 10575  00188C  6E08               	movwf	(i2___fladd@a+3)^0,c
 10576  00188E  C18C  F015         	movff	powf@s2,i2___flmul@a
 10577  001892  C18D  F016         	movff	powf@s2+1,i2___flmul@a+1
 10578  001896  C18E  F017         	movff	powf@s2+2,i2___flmul@a+2
 10579  00189A  C18F  F018         	movff	powf@s2+3,i2___flmul@a+3
 10580  00189E  C154  F011         	movff	_powf$2101,i2___flmul@b
 10581  0018A2  C155  F012         	movff	_powf$2101+1,i2___flmul@b+1
 10582  0018A6  C156  F013         	movff	_powf$2101+2,i2___flmul@b+2
 10583  0018AA  C157  F014         	movff	_powf$2101+3,i2___flmul@b+3
 10584  0018AE  EC31  F01F         	call	i2___flmul	;wreg free
 10585  0018B2  C011  F001         	movff	?i2___flmul,i2___fladd@b
 10586  0018B6  C012  F002         	movff	?i2___flmul+1,i2___fladd@b+1
 10587  0018BA  C013  F003         	movff	?i2___flmul+2,i2___fladd@b+2
 10588  0018BE  C014  F004         	movff	?i2___flmul+3,i2___fladd@b+3
 10589  0018C2  EC61  F022         	call	i2___fladd	;wreg free
 10590  0018C6  C001  F148         	movff	?i2___fladd,_powf$2102
 10591  0018CA  C002  F149         	movff	?i2___fladd+1,_powf$2102+1
 10592  0018CE  C003  F14A         	movff	?i2___fladd+2,_powf$2102+2
 10593  0018D2  C004  F14B         	movff	?i2___fladd+3,_powf$2102+3
 10594  0018D6  0EB7               	movlw	183
 10595  0018D8  6E05               	movwf	i2___fladd@a^0,c
 10596  0018DA  0E6D               	movlw	109
 10597  0018DC  6E06               	movwf	(i2___fladd@a+1)^0,c
 10598  0018DE  0EDB               	movlw	219
 10599  0018E0  6E07               	movwf	(i2___fladd@a+2)^0,c
 10600  0018E2  0E3E               	movlw	62
 10601  0018E4  6E08               	movwf	(i2___fladd@a+3)^0,c
 10602  0018E6  C18C  F015         	movff	powf@s2,i2___flmul@a
 10603  0018EA  C18D  F016         	movff	powf@s2+1,i2___flmul@a+1
 10604  0018EE  C18E  F017         	movff	powf@s2+2,i2___flmul@a+2
 10605  0018F2  C18F  F018         	movff	powf@s2+3,i2___flmul@a+3
 10606  0018F6  C148  F011         	movff	_powf$2102,i2___flmul@b
 10607  0018FA  C149  F012         	movff	_powf$2102+1,i2___flmul@b+1
 10608  0018FE  C14A  F013         	movff	_powf$2102+2,i2___flmul@b+2
 10609  001902  C14B  F014         	movff	_powf$2102+3,i2___flmul@b+3
 10610  001906  EC31  F01F         	call	i2___flmul	;wreg free
 10611  00190A  C011  F001         	movff	?i2___flmul,i2___fladd@b
 10612  00190E  C012  F002         	movff	?i2___flmul+1,i2___fladd@b+1
 10613  001912  C013  F003         	movff	?i2___flmul+2,i2___fladd@b+2
 10614  001916  C014  F004         	movff	?i2___flmul+3,i2___fladd@b+3
 10615  00191A  EC61  F022         	call	i2___fladd	;wreg free
 10616  00191E  C001  F13C         	movff	?i2___fladd,_powf$2103
 10617  001922  C002  F13D         	movff	?i2___fladd+1,_powf$2103+1
 10618  001926  C003  F13E         	movff	?i2___fladd+2,_powf$2103+2
 10619  00192A  C004  F13F         	movff	?i2___fladd+3,_powf$2103+3
 10620  00192E  0E9A               	movlw	154
 10621  001930  6E05               	movwf	i2___fladd@a^0,c
 10622  001932  0E99               	movlw	153
 10623  001934  6E06               	movwf	(i2___fladd@a+1)^0,c
 10624  001936  0E19               	movlw	25
 10625  001938  6E07               	movwf	(i2___fladd@a+2)^0,c
 10626  00193A  0E3F               	movlw	63
 10627  00193C  6E08               	movwf	(i2___fladd@a+3)^0,c
 10628  00193E  C18C  F015         	movff	powf@s2,i2___flmul@a
 10629  001942  C18D  F016         	movff	powf@s2+1,i2___flmul@a+1
 10630  001946  C18E  F017         	movff	powf@s2+2,i2___flmul@a+2
 10631  00194A  C18F  F018         	movff	powf@s2+3,i2___flmul@a+3
 10632  00194E  C13C  F011         	movff	_powf$2103,i2___flmul@b
 10633  001952  C13D  F012         	movff	_powf$2103+1,i2___flmul@b+1
 10634  001956  C13E  F013         	movff	_powf$2103+2,i2___flmul@b+2
 10635  00195A  C13F  F014         	movff	_powf$2103+3,i2___flmul@b+3
 10636  00195E  EC31  F01F         	call	i2___flmul	;wreg free
 10637  001962  C011  F001         	movff	?i2___flmul,i2___fladd@b
 10638  001966  C012  F002         	movff	?i2___flmul+1,i2___fladd@b+1
 10639  00196A  C013  F003         	movff	?i2___flmul+2,i2___fladd@b+2
 10640  00196E  C014  F004         	movff	?i2___flmul+3,i2___fladd@b+3
 10641  001972  EC61  F022         	call	i2___fladd	;wreg free
 10642  001976  C001  F104         	movff	?i2___fladd,_powf$2104
 10643  00197A  C002  F105         	movff	?i2___fladd+1,_powf$2104+1
 10644  00197E  C003  F106         	movff	?i2___fladd+2,_powf$2104+2
 10645  001982  C004  F107         	movff	?i2___fladd+3,_powf$2104+3
 10646  001986  C18C  F015         	movff	powf@s2,i2___flmul@a
 10647  00198A  C18D  F016         	movff	powf@s2+1,i2___flmul@a+1
 10648  00198E  C18E  F017         	movff	powf@s2+2,i2___flmul@a+2
 10649  001992  C18F  F018         	movff	powf@s2+3,i2___flmul@a+3
 10650  001996  C18C  F011         	movff	powf@s2,i2___flmul@b
 10651  00199A  C18D  F012         	movff	powf@s2+1,i2___flmul@b+1
 10652  00199E  C18E  F013         	movff	powf@s2+2,i2___flmul@b+2
 10653  0019A2  C18F  F014         	movff	powf@s2+3,i2___flmul@b+3
 10654  0019A6  EC31  F01F         	call	i2___flmul	;wreg free
 10655  0019AA  C011  F108         	movff	?i2___flmul,_powf$2105
 10656  0019AE  C012  F109         	movff	?i2___flmul+1,_powf$2105+1
 10657  0019B2  C013  F10A         	movff	?i2___flmul+2,_powf$2105+2
 10658  0019B6  C014  F10B         	movff	?i2___flmul+3,_powf$2105+3
 10659  0019BA  C104  F011         	movff	_powf$2104,i2___flmul@b
 10660  0019BE  C105  F012         	movff	_powf$2104+1,i2___flmul@b+1
 10661  0019C2  C106  F013         	movff	_powf$2104+2,i2___flmul@b+2
 10662  0019C6  C107  F014         	movff	_powf$2104+3,i2___flmul@b+3
 10663  0019CA  C108  F015         	movff	_powf$2105,i2___flmul@a
 10664  0019CE  C109  F016         	movff	_powf$2105+1,i2___flmul@a+1
 10665  0019D2  C10A  F017         	movff	_powf$2105+2,i2___flmul@a+2
 10666  0019D6  C10B  F018         	movff	_powf$2105+3,i2___flmul@a+3
 10667  0019DA  EC31  F01F         	call	i2___flmul	;wreg free
 10668  0019DE  C011  F14C         	movff	?i2___flmul,powf@r
 10669  0019E2  C012  F14D         	movff	?i2___flmul+1,powf@r+1
 10670  0019E6  C013  F14E         	movff	?i2___flmul+2,powf@r+2
 10671  0019EA  C014  F14F         	movff	?i2___flmul+3,powf@r+3
 10672  0019EE  C130  F015         	movff	powf@s_l,i2___flmul@a
 10673  0019F2  C131  F016         	movff	powf@s_l+1,i2___flmul@a+1
 10674  0019F6  C132  F017         	movff	powf@s_l+2,i2___flmul@a+2
 10675  0019FA  C133  F018         	movff	powf@s_l+3,i2___flmul@a+3
 10676  0019FE  C15C  F005         	movff	powf@s,i2___fladd@a
 10677  001A02  C15D  F006         	movff	powf@s+1,i2___fladd@a+1
 10678  001A06  C15E  F007         	movff	powf@s+2,i2___fladd@a+2
 10679  001A0A  C15F  F008         	movff	powf@s+3,i2___fladd@a+3
 10680  001A0E  C16C  F001         	movff	powf@s_h,i2___fladd@b
 10681  001A12  C16D  F002         	movff	powf@s_h+1,i2___fladd@b+1
 10682  001A16  C16E  F003         	movff	powf@s_h+2,i2___fladd@b+2
 10683  001A1A  C16F  F004         	movff	powf@s_h+3,i2___fladd@b+3
 10684  001A1E  EC61  F022         	call	i2___fladd	;wreg free
 10685  001A22  C001  F011         	movff	?i2___fladd,i2___flmul@b
 10686  001A26  C002  F012         	movff	?i2___fladd+1,i2___flmul@b+1
 10687  001A2A  C003  F013         	movff	?i2___fladd+2,i2___flmul@b+2
 10688  001A2E  C004  F014         	movff	?i2___fladd+3,i2___flmul@b+3
 10689  001A32  EC31  F01F         	call	i2___flmul	;wreg free
 10690  001A36  C011  F158         	movff	?i2___flmul,_powf$2106
 10691  001A3A  C012  F159         	movff	?i2___flmul+1,_powf$2106+1
 10692  001A3E  C013  F15A         	movff	?i2___flmul+2,_powf$2106+2
 10693  001A42  C014  F15B         	movff	?i2___flmul+3,_powf$2106+3
 10694  001A46  C14C  F001         	movff	powf@r,i2___fladd@b
 10695  001A4A  C14D  F002         	movff	powf@r+1,i2___fladd@b+1
 10696  001A4E  C14E  F003         	movff	powf@r+2,i2___fladd@b+2
 10697  001A52  C14F  F004         	movff	powf@r+3,i2___fladd@b+3
 10698  001A56  C158  F005         	movff	_powf$2106,i2___fladd@a
 10699  001A5A  C159  F006         	movff	_powf$2106+1,i2___fladd@a+1
 10700  001A5E  C15A  F007         	movff	_powf$2106+2,i2___fladd@a+2
 10701  001A62  C15B  F008         	movff	_powf$2106+3,i2___fladd@a+3
 10702  001A66  EC61  F022         	call	i2___fladd	;wreg free
 10703  001A6A  C001  F14C         	movff	?i2___fladd,powf@r
 10704  001A6E  C002  F14D         	movff	?i2___fladd+1,powf@r+1
 10705  001A72  C003  F14E         	movff	?i2___fladd+2,powf@r+2
 10706  001A76  C004  F14F         	movff	?i2___fladd+3,powf@r+3
 10707  001A7A  C16C  F011         	movff	powf@s_h,i2___flmul@b
 10708  001A7E  C16D  F012         	movff	powf@s_h+1,i2___flmul@b+1
 10709  001A82  C16E  F013         	movff	powf@s_h+2,i2___flmul@b+2
 10710  001A86  C16F  F014         	movff	powf@s_h+3,i2___flmul@b+3
 10711  001A8A  C16C  F015         	movff	powf@s_h,i2___flmul@a
 10712  001A8E  C16D  F016         	movff	powf@s_h+1,i2___flmul@a+1
 10713  001A92  C16E  F017         	movff	powf@s_h+2,i2___flmul@a+2
 10714  001A96  C16F  F018         	movff	powf@s_h+3,i2___flmul@a+3
 10715  001A9A  EC31  F01F         	call	i2___flmul	;wreg free
 10716  001A9E  C011  F18C         	movff	?i2___flmul,powf@s2
 10717  001AA2  C012  F18D         	movff	?i2___flmul+1,powf@s2+1
 10718  001AA6  C013  F18E         	movff	?i2___flmul+2,powf@s2+2
 10719  001AAA  C014  F18F         	movff	?i2___flmul+3,powf@s2+3
 10720  001AAE  0E00               	movlw	0
 10721  001AB0  6E05               	movwf	i2___fladd@a^0,c
 10722  001AB2  0E00               	movlw	0
 10723  001AB4  6E06               	movwf	(i2___fladd@a+1)^0,c
 10724  001AB6  0E40               	movlw	64
 10725  001AB8  6E07               	movwf	(i2___fladd@a+2)^0,c
 10726  001ABA  0E40               	movlw	64
 10727  001ABC  6E08               	movwf	(i2___fladd@a+3)^0,c
 10728  001ABE  C18C  F001         	movff	powf@s2,i2___fladd@b
 10729  001AC2  C18D  F002         	movff	powf@s2+1,i2___fladd@b+1
 10730  001AC6  C18E  F003         	movff	powf@s2+2,i2___fladd@b+2
 10731  001ACA  C18F  F004         	movff	powf@s2+3,i2___fladd@b+3
 10732  001ACE  EC61  F022         	call	i2___fladd	;wreg free
 10733  001AD2  C001  F158         	movff	?i2___fladd,_powf$2106
 10734  001AD6  C002  F159         	movff	?i2___fladd+1,_powf$2106+1
 10735  001ADA  C003  F15A         	movff	?i2___fladd+2,_powf$2106+2
 10736  001ADE  C004  F15B         	movff	?i2___fladd+3,_powf$2106+3
 10737  001AE2  C158  F001         	movff	_powf$2106,i2___fladd@b
 10738  001AE6  C159  F002         	movff	_powf$2106+1,i2___fladd@b+1
 10739  001AEA  C15A  F003         	movff	_powf$2106+2,i2___fladd@b+2
 10740  001AEE  C15B  F004         	movff	_powf$2106+3,i2___fladd@b+3
 10741  001AF2  C14C  F005         	movff	powf@r,i2___fladd@a
 10742  001AF6  C14D  F006         	movff	powf@r+1,i2___fladd@a+1
 10743  001AFA  C14E  F007         	movff	powf@r+2,i2___fladd@a+2
 10744  001AFE  C14F  F008         	movff	powf@r+3,i2___fladd@a+3
 10745  001B02  EC61  F022         	call	i2___fladd	;wreg free
 10746  001B06  C001  F168         	movff	?i2___fladd,powf@t_h
 10747  001B0A  C002  F169         	movff	?i2___fladd+1,powf@t_h+1
 10748  001B0E  C003  F16A         	movff	?i2___fladd+2,powf@t_h+2
 10749  001B12  C004  F16B         	movff	?i2___fladd+3,powf@t_h+3
 10750  001B16  C168  F1B8         	movff	powf@t_h,powf@__xc8_float_word
 10751  001B1A  C169  F1B9         	movff	powf@t_h+1,powf@__xc8_float_word+1
 10752  001B1E  C16A  F1BA         	movff	powf@t_h+2,powf@__xc8_float_word+2
 10753  001B22  C16B  F1BB         	movff	powf@t_h+3,powf@__xc8_float_word+3
 10754  001B26  C1B8  F190         	movff	powf@__xc8_float_word,powf@is
 10755  001B2A  C1B9  F191         	movff	powf@__xc8_float_word+1,powf@is+1
 10756  001B2E  C1BA  F192         	movff	powf@__xc8_float_word+2,powf@is+2
 10757  001B32  C1BB  F193         	movff	powf@__xc8_float_word+3,powf@is+3
 10758  001B36  0E00               	movlw	0
 10759  001B38  0101               	movlb	1	; () banked
 10760  001B3A  1590               	andwf	powf@is& (0+255),w,b
 10761  001B3C  6FB8               	movwf	powf@__xc8_float_word& (0+255),b
 10762  001B3E  0EF0               	movlw	240
 10763  001B40  1591               	andwf	(powf@is+1)& (0+255),w,b
 10764  001B42  6FB9               	movwf	(powf@__xc8_float_word+1)& (0+255),b
 10765  001B44  0EFF               	movlw	255
 10766  001B46  1592               	andwf	(powf@is+2)& (0+255),w,b
 10767  001B48  6FBA               	movwf	(powf@__xc8_float_word+2)& (0+255),b
 10768  001B4A  0EFF               	movlw	255
 10769  001B4C  1593               	andwf	(powf@is+3)& (0+255),w,b
 10770  001B4E  6FBB               	movwf	(powf@__xc8_float_word+3)& (0+255),b
 10771                           
 10772                           ; BSR set to: 1
 10773  001B50  C1B8  F168         	movff	powf@__xc8_float_word,powf@t_h
 10774  001B54  C1B9  F169         	movff	powf@__xc8_float_word+1,powf@t_h+1
 10775  001B58  C1BA  F16A         	movff	powf@__xc8_float_word+2,powf@t_h+2
 10776  001B5C  C1BB  F16B         	movff	powf@__xc8_float_word+3,powf@t_h+3
 10777                           
 10778                           ; BSR set to: 1
 10779  001B60  0E00               	movlw	0
 10780  001B62  6E05               	movwf	i2___fladd@a^0,c
 10781  001B64  0E00               	movlw	0
 10782  001B66  6E06               	movwf	(i2___fladd@a+1)^0,c
 10783  001B68  0E40               	movlw	64
 10784  001B6A  6E07               	movwf	(i2___fladd@a+2)^0,c
 10785  001B6C  0EC0               	movlw	192
 10786  001B6E  6E08               	movwf	(i2___fladd@a+3)^0,c
 10787  001B70  C168  F001         	movff	powf@t_h,i2___fladd@b
 10788  001B74  C169  F002         	movff	powf@t_h+1,i2___fladd@b+1
 10789  001B78  C16A  F003         	movff	powf@t_h+2,i2___fladd@b+2
 10790  001B7C  C16B  F004         	movff	powf@t_h+3,i2___fladd@b+3
 10791  001B80  EC61  F022         	call	i2___fladd	;wreg free
 10792  001B84  C001  F140         	movff	?i2___fladd,_powf$2107
 10793  001B88  C002  F141         	movff	?i2___fladd+1,_powf$2107+1
 10794  001B8C  C003  F142         	movff	?i2___fladd+2,_powf$2107+2
 10795  001B90  C004  F143         	movff	?i2___fladd+3,_powf$2107+3
 10796  001B94  C18C  F02E         	movff	powf@s2,___flsub@a
 10797  001B98  C18D  F02F         	movff	powf@s2+1,___flsub@a+1
 10798  001B9C  C18E  F030         	movff	powf@s2+2,___flsub@a+2
 10799  001BA0  C18F  F031         	movff	powf@s2+3,___flsub@a+3
 10800  001BA4  C140  F02A         	movff	_powf$2107,___flsub@b
 10801  001BA8  C141  F02B         	movff	_powf$2107+1,___flsub@b+1
 10802  001BAC  C142  F02C         	movff	_powf$2107+2,___flsub@b+2
 10803  001BB0  C143  F02D         	movff	_powf$2107+3,___flsub@b+3
 10804  001BB4  ECA5  F034         	call	___flsub	;wreg free
 10805  001BB8  C02A  F138         	movff	?___flsub,_powf$1976
 10806  001BBC  C02B  F139         	movff	?___flsub+1,_powf$1976+1
 10807  001BC0  C02C  F13A         	movff	?___flsub+2,_powf$1976+2
 10808  001BC4  C02D  F13B         	movff	?___flsub+3,_powf$1976+3
 10809  001BC8  C14C  F02A         	movff	powf@r,___flsub@b
 10810  001BCC  C14D  F02B         	movff	powf@r+1,___flsub@b+1
 10811  001BD0  C14E  F02C         	movff	powf@r+2,___flsub@b+2
 10812  001BD4  C14F  F02D         	movff	powf@r+3,___flsub@b+3
 10813  001BD8  C138  F02E         	movff	_powf$1976,___flsub@a
 10814  001BDC  C139  F02F         	movff	_powf$1976+1,___flsub@a+1
 10815  001BE0  C13A  F030         	movff	_powf$1976+2,___flsub@a+2
 10816  001BE4  C13B  F031         	movff	_powf$1976+3,___flsub@a+3
 10817  001BE8  ECA5  F034         	call	___flsub	;wreg free
 10818  001BEC  C02A  F134         	movff	?___flsub,powf@t_l
 10819  001BF0  C02B  F135         	movff	?___flsub+1,powf@t_l+1
 10820  001BF4  C02C  F136         	movff	?___flsub+2,powf@t_l+2
 10821  001BF8  C02D  F137         	movff	?___flsub+3,powf@t_l+3
 10822  001BFC  C16C  F011         	movff	powf@s_h,i2___flmul@b
 10823  001C00  C16D  F012         	movff	powf@s_h+1,i2___flmul@b+1
 10824  001C04  C16E  F013         	movff	powf@s_h+2,i2___flmul@b+2
 10825  001C08  C16F  F014         	movff	powf@s_h+3,i2___flmul@b+3
 10826  001C0C  C168  F015         	movff	powf@t_h,i2___flmul@a
 10827  001C10  C169  F016         	movff	powf@t_h+1,i2___flmul@a+1
 10828  001C14  C16A  F017         	movff	powf@t_h+2,i2___flmul@a+2
 10829  001C18  C16B  F018         	movff	powf@t_h+3,i2___flmul@a+3
 10830  001C1C  EC31  F01F         	call	i2___flmul	;wreg free
 10831  001C20  C011  F174         	movff	?i2___flmul,powf@u
 10832  001C24  C012  F175         	movff	?i2___flmul+1,powf@u+1
 10833  001C28  C013  F176         	movff	?i2___flmul+2,powf@u+2
 10834  001C2C  C014  F177         	movff	?i2___flmul+3,powf@u+3
 10835  001C30  C168  F015         	movff	powf@t_h,i2___flmul@a
 10836  001C34  C169  F016         	movff	powf@t_h+1,i2___flmul@a+1
 10837  001C38  C16A  F017         	movff	powf@t_h+2,i2___flmul@a+2
 10838  001C3C  C16B  F018         	movff	powf@t_h+3,i2___flmul@a+3
 10839  001C40  C130  F011         	movff	powf@s_l,i2___flmul@b
 10840  001C44  C131  F012         	movff	powf@s_l+1,i2___flmul@b+1
 10841  001C48  C132  F013         	movff	powf@s_l+2,i2___flmul@b+2
 10842  001C4C  C133  F014         	movff	powf@s_l+3,i2___flmul@b+3
 10843  001C50  EC31  F01F         	call	i2___flmul	;wreg free
 10844  001C54  C011  F001         	movff	?i2___flmul,i2___fladd@b
 10845  001C58  C012  F002         	movff	?i2___flmul+1,i2___fladd@b+1
 10846  001C5C  C013  F003         	movff	?i2___flmul+2,i2___fladd@b+2
 10847  001C60  C014  F004         	movff	?i2___flmul+3,i2___fladd@b+3
 10848  001C64  C15C  F015         	movff	powf@s,i2___flmul@a
 10849  001C68  C15D  F016         	movff	powf@s+1,i2___flmul@a+1
 10850  001C6C  C15E  F017         	movff	powf@s+2,i2___flmul@a+2
 10851  001C70  C15F  F018         	movff	powf@s+3,i2___flmul@a+3
 10852  001C74  C134  F011         	movff	powf@t_l,i2___flmul@b
 10853  001C78  C135  F012         	movff	powf@t_l+1,i2___flmul@b+1
 10854  001C7C  C136  F013         	movff	powf@t_l+2,i2___flmul@b+2
 10855  001C80  C137  F014         	movff	powf@t_l+3,i2___flmul@b+3
 10856  001C84  EC31  F01F         	call	i2___flmul	;wreg free
 10857  001C88  C011  F005         	movff	?i2___flmul,i2___fladd@a
 10858  001C8C  C012  F006         	movff	?i2___flmul+1,i2___fladd@a+1
 10859  001C90  C013  F007         	movff	?i2___flmul+2,i2___fladd@a+2
 10860  001C94  C014  F008         	movff	?i2___flmul+3,i2___fladd@a+3
 10861  001C98  EC61  F022         	call	i2___fladd	;wreg free
 10862  001C9C  C001  F178         	movff	?i2___fladd,powf@v
 10863  001CA0  C002  F179         	movff	?i2___fladd+1,powf@v+1
 10864  001CA4  C003  F17A         	movff	?i2___fladd+2,powf@v+2
 10865  001CA8  C004  F17B         	movff	?i2___fladd+3,powf@v+3
 10866  001CAC  C174  F001         	movff	powf@u,i2___fladd@b
 10867  001CB0  C175  F002         	movff	powf@u+1,i2___fladd@b+1
 10868  001CB4  C176  F003         	movff	powf@u+2,i2___fladd@b+2
 10869  001CB8  C177  F004         	movff	powf@u+3,i2___fladd@b+3
 10870  001CBC  C178  F005         	movff	powf@v,i2___fladd@a
 10871  001CC0  C179  F006         	movff	powf@v+1,i2___fladd@a+1
 10872  001CC4  C17A  F007         	movff	powf@v+2,i2___fladd@a+2
 10873  001CC8  C17B  F008         	movff	powf@v+3,i2___fladd@a+3
 10874  001CCC  EC61  F022         	call	i2___fladd	;wreg free
 10875  001CD0  C001  F19C         	movff	?i2___fladd,powf@p_h
 10876  001CD4  C002  F19D         	movff	?i2___fladd+1,powf@p_h+1
 10877  001CD8  C003  F19E         	movff	?i2___fladd+2,powf@p_h+2
 10878  001CDC  C004  F19F         	movff	?i2___fladd+3,powf@p_h+3
 10879  001CE0  C19C  F1B8         	movff	powf@p_h,powf@__xc8_float_word
 10880  001CE4  C19D  F1B9         	movff	powf@p_h+1,powf@__xc8_float_word+1
 10881  001CE8  C19E  F1BA         	movff	powf@p_h+2,powf@__xc8_float_word+2
 10882  001CEC  C19F  F1BB         	movff	powf@p_h+3,powf@__xc8_float_word+3
 10883  001CF0  C1B8  F190         	movff	powf@__xc8_float_word,powf@is
 10884  001CF4  C1B9  F191         	movff	powf@__xc8_float_word+1,powf@is+1
 10885  001CF8  C1BA  F192         	movff	powf@__xc8_float_word+2,powf@is+2
 10886  001CFC  C1BB  F193         	movff	powf@__xc8_float_word+3,powf@is+3
 10887  001D00  0E00               	movlw	0
 10888  001D02  0101               	movlb	1	; () banked
 10889  001D04  1590               	andwf	powf@is& (0+255),w,b
 10890  001D06  6FB8               	movwf	powf@__xc8_float_word& (0+255),b
 10891  001D08  0EF0               	movlw	240
 10892  001D0A  1591               	andwf	(powf@is+1)& (0+255),w,b
 10893  001D0C  6FB9               	movwf	(powf@__xc8_float_word+1)& (0+255),b
 10894  001D0E  0EFF               	movlw	255
 10895  001D10  1592               	andwf	(powf@is+2)& (0+255),w,b
 10896  001D12  6FBA               	movwf	(powf@__xc8_float_word+2)& (0+255),b
 10897  001D14  0EFF               	movlw	255
 10898  001D16  1593               	andwf	(powf@is+3)& (0+255),w,b
 10899  001D18  6FBB               	movwf	(powf@__xc8_float_word+3)& (0+255),b
 10900                           
 10901                           ; BSR set to: 1
 10902  001D1A  C1B8  F19C         	movff	powf@__xc8_float_word,powf@p_h
 10903  001D1E  C1B9  F19D         	movff	powf@__xc8_float_word+1,powf@p_h+1
 10904  001D22  C1BA  F19E         	movff	powf@__xc8_float_word+2,powf@p_h+2
 10905  001D26  C1BB  F19F         	movff	powf@__xc8_float_word+3,powf@p_h+3
 10906                           
 10907                           ; BSR set to: 1
 10908  001D2A  C174  F02E         	movff	powf@u,___flsub@a
 10909  001D2E  C175  F02F         	movff	powf@u+1,___flsub@a+1
 10910  001D32  C176  F030         	movff	powf@u+2,___flsub@a+2
 10911  001D36  C177  F031         	movff	powf@u+3,___flsub@a+3
 10912  001D3A  C19C  F02A         	movff	powf@p_h,___flsub@b
 10913  001D3E  C19D  F02B         	movff	powf@p_h+1,___flsub@b+1
 10914  001D42  C19E  F02C         	movff	powf@p_h+2,___flsub@b+2
 10915  001D46  C19F  F02D         	movff	powf@p_h+3,___flsub@b+3
 10916  001D4A  ECA5  F034         	call	___flsub	;wreg free
 10917  001D4E  C02A  F194         	movff	?___flsub,_powf$1970
 10918  001D52  C02B  F195         	movff	?___flsub+1,_powf$1970+1
 10919  001D56  C02C  F196         	movff	?___flsub+2,_powf$1970+2
 10920  001D5A  C02D  F197         	movff	?___flsub+3,_powf$1970+3
 10921  001D5E  C178  F02A         	movff	powf@v,___flsub@b
 10922  001D62  C179  F02B         	movff	powf@v+1,___flsub@b+1
 10923  001D66  C17A  F02C         	movff	powf@v+2,___flsub@b+2
 10924  001D6A  C17B  F02D         	movff	powf@v+3,___flsub@b+3
 10925  001D6E  C194  F02E         	movff	_powf$1970,___flsub@a
 10926  001D72  C195  F02F         	movff	_powf$1970+1,___flsub@a+1
 10927  001D76  C196  F030         	movff	_powf$1970+2,___flsub@a+2
 10928  001D7A  C197  F031         	movff	_powf$1970+3,___flsub@a+3
 10929  001D7E  ECA5  F034         	call	___flsub	;wreg free
 10930  001D82  C02A  F164         	movff	?___flsub,powf@p_l
 10931  001D86  C02B  F165         	movff	?___flsub+1,powf@p_l+1
 10932  001D8A  C02C  F166         	movff	?___flsub+2,powf@p_l+2
 10933  001D8E  C02D  F167         	movff	?___flsub+3,powf@p_l+3
 10934  001D92  C19C  F011         	movff	powf@p_h,i2___flmul@b
 10935  001D96  C19D  F012         	movff	powf@p_h+1,i2___flmul@b+1
 10936  001D9A  C19E  F013         	movff	powf@p_h+2,i2___flmul@b+2
 10937  001D9E  C19F  F014         	movff	powf@p_h+3,i2___flmul@b+3
 10938  001DA2  0E00               	movlw	0
 10939  001DA4  6E15               	movwf	i2___flmul@a^0,c
 10940  001DA6  0E40               	movlw	64
 10941  001DA8  6E16               	movwf	(i2___flmul@a+1)^0,c
 10942  001DAA  0E76               	movlw	118
 10943  001DAC  6E17               	movwf	(i2___flmul@a+2)^0,c
 10944  001DAE  0E3F               	movlw	63
 10945  001DB0  6E18               	movwf	(i2___flmul@a+3)^0,c
 10946  001DB2  EC31  F01F         	call	i2___flmul	;wreg free
 10947  001DB6  C011  F120         	movff	?i2___flmul,powf@z_h
 10948  001DBA  C012  F121         	movff	?i2___flmul+1,powf@z_h+1
 10949  001DBE  C013  F122         	movff	?i2___flmul+2,powf@z_h+2
 10950  001DC2  C014  F123         	movff	?i2___flmul+3,powf@z_h+3
 10951  001DC6  0E4F               	movlw	79
 10952  001DC8  6E15               	movwf	i2___flmul@a^0,c
 10953  001DCA  0E38               	movlw	56
 10954  001DCC  6E16               	movwf	(i2___flmul@a+1)^0,c
 10955  001DCE  0E76               	movlw	118
 10956  001DD0  6E17               	movwf	(i2___flmul@a+2)^0,c
 10957  001DD2  0E3F               	movlw	63
 10958  001DD4  6E18               	movwf	(i2___flmul@a+3)^0,c
 10959  001DD6  C164  F011         	movff	powf@p_l,i2___flmul@b
 10960  001DDA  C165  F012         	movff	powf@p_l+1,i2___flmul@b+1
 10961  001DDE  C166  F013         	movff	powf@p_l+2,i2___flmul@b+2
 10962  001DE2  C167  F014         	movff	powf@p_l+3,i2___flmul@b+3
 10963  001DE6  EC31  F01F         	call	i2___flmul	;wreg free
 10964  001DEA  C011  F005         	movff	?i2___flmul,i2___fladd@a
 10965  001DEE  C012  F006         	movff	?i2___flmul+1,i2___fladd@a+1
 10966  001DF2  C013  F007         	movff	?i2___flmul+2,i2___fladd@a+2
 10967  001DF6  C014  F008         	movff	?i2___flmul+3,i2___fladd@a+3
 10968  001DFA  0EC6               	movlw	198
 10969  001DFC  6E15               	movwf	i2___flmul@a^0,c
 10970  001DFE  0E23               	movlw	35
 10971  001E00  6E16               	movwf	(i2___flmul@a+1)^0,c
 10972  001E02  0EF6               	movlw	246
 10973  001E04  6E17               	movwf	(i2___flmul@a+2)^0,c
 10974  001E06  0EB8               	movlw	184
 10975  001E08  6E18               	movwf	(i2___flmul@a+3)^0,c
 10976  001E0A  C19C  F011         	movff	powf@p_h,i2___flmul@b
 10977  001E0E  C19D  F012         	movff	powf@p_h+1,i2___flmul@b+1
 10978  001E12  C19E  F013         	movff	powf@p_h+2,i2___flmul@b+2
 10979  001E16  C19F  F014         	movff	powf@p_h+3,i2___flmul@b+3
 10980  001E1A  EC31  F01F         	call	i2___flmul	;wreg free
 10981  001E1E  C011  F001         	movff	?i2___flmul,i2___fladd@b
 10982  001E22  C012  F002         	movff	?i2___flmul+1,i2___fladd@b+1
 10983  001E26  C013  F003         	movff	?i2___flmul+2,i2___fladd@b+2
 10984  001E2A  C014  F004         	movff	?i2___flmul+3,i2___fladd@b+3
 10985  001E2E  EC61  F022         	call	i2___fladd	;wreg free
 10986  001E32  C001  F158         	movff	?i2___fladd,_powf$2106
 10987  001E36  C002  F159         	movff	?i2___fladd+1,_powf$2106+1
 10988  001E3A  C003  F15A         	movff	?i2___fladd+2,_powf$2106+2
 10989  001E3E  C004  F15B         	movff	?i2___fladd+3,_powf$2106+3
 10990  001E42  C158  F001         	movff	_powf$2106,i2___fladd@b
 10991  001E46  C159  F002         	movff	_powf$2106+1,i2___fladd@b+1
 10992  001E4A  C15A  F003         	movff	_powf$2106+2,i2___fladd@b+2
 10993  001E4E  C15B  F004         	movff	_powf$2106+3,i2___fladd@b+3
 10994  001E52  C1A0  F0D2         	movff	powf@k,??_powf
 10995  001E56  C1A1  F0D3         	movff	powf@k+1,??_powf+1
 10996  001E5A  0100               	movlb	0	; () banked
 10997  001E5C  90D8               	bcf	status,0,c
 10998  001E5E  37D2               	rlcf	??_powf& (0+255),f,b
 10999  001E60  37D3               	rlcf	(??_powf+1)& (0+255),f,b
 11000  001E62  90D8               	bcf	status,0,c
 11001  001E64  37D2               	rlcf	??_powf& (0+255),f,b
 11002  001E66  37D3               	rlcf	(??_powf+1)& (0+255),f,b
 11003  001E68  0E01               	movlw	low _dp_l
 11004  001E6A  25D2               	addwf	??_powf& (0+255),w,b
 11005  001E6C  6EF6               	movwf	tblptrl,c
 11006  001E6E  0E06               	movlw	high _dp_l
 11007  001E70  21D3               	addwfc	(??_powf+1)& (0+255),w,b
 11008  001E72  6EF7               	movwf	tblptrh,c
 11009  001E74                     	if	0	;There are less than 3 active tblptr bytes
 11010  001E74                     	endif
 11011  001E74  0009               	tblrd		*+
 11012  001E76  CFF5 F005          	movff	tablat,i2___fladd@a
 11013  001E7A  0009               	tblrd		*+
 11014  001E7C  CFF5 F006          	movff	tablat,i2___fladd@a+1
 11015  001E80  0009               	tblrd		*+
 11016  001E82  CFF5 F007          	movff	tablat,i2___fladd@a+2
 11017  001E86  000A               	tblrd		*-
 11018  001E88  CFF5 F008          	movff	tablat,i2___fladd@a+3
 11019  001E8C  EC61  F022         	call	i2___fladd	;wreg free
 11020  001E90  C001  F124         	movff	?i2___fladd,powf@z_l
 11021  001E94  C002  F125         	movff	?i2___fladd+1,powf@z_l+1
 11022  001E98  C003  F126         	movff	?i2___fladd+2,powf@z_l+2
 11023  001E9C  C004  F127         	movff	?i2___fladd+3,powf@z_l+3
 11024  001EA0  C17C  F001         	movff	powf@n,i2___xxtofl@val
 11025  001EA4  C17D  F002         	movff	powf@n+1,i2___xxtofl@val+1
 11026  001EA8  C17E  F003         	movff	powf@n+2,i2___xxtofl@val+2
 11027  001EAC  C17F  F004         	movff	powf@n+3,i2___xxtofl@val+3
 11028  001EB0  0E01               	movlw	1
 11029  001EB2  ECB9  F02F         	call	i2___xxtofl
 11030  001EB6  C001  F1B0         	movff	?i2___xxtofl,powf@t
 11031  001EBA  C002  F1B1         	movff	?i2___xxtofl+1,powf@t+1
 11032  001EBE  C003  F1B2         	movff	?i2___xxtofl+2,powf@t+2
 11033  001EC2  C004  F1B3         	movff	?i2___xxtofl+3,powf@t+3
 11034  001EC6  C124  F005         	movff	powf@z_l,i2___fladd@a
 11035  001ECA  C125  F006         	movff	powf@z_l+1,i2___fladd@a+1
 11036  001ECE  C126  F007         	movff	powf@z_l+2,i2___fladd@a+2
 11037  001ED2  C127  F008         	movff	powf@z_l+3,i2___fladd@a+3
 11038  001ED6  C120  F001         	movff	powf@z_h,i2___fladd@b
 11039  001EDA  C121  F002         	movff	powf@z_h+1,i2___fladd@b+1
 11040  001EDE  C122  F003         	movff	powf@z_h+2,i2___fladd@b+2
 11041  001EE2  C123  F004         	movff	powf@z_h+3,i2___fladd@b+3
 11042  001EE6  EC61  F022         	call	i2___fladd	;wreg free
 11043  001EEA  C001  F158         	movff	?i2___fladd,_powf$2106
 11044  001EEE  C002  F159         	movff	?i2___fladd+1,_powf$2106+1
 11045  001EF2  C003  F15A         	movff	?i2___fladd+2,_powf$2106+2
 11046  001EF6  C004  F15B         	movff	?i2___fladd+3,_powf$2106+3
 11047  001EFA  C1A0  F0D2         	movff	powf@k,??_powf
 11048  001EFE  C1A1  F0D3         	movff	powf@k+1,??_powf+1
 11049  001F02  0100               	movlb	0	; () banked
 11050  001F04  90D8               	bcf	status,0,c
 11051  001F06  37D2               	rlcf	??_powf& (0+255),f,b
 11052  001F08  37D3               	rlcf	(??_powf+1)& (0+255),f,b
 11053  001F0A  90D8               	bcf	status,0,c
 11054  001F0C  37D2               	rlcf	??_powf& (0+255),f,b
 11055  001F0E  37D3               	rlcf	(??_powf+1)& (0+255),f,b
 11056  001F10  0E09               	movlw	low _dp_h
 11057  001F12  25D2               	addwf	??_powf& (0+255),w,b
 11058  001F14  6EF6               	movwf	tblptrl,c
 11059  001F16  0E06               	movlw	high _dp_h
 11060  001F18  21D3               	addwfc	(??_powf+1)& (0+255),w,b
 11061  001F1A  6EF7               	movwf	tblptrh,c
 11062  001F1C                     	if	0	;There are less than 3 active tblptr bytes
 11063  001F1C                     	endif
 11064  001F1C  0009               	tblrd		*+
 11065  001F1E  CFF5 F005          	movff	tablat,i2___fladd@a
 11066  001F22  0009               	tblrd		*+
 11067  001F24  CFF5 F006          	movff	tablat,i2___fladd@a+1
 11068  001F28  0009               	tblrd		*+
 11069  001F2A  CFF5 F007          	movff	tablat,i2___fladd@a+2
 11070  001F2E  000A               	tblrd		*-
 11071  001F30  CFF5 F008          	movff	tablat,i2___fladd@a+3
 11072  001F34  C158  F001         	movff	_powf$2106,i2___fladd@b
 11073  001F38  C159  F002         	movff	_powf$2106+1,i2___fladd@b+1
 11074  001F3C  C15A  F003         	movff	_powf$2106+2,i2___fladd@b+2
 11075  001F40  C15B  F004         	movff	_powf$2106+3,i2___fladd@b+3
 11076  001F44  EC61  F022         	call	i2___fladd	;wreg free
 11077  001F48  C001  F10C         	movff	?i2___fladd,_powf$2108
 11078  001F4C  C002  F10D         	movff	?i2___fladd+1,_powf$2108+1
 11079  001F50  C003  F10E         	movff	?i2___fladd+2,_powf$2108+2
 11080  001F54  C004  F10F         	movff	?i2___fladd+3,_powf$2108+3
 11081  001F58  C10C  F001         	movff	_powf$2108,i2___fladd@b
 11082  001F5C  C10D  F002         	movff	_powf$2108+1,i2___fladd@b+1
 11083  001F60  C10E  F003         	movff	_powf$2108+2,i2___fladd@b+2
 11084  001F64  C10F  F004         	movff	_powf$2108+3,i2___fladd@b+3
 11085  001F68  C1B0  F005         	movff	powf@t,i2___fladd@a
 11086  001F6C  C1B1  F006         	movff	powf@t+1,i2___fladd@a+1
 11087  001F70  C1B2  F007         	movff	powf@t+2,i2___fladd@a+2
 11088  001F74  C1B3  F008         	movff	powf@t+3,i2___fladd@a+3
 11089  001F78  EC61  F022         	call	i2___fladd	;wreg free
 11090  001F7C  C001  F180         	movff	?i2___fladd,powf@t1
 11091  001F80  C002  F181         	movff	?i2___fladd+1,powf@t1+1
 11092  001F84  C003  F182         	movff	?i2___fladd+2,powf@t1+2
 11093  001F88  C004  F183         	movff	?i2___fladd+3,powf@t1+3
 11094  001F8C  C180  F1B8         	movff	powf@t1,powf@__xc8_float_word
 11095  001F90  C181  F1B9         	movff	powf@t1+1,powf@__xc8_float_word+1
 11096  001F94  C182  F1BA         	movff	powf@t1+2,powf@__xc8_float_word+2
 11097  001F98  C183  F1BB         	movff	powf@t1+3,powf@__xc8_float_word+3
 11098  001F9C  C1B8  F190         	movff	powf@__xc8_float_word,powf@is
 11099  001FA0  C1B9  F191         	movff	powf@__xc8_float_word+1,powf@is+1
 11100  001FA4  C1BA  F192         	movff	powf@__xc8_float_word+2,powf@is+2
 11101  001FA8  C1BB  F193         	movff	powf@__xc8_float_word+3,powf@is+3
 11102  001FAC  0E00               	movlw	0
 11103  001FAE  0101               	movlb	1	; () banked
 11104  001FB0  1590               	andwf	powf@is& (0+255),w,b
 11105  001FB2  6FB8               	movwf	powf@__xc8_float_word& (0+255),b
 11106  001FB4  0EF0               	movlw	240
 11107  001FB6  1591               	andwf	(powf@is+1)& (0+255),w,b
 11108  001FB8  6FB9               	movwf	(powf@__xc8_float_word+1)& (0+255),b
 11109  001FBA  0EFF               	movlw	255
 11110  001FBC  1592               	andwf	(powf@is+2)& (0+255),w,b
 11111  001FBE  6FBA               	movwf	(powf@__xc8_float_word+2)& (0+255),b
 11112  001FC0  0EFF               	movlw	255
 11113  001FC2  1593               	andwf	(powf@is+3)& (0+255),w,b
 11114  001FC4  6FBB               	movwf	(powf@__xc8_float_word+3)& (0+255),b
 11115                           
 11116                           ; BSR set to: 1
 11117  001FC6  C1B8  F180         	movff	powf@__xc8_float_word,powf@t1
 11118  001FCA  C1B9  F181         	movff	powf@__xc8_float_word+1,powf@t1+1
 11119  001FCE  C1BA  F182         	movff	powf@__xc8_float_word+2,powf@t1+2
 11120  001FD2  C1BB  F183         	movff	powf@__xc8_float_word+3,powf@t1+3
 11121                           
 11122                           ; BSR set to: 1
 11123  001FD6  C1B0  F02E         	movff	powf@t,___flsub@a
 11124  001FDA  C1B1  F02F         	movff	powf@t+1,___flsub@a+1
 11125  001FDE  C1B2  F030         	movff	powf@t+2,___flsub@a+2
 11126  001FE2  C1B3  F031         	movff	powf@t+3,___flsub@a+3
 11127  001FE6  C180  F02A         	movff	powf@t1,___flsub@b
 11128  001FEA  C181  F02B         	movff	powf@t1+1,___flsub@b+1
 11129  001FEE  C182  F02C         	movff	powf@t1+2,___flsub@b+2
 11130  001FF2  C183  F02D         	movff	powf@t1+3,___flsub@b+3
 11131  001FF6  ECA5  F034         	call	___flsub	;wreg free
 11132  001FFA  C02A  F194         	movff	?___flsub,_powf$1970
 11133  001FFE  C02B  F195         	movff	?___flsub+1,_powf$1970+1
 11134  002002  C02C  F196         	movff	?___flsub+2,_powf$1970+2
 11135  002006  C02D  F197         	movff	?___flsub+3,_powf$1970+3
 11136  00200A  C1A0  F0D2         	movff	powf@k,??_powf
 11137  00200E  C1A1  F0D3         	movff	powf@k+1,??_powf+1
 11138  002012  0100               	movlb	0	; () banked
 11139  002014  90D8               	bcf	status,0,c
 11140  002016  37D2               	rlcf	??_powf& (0+255),f,b
 11141  002018  37D3               	rlcf	(??_powf+1)& (0+255),f,b
 11142  00201A  90D8               	bcf	status,0,c
 11143  00201C  37D2               	rlcf	??_powf& (0+255),f,b
 11144  00201E  37D3               	rlcf	(??_powf+1)& (0+255),f,b
 11145  002020  0E09               	movlw	low _dp_h
 11146  002022  25D2               	addwf	??_powf& (0+255),w,b
 11147  002024  6EF6               	movwf	tblptrl,c
 11148  002026  0E06               	movlw	high _dp_h
 11149  002028  21D3               	addwfc	(??_powf+1)& (0+255),w,b
 11150  00202A  6EF7               	movwf	tblptrh,c
 11151  00202C                     	if	0	;There are less than 3 active tblptr bytes
 11152  00202C                     	endif
 11153  00202C  0009               	tblrd		*+
 11154  00202E  CFF5 F02E          	movff	tablat,___flsub@a
 11155  002032  0009               	tblrd		*+
 11156  002034  CFF5 F02F          	movff	tablat,___flsub@a+1
 11157  002038  0009               	tblrd		*+
 11158  00203A  CFF5 F030          	movff	tablat,___flsub@a+2
 11159  00203E  000A               	tblrd		*-
 11160  002040  CFF5 F031          	movff	tablat,___flsub@a+3
 11161  002044  C194  F02A         	movff	_powf$1970,___flsub@b
 11162  002048  C195  F02B         	movff	_powf$1970+1,___flsub@b+1
 11163  00204C  C196  F02C         	movff	_powf$1970+2,___flsub@b+2
 11164  002050  C197  F02D         	movff	_powf$1970+3,___flsub@b+3
 11165  002054  ECA5  F034         	call	___flsub	;wreg free
 11166  002058  C02A  F138         	movff	?___flsub,_powf$1976
 11167  00205C  C02B  F139         	movff	?___flsub+1,_powf$1976+1
 11168  002060  C02C  F13A         	movff	?___flsub+2,_powf$1976+2
 11169  002064  C02D  F13B         	movff	?___flsub+3,_powf$1976+3
 11170  002068  C120  F02E         	movff	powf@z_h,___flsub@a
 11171  00206C  C121  F02F         	movff	powf@z_h+1,___flsub@a+1
 11172  002070  C122  F030         	movff	powf@z_h+2,___flsub@a+2
 11173  002074  C123  F031         	movff	powf@z_h+3,___flsub@a+3
 11174  002078  C138  F02A         	movff	_powf$1976,___flsub@b
 11175  00207C  C139  F02B         	movff	_powf$1976+1,___flsub@b+1
 11176  002080  C13A  F02C         	movff	_powf$1976+2,___flsub@b+2
 11177  002084  C13B  F02D         	movff	_powf$1976+3,___flsub@b+3
 11178  002088  ECA5  F034         	call	___flsub	;wreg free
 11179  00208C  C02A  F100         	movff	?___flsub,_powf$1978
 11180  002090  C02B  F101         	movff	?___flsub+1,_powf$1978+1
 11181  002094  C02C  F102         	movff	?___flsub+2,_powf$1978+2
 11182  002098  C02D  F103         	movff	?___flsub+3,_powf$1978+3
 11183  00209C  C124  F02A         	movff	powf@z_l,___flsub@b
 11184  0020A0  C125  F02B         	movff	powf@z_l+1,___flsub@b+1
 11185  0020A4  C126  F02C         	movff	powf@z_l+2,___flsub@b+2
 11186  0020A8  C127  F02D         	movff	powf@z_l+3,___flsub@b+3
 11187  0020AC  C100  F02E         	movff	_powf$1978,___flsub@a
 11188  0020B0  C101  F02F         	movff	_powf$1978+1,___flsub@a+1
 11189  0020B4  C102  F030         	movff	_powf$1978+2,___flsub@a+2
 11190  0020B8  C103  F031         	movff	_powf$1978+3,___flsub@a+3
 11191  0020BC  ECA5  F034         	call	___flsub	;wreg free
 11192  0020C0                     L10:
 11193  0020C0  C02A  F11C         	movff	?___flsub,powf@t2
 11194  0020C4  C02B  F11D         	movff	?___flsub+1,powf@t2+1
 11195  0020C8  C02C  F11E         	movff	?___flsub+2,powf@t2+2
 11196  0020CC  C02D  F11F         	movff	?___flsub+3,powf@t2+3
 11197  0020D0  C073  F1B8         	movff	powf@y,powf@__xc8_float_word
 11198  0020D4  C074  F1B9         	movff	powf@y+1,powf@__xc8_float_word+1
 11199  0020D8  C075  F1BA         	movff	powf@y+2,powf@__xc8_float_word+2
 11200  0020DC  C076  F1BB         	movff	powf@y+3,powf@__xc8_float_word+3
 11201  0020E0  C1B8  F190         	movff	powf@__xc8_float_word,powf@is
 11202  0020E4  C1B9  F191         	movff	powf@__xc8_float_word+1,powf@is+1
 11203  0020E8  C1BA  F192         	movff	powf@__xc8_float_word+2,powf@is+2
 11204  0020EC  C1BB  F193         	movff	powf@__xc8_float_word+3,powf@is+3
 11205  0020F0  0E00               	movlw	0
 11206  0020F2  0101               	movlb	1	; () banked
 11207  0020F4  1590               	andwf	powf@is& (0+255),w,b
 11208  0020F6  6FB8               	movwf	powf@__xc8_float_word& (0+255),b
 11209  0020F8  0EF0               	movlw	240
 11210  0020FA  1591               	andwf	(powf@is+1)& (0+255),w,b
 11211  0020FC  6FB9               	movwf	(powf@__xc8_float_word+1)& (0+255),b
 11212  0020FE  0EFF               	movlw	255
 11213  002100  1592               	andwf	(powf@is+2)& (0+255),w,b
 11214  002102  6FBA               	movwf	(powf@__xc8_float_word+2)& (0+255),b
 11215  002104  0EFF               	movlw	255
 11216  002106  1593               	andwf	(powf@is+3)& (0+255),w,b
 11217  002108  6FBB               	movwf	(powf@__xc8_float_word+3)& (0+255),b
 11218                           
 11219                           ; BSR set to: 1
 11220  00210A  C1B8  F128         	movff	powf@__xc8_float_word,powf@y1
 11221  00210E  C1B9  F129         	movff	powf@__xc8_float_word+1,powf@y1+1
 11222  002112  C1BA  F12A         	movff	powf@__xc8_float_word+2,powf@y1+2
 11223  002116  C1BB  F12B         	movff	powf@__xc8_float_word+3,powf@y1+3
 11224                           
 11225                           ; BSR set to: 1
 11226  00211A  C180  F015         	movff	powf@t1,i2___flmul@a
 11227  00211E  C181  F016         	movff	powf@t1+1,i2___flmul@a+1
 11228  002122  C182  F017         	movff	powf@t1+2,i2___flmul@a+2
 11229  002126  C183  F018         	movff	powf@t1+3,i2___flmul@a+3
 11230  00212A  C128  F02E         	movff	powf@y1,___flsub@a
 11231  00212E  C129  F02F         	movff	powf@y1+1,___flsub@a+1
 11232  002132  C12A  F030         	movff	powf@y1+2,___flsub@a+2
 11233  002136  C12B  F031         	movff	powf@y1+3,___flsub@a+3
 11234  00213A  C073  F02A         	movff	powf@y,___flsub@b
 11235  00213E  C074  F02B         	movff	powf@y+1,___flsub@b+1
 11236  002142  C075  F02C         	movff	powf@y+2,___flsub@b+2
 11237  002146  C076  F02D         	movff	powf@y+3,___flsub@b+3
 11238  00214A  ECA5  F034         	call	___flsub	;wreg free
 11239  00214E  C02A  F011         	movff	?___flsub,i2___flmul@b
 11240  002152  C02B  F012         	movff	?___flsub+1,i2___flmul@b+1
 11241  002156  C02C  F013         	movff	?___flsub+2,i2___flmul@b+2
 11242  00215A  C02D  F014         	movff	?___flsub+3,i2___flmul@b+3
 11243  00215E  EC31  F01F         	call	i2___flmul	;wreg free
 11244  002162  C011  F110         	movff	?i2___flmul,_powf$2109
 11245  002166  C012  F111         	movff	?i2___flmul+1,_powf$2109+1
 11246  00216A  C013  F112         	movff	?i2___flmul+2,_powf$2109+2
 11247  00216E  C014  F113         	movff	?i2___flmul+3,_powf$2109+3
 11248  002172  C110  F001         	movff	_powf$2109,i2___fladd@b
 11249  002176  C111  F002         	movff	_powf$2109+1,i2___fladd@b+1
 11250  00217A  C112  F003         	movff	_powf$2109+2,i2___fladd@b+2
 11251  00217E  C113  F004         	movff	_powf$2109+3,i2___fladd@b+3
 11252  002182  C11C  F015         	movff	powf@t2,i2___flmul@a
 11253  002186  C11D  F016         	movff	powf@t2+1,i2___flmul@a+1
 11254  00218A  C11E  F017         	movff	powf@t2+2,i2___flmul@a+2
 11255  00218E  C11F  F018         	movff	powf@t2+3,i2___flmul@a+3
 11256  002192  C073  F011         	movff	powf@y,i2___flmul@b
 11257  002196  C074  F012         	movff	powf@y+1,i2___flmul@b+1
 11258  00219A  C075  F013         	movff	powf@y+2,i2___flmul@b+2
 11259  00219E  C076  F014         	movff	powf@y+3,i2___flmul@b+3
 11260  0021A2  EC31  F01F         	call	i2___flmul	;wreg free
 11261  0021A6  C011  F005         	movff	?i2___flmul,i2___fladd@a
 11262  0021AA  C012  F006         	movff	?i2___flmul+1,i2___fladd@a+1
 11263  0021AE  C013  F007         	movff	?i2___flmul+2,i2___fladd@a+2
 11264  0021B2  C014  F008         	movff	?i2___flmul+3,i2___fladd@a+3
 11265  0021B6  EC61  F022         	call	i2___fladd	;wreg free
 11266  0021BA  C001  F164         	movff	?i2___fladd,powf@p_l
 11267  0021BE  C002  F165         	movff	?i2___fladd+1,powf@p_l+1
 11268  0021C2  C003  F166         	movff	?i2___fladd+2,powf@p_l+2
 11269  0021C6  C004  F167         	movff	?i2___fladd+3,powf@p_l+3
 11270  0021CA  C128  F011         	movff	powf@y1,i2___flmul@b
 11271  0021CE  C129  F012         	movff	powf@y1+1,i2___flmul@b+1
 11272  0021D2  C12A  F013         	movff	powf@y1+2,i2___flmul@b+2
 11273  0021D6  C12B  F014         	movff	powf@y1+3,i2___flmul@b+3
 11274  0021DA  C180  F015         	movff	powf@t1,i2___flmul@a
 11275  0021DE  C181  F016         	movff	powf@t1+1,i2___flmul@a+1
 11276  0021E2  C182  F017         	movff	powf@t1+2,i2___flmul@a+2
 11277  0021E6  C183  F018         	movff	powf@t1+3,i2___flmul@a+3
 11278  0021EA  EC31  F01F         	call	i2___flmul	;wreg free
 11279  0021EE  C011  F19C         	movff	?i2___flmul,powf@p_h
 11280  0021F2  C012  F19D         	movff	?i2___flmul+1,powf@p_h+1
 11281  0021F6  C013  F19E         	movff	?i2___flmul+2,powf@p_h+2
 11282  0021FA  C014  F19F         	movff	?i2___flmul+3,powf@p_h+3
 11283  0021FE  C164  F001         	movff	powf@p_l,i2___fladd@b
 11284  002202  C165  F002         	movff	powf@p_l+1,i2___fladd@b+1
 11285  002206  C166  F003         	movff	powf@p_l+2,i2___fladd@b+2
 11286  00220A  C167  F004         	movff	powf@p_l+3,i2___fladd@b+3
 11287  00220E  C19C  F005         	movff	powf@p_h,i2___fladd@a
 11288  002212  C19D  F006         	movff	powf@p_h+1,i2___fladd@a+1
 11289  002216  C19E  F007         	movff	powf@p_h+2,i2___fladd@a+2
 11290  00221A  C19F  F008         	movff	powf@p_h+3,i2___fladd@a+3
 11291  00221E  EC61  F022         	call	i2___fladd	;wreg free
 11292  002222  C001  F1B4         	movff	?i2___fladd,powf@z
 11293  002226  C002  F1B5         	movff	?i2___fladd+1,powf@z+1
 11294  00222A  C003  F1B6         	movff	?i2___fladd+2,powf@z+2
 11295  00222E  C004  F1B7         	movff	?i2___fladd+3,powf@z+3
 11296  002232  C1B4  F1B8         	movff	powf@z,powf@__xc8_float_word
 11297  002236  C1B5  F1B9         	movff	powf@z+1,powf@__xc8_float_word+1
 11298  00223A  C1B6  F1BA         	movff	powf@z+2,powf@__xc8_float_word+2
 11299  00223E  C1B7  F1BB         	movff	powf@z+3,powf@__xc8_float_word+3
 11300  002242  C1B8  F1AC         	movff	powf@__xc8_float_word,powf@j
 11301  002246  C1B9  F1AD         	movff	powf@__xc8_float_word+1,powf@j+1
 11302  00224A  C1BA  F1AE         	movff	powf@__xc8_float_word+2,powf@j+2
 11303  00224E  C1BB  F1AF         	movff	powf@__xc8_float_word+3,powf@j+3
 11304  002252  0101               	movlb	1	; () banked
 11305  002254  BFAF               	btfsc	(powf@j+3)& (0+255),7,b
 11306  002256  D03E               	goto	i2l5162
 11307  002258  05AC               	decf	powf@j& (0+255),w,b
 11308  00225A  0E00               	movlw	0
 11309  00225C  59AD               	subwfb	(powf@j+1)& (0+255),w,b
 11310  00225E  0E00               	movlw	0
 11311  002260  59AE               	subwfb	(powf@j+2)& (0+255),w,b
 11312  002262  0E43               	movlw	67
 11313  002264  59AF               	subwfb	(powf@j+3)& (0+255),w,b
 11314  002266  A0D8               	btfss	status,0,c
 11315  002268  D035               	goto	i2l5162
 11316                           
 11317                           ; BSR set to: 1
 11318  00226A  0ECA               	movlw	202
 11319  00226C  6E15               	movwf	i2___flmul@a^0,c
 11320  00226E  0EF2               	movlw	242
 11321  002270  6E16               	movwf	(i2___flmul@a+1)^0,c
 11322  002272  0E49               	movlw	73
 11323  002274  6E17               	movwf	(i2___flmul@a+2)^0,c
 11324  002276  0E71               	movlw	113
 11325  002278  6E18               	movwf	(i2___flmul@a+3)^0,c
 11326  00227A  C188  F011         	movff	powf@sn,i2___flmul@b
 11327  00227E  C189  F012         	movff	powf@sn+1,i2___flmul@b+1
 11328  002282  C18A  F013         	movff	powf@sn+2,i2___flmul@b+2
 11329  002286  C18B  F014         	movff	powf@sn+3,i2___flmul@b+3
 11330  00228A  EC31  F01F         	call	i2___flmul	;wreg free
 11331  00228E  C011  F1A4         	movff	?i2___flmul,_powf$2100
 11332  002292  C012  F1A5         	movff	?i2___flmul+1,_powf$2100+1
 11333  002296  C013  F1A6         	movff	?i2___flmul+2,_powf$2100+2
 11334  00229A  C014  F1A7         	movff	?i2___flmul+3,_powf$2100+3
 11335  00229E  C1A4  F011         	movff	_powf$2100,i2___flmul@b
 11336  0022A2  C1A5  F012         	movff	_powf$2100+1,i2___flmul@b+1
 11337  0022A6  C1A6  F013         	movff	_powf$2100+2,i2___flmul@b+2
 11338  0022AA  C1A7  F014         	movff	_powf$2100+3,i2___flmul@b+3
 11339  0022AE  0ECA               	movlw	202
 11340  0022B0  6E15               	movwf	i2___flmul@a^0,c
 11341  0022B2  0EF2               	movlw	242
 11342  0022B4  6E16               	movwf	(i2___flmul@a+1)^0,c
 11343  0022B6  0E49               	movlw	73
 11344  0022B8  6E17               	movwf	(i2___flmul@a+2)^0,c
 11345  0022BA  0E71               	movlw	113
 11346  0022BC  6E18               	movwf	(i2___flmul@a+3)^0,c
 11347  0022BE  EC31  F01F         	call	i2___flmul	;wreg free
 11348  0022C2  C011  F06F         	movff	?i2___flmul,?_powf
 11349  0022C6  C012  F070         	movff	?i2___flmul+1,?_powf+1
 11350  0022CA  C013  F071         	movff	?i2___flmul+2,?_powf+2
 11351  0022CE  C014  F072         	movff	?i2___flmul+3,?_powf+3
 11352  0022D2  0012               	return	
 11353  0022D4                     i2l5162:
 11354                           
 11355                           ; BSR set to: 1
 11356  0022D4  0E43               	movlw	67
 11357  0022D6  19AF               	xorwf	(powf@j+3)& (0+255),w,b
 11358  0022D8  11AC               	iorwf	powf@j& (0+255),w,b
 11359  0022DA  11AD               	iorwf	(powf@j+1)& (0+255),w,b
 11360  0022DC  11AE               	iorwf	(powf@j+2)& (0+255),w,b
 11361  0022DE  A4D8               	btfss	status,2,c
 11362  0022E0  D06D               	goto	i2l5170
 11363                           
 11364                           ; BSR set to: 1
 11365  0022E2  C19C  F02E         	movff	powf@p_h,___flsub@a
 11366  0022E6  C19D  F02F         	movff	powf@p_h+1,___flsub@a+1
 11367  0022EA  C19E  F030         	movff	powf@p_h+2,___flsub@a+2
 11368  0022EE  C19F  F031         	movff	powf@p_h+3,___flsub@a+3
 11369  0022F2  C1B4  F02A         	movff	powf@z,___flsub@b
 11370  0022F6  C1B5  F02B         	movff	powf@z+1,___flsub@b+1
 11371  0022FA  C1B6  F02C         	movff	powf@z+2,___flsub@b+2
 11372  0022FE  C1B7  F02D         	movff	powf@z+3,___flsub@b+3
 11373  002302  ECA5  F034         	call	___flsub	;wreg free
 11374  002306  C02A  F032         	movff	?___flsub,___flge@ff1
 11375  00230A  C02B  F033         	movff	?___flsub+1,___flge@ff1+1
 11376  00230E  C02C  F034         	movff	?___flsub+2,___flge@ff1+2
 11377  002312  C02D  F035         	movff	?___flsub+3,___flge@ff1+3
 11378  002316  0E3C               	movlw	60
 11379  002318  6E05               	movwf	i2___fladd@a^0,c
 11380  00231A  0EAA               	movlw	170
 11381  00231C  6E06               	movwf	(i2___fladd@a+1)^0,c
 11382  00231E  0E38               	movlw	56
 11383  002320  6E07               	movwf	(i2___fladd@a+2)^0,c
 11384  002322  0E33               	movlw	51
 11385  002324  6E08               	movwf	(i2___fladd@a+3)^0,c
 11386  002326  C164  F001         	movff	powf@p_l,i2___fladd@b
 11387  00232A  C165  F002         	movff	powf@p_l+1,i2___fladd@b+1
 11388  00232E  C166  F003         	movff	powf@p_l+2,i2___fladd@b+2
 11389  002332  C167  F004         	movff	powf@p_l+3,i2___fladd@b+3
 11390  002336  EC61  F022         	call	i2___fladd	;wreg free
 11391  00233A  C001  F036         	movff	?i2___fladd,___flge@ff2
 11392  00233E  C002  F037         	movff	?i2___fladd+1,___flge@ff2+1
 11393  002342  C003  F038         	movff	?i2___fladd+2,___flge@ff2+2
 11394  002346  C004  F039         	movff	?i2___fladd+3,___flge@ff2+3
 11395  00234A  EC0E  F032         	call	___flge	;wreg free
 11396  00234E  B0D8               	btfsc	status,0,c
 11397  002350  D0ED               	goto	i2l5186
 11398  002352  0ECA               	movlw	202
 11399  002354  6E15               	movwf	i2___flmul@a^0,c
 11400  002356  0EF2               	movlw	242
 11401  002358  6E16               	movwf	(i2___flmul@a+1)^0,c
 11402  00235A  0E49               	movlw	73
 11403  00235C  6E17               	movwf	(i2___flmul@a+2)^0,c
 11404  00235E  0E71               	movlw	113
 11405  002360  6E18               	movwf	(i2___flmul@a+3)^0,c
 11406  002362  C188  F011         	movff	powf@sn,i2___flmul@b
 11407  002366  C189  F012         	movff	powf@sn+1,i2___flmul@b+1
 11408  00236A  C18A  F013         	movff	powf@sn+2,i2___flmul@b+2
 11409  00236E  C18B  F014         	movff	powf@sn+3,i2___flmul@b+3
 11410  002372  EC31  F01F         	call	i2___flmul	;wreg free
 11411  002376  C011  F1A4         	movff	?i2___flmul,_powf$2100
 11412  00237A  C012  F1A5         	movff	?i2___flmul+1,_powf$2100+1
 11413  00237E  C013  F1A6         	movff	?i2___flmul+2,_powf$2100+2
 11414  002382  C014  F1A7         	movff	?i2___flmul+3,_powf$2100+3
 11415  002386  C1A4  F011         	movff	_powf$2100,i2___flmul@b
 11416  00238A  C1A5  F012         	movff	_powf$2100+1,i2___flmul@b+1
 11417  00238E  C1A6  F013         	movff	_powf$2100+2,i2___flmul@b+2
 11418  002392  C1A7  F014         	movff	_powf$2100+3,i2___flmul@b+3
 11419  002396  0ECA               	movlw	202
 11420  002398  6E15               	movwf	i2___flmul@a^0,c
 11421  00239A  0EF2               	movlw	242
 11422  00239C  6E16               	movwf	(i2___flmul@a+1)^0,c
 11423  00239E  0E49               	movlw	73
 11424  0023A0  6E17               	movwf	(i2___flmul@a+2)^0,c
 11425  0023A2  0E71               	movlw	113
 11426  0023A4  6E18               	movwf	(i2___flmul@a+3)^0,c
 11427  0023A6  EC31  F01F         	call	i2___flmul	;wreg free
 11428  0023AA  C011  F06F         	movff	?i2___flmul,?_powf
 11429  0023AE  C012  F070         	movff	?i2___flmul+1,?_powf+1
 11430  0023B2  C013  F071         	movff	?i2___flmul+2,?_powf+2
 11431  0023B6  C014  F072         	movff	?i2___flmul+3,?_powf+3
 11432  0023BA  0012               	return	
 11433  0023BC                     i2l5170:
 11434                           
 11435                           ; BSR set to: 1
 11436  0023BC  0EFF               	movlw	255
 11437  0023BE  15AC               	andwf	powf@j& (0+255),w,b
 11438  0023C0  0100               	movlb	0	; () banked
 11439  0023C2  6FD2               	movwf	??_powf& (0+255),b
 11440  0023C4  0EFF               	movlw	255
 11441  0023C6  0101               	movlb	1	; () banked
 11442  0023C8  15AD               	andwf	(powf@j+1)& (0+255),w,b
 11443  0023CA  0100               	movlb	0	; () banked
 11444  0023CC  6FD3               	movwf	(??_powf+1)& (0+255),b
 11445  0023CE  0EFF               	movlw	255
 11446  0023D0  0101               	movlb	1	; () banked
 11447  0023D2  15AE               	andwf	(powf@j+2)& (0+255),w,b
 11448  0023D4  0100               	movlb	0	; () banked
 11449  0023D6  6FD4               	movwf	(??_powf+2)& (0+255),b
 11450  0023D8  0E7F               	movlw	127
 11451  0023DA  0101               	movlb	1	; () banked
 11452  0023DC  15AF               	andwf	(powf@j+3)& (0+255),w,b
 11453  0023DE  0100               	movlb	0	; () banked
 11454  0023E0  6FD5               	movwf	(??_powf+3)& (0+255),b
 11455  0023E2  BFD5               	btfsc	(??_powf+3)& (0+255),7,b
 11456  0023E4  D03E               	goto	i2l5178
 11457  0023E6  05D2               	decf	??_powf& (0+255),w,b
 11458  0023E8  0E00               	movlw	0
 11459  0023EA  59D3               	subwfb	(??_powf+1)& (0+255),w,b
 11460  0023EC  0E16               	movlw	22
 11461  0023EE  59D4               	subwfb	(??_powf+2)& (0+255),w,b
 11462  0023F0  0E43               	movlw	67
 11463  0023F2  59D5               	subwfb	(??_powf+3)& (0+255),w,b
 11464  0023F4  A0D8               	btfss	status,0,c
 11465  0023F6  D035               	goto	i2l5178
 11466                           
 11467                           ; BSR set to: 0
 11468  0023F8  0E60               	movlw	96
 11469  0023FA  6E15               	movwf	i2___flmul@a^0,c
 11470  0023FC  0E42               	movlw	66
 11471  0023FE  6E16               	movwf	(i2___flmul@a+1)^0,c
 11472  002400  0EA2               	movlw	162
 11473  002402  6E17               	movwf	(i2___flmul@a+2)^0,c
 11474  002404  0E0D               	movlw	13
 11475  002406  6E18               	movwf	(i2___flmul@a+3)^0,c
 11476  002408  C188  F011         	movff	powf@sn,i2___flmul@b
 11477  00240C  C189  F012         	movff	powf@sn+1,i2___flmul@b+1
 11478  002410  C18A  F013         	movff	powf@sn+2,i2___flmul@b+2
 11479  002414  C18B  F014         	movff	powf@sn+3,i2___flmul@b+3
 11480  002418  EC31  F01F         	call	i2___flmul	;wreg free
 11481  00241C  C011  F1A4         	movff	?i2___flmul,_powf$2100
 11482  002420  C012  F1A5         	movff	?i2___flmul+1,_powf$2100+1
 11483  002424  C013  F1A6         	movff	?i2___flmul+2,_powf$2100+2
 11484  002428  C014  F1A7         	movff	?i2___flmul+3,_powf$2100+3
 11485  00242C  C1A4  F011         	movff	_powf$2100,i2___flmul@b
 11486  002430  C1A5  F012         	movff	_powf$2100+1,i2___flmul@b+1
 11487  002434  C1A6  F013         	movff	_powf$2100+2,i2___flmul@b+2
 11488  002438  C1A7  F014         	movff	_powf$2100+3,i2___flmul@b+3
 11489  00243C  0E60               	movlw	96
 11490  00243E  6E15               	movwf	i2___flmul@a^0,c
 11491  002440  0E42               	movlw	66
 11492  002442  6E16               	movwf	(i2___flmul@a+1)^0,c
 11493  002444  0EA2               	movlw	162
 11494  002446  6E17               	movwf	(i2___flmul@a+2)^0,c
 11495  002448  0E0D               	movlw	13
 11496  00244A  6E18               	movwf	(i2___flmul@a+3)^0,c
 11497  00244C  EC31  F01F         	call	i2___flmul	;wreg free
 11498  002450  C011  F06F         	movff	?i2___flmul,?_powf
 11499  002454  C012  F070         	movff	?i2___flmul+1,?_powf+1
 11500  002458  C013  F071         	movff	?i2___flmul+2,?_powf+2
 11501  00245C  C014  F072         	movff	?i2___flmul+3,?_powf+3
 11502  002460  0012               	return	
 11503  002462                     i2l5178:
 11504                           
 11505                           ; BSR set to: 0
 11506  002462  0E16               	movlw	22
 11507  002464  0101               	movlb	1	; () banked
 11508  002466  19AE               	xorwf	(powf@j+2)& (0+255),w,b
 11509  002468  E161               	bnz	i2l5186
 11510  00246A  0EC3               	movlw	195
 11511  00246C  19AF               	xorwf	(powf@j+3)& (0+255),w,b
 11512  00246E  11AC               	iorwf	powf@j& (0+255),w,b
 11513  002470  11AD               	iorwf	(powf@j+1)& (0+255),w,b
 11514  002472  A4D8               	btfss	status,2,c
 11515  002474  D05B               	goto	i2l5186
 11516                           
 11517                           ; BSR set to: 1
 11518  002476  C19C  F02E         	movff	powf@p_h,___flsub@a
 11519  00247A  C19D  F02F         	movff	powf@p_h+1,___flsub@a+1
 11520  00247E  C19E  F030         	movff	powf@p_h+2,___flsub@a+2
 11521  002482  C19F  F031         	movff	powf@p_h+3,___flsub@a+3
 11522  002486  C1B4  F02A         	movff	powf@z,___flsub@b
 11523  00248A  C1B5  F02B         	movff	powf@z+1,___flsub@b+1
 11524  00248E  C1B6  F02C         	movff	powf@z+2,___flsub@b+2
 11525  002492  C1B7  F02D         	movff	powf@z+3,___flsub@b+3
 11526  002496  ECA5  F034         	call	___flsub	;wreg free
 11527  00249A  C02A  F032         	movff	?___flsub,___flge@ff1
 11528  00249E  C02B  F033         	movff	?___flsub+1,___flge@ff1+1
 11529  0024A2  C02C  F034         	movff	?___flsub+2,___flge@ff1+2
 11530  0024A6  C02D  F035         	movff	?___flsub+3,___flge@ff1+3
 11531  0024AA  C164  F036         	movff	powf@p_l,___flge@ff2
 11532  0024AE  C165  F037         	movff	powf@p_l+1,___flge@ff2+1
 11533  0024B2  C166  F038         	movff	powf@p_l+2,___flge@ff2+2
 11534  0024B6  C167  F039         	movff	powf@p_l+3,___flge@ff2+3
 11535  0024BA  EC0E  F032         	call	___flge	;wreg free
 11536  0024BE  A0D8               	btfss	status,0,c
 11537  0024C0  D035               	goto	i2l5186
 11538  0024C2  0E60               	movlw	96
 11539  0024C4  6E15               	movwf	i2___flmul@a^0,c
 11540  0024C6  0E42               	movlw	66
 11541  0024C8  6E16               	movwf	(i2___flmul@a+1)^0,c
 11542  0024CA  0EA2               	movlw	162
 11543  0024CC  6E17               	movwf	(i2___flmul@a+2)^0,c
 11544  0024CE  0E0D               	movlw	13
 11545  0024D0  6E18               	movwf	(i2___flmul@a+3)^0,c
 11546  0024D2  C188  F011         	movff	powf@sn,i2___flmul@b
 11547  0024D6  C189  F012         	movff	powf@sn+1,i2___flmul@b+1
 11548  0024DA  C18A  F013         	movff	powf@sn+2,i2___flmul@b+2
 11549  0024DE  C18B  F014         	movff	powf@sn+3,i2___flmul@b+3
 11550  0024E2  EC31  F01F         	call	i2___flmul	;wreg free
 11551  0024E6  C011  F1A4         	movff	?i2___flmul,_powf$2100
 11552  0024EA  C012  F1A5         	movff	?i2___flmul+1,_powf$2100+1
 11553  0024EE  C013  F1A6         	movff	?i2___flmul+2,_powf$2100+2
 11554  0024F2  C014  F1A7         	movff	?i2___flmul+3,_powf$2100+3
 11555  0024F6  C1A4  F011         	movff	_powf$2100,i2___flmul@b
 11556  0024FA  C1A5  F012         	movff	_powf$2100+1,i2___flmul@b+1
 11557  0024FE  C1A6  F013         	movff	_powf$2100+2,i2___flmul@b+2
 11558  002502  C1A7  F014         	movff	_powf$2100+3,i2___flmul@b+3
 11559  002506  0E60               	movlw	96
 11560  002508  6E15               	movwf	i2___flmul@a^0,c
 11561  00250A  0E42               	movlw	66
 11562  00250C  6E16               	movwf	(i2___flmul@a+1)^0,c
 11563  00250E  0EA2               	movlw	162
 11564  002510  6E17               	movwf	(i2___flmul@a+2)^0,c
 11565  002512  0E0D               	movlw	13
 11566  002514  6E18               	movwf	(i2___flmul@a+3)^0,c
 11567  002516  EC31  F01F         	call	i2___flmul	;wreg free
 11568  00251A  C011  F06F         	movff	?i2___flmul,?_powf
 11569  00251E  C012  F070         	movff	?i2___flmul+1,?_powf+1
 11570  002522  C013  F071         	movff	?i2___flmul+2,?_powf+2
 11571  002526  C014  F072         	movff	?i2___flmul+3,?_powf+3
 11572  00252A  0012               	return	
 11573  00252C                     i2l5186:
 11574  00252C  0EFF               	movlw	255
 11575  00252E  0101               	movlb	1	; () banked
 11576  002530  15AC               	andwf	powf@j& (0+255),w,b
 11577  002532  6F2C               	movwf	powf@i& (0+255),b
 11578  002534  0EFF               	movlw	255
 11579  002536  15AD               	andwf	(powf@j+1)& (0+255),w,b
 11580  002538  6F2D               	movwf	(powf@i+1)& (0+255),b
 11581  00253A  0EFF               	movlw	255
 11582  00253C  15AE               	andwf	(powf@j+2)& (0+255),w,b
 11583  00253E  6F2E               	movwf	(powf@i+2)& (0+255),b
 11584  002540  0E7F               	movlw	127
 11585  002542  15AF               	andwf	(powf@j+3)& (0+255),w,b
 11586  002544  6F2F               	movwf	(powf@i+3)& (0+255),b
 11587  002546  0E17               	movlw	23
 11588  002548  0100               	movlb	0	; () banked
 11589  00254A  6FD2               	movwf	??_powf& (0+255),b
 11590  00254C  C12C  F0D3         	movff	powf@i,??_powf+1
 11591  002550  C12D  F0D4         	movff	powf@i+1,??_powf+2
 11592  002554  C12E  F0D5         	movff	powf@i+2,??_powf+3
 11593  002558  C12F  F0D6         	movff	powf@i+3,??_powf+4
 11594  00255C                     i2u580_45:
 11595  00255C  67D2               	tstfsz	??_powf& (0+255),b
 11596  00255E  D001               	goto	i2u580_46
 11597  002560  D007               	goto	i2u580_47
 11598  002562                     i2u580_46:
 11599  002562  35D6               	rlcf	(??_powf+4)& (0+255),w,b
 11600  002564  33D6               	rrcf	(??_powf+4)& (0+255),f,b
 11601  002566  33D5               	rrcf	(??_powf+3)& (0+255),f,b
 11602  002568  33D4               	rrcf	(??_powf+2)& (0+255),f,b
 11603  00256A  33D3               	rrcf	(??_powf+1)& (0+255),f,b
 11604  00256C  2FD2               	decfsz	??_powf& (0+255),f,b
 11605  00256E  D7F6               	goto	i2u580_45
 11606  002570                     i2u580_47:
 11607  002570  0E81               	movlw	129
 11608  002572  0100               	movlb	0	; () banked
 11609  002574  25D3               	addwf	(??_powf+1)& (0+255),w,b
 11610  002576  0101               	movlb	1	; () banked
 11611  002578  6FA0               	movwf	powf@k& (0+255),b
 11612  00257A  0EFF               	movlw	255
 11613  00257C  0100               	movlb	0	; () banked
 11614  00257E  21D4               	addwfc	(??_powf+2)& (0+255),w,b
 11615  002580  0101               	movlb	1	; () banked
 11616  002582  6FA1               	movwf	(powf@k+1)& (0+255),b
 11617  002584  0EFF               	movlw	255
 11618  002586  0100               	movlb	0	; () banked
 11619  002588  21D5               	addwfc	(??_powf+3)& (0+255),w,b
 11620  00258A  0101               	movlb	1	; () banked
 11621  00258C  6FA2               	movwf	(powf@k+2)& (0+255),b
 11622  00258E  0EFF               	movlw	255
 11623  002590  0100               	movlb	0	; () banked
 11624  002592  21D6               	addwfc	(??_powf+4)& (0+255),w,b
 11625  002594  0101               	movlb	1	; () banked
 11626  002596  6FA3               	movwf	(powf@k+3)& (0+255),b
 11627                           
 11628                           ; BSR set to: 1
 11629  002598  0E00               	movlw	0
 11630  00259A  6F7C               	movwf	powf@n& (0+255),b
 11631  00259C  0E00               	movlw	0
 11632  00259E  6F7D               	movwf	(powf@n+1)& (0+255),b
 11633  0025A0  0E00               	movlw	0
 11634  0025A2  6F7E               	movwf	(powf@n+2)& (0+255),b
 11635  0025A4  0E00               	movlw	0
 11636  0025A6  6F7F               	movwf	(powf@n+3)& (0+255),b
 11637                           
 11638                           ; BSR set to: 1
 11639  0025A8  BF2F               	btfsc	(powf@i+3)& (0+255),7,b
 11640  0025AA  D0FC               	goto	i2l5200
 11641  0025AC  052C               	decf	powf@i& (0+255),w,b
 11642  0025AE  0E00               	movlw	0
 11643  0025B0  592D               	subwfb	(powf@i+1)& (0+255),w,b
 11644  0025B2  0E00               	movlw	0
 11645  0025B4  592E               	subwfb	(powf@i+2)& (0+255),w,b
 11646  0025B6  0E3F               	movlw	63
 11647  0025B8  592F               	subwfb	(powf@i+3)& (0+255),w,b
 11648  0025BA  A0D8               	btfss	status,0,c
 11649  0025BC  D0F3               	goto	i2l5200
 11650                           
 11651                           ; BSR set to: 1
 11652  0025BE  C1A0  F0D2         	movff	powf@k,??_powf
 11653  0025C2  0E01               	movlw	1
 11654  0025C4  0100               	movlb	0	; () banked
 11655  0025C6  27D2               	addwf	??_powf& (0+255),f,b
 11656  0025C8  0E00               	movlw	0
 11657  0025CA  6FD3               	movwf	(??_powf+1)& (0+255),b
 11658  0025CC  0E00               	movlw	0
 11659  0025CE  6FD4               	movwf	(??_powf+2)& (0+255),b
 11660  0025D0  0E80               	movlw	128
 11661  0025D2  6FD5               	movwf	(??_powf+3)& (0+255),b
 11662  0025D4  0E00               	movlw	0
 11663  0025D6  6FD6               	movwf	(??_powf+4)& (0+255),b
 11664  0025D8                     i2u582_45:
 11665  0025D8  67D2               	tstfsz	??_powf& (0+255),b
 11666  0025DA  D001               	goto	i2u582_46
 11667  0025DC  D007               	goto	i2u582_47
 11668  0025DE                     i2u582_46:
 11669  0025DE  35D6               	rlcf	(??_powf+4)& (0+255),w,b
 11670  0025E0  33D6               	rrcf	(??_powf+4)& (0+255),f,b
 11671  0025E2  33D5               	rrcf	(??_powf+3)& (0+255),f,b
 11672  0025E4  33D4               	rrcf	(??_powf+2)& (0+255),f,b
 11673  0025E6  33D3               	rrcf	(??_powf+1)& (0+255),f,b
 11674  0025E8  2FD2               	decfsz	??_powf& (0+255),f,b
 11675  0025EA  D7F6               	goto	i2u582_45
 11676  0025EC                     i2u582_47:
 11677  0025EC  0101               	movlb	1	; () banked
 11678  0025EE  51AC               	movf	powf@j& (0+255),w,b
 11679  0025F0  0100               	movlb	0	; () banked
 11680  0025F2  25D3               	addwf	(??_powf+1)& (0+255),w,b
 11681  0025F4  0101               	movlb	1	; () banked
 11682  0025F6  6F7C               	movwf	powf@n& (0+255),b
 11683  0025F8  51AD               	movf	(powf@j+1)& (0+255),w,b
 11684  0025FA  0100               	movlb	0	; () banked
 11685  0025FC  21D4               	addwfc	(??_powf+2)& (0+255),w,b
 11686  0025FE  0101               	movlb	1	; () banked
 11687  002600  6F7D               	movwf	(powf@n+1)& (0+255),b
 11688  002602  51AE               	movf	(powf@j+2)& (0+255),w,b
 11689  002604  0100               	movlb	0	; () banked
 11690  002606  21D5               	addwfc	(??_powf+3)& (0+255),w,b
 11691  002608  0101               	movlb	1	; () banked
 11692  00260A  6F7E               	movwf	(powf@n+2)& (0+255),b
 11693  00260C  51AF               	movf	(powf@j+3)& (0+255),w,b
 11694  00260E  0100               	movlb	0	; () banked
 11695  002610  21D6               	addwfc	(??_powf+4)& (0+255),w,b
 11696  002612  0101               	movlb	1	; () banked
 11697  002614  6F7F               	movwf	(powf@n+3)& (0+255),b
 11698  002616  0E81               	movlw	129
 11699  002618  0100               	movlb	0	; () banked
 11700  00261A  6FD2               	movwf	??_powf& (0+255),b
 11701  00261C  0EFF               	movlw	255
 11702  00261E  6FD3               	movwf	(??_powf+1)& (0+255),b
 11703  002620  0EFF               	movlw	255
 11704  002622  6FD4               	movwf	(??_powf+2)& (0+255),b
 11705  002624  0EFF               	movlw	255
 11706  002626  6FD5               	movwf	(??_powf+3)& (0+255),b
 11707  002628  0E17               	movlw	23
 11708  00262A  6FD6               	movwf	(??_powf+4)& (0+255),b
 11709  00262C  C17C  F0D7         	movff	powf@n,??_powf+5
 11710  002630  C17D  F0D8         	movff	powf@n+1,??_powf+6
 11711  002634  C17E  F0D9         	movff	powf@n+2,??_powf+7
 11712  002638  C17F  F0DA         	movff	powf@n+3,??_powf+8
 11713  00263C                     i2u583_45:
 11714  00263C  67D6               	tstfsz	(??_powf+4)& (0+255),b
 11715  00263E  D001               	goto	i2u583_46
 11716  002640  D007               	goto	i2u583_47
 11717  002642                     i2u583_46:
 11718  002642  35DA               	rlcf	(??_powf+8)& (0+255),w,b
 11719  002644  33DA               	rrcf	(??_powf+8)& (0+255),f,b
 11720  002646  33D9               	rrcf	(??_powf+7)& (0+255),f,b
 11721  002648  33D8               	rrcf	(??_powf+6)& (0+255),f,b
 11722  00264A  33D7               	rrcf	(??_powf+5)& (0+255),f,b
 11723  00264C  2FD6               	decfsz	(??_powf+4)& (0+255),f,b
 11724  00264E  D7F6               	goto	i2u583_45
 11725  002650                     i2u583_47:
 11726  002650  0100               	movlb	0	; () banked
 11727  002652  51D7               	movf	(??_powf+5)& (0+255),w,b
 11728  002654  25D2               	addwf	??_powf& (0+255),w,b
 11729  002656  0101               	movlb	1	; () banked
 11730  002658  6FA0               	movwf	powf@k& (0+255),b
 11731  00265A  0E00               	movlw	0
 11732  00265C  0100               	movlb	0	; () banked
 11733  00265E  21D3               	addwfc	(??_powf+1)& (0+255),w,b
 11734  002660  0101               	movlb	1	; () banked
 11735  002662  6FA1               	movwf	(powf@k+1)& (0+255),b
 11736  002664  0E00               	movlw	0
 11737  002666  0100               	movlb	0	; () banked
 11738  002668  21D4               	addwfc	(??_powf+2)& (0+255),w,b
 11739  00266A  0101               	movlb	1	; () banked
 11740  00266C  6FA2               	movwf	(powf@k+2)& (0+255),b
 11741  00266E  0E00               	movlw	0
 11742  002670  0100               	movlb	0	; () banked
 11743  002672  21D5               	addwfc	(??_powf+3)& (0+255),w,b
 11744  002674  0101               	movlb	1	; () banked
 11745  002676  6FA3               	movwf	(powf@k+3)& (0+255),b
 11746                           
 11747                           ; BSR set to: 1
 11748  002678  C1A0  F0D2         	movff	powf@k,??_powf
 11749  00267C  0EFF               	movlw	255
 11750  00267E  0100               	movlb	0	; () banked
 11751  002680  6FD3               	movwf	(??_powf+1)& (0+255),b
 11752  002682  0EFF               	movlw	255
 11753  002684  6FD4               	movwf	(??_powf+2)& (0+255),b
 11754  002686  0E7F               	movlw	127
 11755  002688  6FD5               	movwf	(??_powf+3)& (0+255),b
 11756  00268A  0E00               	movlw	0
 11757  00268C  6FD6               	movwf	(??_powf+4)& (0+255),b
 11758  00268E                     i2u584_45:
 11759  00268E  67D2               	tstfsz	??_powf& (0+255),b
 11760  002690  D001               	goto	i2u584_46
 11761  002692  D007               	goto	i2u584_47
 11762  002694                     i2u584_46:
 11763  002694  35D6               	rlcf	(??_powf+4)& (0+255),w,b
 11764  002696  33D6               	rrcf	(??_powf+4)& (0+255),f,b
 11765  002698  33D5               	rrcf	(??_powf+3)& (0+255),f,b
 11766  00269A  33D4               	rrcf	(??_powf+2)& (0+255),f,b
 11767  00269C  33D3               	rrcf	(??_powf+1)& (0+255),f,b
 11768  00269E  2FD2               	decfsz	??_powf& (0+255),f,b
 11769  0026A0  D7F6               	goto	i2u584_45
 11770  0026A2                     i2u584_47:
 11771  0026A2  0100               	movlb	0	; () banked
 11772  0026A4  1DD3               	comf	(??_powf+1)& (0+255),w,b
 11773  0026A6  6FD7               	movwf	(??_powf+5)& (0+255),b
 11774  0026A8  1DD4               	comf	(??_powf+2)& (0+255),w,b
 11775  0026AA  6FD8               	movwf	(??_powf+6)& (0+255),b
 11776  0026AC  1DD5               	comf	(??_powf+3)& (0+255),w,b
 11777  0026AE  6FD9               	movwf	(??_powf+7)& (0+255),b
 11778  0026B0  1DD6               	comf	(??_powf+4)& (0+255),w,b
 11779  0026B2  6FDA               	movwf	(??_powf+8)& (0+255),b
 11780  0026B4  0101               	movlb	1	; () banked
 11781  0026B6  517C               	movf	powf@n& (0+255),w,b
 11782  0026B8  0100               	movlb	0	; () banked
 11783  0026BA  15D7               	andwf	(??_powf+5)& (0+255),w,b
 11784  0026BC  0101               	movlb	1	; () banked
 11785  0026BE  6FB8               	movwf	powf@__xc8_float_word& (0+255),b
 11786  0026C0  517D               	movf	(powf@n+1)& (0+255),w,b
 11787  0026C2  0100               	movlb	0	; () banked
 11788  0026C4  15D8               	andwf	(??_powf+6)& (0+255),w,b
 11789  0026C6  0101               	movlb	1	; () banked
 11790  0026C8  6FB9               	movwf	(powf@__xc8_float_word+1)& (0+255),b
 11791  0026CA  517E               	movf	(powf@n+2)& (0+255),w,b
 11792  0026CC  0100               	movlb	0	; () banked
 11793  0026CE  15D9               	andwf	(??_powf+7)& (0+255),w,b
 11794  0026D0  0101               	movlb	1	; () banked
 11795  0026D2  6FBA               	movwf	(powf@__xc8_float_word+2)& (0+255),b
 11796  0026D4  517F               	movf	(powf@n+3)& (0+255),w,b
 11797  0026D6  0100               	movlb	0	; () banked
 11798  0026D8  15DA               	andwf	(??_powf+8)& (0+255),w,b
 11799  0026DA  0101               	movlb	1	; () banked
 11800  0026DC  6FBB               	movwf	(powf@__xc8_float_word+3)& (0+255),b
 11801                           
 11802                           ; BSR set to: 1
 11803  0026DE  C1B8  F1B0         	movff	powf@__xc8_float_word,powf@t
 11804  0026E2  C1B9  F1B1         	movff	powf@__xc8_float_word+1,powf@t+1
 11805  0026E6  C1BA  F1B2         	movff	powf@__xc8_float_word+2,powf@t+2
 11806  0026EA  C1BB  F1B3         	movff	powf@__xc8_float_word+3,powf@t+3
 11807                           
 11808                           ; BSR set to: 1
 11809  0026EE  51A0               	movf	powf@k& (0+255),w,b
 11810  0026F0  0817               	sublw	23
 11811  0026F2  0100               	movlb	0	; () banked
 11812  0026F4  6FD2               	movwf	??_powf& (0+255),b
 11813  0026F6  0EFF               	movlw	255
 11814  0026F8  0101               	movlb	1	; () banked
 11815  0026FA  157C               	andwf	powf@n& (0+255),w,b
 11816  0026FC  0100               	movlb	0	; () banked
 11817  0026FE  6FD3               	movwf	(??_powf+1)& (0+255),b
 11818  002700  0EFF               	movlw	255
 11819  002702  0101               	movlb	1	; () banked
 11820  002704  157D               	andwf	(powf@n+1)& (0+255),w,b
 11821  002706  0100               	movlb	0	; () banked
 11822  002708  6FD4               	movwf	(??_powf+2)& (0+255),b
 11823  00270A  0E7F               	movlw	127
 11824  00270C  0101               	movlb	1	; () banked
 11825  00270E  157E               	andwf	(powf@n+2)& (0+255),w,b
 11826  002710  0100               	movlb	0	; () banked
 11827  002712  6FD5               	movwf	(??_powf+3)& (0+255),b
 11828  002714  0E00               	movlw	0
 11829  002716  0101               	movlb	1	; () banked
 11830  002718  157F               	andwf	(powf@n+3)& (0+255),w,b
 11831  00271A  0100               	movlb	0	; () banked
 11832  00271C  6FD6               	movwf	(??_powf+4)& (0+255),b
 11833  00271E  0E00               	movlw	0
 11834  002720  11D3               	iorwf	(??_powf+1)& (0+255),w,b
 11835  002722  6FD7               	movwf	(??_powf+5)& (0+255),b
 11836  002724  0E00               	movlw	0
 11837  002726  11D4               	iorwf	(??_powf+2)& (0+255),w,b
 11838  002728  6FD8               	movwf	(??_powf+6)& (0+255),b
 11839  00272A  0E80               	movlw	128
 11840  00272C  11D5               	iorwf	(??_powf+3)& (0+255),w,b
 11841  00272E  6FD9               	movwf	(??_powf+7)& (0+255),b
 11842  002730  0E00               	movlw	0
 11843  002732  11D6               	iorwf	(??_powf+4)& (0+255),w,b
 11844  002734  6FDA               	movwf	(??_powf+8)& (0+255),b
 11845  002736                     i2u585_45:
 11846  002736  67D2               	tstfsz	??_powf& (0+255),b
 11847  002738  D001               	goto	i2u585_46
 11848  00273A  D007               	goto	i2u585_47
 11849  00273C                     i2u585_46:
 11850  00273C  35DA               	rlcf	(??_powf+8)& (0+255),w,b
 11851  00273E  33DA               	rrcf	(??_powf+8)& (0+255),f,b
 11852  002740  33D9               	rrcf	(??_powf+7)& (0+255),f,b
 11853  002742  33D8               	rrcf	(??_powf+6)& (0+255),f,b
 11854  002744  33D7               	rrcf	(??_powf+5)& (0+255),f,b
 11855  002746  2FD2               	decfsz	??_powf& (0+255),f,b
 11856  002748  D7F6               	goto	i2u585_45
 11857  00274A                     i2u585_47:
 11858  00274A  C0D7  F17C         	movff	??_powf+5,powf@n
 11859  00274E  C0D8  F17D         	movff	??_powf+6,powf@n+1
 11860  002752  C0D9  F17E         	movff	??_powf+7,powf@n+2
 11861  002756  C0DA  F17F         	movff	??_powf+8,powf@n+3
 11862  00275A  0101               	movlb	1	; () banked
 11863  00275C  AFAF               	btfss	(powf@j+3)& (0+255),7,b
 11864  00275E  D008               	goto	i2l5198
 11865                           
 11866                           ; BSR set to: 1
 11867  002760  1F7F               	comf	(powf@n+3)& (0+255),f,b
 11868  002762  1F7E               	comf	(powf@n+2)& (0+255),f,b
 11869  002764  1F7D               	comf	(powf@n+1)& (0+255),f,b
 11870  002766  6D7C               	negf	powf@n& (0+255),b
 11871  002768  0E00               	movlw	0
 11872  00276A  237D               	addwfc	(powf@n+1)& (0+255),f,b
 11873  00276C  237E               	addwfc	(powf@n+2)& (0+255),f,b
 11874  00276E  237F               	addwfc	(powf@n+3)& (0+255),f,b
 11875  002770                     i2l5198:
 11876                           
 11877                           ; BSR set to: 1
 11878  002770  C19C  F02A         	movff	powf@p_h,___flsub@b
 11879  002774  C19D  F02B         	movff	powf@p_h+1,___flsub@b+1
 11880  002778  C19E  F02C         	movff	powf@p_h+2,___flsub@b+2
 11881  00277C  C19F  F02D         	movff	powf@p_h+3,___flsub@b+3
 11882  002780  C1B0  F02E         	movff	powf@t,___flsub@a
 11883  002784  C1B1  F02F         	movff	powf@t+1,___flsub@a+1
 11884  002788  C1B2  F030         	movff	powf@t+2,___flsub@a+2
 11885  00278C  C1B3  F031         	movff	powf@t+3,___flsub@a+3
 11886  002790  ECA5  F034         	call	___flsub	;wreg free
 11887  002794  C02A  F19C         	movff	?___flsub,powf@p_h
 11888  002798  C02B  F19D         	movff	?___flsub+1,powf@p_h+1
 11889  00279C  C02C  F19E         	movff	?___flsub+2,powf@p_h+2
 11890  0027A0  C02D  F19F         	movff	?___flsub+3,powf@p_h+3
 11891  0027A4                     i2l5200:
 11892  0027A4  C164  F001         	movff	powf@p_l,i2___fladd@b
 11893  0027A8  C165  F002         	movff	powf@p_l+1,i2___fladd@b+1
 11894  0027AC  C166  F003         	movff	powf@p_l+2,i2___fladd@b+2
 11895  0027B0  C167  F004         	movff	powf@p_l+3,i2___fladd@b+3
 11896  0027B4  C19C  F005         	movff	powf@p_h,i2___fladd@a
 11897  0027B8  C19D  F006         	movff	powf@p_h+1,i2___fladd@a+1
 11898  0027BC  C19E  F007         	movff	powf@p_h+2,i2___fladd@a+2
 11899  0027C0  C19F  F008         	movff	powf@p_h+3,i2___fladd@a+3
 11900  0027C4  EC61  F022         	call	i2___fladd	;wreg free
 11901  0027C8  C001  F1B0         	movff	?i2___fladd,powf@t
 11902  0027CC  C002  F1B1         	movff	?i2___fladd+1,powf@t+1
 11903  0027D0  C003  F1B2         	movff	?i2___fladd+2,powf@t+2
 11904  0027D4  C004  F1B3         	movff	?i2___fladd+3,powf@t+3
 11905  0027D8  C1B0  F1B8         	movff	powf@t,powf@__xc8_float_word
 11906  0027DC  C1B1  F1B9         	movff	powf@t+1,powf@__xc8_float_word+1
 11907  0027E0  C1B2  F1BA         	movff	powf@t+2,powf@__xc8_float_word+2
 11908  0027E4  C1B3  F1BB         	movff	powf@t+3,powf@__xc8_float_word+3
 11909  0027E8  C1B8  F190         	movff	powf@__xc8_float_word,powf@is
 11910  0027EC  C1B9  F191         	movff	powf@__xc8_float_word+1,powf@is+1
 11911  0027F0  C1BA  F192         	movff	powf@__xc8_float_word+2,powf@is+2
 11912  0027F4  C1BB  F193         	movff	powf@__xc8_float_word+3,powf@is+3
 11913  0027F8  0E00               	movlw	0
 11914  0027FA  0101               	movlb	1	; () banked
 11915  0027FC  1590               	andwf	powf@is& (0+255),w,b
 11916  0027FE  6FB8               	movwf	powf@__xc8_float_word& (0+255),b
 11917  002800  0E80               	movlw	128
 11918  002802  1591               	andwf	(powf@is+1)& (0+255),w,b
 11919  002804  6FB9               	movwf	(powf@__xc8_float_word+1)& (0+255),b
 11920  002806  0EFF               	movlw	255
 11921  002808  1592               	andwf	(powf@is+2)& (0+255),w,b
 11922  00280A  6FBA               	movwf	(powf@__xc8_float_word+2)& (0+255),b
 11923  00280C  0EFF               	movlw	255
 11924  00280E  1593               	andwf	(powf@is+3)& (0+255),w,b
 11925  002810  6FBB               	movwf	(powf@__xc8_float_word+3)& (0+255),b
 11926                           
 11927                           ; BSR set to: 1
 11928  002812  C1B8  F1B0         	movff	powf@__xc8_float_word,powf@t
 11929  002816  C1B9  F1B1         	movff	powf@__xc8_float_word+1,powf@t+1
 11930  00281A  C1BA  F1B2         	movff	powf@__xc8_float_word+2,powf@t+2
 11931  00281E  C1BB  F1B3         	movff	powf@__xc8_float_word+3,powf@t+3
 11932                           
 11933                           ; BSR set to: 1
 11934  002822  C1B0  F011         	movff	powf@t,i2___flmul@b
 11935  002826  C1B1  F012         	movff	powf@t+1,i2___flmul@b+1
 11936  00282A  C1B2  F013         	movff	powf@t+2,i2___flmul@b+2
 11937  00282E  C1B3  F014         	movff	powf@t+3,i2___flmul@b+3
 11938  002832  0E00               	movlw	0
 11939  002834  6E15               	movwf	i2___flmul@a^0,c
 11940  002836  0E72               	movlw	114
 11941  002838  6E16               	movwf	(i2___flmul@a+1)^0,c
 11942  00283A  0E31               	movlw	49
 11943  00283C  6E17               	movwf	(i2___flmul@a+2)^0,c
 11944  00283E  0E3F               	movlw	63
 11945  002840  6E18               	movwf	(i2___flmul@a+3)^0,c
 11946  002842  EC31  F01F         	call	i2___flmul	;wreg free
 11947  002846  C011  F174         	movff	?i2___flmul,powf@u
 11948  00284A  C012  F175         	movff	?i2___flmul+1,powf@u+1
 11949  00284E  C013  F176         	movff	?i2___flmul+2,powf@u+2
 11950  002852  C014  F177         	movff	?i2___flmul+3,powf@u+3
 11951  002856  C19C  F02E         	movff	powf@p_h,___flsub@a
 11952  00285A  C19D  F02F         	movff	powf@p_h+1,___flsub@a+1
 11953  00285E  C19E  F030         	movff	powf@p_h+2,___flsub@a+2
 11954  002862  C19F  F031         	movff	powf@p_h+3,___flsub@a+3
 11955  002866  C1B0  F02A         	movff	powf@t,___flsub@b
 11956  00286A  C1B1  F02B         	movff	powf@t+1,___flsub@b+1
 11957  00286E  C1B2  F02C         	movff	powf@t+2,___flsub@b+2
 11958  002872  C1B3  F02D         	movff	powf@t+3,___flsub@b+3
 11959  002876  ECA5  F034         	call	___flsub	;wreg free
 11960  00287A  C02A  F194         	movff	?___flsub,_powf$1970
 11961  00287E  C02B  F195         	movff	?___flsub+1,_powf$1970+1
 11962  002882  C02C  F196         	movff	?___flsub+2,_powf$1970+2
 11963  002886  C02D  F197         	movff	?___flsub+3,_powf$1970+3
 11964  00288A  0E18               	movlw	24
 11965  00288C  6E15               	movwf	i2___flmul@a^0,c
 11966  00288E  0E72               	movlw	114
 11967  002890  6E16               	movwf	(i2___flmul@a+1)^0,c
 11968  002892  0E31               	movlw	49
 11969  002894  6E17               	movwf	(i2___flmul@a+2)^0,c
 11970  002896  0E3F               	movlw	63
 11971  002898  6E18               	movwf	(i2___flmul@a+3)^0,c
 11972  00289A  C194  F02E         	movff	_powf$1970,___flsub@a
 11973  00289E  C195  F02F         	movff	_powf$1970+1,___flsub@a+1
 11974  0028A2  C196  F030         	movff	_powf$1970+2,___flsub@a+2
 11975  0028A6  C197  F031         	movff	_powf$1970+3,___flsub@a+3
 11976  0028AA  C164  F02A         	movff	powf@p_l,___flsub@b
 11977  0028AE  C165  F02B         	movff	powf@p_l+1,___flsub@b+1
 11978  0028B2  C166  F02C         	movff	powf@p_l+2,___flsub@b+2
 11979  0028B6  C167  F02D         	movff	powf@p_l+3,___flsub@b+3
 11980  0028BA  ECA5  F034         	call	___flsub	;wreg free
 11981  0028BE  C02A  F011         	movff	?___flsub,i2___flmul@b
 11982  0028C2  C02B  F012         	movff	?___flsub+1,i2___flmul@b+1
 11983  0028C6  C02C  F013         	movff	?___flsub+2,i2___flmul@b+2
 11984  0028CA  C02D  F014         	movff	?___flsub+3,i2___flmul@b+3
 11985  0028CE  EC31  F01F         	call	i2___flmul	;wreg free
 11986  0028D2  C011  F114         	movff	?i2___flmul,_powf$2110
 11987  0028D6  C012  F115         	movff	?i2___flmul+1,_powf$2110+1
 11988  0028DA  C013  F116         	movff	?i2___flmul+2,_powf$2110+2
 11989  0028DE  C014  F117         	movff	?i2___flmul+3,_powf$2110+3
 11990  0028E2  C114  F001         	movff	_powf$2110,i2___fladd@b
 11991  0028E6  C115  F002         	movff	_powf$2110+1,i2___fladd@b+1
 11992  0028EA  C116  F003         	movff	_powf$2110+2,i2___fladd@b+2
 11993  0028EE  C117  F004         	movff	_powf$2110+3,i2___fladd@b+3
 11994  0028F2  0E8C               	movlw	140
 11995  0028F4  6E15               	movwf	i2___flmul@a^0,c
 11996  0028F6  0EBE               	movlw	190
 11997  0028F8  6E16               	movwf	(i2___flmul@a+1)^0,c
 11998  0028FA  0EBF               	movlw	191
 11999  0028FC  6E17               	movwf	(i2___flmul@a+2)^0,c
 12000  0028FE  0E35               	movlw	53
 12001  002900  6E18               	movwf	(i2___flmul@a+3)^0,c
 12002  002902  C1B0  F011         	movff	powf@t,i2___flmul@b
 12003  002906  C1B1  F012         	movff	powf@t+1,i2___flmul@b+1
 12004  00290A  C1B2  F013         	movff	powf@t+2,i2___flmul@b+2
 12005  00290E  C1B3  F014         	movff	powf@t+3,i2___flmul@b+3
 12006  002912  EC31  F01F         	call	i2___flmul	;wreg free
 12007  002916  C011  F005         	movff	?i2___flmul,i2___fladd@a
 12008  00291A  C012  F006         	movff	?i2___flmul+1,i2___fladd@a+1
 12009  00291E  C013  F007         	movff	?i2___flmul+2,i2___fladd@a+2
 12010  002922  C014  F008         	movff	?i2___flmul+3,i2___fladd@a+3
 12011  002926  EC61  F022         	call	i2___fladd	;wreg free
 12012  00292A  C001  F178         	movff	?i2___fladd,powf@v
 12013  00292E  C002  F179         	movff	?i2___fladd+1,powf@v+1
 12014  002932  C003  F17A         	movff	?i2___fladd+2,powf@v+2
 12015  002936  C004  F17B         	movff	?i2___fladd+3,powf@v+3
 12016  00293A  C174  F001         	movff	powf@u,i2___fladd@b
 12017  00293E  C175  F002         	movff	powf@u+1,i2___fladd@b+1
 12018  002942  C176  F003         	movff	powf@u+2,i2___fladd@b+2
 12019  002946  C177  F004         	movff	powf@u+3,i2___fladd@b+3
 12020  00294A  C178  F005         	movff	powf@v,i2___fladd@a
 12021  00294E  C179  F006         	movff	powf@v+1,i2___fladd@a+1
 12022  002952  C17A  F007         	movff	powf@v+2,i2___fladd@a+2
 12023  002956  C17B  F008         	movff	powf@v+3,i2___fladd@a+3
 12024  00295A  EC61  F022         	call	i2___fladd	;wreg free
 12025  00295E  C001  F1B4         	movff	?i2___fladd,powf@z
 12026  002962  C002  F1B5         	movff	?i2___fladd+1,powf@z+1
 12027  002966  C003  F1B6         	movff	?i2___fladd+2,powf@z+2
 12028  00296A  C004  F1B7         	movff	?i2___fladd+3,powf@z+3
 12029  00296E  C174  F02E         	movff	powf@u,___flsub@a
 12030  002972  C175  F02F         	movff	powf@u+1,___flsub@a+1
 12031  002976  C176  F030         	movff	powf@u+2,___flsub@a+2
 12032  00297A  C177  F031         	movff	powf@u+3,___flsub@a+3
 12033  00297E  C1B4  F02A         	movff	powf@z,___flsub@b
 12034  002982  C1B5  F02B         	movff	powf@z+1,___flsub@b+1
 12035  002986  C1B6  F02C         	movff	powf@z+2,___flsub@b+2
 12036  00298A  C1B7  F02D         	movff	powf@z+3,___flsub@b+3
 12037  00298E  ECA5  F034         	call	___flsub	;wreg free
 12038  002992  C02A  F194         	movff	?___flsub,_powf$1970
 12039  002996  C02B  F195         	movff	?___flsub+1,_powf$1970+1
 12040  00299A  C02C  F196         	movff	?___flsub+2,_powf$1970+2
 12041  00299E  C02D  F197         	movff	?___flsub+3,_powf$1970+3
 12042  0029A2  C178  F02A         	movff	powf@v,___flsub@b
 12043  0029A6  C179  F02B         	movff	powf@v+1,___flsub@b+1
 12044  0029AA  C17A  F02C         	movff	powf@v+2,___flsub@b+2
 12045  0029AE  C17B  F02D         	movff	powf@v+3,___flsub@b+3
 12046  0029B2  C194  F02E         	movff	_powf$1970,___flsub@a
 12047  0029B6  C195  F02F         	movff	_powf$1970+1,___flsub@a+1
 12048  0029BA  C196  F030         	movff	_powf$1970+2,___flsub@a+2
 12049  0029BE  C197  F031         	movff	_powf$1970+3,___flsub@a+3
 12050  0029C2  ECA5  F034         	call	___flsub	;wreg free
 12051  0029C6  C02A  F144         	movff	?___flsub,powf@w
 12052  0029CA  C02B  F145         	movff	?___flsub+1,powf@w+1
 12053  0029CE  C02C  F146         	movff	?___flsub+2,powf@w+2
 12054  0029D2  C02D  F147         	movff	?___flsub+3,powf@w+3
 12055  0029D6  C1B4  F011         	movff	powf@z,i2___flmul@b
 12056  0029DA  C1B5  F012         	movff	powf@z+1,i2___flmul@b+1
 12057  0029DE  C1B6  F013         	movff	powf@z+2,i2___flmul@b+2
 12058  0029E2  C1B7  F014         	movff	powf@z+3,i2___flmul@b+3
 12059  0029E6  C1B4  F015         	movff	powf@z,i2___flmul@a
 12060  0029EA  C1B5  F016         	movff	powf@z+1,i2___flmul@a+1
 12061  0029EE  C1B6  F017         	movff	powf@z+2,i2___flmul@a+2
 12062  0029F2  C1B7  F018         	movff	powf@z+3,i2___flmul@a+3
 12063  0029F6  EC31  F01F         	call	i2___flmul	;wreg free
 12064  0029FA  C011  F1B0         	movff	?i2___flmul,powf@t
 12065  0029FE  C012  F1B1         	movff	?i2___flmul+1,powf@t+1
 12066  002A02  C013  F1B2         	movff	?i2___flmul+2,powf@t+2
 12067  002A06  C014  F1B3         	movff	?i2___flmul+3,powf@t+3
 12068  002A0A  0E0E               	movlw	14
 12069  002A0C  6E05               	movwf	i2___fladd@a^0,c
 12070  002A0E  0EEA               	movlw	234
 12071  002A10  6E06               	movwf	(i2___fladd@a+1)^0,c
 12072  002A12  0EDD               	movlw	221
 12073  002A14  6E07               	movwf	(i2___fladd@a+2)^0,c
 12074  002A16  0EB5               	movlw	181
 12075  002A18  6E08               	movwf	(i2___fladd@a+3)^0,c
 12076  002A1A  0E4C               	movlw	76
 12077  002A1C  6E15               	movwf	i2___flmul@a^0,c
 12078  002A1E  0EBB               	movlw	187
 12079  002A20  6E16               	movwf	(i2___flmul@a+1)^0,c
 12080  002A22  0E31               	movlw	49
 12081  002A24  6E17               	movwf	(i2___flmul@a+2)^0,c
 12082  002A26  0E33               	movlw	51
 12083  002A28  6E18               	movwf	(i2___flmul@a+3)^0,c
 12084  002A2A  C1B0  F011         	movff	powf@t,i2___flmul@b
 12085  002A2E  C1B1  F012         	movff	powf@t+1,i2___flmul@b+1
 12086  002A32  C1B2  F013         	movff	powf@t+2,i2___flmul@b+2
 12087  002A36  C1B3  F014         	movff	powf@t+3,i2___flmul@b+3
 12088  002A3A  EC31  F01F         	call	i2___flmul	;wreg free
 12089  002A3E  C011  F001         	movff	?i2___flmul,i2___fladd@b
 12090  002A42  C012  F002         	movff	?i2___flmul+1,i2___fladd@b+1
 12091  002A46  C013  F003         	movff	?i2___flmul+2,i2___fladd@b+2
 12092  002A4A  C014  F004         	movff	?i2___flmul+3,i2___fladd@b+3
 12093  002A4E  EC61  F022         	call	i2___fladd	;wreg free
 12094  002A52  C001  F1A4         	movff	?i2___fladd,_powf$2100
 12095  002A56  C002  F1A5         	movff	?i2___fladd+1,_powf$2100+1
 12096  002A5A  C003  F1A6         	movff	?i2___fladd+2,_powf$2100+2
 12097  002A5E  C004  F1A7         	movff	?i2___fladd+3,_powf$2100+3
 12098  002A62  0E55               	movlw	85
 12099  002A64  6E05               	movwf	i2___fladd@a^0,c
 12100  002A66  0EB3               	movlw	179
 12101  002A68  6E06               	movwf	(i2___fladd@a+1)^0,c
 12102  002A6A  0E8A               	movlw	138
 12103  002A6C  6E07               	movwf	(i2___fladd@a+2)^0,c
 12104  002A6E  0E38               	movlw	56
 12105  002A70  6E08               	movwf	(i2___fladd@a+3)^0,c
 12106  002A72  C1B0  F015         	movff	powf@t,i2___flmul@a
 12107  002A76  C1B1  F016         	movff	powf@t+1,i2___flmul@a+1
 12108  002A7A  C1B2  F017         	movff	powf@t+2,i2___flmul@a+2
 12109  002A7E  C1B3  F018         	movff	powf@t+3,i2___flmul@a+3
 12110  002A82  C1A4  F011         	movff	_powf$2100,i2___flmul@b
 12111  002A86  C1A5  F012         	movff	_powf$2100+1,i2___flmul@b+1
 12112  002A8A  C1A6  F013         	movff	_powf$2100+2,i2___flmul@b+2
 12113  002A8E  C1A7  F014         	movff	_powf$2100+3,i2___flmul@b+3
 12114  002A92  EC31  F01F         	call	i2___flmul	;wreg free
 12115  002A96  C011  F001         	movff	?i2___flmul,i2___fladd@b
 12116  002A9A  C012  F002         	movff	?i2___flmul+1,i2___fladd@b+1
 12117  002A9E  C013  F003         	movff	?i2___flmul+2,i2___fladd@b+2
 12118  002AA2  C014  F004         	movff	?i2___flmul+3,i2___fladd@b+3
 12119  002AA6  EC61  F022         	call	i2___fladd	;wreg free
 12120  002AAA  C001  F154         	movff	?i2___fladd,_powf$2101
 12121  002AAE  C002  F155         	movff	?i2___fladd+1,_powf$2101+1
 12122  002AB2  C003  F156         	movff	?i2___fladd+2,_powf$2101+2
 12123  002AB6  C004  F157         	movff	?i2___fladd+3,_powf$2101+3
 12124  002ABA  0E61               	movlw	97
 12125  002ABC  6E05               	movwf	i2___fladd@a^0,c
 12126  002ABE  0E0B               	movlw	11
 12127  002AC0  6E06               	movwf	(i2___fladd@a+1)^0,c
 12128  002AC2  0E36               	movlw	54
 12129  002AC4  6E07               	movwf	(i2___fladd@a+2)^0,c
 12130  002AC6  0EBB               	movlw	187
 12131  002AC8  6E08               	movwf	(i2___fladd@a+3)^0,c
 12132  002ACA  C1B0  F015         	movff	powf@t,i2___flmul@a
 12133  002ACE  C1B1  F016         	movff	powf@t+1,i2___flmul@a+1
 12134  002AD2  C1B2  F017         	movff	powf@t+2,i2___flmul@a+2
 12135  002AD6  C1B3  F018         	movff	powf@t+3,i2___flmul@a+3
 12136  002ADA  C154  F011         	movff	_powf$2101,i2___flmul@b
 12137  002ADE  C155  F012         	movff	_powf$2101+1,i2___flmul@b+1
 12138  002AE2  C156  F013         	movff	_powf$2101+2,i2___flmul@b+2
 12139  002AE6  C157  F014         	movff	_powf$2101+3,i2___flmul@b+3
 12140  002AEA  EC31  F01F         	call	i2___flmul	;wreg free
 12141  002AEE  C011  F001         	movff	?i2___flmul,i2___fladd@b
 12142  002AF2  C012  F002         	movff	?i2___flmul+1,i2___fladd@b+1
 12143  002AF6  C013  F003         	movff	?i2___flmul+2,i2___fladd@b+2
 12144  002AFA  C014  F004         	movff	?i2___flmul+3,i2___fladd@b+3
 12145  002AFE  EC61  F022         	call	i2___fladd	;wreg free
 12146  002B02  C001  F148         	movff	?i2___fladd,_powf$2102
 12147  002B06  C002  F149         	movff	?i2___fladd+1,_powf$2102+1
 12148  002B0A  C003  F14A         	movff	?i2___fladd+2,_powf$2102+2
 12149  002B0E  C004  F14B         	movff	?i2___fladd+3,_powf$2102+3
 12150  002B12  0EAB               	movlw	171
 12151  002B14  6E05               	movwf	i2___fladd@a^0,c
 12152  002B16  0EAA               	movlw	170
 12153  002B18  6E06               	movwf	(i2___fladd@a+1)^0,c
 12154  002B1A  0E2A               	movlw	42
 12155  002B1C  6E07               	movwf	(i2___fladd@a+2)^0,c
 12156  002B1E  0E3E               	movlw	62
 12157  002B20  6E08               	movwf	(i2___fladd@a+3)^0,c
 12158  002B22  C1B0  F015         	movff	powf@t,i2___flmul@a
 12159  002B26  C1B1  F016         	movff	powf@t+1,i2___flmul@a+1
 12160  002B2A  C1B2  F017         	movff	powf@t+2,i2___flmul@a+2
 12161  002B2E  C1B3  F018         	movff	powf@t+3,i2___flmul@a+3
 12162  002B32  C148  F011         	movff	_powf$2102,i2___flmul@b
 12163  002B36  C149  F012         	movff	_powf$2102+1,i2___flmul@b+1
 12164  002B3A  C14A  F013         	movff	_powf$2102+2,i2___flmul@b+2
 12165  002B3E  C14B  F014         	movff	_powf$2102+3,i2___flmul@b+3
 12166  002B42  EC31  F01F         	call	i2___flmul	;wreg free
 12167  002B46  C011  F001         	movff	?i2___flmul,i2___fladd@b
 12168  002B4A  C012  F002         	movff	?i2___flmul+1,i2___fladd@b+1
 12169  002B4E  C013  F003         	movff	?i2___flmul+2,i2___fladd@b+2
 12170  002B52  C014  F004         	movff	?i2___flmul+3,i2___fladd@b+3
 12171  002B56  EC61  F022         	call	i2___fladd	;wreg free
 12172  002B5A  C001  F13C         	movff	?i2___fladd,_powf$2103
 12173  002B5E  C002  F13D         	movff	?i2___fladd+1,_powf$2103+1
 12174  002B62  C003  F13E         	movff	?i2___fladd+2,_powf$2103+2
 12175  002B66  C004  F13F         	movff	?i2___fladd+3,_powf$2103+3
 12176  002B6A  C1B4  F02A         	movff	powf@z,___flsub@b
 12177  002B6E  C1B5  F02B         	movff	powf@z+1,___flsub@b+1
 12178  002B72  C1B6  F02C         	movff	powf@z+2,___flsub@b+2
 12179  002B76  C1B7  F02D         	movff	powf@z+3,___flsub@b+3
 12180  002B7A  C1B0  F015         	movff	powf@t,i2___flmul@a
 12181  002B7E  C1B1  F016         	movff	powf@t+1,i2___flmul@a+1
 12182  002B82  C1B2  F017         	movff	powf@t+2,i2___flmul@a+2
 12183  002B86  C1B3  F018         	movff	powf@t+3,i2___flmul@a+3
 12184  002B8A  C13C  F011         	movff	_powf$2103,i2___flmul@b
 12185  002B8E  C13D  F012         	movff	_powf$2103+1,i2___flmul@b+1
 12186  002B92  C13E  F013         	movff	_powf$2103+2,i2___flmul@b+2
 12187  002B96  C13F  F014         	movff	_powf$2103+3,i2___flmul@b+3
 12188  002B9A  EC31  F01F         	call	i2___flmul	;wreg free
 12189  002B9E  C011  F02E         	movff	?i2___flmul,___flsub@a
 12190  002BA2  C012  F02F         	movff	?i2___flmul+1,___flsub@a+1
 12191  002BA6  C013  F030         	movff	?i2___flmul+2,___flsub@a+2
 12192  002BAA  C014  F031         	movff	?i2___flmul+3,___flsub@a+3
 12193  002BAE  ECA5  F034         	call	___flsub	;wreg free
 12194  002BB2  C02A  F180         	movff	?___flsub,powf@t1
 12195  002BB6  C02B  F181         	movff	?___flsub+1,powf@t1+1
 12196  002BBA  C02C  F182         	movff	?___flsub+2,powf@t1+2
 12197  002BBE  C02D  F183         	movff	?___flsub+3,powf@t1+3
 12198  002BC2  0E00               	movlw	0
 12199  002BC4  6E05               	movwf	i2___fladd@a^0,c
 12200  002BC6  0E00               	movlw	0
 12201  002BC8  6E06               	movwf	(i2___fladd@a+1)^0,c
 12202  002BCA  0E00               	movlw	0
 12203  002BCC  6E07               	movwf	(i2___fladd@a+2)^0,c
 12204  002BCE  0EC0               	movlw	192
 12205  002BD0  6E08               	movwf	(i2___fladd@a+3)^0,c
 12206  002BD2  C180  F001         	movff	powf@t1,i2___fladd@b
 12207  002BD6  C181  F002         	movff	powf@t1+1,i2___fladd@b+1
 12208  002BDA  C182  F003         	movff	powf@t1+2,i2___fladd@b+2
 12209  002BDE  C183  F004         	movff	powf@t1+3,i2___fladd@b+3
 12210  002BE2  EC61  F022         	call	i2___fladd	;wreg free
 12211  002BE6  C001  F036         	movff	?i2___fladd,i2___fldiv@a
 12212  002BEA  C002  F037         	movff	?i2___fladd+1,i2___fldiv@a+1
 12213  002BEE  C003  F038         	movff	?i2___fladd+2,i2___fldiv@a+2
 12214  002BF2  C004  F039         	movff	?i2___fladd+3,i2___fldiv@a+3
 12215  002BF6  C180  F015         	movff	powf@t1,i2___flmul@a
 12216  002BFA  C181  F016         	movff	powf@t1+1,i2___flmul@a+1
 12217  002BFE  C182  F017         	movff	powf@t1+2,i2___flmul@a+2
 12218  002C02  C183  F018         	movff	powf@t1+3,i2___flmul@a+3
 12219  002C06  C1B4  F011         	movff	powf@z,i2___flmul@b
 12220  002C0A  C1B5  F012         	movff	powf@z+1,i2___flmul@b+1
 12221  002C0E  C1B6  F013         	movff	powf@z+2,i2___flmul@b+2
 12222  002C12  C1B7  F014         	movff	powf@z+3,i2___flmul@b+3
 12223  002C16  EC31  F01F         	call	i2___flmul	;wreg free
 12224  002C1A  C011  F032         	movff	?i2___flmul,i2___fldiv@b
 12225  002C1E  C012  F033         	movff	?i2___flmul+1,i2___fldiv@b+1
 12226  002C22  C013  F034         	movff	?i2___flmul+2,i2___fldiv@b+2
 12227  002C26  C014  F035         	movff	?i2___flmul+3,i2___fldiv@b+3
 12228  002C2A  EC98  F026         	call	i2___fldiv	;wreg free
 12229  002C2E  C032  F140         	movff	?i2___fldiv,_powf$2107
 12230  002C32  C033  F141         	movff	?i2___fldiv+1,_powf$2107+1
 12231  002C36  C034  F142         	movff	?i2___fldiv+2,_powf$2107+2
 12232  002C3A  C035  F143         	movff	?i2___fldiv+3,_powf$2107+3
 12233  002C3E  C144  F005         	movff	powf@w,i2___fladd@a
 12234  002C42  C145  F006         	movff	powf@w+1,i2___fladd@a+1
 12235  002C46  C146  F007         	movff	powf@w+2,i2___fladd@a+2
 12236  002C4A  C147  F008         	movff	powf@w+3,i2___fladd@a+3
 12237  002C4E  C144  F015         	movff	powf@w,i2___flmul@a
 12238  002C52  C145  F016         	movff	powf@w+1,i2___flmul@a+1
 12239  002C56  C146  F017         	movff	powf@w+2,i2___flmul@a+2
 12240  002C5A  C147  F018         	movff	powf@w+3,i2___flmul@a+3
 12241  002C5E  C1B4  F011         	movff	powf@z,i2___flmul@b
 12242  002C62  C1B5  F012         	movff	powf@z+1,i2___flmul@b+1
 12243  002C66  C1B6  F013         	movff	powf@z+2,i2___flmul@b+2
 12244  002C6A  C1B7  F014         	movff	powf@z+3,i2___flmul@b+3
 12245  002C6E  EC31  F01F         	call	i2___flmul	;wreg free
 12246  002C72  C011  F001         	movff	?i2___flmul,i2___fladd@b
 12247  002C76  C012  F002         	movff	?i2___flmul+1,i2___fladd@b+1
 12248  002C7A  C013  F003         	movff	?i2___flmul+2,i2___fladd@b+2
 12249  002C7E  C014  F004         	movff	?i2___flmul+3,i2___fladd@b+3
 12250  002C82  EC61  F022         	call	i2___fladd	;wreg free
 12251  002C86  C001  F118         	movff	?i2___fladd,_powf$2111
 12252  002C8A  C002  F119         	movff	?i2___fladd+1,_powf$2111+1
 12253  002C8E  C003  F11A         	movff	?i2___fladd+2,_powf$2111+2
 12254  002C92  C004  F11B         	movff	?i2___fladd+3,_powf$2111+3
 12255  002C96  C140  F02A         	movff	_powf$2107,___flsub@b
 12256  002C9A  C141  F02B         	movff	_powf$2107+1,___flsub@b+1
 12257  002C9E  C142  F02C         	movff	_powf$2107+2,___flsub@b+2
 12258  002CA2  C143  F02D         	movff	_powf$2107+3,___flsub@b+3
 12259  002CA6  C118  F02E         	movff	_powf$2111,___flsub@a
 12260  002CAA  C119  F02F         	movff	_powf$2111+1,___flsub@a+1
 12261  002CAE  C11A  F030         	movff	_powf$2111+2,___flsub@a+2
 12262  002CB2  C11B  F031         	movff	_powf$2111+3,___flsub@a+3
 12263  002CB6  ECA5  F034         	call	___flsub	;wreg free
 12264  002CBA  C02A  F14C         	movff	?___flsub,powf@r
 12265  002CBE  C02B  F14D         	movff	?___flsub+1,powf@r+1
 12266  002CC2  C02C  F14E         	movff	?___flsub+2,powf@r+2
 12267  002CC6  C02D  F14F         	movff	?___flsub+3,powf@r+3
 12268  002CCA  C1B4  F02E         	movff	powf@z,___flsub@a
 12269  002CCE  C1B5  F02F         	movff	powf@z+1,___flsub@a+1
 12270  002CD2  C1B6  F030         	movff	powf@z+2,___flsub@a+2
 12271  002CD6  C1B7  F031         	movff	powf@z+3,___flsub@a+3
 12272  002CDA  C14C  F02A         	movff	powf@r,___flsub@b
 12273  002CDE  C14D  F02B         	movff	powf@r+1,___flsub@b+1
 12274  002CE2  C14E  F02C         	movff	powf@r+2,___flsub@b+2
 12275  002CE6  C14F  F02D         	movff	powf@r+3,___flsub@b+3
 12276  002CEA  ECA5  F034         	call	___flsub	;wreg free
 12277  002CEE  C02A  F194         	movff	?___flsub,_powf$1970
 12278  002CF2  C02B  F195         	movff	?___flsub+1,_powf$1970+1
 12279  002CF6  C02C  F196         	movff	?___flsub+2,_powf$1970+2
 12280  002CFA  C02D  F197         	movff	?___flsub+3,_powf$1970+3
 12281  002CFE  0E00               	movlw	0
 12282  002D00  6E2A               	movwf	___flsub@b^0,c
 12283  002D02  0E00               	movlw	0
 12284  002D04  6E2B               	movwf	(___flsub@b+1)^0,c
 12285  002D06  0E80               	movlw	128
 12286  002D08  6E2C               	movwf	(___flsub@b+2)^0,c
 12287  002D0A  0E3F               	movlw	63
 12288  002D0C  6E2D               	movwf	(___flsub@b+3)^0,c
 12289  002D0E  C194  F02E         	movff	_powf$1970,___flsub@a
 12290  002D12  C195  F02F         	movff	_powf$1970+1,___flsub@a+1
 12291  002D16  C196  F030         	movff	_powf$1970+2,___flsub@a+2
 12292  002D1A  C197  F031         	movff	_powf$1970+3,___flsub@a+3
 12293  002D1E  ECA5  F034         	call	___flsub	;wreg free
 12294  002D22  C02A  F1B4         	movff	?___flsub,powf@z
 12295  002D26  C02B  F1B5         	movff	?___flsub+1,powf@z+1
 12296  002D2A  C02C  F1B6         	movff	?___flsub+2,powf@z+2
 12297  002D2E  C02D  F1B7         	movff	?___flsub+3,powf@z+3
 12298  002D32  C1B4  F1B8         	movff	powf@z,powf@__xc8_float_word
 12299  002D36  C1B5  F1B9         	movff	powf@z+1,powf@__xc8_float_word+1
 12300  002D3A  C1B6  F1BA         	movff	powf@z+2,powf@__xc8_float_word+2
 12301  002D3E  C1B7  F1BB         	movff	powf@z+3,powf@__xc8_float_word+3
 12302  002D42  C1B8  F1AC         	movff	powf@__xc8_float_word,powf@j
 12303  002D46  C1B9  F1AD         	movff	powf@__xc8_float_word+1,powf@j+1
 12304  002D4A  C1BA  F1AE         	movff	powf@__xc8_float_word+2,powf@j+2
 12305  002D4E  C1BB  F1AF         	movff	powf@__xc8_float_word+3,powf@j+3
 12306  002D52  C17C  F0D2         	movff	powf@n,??_powf
 12307  002D56  C17D  F0D3         	movff	powf@n+1,??_powf+1
 12308  002D5A  C17E  F0D4         	movff	powf@n+2,??_powf+2
 12309  002D5E  C17F  F0D5         	movff	powf@n+3,??_powf+3
 12310  002D62  0E17               	movlw	23
 12311  002D64                     i2u587_45:
 12312  002D64  90D8               	bcf	status,0,c
 12313  002D66  0100               	movlb	0	; () banked
 12314  002D68  37D2               	rlcf	??_powf& (0+255),f,b
 12315  002D6A  37D3               	rlcf	(??_powf+1)& (0+255),f,b
 12316  002D6C  37D4               	rlcf	(??_powf+2)& (0+255),f,b
 12317  002D6E  37D5               	rlcf	(??_powf+3)& (0+255),f,b
 12318  002D70  2EE8               	decfsz	wreg,f,c
 12319  002D72  D7F8               	goto	i2u587_45
 12320  002D74  51D2               	movf	??_powf& (0+255),w,b
 12321  002D76  0101               	movlb	1	; () banked
 12322  002D78  27AC               	addwf	powf@j& (0+255),f,b
 12323  002D7A  0100               	movlb	0	; () banked
 12324  002D7C  51D3               	movf	(??_powf+1)& (0+255),w,b
 12325  002D7E  0101               	movlb	1	; () banked
 12326  002D80  23AD               	addwfc	(powf@j+1)& (0+255),f,b
 12327  002D82  0100               	movlb	0	; () banked
 12328  002D84  51D4               	movf	(??_powf+2)& (0+255),w,b
 12329  002D86  0101               	movlb	1	; () banked
 12330  002D88  23AE               	addwfc	(powf@j+2)& (0+255),f,b
 12331  002D8A  0100               	movlb	0	; () banked
 12332  002D8C  51D5               	movf	(??_powf+3)& (0+255),w,b
 12333  002D8E  0101               	movlb	1	; () banked
 12334  002D90  23AF               	addwfc	(powf@j+3)& (0+255),f,b
 12335                           
 12336                           ; BSR set to: 1
 12337  002D92  0E17               	movlw	23
 12338  002D94  0100               	movlb	0	; () banked
 12339  002D96  6FD2               	movwf	??_powf& (0+255),b
 12340  002D98  C1AC  F0D3         	movff	powf@j,??_powf+1
 12341  002D9C  C1AD  F0D4         	movff	powf@j+1,??_powf+2
 12342  002DA0  C1AE  F0D5         	movff	powf@j+2,??_powf+3
 12343  002DA4  C1AF  F0D6         	movff	powf@j+3,??_powf+4
 12344  002DA8                     i2u588_45:
 12345  002DA8  67D2               	tstfsz	??_powf& (0+255),b
 12346  002DAA  D001               	goto	i2u588_46
 12347  002DAC  D007               	goto	i2u588_47
 12348  002DAE                     i2u588_46:
 12349  002DAE  35D6               	rlcf	(??_powf+4)& (0+255),w,b
 12350  002DB0  33D6               	rrcf	(??_powf+4)& (0+255),f,b
 12351  002DB2  33D5               	rrcf	(??_powf+3)& (0+255),f,b
 12352  002DB4  33D4               	rrcf	(??_powf+2)& (0+255),f,b
 12353  002DB6  33D3               	rrcf	(??_powf+1)& (0+255),f,b
 12354  002DB8  2FD2               	decfsz	??_powf& (0+255),f,b
 12355  002DBA  D7F6               	goto	i2u588_45
 12356  002DBC                     i2u588_47:
 12357  002DBC  0100               	movlb	0	; () banked
 12358  002DBE  BFD6               	btfsc	(??_powf+4)& (0+255),7,b
 12359  002DC0  D007               	goto	i2u589_40
 12360  002DC2  51D6               	movf	(??_powf+4)& (0+255),w,b
 12361  002DC4  11D5               	iorwf	(??_powf+3)& (0+255),w,b
 12362  002DC6  11D4               	iorwf	(??_powf+2)& (0+255),w,b
 12363  002DC8  E11A               	bnz	i2l1310
 12364  002DCA  05D3               	decf	(??_powf+1)& (0+255),w,b
 12365  002DCC  B0D8               	btfsc	status,0,c
 12366  002DCE  D017               	goto	i2l1310
 12367  002DD0                     i2u589_40:
 12368                           
 12369                           ; BSR set to: 0
 12370  002DD0  C1B4  F02A         	movff	powf@z,scalbnf@x
 12371  002DD4  C1B5  F02B         	movff	powf@z+1,scalbnf@x+1
 12372  002DD8  C1B6  F02C         	movff	powf@z+2,scalbnf@x+2
 12373  002DDC  C1B7  F02D         	movff	powf@z+3,scalbnf@x+3
 12374  002DE0  C17C  F02E         	movff	powf@n,scalbnf@n
 12375  002DE4  C17D  F02F         	movff	powf@n+1,scalbnf@n+1
 12376  002DE8  EC5E  F02B         	call	_scalbnf	;wreg free
 12377  002DEC  C02A  F1B4         	movff	?_scalbnf,powf@z
 12378  002DF0  C02B  F1B5         	movff	?_scalbnf+1,powf@z+1
 12379  002DF4  C02C  F1B6         	movff	?_scalbnf+2,powf@z+2
 12380  002DF8  C02D  F1B7         	movff	?_scalbnf+3,powf@z+3
 12381  002DFC  D010               	goto	i2l5256
 12382  002DFE                     i2l1310:
 12383                           
 12384                           ; BSR set to: 0
 12385  002DFE  C1AC  F1B8         	movff	powf@j,powf@__xc8_float_word
 12386  002E02  C1AD  F1B9         	movff	powf@j+1,powf@__xc8_float_word+1
 12387  002E06  C1AE  F1BA         	movff	powf@j+2,powf@__xc8_float_word+2
 12388  002E0A  C1AF  F1BB         	movff	powf@j+3,powf@__xc8_float_word+3
 12389  002E0E  C1B8  F1B4         	movff	powf@__xc8_float_word,powf@z
 12390  002E12  C1B9  F1B5         	movff	powf@__xc8_float_word+1,powf@z+1
 12391  002E16  C1BA  F1B6         	movff	powf@__xc8_float_word+2,powf@z+2
 12392  002E1A  C1BB  F1B7         	movff	powf@__xc8_float_word+3,powf@z+3
 12393  002E1E                     i2l5256:
 12394  002E1E  C188  F011         	movff	powf@sn,i2___flmul@b
 12395  002E22  C189  F012         	movff	powf@sn+1,i2___flmul@b+1
 12396  002E26  C18A  F013         	movff	powf@sn+2,i2___flmul@b+2
 12397  002E2A  C18B  F014         	movff	powf@sn+3,i2___flmul@b+3
 12398  002E2E  C1B4  F015         	movff	powf@z,i2___flmul@a
 12399  002E32  C1B5  F016         	movff	powf@z+1,i2___flmul@a+1
 12400  002E36  C1B6  F017         	movff	powf@z+2,i2___flmul@a+2
 12401  002E3A  C1B7  F018         	movff	powf@z+3,i2___flmul@a+3
 12402  002E3E  EC31  F01F         	call	i2___flmul	;wreg free
 12403  002E42  C011  F06F         	movff	?i2___flmul,?_powf
 12404  002E46  C012  F070         	movff	?i2___flmul+1,?_powf+1
 12405  002E4A  C013  F071         	movff	?i2___flmul+2,?_powf+2
 12406  002E4E  C014  F072         	movff	?i2___flmul+3,?_powf+3
 12407  002E52  0012               	return		;funcret
 12408  002E54                     __end_of_powf:
 12409                           	opt callstack 0
 12410                           
 12411 ;; *************** function _sqrtf *****************
 12412 ;; Defined at:
 12413 ;;		line 22 in file "C:\Program Files (x86)\Microchip\xc8\v2.10\pic\sources\c99\common\sqrtf.c"
 12414 ;; Parameters:    Size  Location     Type
 12415 ;;  x               4   61[COMRAM] float 
 12416 ;; Auto vars:     Size  Location     Type
 12417 ;;  ix              4  106[COMRAM] long 
 12418 ;;  r               4  102[COMRAM] unsigned long 
 12419 ;;  m               4   98[COMRAM] long 
 12420 ;;  z               4   94[COMRAM] float 
 12421 ;;  t               4   90[COMRAM] long 
 12422 ;;  q               4   86[COMRAM] long 
 12423 ;;  __xc8_float_    4   82[COMRAM] struct .
 12424 ;;  i               4   78[COMRAM] long 
 12425 ;;  s               4   74[COMRAM] long 
 12426 ;;  sign            4    0        long 
 12427 ;; Return value:  Size  Location     Type
 12428 ;;                  4   61[COMRAM] float 
 12429 ;; Registers used:
 12430 ;;		wreg, status,2, status,0, prodl, prodh, cstack
 12431 ;; Tracked objects:
 12432 ;;		On entry : 0/0
 12433 ;;		On exit  : 0/0
 12434 ;;		Unchanged: 0/0
 12435 ;; Data sizes:     COMRAM   BANK0   BANK1   BANK2   BANK3   BANK4   BANK5
 12436 ;;      Params:         4       0       0       0       0       0       0
 12437 ;;      Locals:        40       0       0       0       0       0       0
 12438 ;;      Temps:          5       0       0       0       0       0       0
 12439 ;;      Totals:        49       0       0       0       0       0       0
 12440 ;;Total ram usage:       49 bytes
 12441 ;; Hardware stack levels used:    1
 12442 ;; Hardware stack levels required when called:    1
 12443 ;; This function calls:
 12444 ;;		___flge
 12445 ;;		_nanf
 12446 ;;		i2___fladd
 12447 ;;		i2___flmul
 12448 ;; This function is called by:
 12449 ;;		_powf
 12450 ;; This function uses a non-reentrant model
 12451 ;;
 12452                           
 12453                           	psect	text45
 12454  0036E8                     __ptext45:
 12455                           	opt callstack 0
 12456  0036E8                     _sqrtf:
 12457                           	opt callstack 20
 12458                           
 12459                           ;incstack = 0
 12460  0036E8  C03E  F053         	movff	sqrtf@x,sqrtf@__xc8_float_word
 12461  0036EC  C03F  F054         	movff	sqrtf@x+1,sqrtf@__xc8_float_word+1
 12462  0036F0  C040  F055         	movff	sqrtf@x+2,sqrtf@__xc8_float_word+2
 12463  0036F4  C041  F056         	movff	sqrtf@x+3,sqrtf@__xc8_float_word+3
 12464  0036F8  C053  F06B         	movff	sqrtf@__xc8_float_word,sqrtf@ix
 12465  0036FC  C054  F06C         	movff	sqrtf@__xc8_float_word+1,sqrtf@ix+1
 12466  003700  C055  F06D         	movff	sqrtf@__xc8_float_word+2,sqrtf@ix+2
 12467  003704  C056  F06E         	movff	sqrtf@__xc8_float_word+3,sqrtf@ix+3
 12468  003708  0E00               	movlw	0
 12469  00370A  146B               	andwf	sqrtf@ix^0,w,c
 12470  00370C  6E42               	movwf	??_sqrtf^0,c
 12471  00370E  0E00               	movlw	0
 12472  003710  146C               	andwf	(sqrtf@ix+1)^0,w,c
 12473  003712  6E43               	movwf	(??_sqrtf+1)^0,c
 12474  003714  0E80               	movlw	128
 12475  003716  146D               	andwf	(sqrtf@ix+2)^0,w,c
 12476  003718  6E44               	movwf	(??_sqrtf+2)^0,c
 12477  00371A  0E7F               	movlw	127
 12478  00371C  146E               	andwf	(sqrtf@ix+3)^0,w,c
 12479  00371E  6E45               	movwf	(??_sqrtf+3)^0,c
 12480  003720  0E80               	movlw	128
 12481  003722  1844               	xorwf	(??_sqrtf+2)^0,w,c
 12482  003724  E133               	bnz	i2l4418
 12483  003726  0E7F               	movlw	127
 12484  003728  1845               	xorwf	(??_sqrtf+3)^0,w,c
 12485  00372A  1042               	iorwf	??_sqrtf^0,w,c
 12486  00372C  1043               	iorwf	(??_sqrtf+1)^0,w,c
 12487  00372E  A4D8               	btfss	status,2,c
 12488  003730  D02D               	goto	i2l4418
 12489  003732  C03E  F015         	movff	sqrtf@x,i2___flmul@a
 12490  003736  C03F  F016         	movff	sqrtf@x+1,i2___flmul@a+1
 12491  00373A  C040  F017         	movff	sqrtf@x+2,i2___flmul@a+2
 12492  00373E  C041  F018         	movff	sqrtf@x+3,i2___flmul@a+3
 12493  003742  C03E  F011         	movff	sqrtf@x,i2___flmul@b
 12494  003746  C03F  F012         	movff	sqrtf@x+1,i2___flmul@b+1
 12495  00374A  C040  F013         	movff	sqrtf@x+2,i2___flmul@b+2
 12496  00374E  C041  F014         	movff	sqrtf@x+3,i2___flmul@b+3
 12497  003752  EC31  F01F         	call	i2___flmul	;wreg free
 12498  003756  C011  F001         	movff	?i2___flmul,i2___fladd@b
 12499  00375A  C012  F002         	movff	?i2___flmul+1,i2___fladd@b+1
 12500  00375E  C013  F003         	movff	?i2___flmul+2,i2___fladd@b+2
 12501  003762  C014  F004         	movff	?i2___flmul+3,i2___fladd@b+3
 12502  003766  C03E  F005         	movff	sqrtf@x,i2___fladd@a
 12503  00376A  C03F  F006         	movff	sqrtf@x+1,i2___fladd@a+1
 12504  00376E  C040  F007         	movff	sqrtf@x+2,i2___fladd@a+2
 12505  003772  C041  F008         	movff	sqrtf@x+3,i2___fladd@a+3
 12506  003776  EC61  F022         	call	i2___fladd	;wreg free
 12507  00377A  C001  F03E         	movff	?i2___fladd,?_sqrtf
 12508  00377E  C002  F03F         	movff	?i2___fladd+1,?_sqrtf+1
 12509  003782  C003  F040         	movff	?i2___fladd+2,?_sqrtf+2
 12510  003786  C004  F041         	movff	?i2___fladd+3,?_sqrtf+3
 12511  00378A  0012               	return	
 12512  00378C                     i2l4418:
 12513  00378C  BE6E               	btfsc	(sqrtf@ix+3)^0,7,c
 12514  00378E  D007               	goto	i2u471_40
 12515  003790  506E               	movf	(sqrtf@ix+3)^0,w,c
 12516  003792  106D               	iorwf	(sqrtf@ix+2)^0,w,c
 12517  003794  106C               	iorwf	(sqrtf@ix+1)^0,w,c
 12518  003796  E134               	bnz	i2l4432
 12519  003798  046B               	decf	sqrtf@ix^0,w,c
 12520  00379A  B0D8               	btfsc	status,0,c
 12521  00379C  D031               	goto	i2l4432
 12522  00379E                     i2u471_40:
 12523  00379E  0EFF               	movlw	255
 12524  0037A0  146B               	andwf	sqrtf@ix^0,w,c
 12525  0037A2  6E42               	movwf	??_sqrtf^0,c
 12526  0037A4  0EFF               	movlw	255
 12527  0037A6  146C               	andwf	(sqrtf@ix+1)^0,w,c
 12528  0037A8  6E43               	movwf	(??_sqrtf+1)^0,c
 12529  0037AA  0EFF               	movlw	255
 12530  0037AC  146D               	andwf	(sqrtf@ix+2)^0,w,c
 12531  0037AE  6E44               	movwf	(??_sqrtf+2)^0,c
 12532  0037B0  0E7F               	movlw	127
 12533  0037B2  146E               	andwf	(sqrtf@ix+3)^0,w,c
 12534  0037B4  6E45               	movwf	(??_sqrtf+3)^0,c
 12535  0037B6  5042               	movf	??_sqrtf^0,w,c
 12536  0037B8  1043               	iorwf	(??_sqrtf+1)^0,w,c
 12537  0037BA  1044               	iorwf	(??_sqrtf+2)^0,w,c
 12538  0037BC  1045               	iorwf	(??_sqrtf+3)^0,w,c
 12539  0037BE  A4D8               	btfss	status,2,c
 12540  0037C0  D009               	goto	i2l4424
 12541  0037C2  C03E  F03E         	movff	sqrtf@x,?_sqrtf
 12542  0037C6  C03F  F03F         	movff	sqrtf@x+1,?_sqrtf+1
 12543  0037CA  C040  F040         	movff	sqrtf@x+2,?_sqrtf+2
 12544  0037CE  C041  F041         	movff	sqrtf@x+3,?_sqrtf+3
 12545  0037D2  0012               	return	
 12546  0037D4                     i2l4424:
 12547  0037D4  AE6E               	btfss	(sqrtf@ix+3)^0,7,c
 12548  0037D6  D014               	goto	i2l4432
 12549  0037D8  0E00               	movlw	0
 12550  0037DA  0101               	movlb	1	; () banked
 12551  0037DC  6FE6               	movwf	(_errno+1)& (0+255),b
 12552  0037DE  0E21               	movlw	33
 12553  0037E0  6FE5               	movwf	_errno& (0+255),b
 12554                           
 12555                           ; BSR set to: 1
 12556  0037E2  0EAF               	movlw	low (STR_3+18)
 12557  0037E4  6E01               	movwf	nanf@s^0,c
 12558  0037E6  0E06               	movlw	high (STR_3+18)
 12559  0037E8  6E02               	movwf	(nanf@s+1)^0,c
 12560  0037EA  EC16  F036         	call	_nanf	;wreg free
 12561  0037EE  C001  F03E         	movff	?_nanf,?_sqrtf
 12562  0037F2  C002  F03F         	movff	?_nanf+1,?_sqrtf+1
 12563  0037F6  C003  F040         	movff	?_nanf+2,?_sqrtf+2
 12564  0037FA  C004  F041         	movff	?_nanf+3,?_sqrtf+3
 12565  0037FE  0012               	return	
 12566  003800                     i2l4432:
 12567  003800  0E17               	movlw	23
 12568  003802  6E42               	movwf	??_sqrtf^0,c
 12569  003804  C06B  F043         	movff	sqrtf@ix,??_sqrtf+1
 12570  003808  C06C  F044         	movff	sqrtf@ix+1,??_sqrtf+2
 12571  00380C  C06D  F045         	movff	sqrtf@ix+2,??_sqrtf+3
 12572  003810  C06E  F046         	movff	sqrtf@ix+3,??_sqrtf+4
 12573  003814                     i2u474_45:
 12574  003814  6642               	tstfsz	??_sqrtf^0,c
 12575  003816  D001               	goto	i2u474_46
 12576  003818  D007               	goto	i2u474_47
 12577  00381A                     i2u474_46:
 12578  00381A  3446               	rlcf	(??_sqrtf+4)^0,w,c
 12579  00381C  3246               	rrcf	(??_sqrtf+4)^0,f,c
 12580  00381E  3245               	rrcf	(??_sqrtf+3)^0,f,c
 12581  003820  3244               	rrcf	(??_sqrtf+2)^0,f,c
 12582  003822  3243               	rrcf	(??_sqrtf+1)^0,f,c
 12583  003824  2E42               	decfsz	??_sqrtf^0,f,c
 12584  003826  D7F6               	goto	i2u474_45
 12585  003828                     i2u474_47:
 12586  003828  C043  F063         	movff	??_sqrtf+1,sqrtf@m
 12587  00382C  C044  F064         	movff	??_sqrtf+2,sqrtf@m+1
 12588  003830  C045  F065         	movff	??_sqrtf+3,sqrtf@m+2
 12589  003834  C046  F066         	movff	??_sqrtf+4,sqrtf@m+3
 12590  003838  5063               	movf	sqrtf@m^0,w,c
 12591  00383A  1064               	iorwf	(sqrtf@m+1)^0,w,c
 12592  00383C  1065               	iorwf	(sqrtf@m+2)^0,w,c
 12593  00383E  1066               	iorwf	(sqrtf@m+3)^0,w,c
 12594  003840  A4D8               	btfss	status,2,c
 12595  003842  D02A               	goto	i2l1340
 12596  003844  0E00               	movlw	0
 12597  003846  6E4F               	movwf	sqrtf@i^0,c
 12598  003848  0E00               	movlw	0
 12599  00384A  6E50               	movwf	(sqrtf@i+1)^0,c
 12600  00384C  0E00               	movlw	0
 12601  00384E  6E51               	movwf	(sqrtf@i+2)^0,c
 12602  003850  0E00               	movlw	0
 12603  003852  6E52               	movwf	(sqrtf@i+3)^0,c
 12604  003854  D00B               	goto	i2l4440
 12605  003856                     i2l4436:
 12606  003856  90D8               	bcf	status,0,c
 12607  003858  366B               	rlcf	sqrtf@ix^0,f,c
 12608  00385A  366C               	rlcf	(sqrtf@ix+1)^0,f,c
 12609  00385C  366D               	rlcf	(sqrtf@ix+2)^0,f,c
 12610  00385E  366E               	rlcf	(sqrtf@ix+3)^0,f,c
 12611  003860  0E01               	movlw	1
 12612  003862  264F               	addwf	sqrtf@i^0,f,c
 12613  003864  0E00               	movlw	0
 12614  003866  2250               	addwfc	(sqrtf@i+1)^0,f,c
 12615  003868  2251               	addwfc	(sqrtf@i+2)^0,f,c
 12616  00386A  2252               	addwfc	(sqrtf@i+3)^0,f,c
 12617  00386C                     i2l4440:
 12618  00386C  AE6D               	btfss	(sqrtf@ix+2)^0,7,c
 12619  00386E  D7F3               	goto	i2l4436
 12620  003870  0EFF               	movlw	255
 12621  003872  244F               	addwf	sqrtf@i^0,w,c
 12622  003874  6E42               	movwf	??_sqrtf^0,c
 12623  003876  0EFF               	movlw	255
 12624  003878  2050               	addwfc	(sqrtf@i+1)^0,w,c
 12625  00387A  6E43               	movwf	(??_sqrtf+1)^0,c
 12626  00387C  0EFF               	movlw	255
 12627  00387E  2051               	addwfc	(sqrtf@i+2)^0,w,c
 12628  003880  6E44               	movwf	(??_sqrtf+2)^0,c
 12629  003882  0EFF               	movlw	255
 12630  003884  2052               	addwfc	(sqrtf@i+3)^0,w,c
 12631  003886  6E45               	movwf	(??_sqrtf+3)^0,c
 12632  003888  5042               	movf	??_sqrtf^0,w,c
 12633  00388A  5E63               	subwf	sqrtf@m^0,f,c
 12634  00388C  5043               	movf	(??_sqrtf+1)^0,w,c
 12635  00388E  5A64               	subwfb	(sqrtf@m+1)^0,f,c
 12636  003890  5044               	movf	(??_sqrtf+2)^0,w,c
 12637  003892  5A65               	subwfb	(sqrtf@m+2)^0,f,c
 12638  003894  5045               	movf	(??_sqrtf+3)^0,w,c
 12639  003896  5A66               	subwfb	(sqrtf@m+3)^0,f,c
 12640  003898                     i2l1340:
 12641  003898  0E81               	movlw	129
 12642  00389A  2663               	addwf	sqrtf@m^0,f,c
 12643  00389C  0EFF               	movlw	255
 12644  00389E  2264               	addwfc	(sqrtf@m+1)^0,f,c
 12645  0038A0  0EFF               	movlw	255
 12646  0038A2  2265               	addwfc	(sqrtf@m+2)^0,f,c
 12647  0038A4  0EFF               	movlw	255
 12648  0038A6  2266               	addwfc	(sqrtf@m+3)^0,f,c
 12649  0038A8  0EFF               	movlw	255
 12650  0038AA  146B               	andwf	sqrtf@ix^0,w,c
 12651  0038AC  6E42               	movwf	??_sqrtf^0,c
 12652  0038AE  0EFF               	movlw	255
 12653  0038B0  146C               	andwf	(sqrtf@ix+1)^0,w,c
 12654  0038B2  6E43               	movwf	(??_sqrtf+1)^0,c
 12655  0038B4  0E7F               	movlw	127
 12656  0038B6  146D               	andwf	(sqrtf@ix+2)^0,w,c
 12657  0038B8  6E44               	movwf	(??_sqrtf+2)^0,c
 12658  0038BA  0E00               	movlw	0
 12659  0038BC  146E               	andwf	(sqrtf@ix+3)^0,w,c
 12660  0038BE  6E45               	movwf	(??_sqrtf+3)^0,c
 12661  0038C0  0E00               	movlw	0
 12662  0038C2  1042               	iorwf	??_sqrtf^0,w,c
 12663  0038C4  6E6B               	movwf	sqrtf@ix^0,c
 12664  0038C6  0E00               	movlw	0
 12665  0038C8  1043               	iorwf	(??_sqrtf+1)^0,w,c
 12666  0038CA  6E6C               	movwf	(sqrtf@ix+1)^0,c
 12667  0038CC  0E80               	movlw	128
 12668  0038CE  1044               	iorwf	(??_sqrtf+2)^0,w,c
 12669  0038D0  6E6D               	movwf	(sqrtf@ix+2)^0,c
 12670  0038D2  0E00               	movlw	0
 12671  0038D4  1045               	iorwf	(??_sqrtf+3)^0,w,c
 12672  0038D6  6E6E               	movwf	(sqrtf@ix+3)^0,c
 12673  0038D8  A063               	btfss	sqrtf@m^0,0,c
 12674  0038DA  D008               	goto	i2l1344
 12675  0038DC  506B               	movf	sqrtf@ix^0,w,c
 12676  0038DE  266B               	addwf	sqrtf@ix^0,f,c
 12677  0038E0  506C               	movf	(sqrtf@ix+1)^0,w,c
 12678  0038E2  226C               	addwfc	(sqrtf@ix+1)^0,f,c
 12679  0038E4  506D               	movf	(sqrtf@ix+2)^0,w,c
 12680  0038E6  226D               	addwfc	(sqrtf@ix+2)^0,f,c
 12681  0038E8  506E               	movf	(sqrtf@ix+3)^0,w,c
 12682  0038EA  226E               	addwfc	(sqrtf@ix+3)^0,f,c
 12683  0038EC                     i2l1344:
 12684  0038EC  3466               	rlcf	(sqrtf@m+3)^0,w,c
 12685  0038EE  3266               	rrcf	(sqrtf@m+3)^0,f,c
 12686  0038F0  3265               	rrcf	(sqrtf@m+2)^0,f,c
 12687  0038F2  3264               	rrcf	(sqrtf@m+1)^0,f,c
 12688  0038F4  3263               	rrcf	sqrtf@m^0,f,c
 12689  0038F6  506B               	movf	sqrtf@ix^0,w,c
 12690  0038F8  266B               	addwf	sqrtf@ix^0,f,c
 12691  0038FA  506C               	movf	(sqrtf@ix+1)^0,w,c
 12692  0038FC  226C               	addwfc	(sqrtf@ix+1)^0,f,c
 12693  0038FE  506D               	movf	(sqrtf@ix+2)^0,w,c
 12694  003900  226D               	addwfc	(sqrtf@ix+2)^0,f,c
 12695  003902  506E               	movf	(sqrtf@ix+3)^0,w,c
 12696  003904  226E               	addwfc	(sqrtf@ix+3)^0,f,c
 12697  003906  0E00               	movlw	0
 12698  003908  6E4B               	movwf	sqrtf@s^0,c
 12699  00390A  0E00               	movlw	0
 12700  00390C  6E4C               	movwf	(sqrtf@s+1)^0,c
 12701  00390E  0E00               	movlw	0
 12702  003910  6E4D               	movwf	(sqrtf@s+2)^0,c
 12703  003912  0E00               	movlw	0
 12704  003914  6E4E               	movwf	(sqrtf@s+3)^0,c
 12705  003916  C04B  F057         	movff	sqrtf@s,sqrtf@q
 12706  00391A  C04C  F058         	movff	sqrtf@s+1,sqrtf@q+1
 12707  00391E  C04D  F059         	movff	sqrtf@s+2,sqrtf@q+2
 12708  003922  C04E  F05A         	movff	sqrtf@s+3,sqrtf@q+3
 12709  003926  0E00               	movlw	0
 12710  003928  6E67               	movwf	sqrtf@r^0,c
 12711  00392A  0E00               	movlw	0
 12712  00392C  6E68               	movwf	(sqrtf@r+1)^0,c
 12713  00392E  0E00               	movlw	0
 12714  003930  6E69               	movwf	(sqrtf@r+2)^0,c
 12715  003932  0E01               	movlw	1
 12716  003934  6E6A               	movwf	(sqrtf@r+3)^0,c
 12717  003936  D043               	goto	i2l4458
 12718  003938                     i2l4452:
 12719  003938  5067               	movf	sqrtf@r^0,w,c
 12720  00393A  244B               	addwf	sqrtf@s^0,w,c
 12721  00393C  6E5B               	movwf	sqrtf@t^0,c
 12722  00393E  5068               	movf	(sqrtf@r+1)^0,w,c
 12723  003940  204C               	addwfc	(sqrtf@s+1)^0,w,c
 12724  003942  6E5C               	movwf	(sqrtf@t+1)^0,c
 12725  003944  5069               	movf	(sqrtf@r+2)^0,w,c
 12726  003946  204D               	addwfc	(sqrtf@s+2)^0,w,c
 12727  003948  6E5D               	movwf	(sqrtf@t+2)^0,c
 12728  00394A  506A               	movf	(sqrtf@r+3)^0,w,c
 12729  00394C  204E               	addwfc	(sqrtf@s+3)^0,w,c
 12730  00394E  6E5E               	movwf	(sqrtf@t+3)^0,c
 12731  003950  505B               	movf	sqrtf@t^0,w,c
 12732  003952  5C6B               	subwf	sqrtf@ix^0,w,c
 12733  003954  505C               	movf	(sqrtf@t+1)^0,w,c
 12734  003956  586C               	subwfb	(sqrtf@ix+1)^0,w,c
 12735  003958  505D               	movf	(sqrtf@t+2)^0,w,c
 12736  00395A  586D               	subwfb	(sqrtf@ix+2)^0,w,c
 12737  00395C  506E               	movf	(sqrtf@ix+3)^0,w,c
 12738  00395E  0A80               	xorlw	128
 12739  003960  6E42               	movwf	??_sqrtf^0,c
 12740  003962  505E               	movf	(sqrtf@t+3)^0,w,c
 12741  003964  0A80               	xorlw	128
 12742  003966  5842               	subwfb	??_sqrtf^0,w,c
 12743  003968  A0D8               	btfss	status,0,c
 12744  00396A  D01C               	goto	i2l1347
 12745  00396C  5067               	movf	sqrtf@r^0,w,c
 12746  00396E  245B               	addwf	sqrtf@t^0,w,c
 12747  003970  6E4B               	movwf	sqrtf@s^0,c
 12748  003972  5068               	movf	(sqrtf@r+1)^0,w,c
 12749  003974  205C               	addwfc	(sqrtf@t+1)^0,w,c
 12750  003976  6E4C               	movwf	(sqrtf@s+1)^0,c
 12751  003978  5069               	movf	(sqrtf@r+2)^0,w,c
 12752  00397A  205D               	addwfc	(sqrtf@t+2)^0,w,c
 12753  00397C  6E4D               	movwf	(sqrtf@s+2)^0,c
 12754  00397E  506A               	movf	(sqrtf@r+3)^0,w,c
 12755  003980  205E               	addwfc	(sqrtf@t+3)^0,w,c
 12756  003982  6E4E               	movwf	(sqrtf@s+3)^0,c
 12757  003984  505B               	movf	sqrtf@t^0,w,c
 12758  003986  5E6B               	subwf	sqrtf@ix^0,f,c
 12759  003988  505C               	movf	(sqrtf@t+1)^0,w,c
 12760  00398A  5A6C               	subwfb	(sqrtf@ix+1)^0,f,c
 12761  00398C  505D               	movf	(sqrtf@t+2)^0,w,c
 12762  00398E  5A6D               	subwfb	(sqrtf@ix+2)^0,f,c
 12763  003990  505E               	movf	(sqrtf@t+3)^0,w,c
 12764  003992  5A6E               	subwfb	(sqrtf@ix+3)^0,f,c
 12765  003994  5067               	movf	sqrtf@r^0,w,c
 12766  003996  2657               	addwf	sqrtf@q^0,f,c
 12767  003998  5068               	movf	(sqrtf@r+1)^0,w,c
 12768  00399A  2258               	addwfc	(sqrtf@q+1)^0,f,c
 12769  00399C  5069               	movf	(sqrtf@r+2)^0,w,c
 12770  00399E  2259               	addwfc	(sqrtf@q+2)^0,f,c
 12771  0039A0  506A               	movf	(sqrtf@r+3)^0,w,c
 12772  0039A2  225A               	addwfc	(sqrtf@q+3)^0,f,c
 12773  0039A4                     i2l1347:
 12774  0039A4  506B               	movf	sqrtf@ix^0,w,c
 12775  0039A6  266B               	addwf	sqrtf@ix^0,f,c
 12776  0039A8  506C               	movf	(sqrtf@ix+1)^0,w,c
 12777  0039AA  226C               	addwfc	(sqrtf@ix+1)^0,f,c
 12778  0039AC  506D               	movf	(sqrtf@ix+2)^0,w,c
 12779  0039AE  226D               	addwfc	(sqrtf@ix+2)^0,f,c
 12780  0039B0  506E               	movf	(sqrtf@ix+3)^0,w,c
 12781  0039B2  226E               	addwfc	(sqrtf@ix+3)^0,f,c
 12782  0039B4  90D8               	bcf	status,0,c
 12783  0039B6  326A               	rrcf	(sqrtf@r+3)^0,f,c
 12784  0039B8  3269               	rrcf	(sqrtf@r+2)^0,f,c
 12785  0039BA  3268               	rrcf	(sqrtf@r+1)^0,f,c
 12786  0039BC  3267               	rrcf	sqrtf@r^0,f,c
 12787  0039BE                     i2l4458:
 12788  0039BE  5067               	movf	sqrtf@r^0,w,c
 12789  0039C0  1068               	iorwf	(sqrtf@r+1)^0,w,c
 12790  0039C2  1069               	iorwf	(sqrtf@r+2)^0,w,c
 12791  0039C4  106A               	iorwf	(sqrtf@r+3)^0,w,c
 12792  0039C6  A4D8               	btfss	status,2,c
 12793  0039C8  D7B7               	goto	i2l4452
 12794  0039CA  506B               	movf	sqrtf@ix^0,w,c
 12795  0039CC  106C               	iorwf	(sqrtf@ix+1)^0,w,c
 12796  0039CE  106D               	iorwf	(sqrtf@ix+2)^0,w,c
 12797  0039D0  106E               	iorwf	(sqrtf@ix+3)^0,w,c
 12798  0039D2  B4D8               	btfsc	status,2,c
 12799  0039D4  D052               	goto	i2l1349
 12800  0039D6  0E00               	movlw	0
 12801  0039D8  6E5F               	movwf	sqrtf@z^0,c
 12802  0039DA  0E00               	movlw	0
 12803  0039DC  6E60               	movwf	(sqrtf@z+1)^0,c
 12804  0039DE  0E80               	movlw	128
 12805  0039E0  6E61               	movwf	(sqrtf@z+2)^0,c
 12806  0039E2  0E3F               	movlw	63
 12807  0039E4  6E62               	movwf	(sqrtf@z+3)^0,c
 12808  0039E6  C05F  F032         	movff	sqrtf@z,___flge@ff1
 12809  0039EA  C060  F033         	movff	sqrtf@z+1,___flge@ff1+1
 12810  0039EE  C061  F034         	movff	sqrtf@z+2,___flge@ff1+2
 12811  0039F2  C062  F035         	movff	sqrtf@z+3,___flge@ff1+3
 12812  0039F6  0E00               	movlw	0
 12813  0039F8  6E36               	movwf	___flge@ff2^0,c
 12814  0039FA  0E00               	movlw	0
 12815  0039FC  6E37               	movwf	(___flge@ff2+1)^0,c
 12816  0039FE  0E80               	movlw	128
 12817  003A00  6E38               	movwf	(___flge@ff2+2)^0,c
 12818  003A02  0E3F               	movlw	63
 12819  003A04  6E39               	movwf	(___flge@ff2+3)^0,c
 12820  003A06  EC0E  F032         	call	___flge	;wreg free
 12821  003A0A  A0D8               	btfss	status,0,c
 12822  003A0C  D036               	goto	i2l1349
 12823  003A0E  0E00               	movlw	0
 12824  003A10  6E5F               	movwf	sqrtf@z^0,c
 12825  003A12  0E00               	movlw	0
 12826  003A14  6E60               	movwf	(sqrtf@z+1)^0,c
 12827  003A16  0E80               	movlw	128
 12828  003A18  6E61               	movwf	(sqrtf@z+2)^0,c
 12829  003A1A  0E3F               	movlw	63
 12830  003A1C  6E62               	movwf	(sqrtf@z+3)^0,c
 12831  003A1E  0E00               	movlw	0
 12832  003A20  6E32               	movwf	___flge@ff1^0,c
 12833  003A22  0E00               	movlw	0
 12834  003A24  6E33               	movwf	(___flge@ff1+1)^0,c
 12835  003A26  0E80               	movlw	128
 12836  003A28  6E34               	movwf	(___flge@ff1+2)^0,c
 12837  003A2A  0E3F               	movlw	63
 12838  003A2C  6E35               	movwf	(___flge@ff1+3)^0,c
 12839  003A2E  C05F  F036         	movff	sqrtf@z,___flge@ff2
 12840  003A32  C060  F037         	movff	sqrtf@z+1,___flge@ff2+1
 12841  003A36  C061  F038         	movff	sqrtf@z+2,___flge@ff2+2
 12842  003A3A  C062  F039         	movff	sqrtf@z+3,___flge@ff2+3
 12843  003A3E  EC0E  F032         	call	___flge	;wreg free
 12844  003A42  B0D8               	btfsc	status,0,c
 12845  003A44  D006               	goto	i2l4472
 12846  003A46  0E02               	movlw	2
 12847  003A48  2657               	addwf	sqrtf@q^0,f,c
 12848  003A4A  0E00               	movlw	0
 12849  003A4C  2258               	addwfc	(sqrtf@q+1)^0,f,c
 12850  003A4E  2259               	addwfc	(sqrtf@q+2)^0,f,c
 12851  003A50  D013               	goto	L12
 12852  003A52                     i2l4472:
 12853  003A52  0E01               	movlw	1
 12854  003A54  1457               	andwf	sqrtf@q^0,w,c
 12855  003A56  6E42               	movwf	??_sqrtf^0,c
 12856  003A58  0E00               	movlw	0
 12857  003A5A  1458               	andwf	(sqrtf@q+1)^0,w,c
 12858  003A5C  6E43               	movwf	(??_sqrtf+1)^0,c
 12859  003A5E  0E00               	movlw	0
 12860  003A60  1459               	andwf	(sqrtf@q+2)^0,w,c
 12861  003A62  6E44               	movwf	(??_sqrtf+2)^0,c
 12862  003A64  0E00               	movlw	0
 12863  003A66  145A               	andwf	(sqrtf@q+3)^0,w,c
 12864  003A68  6E45               	movwf	(??_sqrtf+3)^0,c
 12865  003A6A  5042               	movf	??_sqrtf^0,w,c
 12866  003A6C  2657               	addwf	sqrtf@q^0,f,c
 12867  003A6E  5043               	movf	(??_sqrtf+1)^0,w,c
 12868  003A70  2258               	addwfc	(sqrtf@q+1)^0,f,c
 12869  003A72  5044               	movf	(??_sqrtf+2)^0,w,c
 12870  003A74  2259               	addwfc	(sqrtf@q+2)^0,f,c
 12871  003A76  5045               	movf	(??_sqrtf+3)^0,w,c
 12872  003A78                     L12:
 12873  003A78  225A               	addwfc	(sqrtf@q+3)^0,f,c
 12874  003A7A                     i2l1349:
 12875  003A7A  C057  F042         	movff	sqrtf@q,??_sqrtf
 12876  003A7E  C058  F043         	movff	sqrtf@q+1,??_sqrtf+1
 12877  003A82  C059  F044         	movff	sqrtf@q+2,??_sqrtf+2
 12878  003A86  C05A  F045         	movff	sqrtf@q+3,??_sqrtf+3
 12879  003A8A  3445               	rlcf	(??_sqrtf+3)^0,w,c
 12880  003A8C  3245               	rrcf	(??_sqrtf+3)^0,f,c
 12881  003A8E  3244               	rrcf	(??_sqrtf+2)^0,f,c
 12882  003A90  3243               	rrcf	(??_sqrtf+1)^0,f,c
 12883  003A92  3242               	rrcf	??_sqrtf^0,f,c
 12884  003A94  0E00               	movlw	0
 12885  003A96  2442               	addwf	??_sqrtf^0,w,c
 12886  003A98  6E6B               	movwf	sqrtf@ix^0,c
 12887  003A9A  0E00               	movlw	0
 12888  003A9C  2043               	addwfc	(??_sqrtf+1)^0,w,c
 12889  003A9E  6E6C               	movwf	(sqrtf@ix+1)^0,c
 12890  003AA0  0E00               	movlw	0
 12891  003AA2  2044               	addwfc	(??_sqrtf+2)^0,w,c
 12892  003AA4  6E6D               	movwf	(sqrtf@ix+2)^0,c
 12893  003AA6  0E3F               	movlw	63
 12894  003AA8  2045               	addwfc	(??_sqrtf+3)^0,w,c
 12895  003AAA  6E6E               	movwf	(sqrtf@ix+3)^0,c
 12896  003AAC  C063  F042         	movff	sqrtf@m,??_sqrtf
 12897  003AB0  C064  F043         	movff	sqrtf@m+1,??_sqrtf+1
 12898  003AB4  C065  F044         	movff	sqrtf@m+2,??_sqrtf+2
 12899  003AB8  C066  F045         	movff	sqrtf@m+3,??_sqrtf+3
 12900  003ABC  0E17               	movlw	23
 12901  003ABE                     i2u483_45:
 12902  003ABE  90D8               	bcf	status,0,c
 12903  003AC0  3642               	rlcf	??_sqrtf^0,f,c
 12904  003AC2  3643               	rlcf	(??_sqrtf+1)^0,f,c
 12905  003AC4  3644               	rlcf	(??_sqrtf+2)^0,f,c
 12906  003AC6  3645               	rlcf	(??_sqrtf+3)^0,f,c
 12907  003AC8  2EE8               	decfsz	wreg,f,c
 12908  003ACA  D7F9               	goto	i2u483_45
 12909  003ACC  5042               	movf	??_sqrtf^0,w,c
 12910  003ACE  266B               	addwf	sqrtf@ix^0,f,c
 12911  003AD0  5043               	movf	(??_sqrtf+1)^0,w,c
 12912  003AD2  226C               	addwfc	(sqrtf@ix+1)^0,f,c
 12913  003AD4  5044               	movf	(??_sqrtf+2)^0,w,c
 12914  003AD6  226D               	addwfc	(sqrtf@ix+2)^0,f,c
 12915  003AD8  5045               	movf	(??_sqrtf+3)^0,w,c
 12916  003ADA  226E               	addwfc	(sqrtf@ix+3)^0,f,c
 12917  003ADC  C06B  F053         	movff	sqrtf@ix,sqrtf@__xc8_float_word
 12918  003AE0  C06C  F054         	movff	sqrtf@ix+1,sqrtf@__xc8_float_word+1
 12919  003AE4  C06D  F055         	movff	sqrtf@ix+2,sqrtf@__xc8_float_word+2
 12920  003AE8  C06E  F056         	movff	sqrtf@ix+3,sqrtf@__xc8_float_word+3
 12921  003AEC  C053  F05F         	movff	sqrtf@__xc8_float_word,sqrtf@z
 12922  003AF0  C054  F060         	movff	sqrtf@__xc8_float_word+1,sqrtf@z+1
 12923  003AF4  C055  F061         	movff	sqrtf@__xc8_float_word+2,sqrtf@z+2
 12924  003AF8  C056  F062         	movff	sqrtf@__xc8_float_word+3,sqrtf@z+3
 12925  003AFC  C05F  F03E         	movff	sqrtf@z,?_sqrtf
 12926  003B00  C060  F03F         	movff	sqrtf@z+1,?_sqrtf+1
 12927  003B04  C061  F040         	movff	sqrtf@z+2,?_sqrtf+2
 12928  003B08  C062  F041         	movff	sqrtf@z+3,?_sqrtf+3
 12929  003B0C  0012               	return		;funcret
 12930  003B0E                     __end_of_sqrtf:
 12931                           	opt callstack 0
 12932                           
 12933 ;; *************** function _nanf *****************
 12934 ;; Defined at:
 12935 ;;		line 4 in file "C:\Program Files (x86)\Microchip\xc8\v2.10\pic\sources\c99\common\nanf.c"
 12936 ;; Parameters:    Size  Location     Type
 12937 ;;  s               2    0[COMRAM] PTR const unsigned char 
 12938 ;;		 -> STR_5(1), 
 12939 ;; Auto vars:     Size  Location     Type
 12940 ;;  u               4    4[COMRAM] struct .
 12941 ;; Return value:  Size  Location     Type
 12942 ;;                  4    0[COMRAM] float 
 12943 ;; Registers used:
 12944 ;;		wreg, status,2
 12945 ;; Tracked objects:
 12946 ;;		On entry : 0/0
 12947 ;;		On exit  : 0/0
 12948 ;;		Unchanged: 0/0
 12949 ;; Data sizes:     COMRAM   BANK0   BANK1   BANK2   BANK3   BANK4   BANK5
 12950 ;;      Params:         4       0       0       0       0       0       0
 12951 ;;      Locals:         4       0       0       0       0       0       0
 12952 ;;      Temps:          0       0       0       0       0       0       0
 12953 ;;      Totals:         8       0       0       0       0       0       0
 12954 ;;Total ram usage:        8 bytes
 12955 ;; Hardware stack levels used:    1
 12956 ;; This function calls:
 12957 ;;		Nothing
 12958 ;; This function is called by:
 12959 ;;		_sqrtf
 12960 ;; This function uses a non-reentrant model
 12961 ;;
 12962                           
 12963                           	psect	text46
 12964  006C2C                     __ptext46:
 12965                           	opt callstack 0
 12966  006C2C                     _nanf:
 12967                           	opt callstack 20
 12968                           
 12969                           ;incstack = 0
 12970  006C2C  0EFF               	movlw	255
 12971  006C2E  6E05               	movwf	nanf@u^0,c
 12972  006C30  0EFF               	movlw	255
 12973  006C32  6E06               	movwf	(nanf@u+1)^0,c
 12974  006C34  0EFF               	movlw	255
 12975  006C36  6E07               	movwf	(nanf@u+2)^0,c
 12976  006C38  0E7F               	movlw	127
 12977  006C3A  6E08               	movwf	(nanf@u+3)^0,c
 12978  006C3C  C005  F001         	movff	nanf@u,?_nanf
 12979  006C40  C006  F002         	movff	nanf@u+1,?_nanf+1
 12980  006C44  C007  F003         	movff	nanf@u+2,?_nanf+2
 12981  006C48  C008  F004         	movff	nanf@u+3,?_nanf+3
 12982  006C4C  0012               	return		;funcret
 12983  006C4E                     __end_of_nanf:
 12984                           	opt callstack 0
 12985                           
 12986 ;; *************** function ___flge *****************
 12987 ;; Defined at:
 12988 ;;		line 4 in file "C:\Program Files (x86)\Microchip\xc8\v2.10\pic\sources\c99\common\flge.c"
 12989 ;; Parameters:    Size  Location     Type
 12990 ;;  ff1             4   49[COMRAM] float 
 12991 ;;  ff2             4   53[COMRAM] float 
 12992 ;; Auto vars:     Size  Location     Type
 12993 ;;		None
 12994 ;; Return value:  Size  Location     Type
 12995 ;;		None               void
 12996 ;; Registers used:
 12997 ;;		wreg, status,2, status,0
 12998 ;; Tracked objects:
 12999 ;;		On entry : 0/0
 13000 ;;		On exit  : 0/0
 13001 ;;		Unchanged: 0/0
 13002 ;; Data sizes:     COMRAM   BANK0   BANK1   BANK2   BANK3   BANK4   BANK5
 13003 ;;      Params:         8       0       0       0       0       0       0
 13004 ;;      Locals:         0       0       0       0       0       0       0
 13005 ;;      Temps:          4       0       0       0       0       0       0
 13006 ;;      Totals:        12       0       0       0       0       0       0
 13007 ;;Total ram usage:       12 bytes
 13008 ;; Hardware stack levels used:    1
 13009 ;; This function calls:
 13010 ;;		Nothing
 13011 ;; This function is called by:
 13012 ;;		_MQ_Read
 13013 ;;		_Hi_ISR
 13014 ;;		_powf
 13015 ;;		_sqrtf
 13016 ;; This function uses a non-reentrant model
 13017 ;;
 13018                           
 13019                           	psect	text47
 13020  00641C                     __ptext47:
 13021                           	opt callstack 0
 13022  00641C                     ___flge:
 13023                           	opt callstack 25
 13024                           
 13025                           ;incstack = 0
 13026  00641C  0E00               	movlw	0
 13027  00641E  1432               	andwf	___flge@ff1^0,w,c
 13028  006420  6E3A               	movwf	??___flge^0,c
 13029  006422  0E00               	movlw	0
 13030  006424  1433               	andwf	(___flge@ff1+1)^0,w,c
 13031  006426  6E3B               	movwf	(??___flge+1)^0,c
 13032  006428  0E80               	movlw	128
 13033  00642A  1434               	andwf	(___flge@ff1+2)^0,w,c
 13034  00642C  6E3C               	movwf	(??___flge+2)^0,c
 13035  00642E  0E7F               	movlw	127
 13036  006430  1435               	andwf	(___flge@ff1+3)^0,w,c
 13037  006432  6E3D               	movwf	(??___flge+3)^0,c
 13038  006434  503A               	movf	??___flge^0,w,c
 13039  006436  103B               	iorwf	(??___flge+1)^0,w,c
 13040  006438  103C               	iorwf	(??___flge+2)^0,w,c
 13041  00643A  103D               	iorwf	(??___flge+3)^0,w,c
 13042  00643C  A4D8               	btfss	status,2,c
 13043  00643E  D008               	goto	i2l3908
 13044  006440  0E00               	movlw	0
 13045  006442  6E32               	movwf	___flge@ff1^0,c
 13046  006444  0E00               	movlw	0
 13047  006446  6E33               	movwf	(___flge@ff1+1)^0,c
 13048  006448  0E00               	movlw	0
 13049  00644A  6E34               	movwf	(___flge@ff1+2)^0,c
 13050  00644C  0E00               	movlw	0
 13051  00644E  6E35               	movwf	(___flge@ff1+3)^0,c
 13052  006450                     i2l3908:
 13053  006450  0E00               	movlw	0
 13054  006452  1436               	andwf	___flge@ff2^0,w,c
 13055  006454  6E3A               	movwf	??___flge^0,c
 13056  006456  0E00               	movlw	0
 13057  006458  1437               	andwf	(___flge@ff2+1)^0,w,c
 13058  00645A  6E3B               	movwf	(??___flge+1)^0,c
 13059  00645C  0E80               	movlw	128
 13060  00645E  1438               	andwf	(___flge@ff2+2)^0,w,c
 13061  006460  6E3C               	movwf	(??___flge+2)^0,c
 13062  006462  0E7F               	movlw	127
 13063  006464  1439               	andwf	(___flge@ff2+3)^0,w,c
 13064  006466  6E3D               	movwf	(??___flge+3)^0,c
 13065  006468  503A               	movf	??___flge^0,w,c
 13066  00646A  103B               	iorwf	(??___flge+1)^0,w,c
 13067  00646C  103C               	iorwf	(??___flge+2)^0,w,c
 13068  00646E  103D               	iorwf	(??___flge+3)^0,w,c
 13069  006470  A4D8               	btfss	status,2,c
 13070  006472  D008               	goto	i2l3912
 13071  006474  0E00               	movlw	0
 13072  006476  6E36               	movwf	___flge@ff2^0,c
 13073  006478  0E00               	movlw	0
 13074  00647A  6E37               	movwf	(___flge@ff2+1)^0,c
 13075  00647C  0E00               	movlw	0
 13076  00647E  6E38               	movwf	(___flge@ff2+2)^0,c
 13077  006480  0E00               	movlw	0
 13078  006482  6E39               	movwf	(___flge@ff2+3)^0,c
 13079  006484                     i2l3912:
 13080  006484  AE35               	btfss	(___flge@ff1+3)^0,7,c
 13081  006486  D009               	goto	i2l3916
 13082  006488  6C32               	negf	___flge@ff1^0,c
 13083  00648A  1E33               	comf	(___flge@ff1+1)^0,f,c
 13084  00648C  B0D8               	btfsc	status,0,c
 13085  00648E  2A33               	incf	(___flge@ff1+1)^0,f,c
 13086  006490  1E34               	comf	(___flge@ff1+2)^0,f,c
 13087  006492  B0D8               	btfsc	status,0,c
 13088  006494  2A34               	incf	(___flge@ff1+2)^0,f,c
 13089  006496  0E80               	movlw	128
 13090  006498  5635               	subfwb	(___flge@ff1+3)^0,f,c
 13091  00649A                     i2l3916:
 13092  00649A  AE39               	btfss	(___flge@ff2+3)^0,7,c
 13093  00649C  D009               	goto	i2l605
 13094  00649E  6C36               	negf	___flge@ff2^0,c
 13095  0064A0  1E37               	comf	(___flge@ff2+1)^0,f,c
 13096  0064A2  B0D8               	btfsc	status,0,c
 13097  0064A4  2A37               	incf	(___flge@ff2+1)^0,f,c
 13098  0064A6  1E38               	comf	(___flge@ff2+2)^0,f,c
 13099  0064A8  B0D8               	btfsc	status,0,c
 13100  0064AA  2A38               	incf	(___flge@ff2+2)^0,f,c
 13101  0064AC  0E80               	movlw	128
 13102  0064AE  5639               	subfwb	(___flge@ff2+3)^0,f,c
 13103  0064B0                     i2l605:
 13104  0064B0  0E00               	movlw	0
 13105  0064B2  1A32               	xorwf	___flge@ff1^0,f,c
 13106  0064B4  0E00               	movlw	0
 13107  0064B6  1A33               	xorwf	(___flge@ff1+1)^0,f,c
 13108  0064B8  0E00               	movlw	0
 13109  0064BA  1A34               	xorwf	(___flge@ff1+2)^0,f,c
 13110  0064BC  0E80               	movlw	128
 13111  0064BE  1A35               	xorwf	(___flge@ff1+3)^0,f,c
 13112  0064C0  0E00               	movlw	0
 13113  0064C2  1A36               	xorwf	___flge@ff2^0,f,c
 13114  0064C4  0E00               	movlw	0
 13115  0064C6  1A37               	xorwf	(___flge@ff2+1)^0,f,c
 13116  0064C8  0E00               	movlw	0
 13117  0064CA  1A38               	xorwf	(___flge@ff2+2)^0,f,c
 13118  0064CC  0E80               	movlw	128
 13119  0064CE  1A39               	xorwf	(___flge@ff2+3)^0,f,c
 13120  0064D0  5036               	movf	___flge@ff2^0,w,c
 13121  0064D2  5C32               	subwf	___flge@ff1^0,w,c
 13122  0064D4  5037               	movf	(___flge@ff2+1)^0,w,c
 13123  0064D6  5833               	subwfb	(___flge@ff1+1)^0,w,c
 13124  0064D8  5038               	movf	(___flge@ff2+2)^0,w,c
 13125  0064DA  5834               	subwfb	(___flge@ff1+2)^0,w,c
 13126  0064DC  5039               	movf	(___flge@ff2+3)^0,w,c
 13127  0064DE  5835               	subwfb	(___flge@ff1+3)^0,w,c
 13128  0064E0  B0D8               	btfsc	status,0,c
 13129  0064E2  D002               	goto	i2l3922
 13130  0064E4  90D8               	bcf	status,0,c
 13131  0064E6  0012               	return	
 13132  0064E8                     i2l3922:
 13133  0064E8  80D8               	bsf	status,0,c
 13134  0064EA  0012               	return		;funcret
 13135  0064EC                     __end_of___flge:
 13136                           	opt callstack 0
 13137                           
 13138 ;; *************** function _scalbnf *****************
 13139 ;; Defined at:
 13140 ;;		line 4 in file "C:\Program Files (x86)\Microchip\xc8\v2.10\pic\sources\c99\common\scalbnf.c"
 13141 ;; Parameters:    Size  Location     Type
 13142 ;;  x               4   41[COMRAM] float 
 13143 ;;  n               2   45[COMRAM] int 
 13144 ;; Auto vars:     Size  Location     Type
 13145 ;;  y               4   55[COMRAM] float 
 13146 ;;  u               4   51[COMRAM] struct .
 13147 ;; Return value:  Size  Location     Type
 13148 ;;                  4   41[COMRAM] float 
 13149 ;; Registers used:
 13150 ;;		wreg, status,2, status,0, prodl, prodh, cstack
 13151 ;; Tracked objects:
 13152 ;;		On entry : 0/0
 13153 ;;		On exit  : 0/0
 13154 ;;		Unchanged: 0/0
 13155 ;; Data sizes:     COMRAM   BANK0   BANK1   BANK2   BANK3   BANK4   BANK5
 13156 ;;      Params:         6       0       0       0       0       0       0
 13157 ;;      Locals:         8       0       0       0       0       0       0
 13158 ;;      Temps:          4       0       0       0       0       0       0
 13159 ;;      Totals:        18       0       0       0       0       0       0
 13160 ;;Total ram usage:       18 bytes
 13161 ;; Hardware stack levels used:    1
 13162 ;; Hardware stack levels required when called:    1
 13163 ;; This function calls:
 13164 ;;		i2___flmul
 13165 ;; This function is called by:
 13166 ;;		_powf
 13167 ;; This function uses a non-reentrant model
 13168 ;;
 13169                           
 13170                           	psect	text48
 13171  0056BC                     __ptext48:
 13172                           	opt callstack 0
 13173  0056BC                     _scalbnf:
 13174                           	opt callstack 20
 13175                           
 13176                           ;incstack = 0
 13177  0056BC  C02A  F038         	movff	scalbnf@x,scalbnf@y
 13178  0056C0  C02B  F039         	movff	scalbnf@x+1,scalbnf@y+1
 13179  0056C4  C02C  F03A         	movff	scalbnf@x+2,scalbnf@y+2
 13180  0056C8  C02D  F03B         	movff	scalbnf@x+3,scalbnf@y+3
 13181  0056CC  BE2F               	btfsc	(scalbnf@n+1)^0,7,c
 13182  0056CE  D056               	goto	i2l4508
 13183  0056D0  502F               	movf	(scalbnf@n+1)^0,w,c
 13184  0056D2  E104               	bnz	i2u484_40
 13185  0056D4  0E80               	movlw	128
 13186  0056D6  5C2E               	subwf	scalbnf@n^0,w,c
 13187  0056D8  A0D8               	btfss	status,0,c
 13188  0056DA  D050               	goto	i2l4508
 13189  0056DC                     i2u484_40:
 13190  0056DC  C038  F011         	movff	scalbnf@y,i2___flmul@b
 13191  0056E0  C039  F012         	movff	scalbnf@y+1,i2___flmul@b+1
 13192  0056E4  C03A  F013         	movff	scalbnf@y+2,i2___flmul@b+2
 13193  0056E8  C03B  F014         	movff	scalbnf@y+3,i2___flmul@b+3
 13194  0056EC  0E00               	movlw	0
 13195  0056EE  6E15               	movwf	i2___flmul@a^0,c
 13196  0056F0  0E00               	movlw	0
 13197  0056F2  6E16               	movwf	(i2___flmul@a+1)^0,c
 13198  0056F4  0E00               	movlw	0
 13199  0056F6  6E17               	movwf	(i2___flmul@a+2)^0,c
 13200  0056F8  0E7F               	movlw	127
 13201  0056FA  6E18               	movwf	(i2___flmul@a+3)^0,c
 13202  0056FC  EC31  F01F         	call	i2___flmul	;wreg free
 13203  005700  C011  F038         	movff	?i2___flmul,scalbnf@y
 13204  005704  C012  F039         	movff	?i2___flmul+1,scalbnf@y+1
 13205  005708  C013  F03A         	movff	?i2___flmul+2,scalbnf@y+2
 13206  00570C  C014  F03B         	movff	?i2___flmul+3,scalbnf@y+3
 13207  005710  0E81               	movlw	129
 13208  005712  262E               	addwf	scalbnf@n^0,f,c
 13209  005714  0EFF               	movlw	255
 13210  005716  222F               	addwfc	(scalbnf@n+1)^0,f,c
 13211  005718  BE2F               	btfsc	(scalbnf@n+1)^0,7,c
 13212  00571A  D088               	goto	i2l4524
 13213  00571C  502F               	movf	(scalbnf@n+1)^0,w,c
 13214  00571E  E104               	bnz	i2u485_40
 13215  005720  0E80               	movlw	128
 13216  005722  5C2E               	subwf	scalbnf@n^0,w,c
 13217  005724  A0D8               	btfss	status,0,c
 13218  005726  D082               	goto	i2l4524
 13219  005728                     i2u485_40:
 13220  005728  C038  F011         	movff	scalbnf@y,i2___flmul@b
 13221  00572C  C039  F012         	movff	scalbnf@y+1,i2___flmul@b+1
 13222  005730  C03A  F013         	movff	scalbnf@y+2,i2___flmul@b+2
 13223  005734  C03B  F014         	movff	scalbnf@y+3,i2___flmul@b+3
 13224  005738  0E00               	movlw	0
 13225  00573A  6E15               	movwf	i2___flmul@a^0,c
 13226  00573C  0E00               	movlw	0
 13227  00573E  6E16               	movwf	(i2___flmul@a+1)^0,c
 13228  005740  0E00               	movlw	0
 13229  005742  6E17               	movwf	(i2___flmul@a+2)^0,c
 13230  005744  0E7F               	movlw	127
 13231  005746  6E18               	movwf	(i2___flmul@a+3)^0,c
 13232  005748  EC31  F01F         	call	i2___flmul	;wreg free
 13233  00574C  C011  F038         	movff	?i2___flmul,scalbnf@y
 13234  005750  C012  F039         	movff	?i2___flmul+1,scalbnf@y+1
 13235  005754  C013  F03A         	movff	?i2___flmul+2,scalbnf@y+2
 13236  005758  C014  F03B         	movff	?i2___flmul+3,scalbnf@y+3
 13237  00575C  0E81               	movlw	129
 13238  00575E  262E               	addwf	scalbnf@n^0,f,c
 13239  005760  0EFF               	movlw	255
 13240  005762  222F               	addwfc	(scalbnf@n+1)^0,f,c
 13241  005764  BE2F               	btfsc	(scalbnf@n+1)^0,7,c
 13242  005766  D062               	goto	i2l4524
 13243  005768  502F               	movf	(scalbnf@n+1)^0,w,c
 13244  00576A  E104               	bnz	i2u486_40
 13245  00576C  0E80               	movlw	128
 13246  00576E  5C2E               	subwf	scalbnf@n^0,w,c
 13247  005770  A0D8               	btfss	status,0,c
 13248  005772  D05C               	goto	i2l4524
 13249  005774                     i2u486_40:
 13250  005774  0E00               	movlw	0
 13251  005776  6E2F               	movwf	(scalbnf@n+1)^0,c
 13252  005778  0E7F               	movlw	127
 13253  00577A  D057               	goto	L13
 13254  00577C                     i2l4508:
 13255  00577C  AE2F               	btfss	(scalbnf@n+1)^0,7,c
 13256  00577E  D056               	goto	i2l4524
 13257  005780  0E82               	movlw	130
 13258  005782  5C2E               	subwf	scalbnf@n^0,w,c
 13259  005784  0EFF               	movlw	255
 13260  005786  582F               	subwfb	(scalbnf@n+1)^0,w,c
 13261  005788  B0D8               	btfsc	status,0,c
 13262  00578A  D050               	goto	i2l4524
 13263  00578C  C038  F011         	movff	scalbnf@y,i2___flmul@b
 13264  005790  C039  F012         	movff	scalbnf@y+1,i2___flmul@b+1
 13265  005794  C03A  F013         	movff	scalbnf@y+2,i2___flmul@b+2
 13266  005798  C03B  F014         	movff	scalbnf@y+3,i2___flmul@b+3
 13267  00579C  0E00               	movlw	0
 13268  00579E  6E15               	movwf	i2___flmul@a^0,c
 13269  0057A0  0E00               	movlw	0
 13270  0057A2  6E16               	movwf	(i2___flmul@a+1)^0,c
 13271  0057A4  0E80               	movlw	128
 13272  0057A6  6E17               	movwf	(i2___flmul@a+2)^0,c
 13273  0057A8  0E0C               	movlw	12
 13274  0057AA  6E18               	movwf	(i2___flmul@a+3)^0,c
 13275  0057AC  EC31  F01F         	call	i2___flmul	;wreg free
 13276  0057B0  C011  F038         	movff	?i2___flmul,scalbnf@y
 13277  0057B4  C012  F039         	movff	?i2___flmul+1,scalbnf@y+1
 13278  0057B8  C013  F03A         	movff	?i2___flmul+2,scalbnf@y+2
 13279  0057BC  C014  F03B         	movff	?i2___flmul+3,scalbnf@y+3
 13280  0057C0  0E66               	movlw	102
 13281  0057C2  262E               	addwf	scalbnf@n^0,f,c
 13282  0057C4  0E00               	movlw	0
 13283  0057C6  222F               	addwfc	(scalbnf@n+1)^0,f,c
 13284  0057C8  AE2F               	btfss	(scalbnf@n+1)^0,7,c
 13285  0057CA  D030               	goto	i2l4524
 13286  0057CC  0E82               	movlw	130
 13287  0057CE  5C2E               	subwf	scalbnf@n^0,w,c
 13288  0057D0  0EFF               	movlw	255
 13289  0057D2  582F               	subwfb	(scalbnf@n+1)^0,w,c
 13290  0057D4  B0D8               	btfsc	status,0,c
 13291  0057D6  D02A               	goto	i2l4524
 13292  0057D8  C038  F011         	movff	scalbnf@y,i2___flmul@b
 13293  0057DC  C039  F012         	movff	scalbnf@y+1,i2___flmul@b+1
 13294  0057E0  C03A  F013         	movff	scalbnf@y+2,i2___flmul@b+2
 13295  0057E4  C03B  F014         	movff	scalbnf@y+3,i2___flmul@b+3
 13296  0057E8  0E00               	movlw	0
 13297  0057EA  6E15               	movwf	i2___flmul@a^0,c
 13298  0057EC  0E00               	movlw	0
 13299  0057EE  6E16               	movwf	(i2___flmul@a+1)^0,c
 13300  0057F0  0E80               	movlw	128
 13301  0057F2  6E17               	movwf	(i2___flmul@a+2)^0,c
 13302  0057F4  0E0C               	movlw	12
 13303  0057F6  6E18               	movwf	(i2___flmul@a+3)^0,c
 13304  0057F8  EC31  F01F         	call	i2___flmul	;wreg free
 13305  0057FC  C011  F038         	movff	?i2___flmul,scalbnf@y
 13306  005800  C012  F039         	movff	?i2___flmul+1,scalbnf@y+1
 13307  005804  C013  F03A         	movff	?i2___flmul+2,scalbnf@y+2
 13308  005808  C014  F03B         	movff	?i2___flmul+3,scalbnf@y+3
 13309  00580C  0E66               	movlw	102
 13310  00580E  262E               	addwf	scalbnf@n^0,f,c
 13311  005810  0E00               	movlw	0
 13312  005812  222F               	addwfc	(scalbnf@n+1)^0,f,c
 13313  005814  AE2F               	btfss	(scalbnf@n+1)^0,7,c
 13314  005816  D00A               	goto	i2l4524
 13315  005818  0E82               	movlw	130
 13316  00581A  5C2E               	subwf	scalbnf@n^0,w,c
 13317  00581C  0EFF               	movlw	255
 13318  00581E  582F               	subwfb	(scalbnf@n+1)^0,w,c
 13319  005820  B0D8               	btfsc	status,0,c
 13320  005822  D004               	goto	i2l4524
 13321  005824  0EFF               	movlw	255
 13322  005826  6E2F               	movwf	(scalbnf@n+1)^0,c
 13323  005828  0E82               	movlw	130
 13324  00582A                     L13:
 13325  00582A  6E2E               	movwf	scalbnf@n^0,c
 13326  00582C                     i2l4524:
 13327  00582C  0E7F               	movlw	127
 13328  00582E  242E               	addwf	scalbnf@n^0,w,c
 13329  005830  6E30               	movwf	??_scalbnf^0,c
 13330  005832  0E00               	movlw	0
 13331  005834  202F               	addwfc	(scalbnf@n+1)^0,w,c
 13332  005836  6E31               	movwf	(??_scalbnf+1)^0,c
 13333  005838  6A32               	clrf	(??_scalbnf+2)^0,c
 13334  00583A  6A33               	clrf	(??_scalbnf+3)^0,c
 13335  00583C  0E17               	movlw	23
 13336  00583E                     i2u490_45:
 13337  00583E  90D8               	bcf	status,0,c
 13338  005840  3630               	rlcf	??_scalbnf^0,f,c
 13339  005842  3631               	rlcf	(??_scalbnf+1)^0,f,c
 13340  005844  3632               	rlcf	(??_scalbnf+2)^0,f,c
 13341  005846  3633               	rlcf	(??_scalbnf+3)^0,f,c
 13342  005848  2EE8               	decfsz	wreg,f,c
 13343  00584A  D7F9               	goto	i2u490_45
 13344  00584C  C030  F034         	movff	??_scalbnf,scalbnf@u
 13345  005850  C031  F035         	movff	??_scalbnf+1,scalbnf@u+1
 13346  005854  C032  F036         	movff	??_scalbnf+2,scalbnf@u+2
 13347  005858  C033  F037         	movff	??_scalbnf+3,scalbnf@u+3
 13348  00585C  C034  F011         	movff	scalbnf@u,i2___flmul@b
 13349  005860  C035  F012         	movff	scalbnf@u+1,i2___flmul@b+1
 13350  005864  C036  F013         	movff	scalbnf@u+2,i2___flmul@b+2
 13351  005868  C037  F014         	movff	scalbnf@u+3,i2___flmul@b+3
 13352  00586C  C038  F015         	movff	scalbnf@y,i2___flmul@a
 13353  005870  C039  F016         	movff	scalbnf@y+1,i2___flmul@a+1
 13354  005874  C03A  F017         	movff	scalbnf@y+2,i2___flmul@a+2
 13355  005878  C03B  F018         	movff	scalbnf@y+3,i2___flmul@a+3
 13356  00587C  EC31  F01F         	call	i2___flmul	;wreg free
 13357  005880  C011  F02A         	movff	?i2___flmul,scalbnf@x
 13358  005884  C012  F02B         	movff	?i2___flmul+1,scalbnf@x+1
 13359  005888  C013  F02C         	movff	?i2___flmul+2,scalbnf@x+2
 13360  00588C  C014  F02D         	movff	?i2___flmul+3,scalbnf@x+3
 13361  005890  C02A  F02A         	movff	scalbnf@x,?_scalbnf
 13362  005894  C02B  F02B         	movff	scalbnf@x+1,?_scalbnf+1
 13363  005898  C02C  F02C         	movff	scalbnf@x+2,?_scalbnf+2
 13364  00589C  C02D  F02D         	movff	scalbnf@x+3,?_scalbnf+3
 13365  0058A0  0012               	return		;funcret
 13366  0058A2                     __end_of_scalbnf:
 13367                           	opt callstack 0
 13368                           
 13369 ;; *************** function _fabsf *****************
 13370 ;; Defined at:
 13371 ;;		line 4 in file "C:\Program Files (x86)\Microchip\xc8\v2.10\pic\sources\c99\common\fabsf.c"
 13372 ;; Parameters:    Size  Location     Type
 13373 ;;  x               4    0[COMRAM] float 
 13374 ;; Auto vars:     Size  Location     Type
 13375 ;;  u               4    4[COMRAM] struct .
 13376 ;; Return value:  Size  Location     Type
 13377 ;;                  4    0[COMRAM] float 
 13378 ;; Registers used:
 13379 ;;		status,2, status,0
 13380 ;; Tracked objects:
 13381 ;;		On entry : 0/0
 13382 ;;		On exit  : 0/0
 13383 ;;		Unchanged: 0/0
 13384 ;; Data sizes:     COMRAM   BANK0   BANK1   BANK2   BANK3   BANK4   BANK5
 13385 ;;      Params:         4       0       0       0       0       0       0
 13386 ;;      Locals:         4       0       0       0       0       0       0
 13387 ;;      Temps:          0       0       0       0       0       0       0
 13388 ;;      Totals:         8       0       0       0       0       0       0
 13389 ;;Total ram usage:        8 bytes
 13390 ;; Hardware stack levels used:    1
 13391 ;; This function calls:
 13392 ;;		Nothing
 13393 ;; This function is called by:
 13394 ;;		_powf
 13395 ;; This function uses a non-reentrant model
 13396 ;;
 13397                           
 13398                           	psect	text49
 13399  006A06                     __ptext49:
 13400                           	opt callstack 0
 13401  006A06                     _fabsf:
 13402                           	opt callstack 21
 13403                           
 13404                           ;incstack = 0
 13405  006A06  C24E  F005         	movff	fabsf@F463,fabsf@u
 13406  006A0A  C24F  F006         	movff	fabsf@F463+1,fabsf@u+1
 13407  006A0E  C250  F007         	movff	fabsf@F463+2,fabsf@u+2
 13408  006A12  C251  F008         	movff	fabsf@F463+3,fabsf@u+3
 13409  006A16  C001  F005         	movff	fabsf@x,fabsf@u
 13410  006A1A  C002  F006         	movff	fabsf@x+1,fabsf@u+1
 13411  006A1E  C003  F007         	movff	fabsf@x+2,fabsf@u+2
 13412  006A22  C004  F008         	movff	fabsf@x+3,fabsf@u+3
 13413  006A26  9E08               	bcf	(fabsf@u+3)^0,7,c
 13414  006A28  C005  F001         	movff	fabsf@u,?_fabsf
 13415  006A2C  C006  F002         	movff	fabsf@u+1,?_fabsf+1
 13416  006A30  C007  F003         	movff	fabsf@u+2,?_fabsf+2
 13417  006A34  C008  F004         	movff	fabsf@u+3,?_fabsf+3
 13418  006A38  0012               	return		;funcret
 13419  006A3A                     __end_of_fabsf:
 13420                           	opt callstack 0
 13421                           
 13422 ;; *************** function ___flneg *****************
 13423 ;; Defined at:
 13424 ;;		line 15 in file "C:\Program Files (x86)\Microchip\xc8\v2.10\pic\sources\c99\common\flneg.c"
 13425 ;; Parameters:    Size  Location     Type
 13426 ;;  f1              4    0[COMRAM] float 
 13427 ;; Auto vars:     Size  Location     Type
 13428 ;;		None
 13429 ;; Return value:  Size  Location     Type
 13430 ;;                  4    0[COMRAM] float 
 13431 ;; Registers used:
 13432 ;;		wreg, status,2, status,0
 13433 ;; Tracked objects:
 13434 ;;		On entry : 0/0
 13435 ;;		On exit  : 0/0
 13436 ;;		Unchanged: 0/0
 13437 ;; Data sizes:     COMRAM   BANK0   BANK1   BANK2   BANK3   BANK4   BANK5
 13438 ;;      Params:         4       0       0       0       0       0       0
 13439 ;;      Locals:         0       0       0       0       0       0       0
 13440 ;;      Temps:          0       0       0       0       0       0       0
 13441 ;;      Totals:         4       0       0       0       0       0       0
 13442 ;;Total ram usage:        4 bytes
 13443 ;; Hardware stack levels used:    1
 13444 ;; This function calls:
 13445 ;;		Nothing
 13446 ;; This function is called by:
 13447 ;;		_powf
 13448 ;; This function uses a non-reentrant model
 13449 ;;
 13450                           
 13451                           	psect	text50
 13452  006B8A                     __ptext50:
 13453                           	opt callstack 0
 13454  006B8A                     ___flneg:
 13455                           	opt callstack 21
 13456                           
 13457                           ;incstack = 0
 13458  006B8A  5001               	movf	___flneg@f1^0,w,c
 13459  006B8C  1002               	iorwf	(___flneg@f1+1)^0,w,c
 13460  006B8E  1003               	iorwf	(___flneg@f1+2)^0,w,c
 13461  006B90  1004               	iorwf	(___flneg@f1+3)^0,w,c
 13462  006B92  B4D8               	btfsc	status,2,c
 13463  006B94  D008               	goto	i2l4390
 13464  006B96  0E00               	movlw	0
 13465  006B98  1A01               	xorwf	___flneg@f1^0,f,c
 13466  006B9A  0E00               	movlw	0
 13467  006B9C  1A02               	xorwf	(___flneg@f1+1)^0,f,c
 13468  006B9E  0E00               	movlw	0
 13469  006BA0  1A03               	xorwf	(___flneg@f1+2)^0,f,c
 13470  006BA2  0E80               	movlw	128
 13471  006BA4  1A04               	xorwf	(___flneg@f1+3)^0,f,c
 13472  006BA6                     i2l4390:
 13473  006BA6  C001  F001         	movff	___flneg@f1,?___flneg
 13474  006BAA  C002  F002         	movff	___flneg@f1+1,?___flneg+1
 13475  006BAE  C003  F003         	movff	___flneg@f1+2,?___flneg+2
 13476  006BB2  C004  F004         	movff	___flneg@f1+3,?___flneg+3
 13477  006BB6  0012               	return		;funcret
 13478  006BB8                     __end_of___flneg:
 13479                           	opt callstack 0
 13480                           
 13481 ;; *************** function _log10f *****************
 13482 ;; Defined at:
 13483 ;;		line 30 in file "C:\Program Files (x86)\Microchip\xc8\v2.10\pic\sources\c99\common\log10f.c"
 13484 ;; Parameters:    Size  Location     Type
 13485 ;;  x               4   74[COMRAM] float 
 13486 ;; Auto vars:     Size  Location     Type
 13487 ;;  ix              4   78[BANK0 ] unsigned long 
 13488 ;;  f               4   74[BANK0 ] float 
 13489 ;;  u               4   70[BANK0 ] struct .
 13490 ;;  hi              4   66[BANK0 ] float 
 13491 ;;  w               4   58[BANK0 ] float 
 13492 ;;  z               4   54[BANK0 ] float 
 13493 ;;  s               4   50[BANK0 ] float 
 13494 ;;  hfsq            4   46[BANK0 ] float 
 13495 ;;  lo              4   38[BANK0 ] float 
 13496 ;;  dk              4   34[BANK0 ] float 
 13497 ;;  t2              4    8[BANK0 ] float 
 13498 ;;  t1              4    4[BANK0 ] float 
 13499 ;;  R               4    0[BANK0 ] float 
 13500 ;;  k               2   32[BANK0 ] int 
 13501 ;; Return value:  Size  Location     Type
 13502 ;;                  4   74[COMRAM] float 
 13503 ;; Registers used:
 13504 ;;		wreg, status,2, status,0, prodl, prodh, cstack
 13505 ;; Tracked objects:
 13506 ;;		On entry : 0/0
 13507 ;;		On exit  : 0/0
 13508 ;;		Unchanged: 0/0
 13509 ;; Data sizes:     COMRAM   BANK0   BANK1   BANK2   BANK3   BANK4   BANK5
 13510 ;;      Params:         4       0       0       0       0       0       0
 13511 ;;      Locals:         0      82       0       0       0       0       0
 13512 ;;      Temps:          6       0       0       0       0       0       0
 13513 ;;      Totals:        10      82       0       0       0       0       0
 13514 ;;Total ram usage:       92 bytes
 13515 ;; Hardware stack levels used:    1
 13516 ;; Hardware stack levels required when called:    2
 13517 ;; This function calls:
 13518 ;;		___flsub
 13519 ;;		i2___fladd
 13520 ;;		i2___fldiv
 13521 ;;		i2___flmul
 13522 ;;		i2___xxtofl
 13523 ;; This function is called by:
 13524 ;;		_MQGetPercentage
 13525 ;; This function uses a non-reentrant model
 13526 ;;
 13527                           
 13528                           	psect	text51
 13529  002E54                     __ptext51:
 13530                           	opt callstack 0
 13531  002E54                     _log10f:
 13532                           	opt callstack 20
 13533                           
 13534                           ;incstack = 0
 13535  002E54  C1DD  F0C6         	movff	log10f@F471,log10f@u
 13536  002E58  C1DE  F0C7         	movff	log10f@F471+1,log10f@u+1
 13537  002E5C  C1DF  F0C8         	movff	log10f@F471+2,log10f@u+2
 13538  002E60  C1E0  F0C9         	movff	log10f@F471+3,log10f@u+3
 13539  002E64  C04B  F0C6         	movff	log10f@x,log10f@u
 13540  002E68  C04C  F0C7         	movff	log10f@x+1,log10f@u+1
 13541  002E6C  C04D  F0C8         	movff	log10f@x+2,log10f@u+2
 13542  002E70  C04E  F0C9         	movff	log10f@x+3,log10f@u+3
 13543  002E74  C0C6  F0CE         	movff	log10f@u,log10f@ix
 13544  002E78  C0C7  F0CF         	movff	log10f@u+1,log10f@ix+1
 13545  002E7C  C0C8  F0D0         	movff	log10f@u+2,log10f@ix+2
 13546  002E80  C0C9  F0D1         	movff	log10f@u+3,log10f@ix+3
 13547  002E84  0E00               	movlw	0
 13548  002E86  0100               	movlb	0	; () banked
 13549  002E88  6FA1               	movwf	(log10f@k+1)& (0+255),b
 13550  002E8A  0E00               	movlw	0
 13551  002E8C  6FA0               	movwf	log10f@k& (0+255),b
 13552                           
 13553                           ; BSR set to: 0
 13554  002E8E  51D1               	movf	(log10f@ix+3)& (0+255),w,b
 13555  002E90  E104               	bnz	i2u524_40
 13556  002E92  0E80               	movlw	128
 13557  002E94  5DD0               	subwf	(log10f@ix+2)& (0+255),w,b
 13558  002E96  A0D8               	btfss	status,0,c
 13559  002E98  D017               	goto	i2u526_40
 13560  002E9A                     i2u524_40:
 13561                           
 13562                           ; BSR set to: 0
 13563  002E9A  C0CE  F04F         	movff	log10f@ix,??_log10f
 13564  002E9E  C0CF  F050         	movff	log10f@ix+1,??_log10f+1
 13565  002EA2  C0D0  F051         	movff	log10f@ix+2,??_log10f+2
 13566  002EA6  C0D1  F052         	movff	log10f@ix+3,??_log10f+3
 13567  002EAA  0E20               	movlw	32
 13568  002EAC  D005               	goto	i2u525_40
 13569  002EAE                     i2u525_45:
 13570  002EAE  90D8               	bcf	status,0,c
 13571  002EB0  3252               	rrcf	(??_log10f+3)^0,f,c
 13572  002EB2  3251               	rrcf	(??_log10f+2)^0,f,c
 13573  002EB4  3250               	rrcf	(??_log10f+1)^0,f,c
 13574  002EB6  324F               	rrcf	??_log10f^0,f,c
 13575  002EB8                     i2u525_40:
 13576  002EB8  2EE8               	decfsz	wreg,f,c
 13577  002EBA  D7F9               	goto	i2u525_45
 13578  002EBC  504F               	movf	??_log10f^0,w,c
 13579  002EBE  1050               	iorwf	(??_log10f+1)^0,w,c
 13580  002EC0  1051               	iorwf	(??_log10f+2)^0,w,c
 13581  002EC2  1052               	iorwf	(??_log10f+3)^0,w,c
 13582  002EC4  B4D8               	btfsc	status,2,c
 13583  002EC6  D0AF               	goto	i2l4744
 13584  002EC8                     i2u526_40:
 13585                           
 13586                           ; BSR set to: 0
 13587  002EC8  90D8               	bcf	status,0,c
 13588  002ECA  35CE               	rlcf	log10f@ix& (0+255),w,b
 13589  002ECC  6E4F               	movwf	??_log10f^0,c
 13590  002ECE  35CF               	rlcf	(log10f@ix+1)& (0+255),w,b
 13591  002ED0  6E50               	movwf	(??_log10f+1)^0,c
 13592  002ED2  35D0               	rlcf	(log10f@ix+2)& (0+255),w,b
 13593  002ED4  6E51               	movwf	(??_log10f+2)^0,c
 13594  002ED6  35D1               	rlcf	(log10f@ix+3)& (0+255),w,b
 13595  002ED8  6E52               	movwf	(??_log10f+3)^0,c
 13596  002EDA  504F               	movf	??_log10f^0,w,c
 13597  002EDC  1050               	iorwf	(??_log10f+1)^0,w,c
 13598  002EDE  1051               	iorwf	(??_log10f+2)^0,w,c
 13599  002EE0  1052               	iorwf	(??_log10f+3)^0,w,c
 13600  002EE2  A4D8               	btfss	status,2,c
 13601  002EE4  D02D               	goto	i2l4730
 13602                           
 13603                           ; BSR set to: 0
 13604  002EE6  0E00               	movlw	0
 13605  002EE8  6E32               	movwf	i2___fldiv@b^0,c
 13606  002EEA  0E00               	movlw	0
 13607  002EEC  6E33               	movwf	(i2___fldiv@b+1)^0,c
 13608  002EEE  0E80               	movlw	128
 13609  002EF0  6E34               	movwf	(i2___fldiv@b+2)^0,c
 13610  002EF2  0EBF               	movlw	191
 13611  002EF4  6E35               	movwf	(i2___fldiv@b+3)^0,c
 13612  002EF6  C04B  F015         	movff	log10f@x,i2___flmul@a
 13613  002EFA  C04C  F016         	movff	log10f@x+1,i2___flmul@a+1
 13614  002EFE  C04D  F017         	movff	log10f@x+2,i2___flmul@a+2
 13615  002F02  C04E  F018         	movff	log10f@x+3,i2___flmul@a+3
 13616  002F06  C04B  F011         	movff	log10f@x,i2___flmul@b
 13617  002F0A  C04C  F012         	movff	log10f@x+1,i2___flmul@b+1
 13618  002F0E  C04D  F013         	movff	log10f@x+2,i2___flmul@b+2
 13619  002F12  C04E  F014         	movff	log10f@x+3,i2___flmul@b+3
 13620  002F16  EC31  F01F         	call	i2___flmul	;wreg free
 13621  002F1A  C011  F036         	movff	?i2___flmul,i2___fldiv@a
 13622  002F1E  C012  F037         	movff	?i2___flmul+1,i2___fldiv@a+1
 13623  002F22  C013  F038         	movff	?i2___flmul+2,i2___fldiv@a+2
 13624  002F26  C014  F039         	movff	?i2___flmul+3,i2___fldiv@a+3
 13625  002F2A  EC98  F026         	call	i2___fldiv	;wreg free
 13626  002F2E  C032  F04B         	movff	?i2___fldiv,?_log10f
 13627  002F32  C033  F04C         	movff	?i2___fldiv+1,?_log10f+1
 13628  002F36  C034  F04D         	movff	?i2___fldiv+2,?_log10f+2
 13629  002F3A  C035  F04E         	movff	?i2___fldiv+3,?_log10f+3
 13630  002F3E  0012               	return	
 13631  002F40                     i2l4730:
 13632                           
 13633                           ; BSR set to: 0
 13634  002F40  C0CE  F04F         	movff	log10f@ix,??_log10f
 13635  002F44  C0CF  F050         	movff	log10f@ix+1,??_log10f+1
 13636  002F48  C0D0  F051         	movff	log10f@ix+2,??_log10f+2
 13637  002F4C  C0D1  F052         	movff	log10f@ix+3,??_log10f+3
 13638  002F50  0E20               	movlw	32
 13639  002F52  D005               	goto	i2u528_40
 13640  002F54                     i2u528_45:
 13641  002F54  90D8               	bcf	status,0,c
 13642  002F56  3252               	rrcf	(??_log10f+3)^0,f,c
 13643  002F58  3251               	rrcf	(??_log10f+2)^0,f,c
 13644  002F5A  3250               	rrcf	(??_log10f+1)^0,f,c
 13645  002F5C  324F               	rrcf	??_log10f^0,f,c
 13646  002F5E                     i2u528_40:
 13647  002F5E  2EE8               	decfsz	wreg,f,c
 13648  002F60  D7F9               	goto	i2u528_45
 13649  002F62  504F               	movf	??_log10f^0,w,c
 13650  002F64  1050               	iorwf	(??_log10f+1)^0,w,c
 13651  002F66  1051               	iorwf	(??_log10f+2)^0,w,c
 13652  002F68  1052               	iorwf	(??_log10f+3)^0,w,c
 13653  002F6A  B4D8               	btfsc	status,2,c
 13654  002F6C  D02D               	goto	i2l4736
 13655                           
 13656                           ; BSR set to: 0
 13657  002F6E  C04B  F02E         	movff	log10f@x,___flsub@a
 13658  002F72  C04C  F02F         	movff	log10f@x+1,___flsub@a+1
 13659  002F76  C04D  F030         	movff	log10f@x+2,___flsub@a+2
 13660  002F7A  C04E  F031         	movff	log10f@x+3,___flsub@a+3
 13661  002F7E  C04B  F02A         	movff	log10f@x,___flsub@b
 13662  002F82  C04C  F02B         	movff	log10f@x+1,___flsub@b+1
 13663  002F86  C04D  F02C         	movff	log10f@x+2,___flsub@b+2
 13664  002F8A  C04E  F02D         	movff	log10f@x+3,___flsub@b+3
 13665  002F8E  ECA5  F034         	call	___flsub	;wreg free
 13666  002F92  C02A  F032         	movff	?___flsub,i2___fldiv@b
 13667  002F96  C02B  F033         	movff	?___flsub+1,i2___fldiv@b+1
 13668  002F9A  C02C  F034         	movff	?___flsub+2,i2___fldiv@b+2
 13669  002F9E  C02D  F035         	movff	?___flsub+3,i2___fldiv@b+3
 13670  002FA2  0E00               	movlw	0
 13671  002FA4  6E36               	movwf	i2___fldiv@a^0,c
 13672  002FA6  0E00               	movlw	0
 13673  002FA8  6E37               	movwf	(i2___fldiv@a+1)^0,c
 13674  002FAA  0E00               	movlw	0
 13675  002FAC  6E38               	movwf	(i2___fldiv@a+2)^0,c
 13676  002FAE  0E00               	movlw	0
 13677  002FB0  6E39               	movwf	(i2___fldiv@a+3)^0,c
 13678  002FB2  EC98  F026         	call	i2___fldiv	;wreg free
 13679  002FB6  C032  F04B         	movff	?i2___fldiv,?_log10f
 13680  002FBA  C033  F04C         	movff	?i2___fldiv+1,?_log10f+1
 13681  002FBE  C034  F04D         	movff	?i2___fldiv+2,?_log10f+2
 13682  002FC2  C035  F04E         	movff	?i2___fldiv+3,?_log10f+3
 13683  002FC6  0012               	return	
 13684  002FC8                     i2l4736:
 13685                           
 13686                           ; BSR set to: 0
 13687  002FC8  0EE7               	movlw	231
 13688  002FCA  27A0               	addwf	log10f@k& (0+255),f,b
 13689  002FCC  0EFF               	movlw	255
 13690  002FCE  23A1               	addwfc	(log10f@k+1)& (0+255),f,b
 13691                           
 13692                           ; BSR set to: 0
 13693  002FD0  C04B  F011         	movff	log10f@x,i2___flmul@b
 13694  002FD4  C04C  F012         	movff	log10f@x+1,i2___flmul@b+1
 13695  002FD8  C04D  F013         	movff	log10f@x+2,i2___flmul@b+2
 13696  002FDC  C04E  F014         	movff	log10f@x+3,i2___flmul@b+3
 13697  002FE0  0E00               	movlw	0
 13698  002FE2  6E15               	movwf	i2___flmul@a^0,c
 13699  002FE4  0E00               	movlw	0
 13700  002FE6  6E16               	movwf	(i2___flmul@a+1)^0,c
 13701  002FE8  0E00               	movlw	0
 13702  002FEA  6E17               	movwf	(i2___flmul@a+2)^0,c
 13703  002FEC  0E4C               	movlw	76
 13704  002FEE  6E18               	movwf	(i2___flmul@a+3)^0,c
 13705  002FF0  EC31  F01F         	call	i2___flmul	;wreg free
 13706  002FF4  C011  F04B         	movff	?i2___flmul,log10f@x
 13707  002FF8  C012  F04C         	movff	?i2___flmul+1,log10f@x+1
 13708  002FFC  C013  F04D         	movff	?i2___flmul+2,log10f@x+2
 13709  003000  C014  F04E         	movff	?i2___flmul+3,log10f@x+3
 13710  003004  C04B  F0C6         	movff	log10f@x,log10f@u
 13711  003008  C04C  F0C7         	movff	log10f@x+1,log10f@u+1
 13712  00300C  C04D  F0C8         	movff	log10f@x+2,log10f@u+2
 13713  003010  C04E  F0C9         	movff	log10f@x+3,log10f@u+3
 13714  003014  C0C6  F0CE         	movff	log10f@u,log10f@ix
 13715  003018  C0C7  F0CF         	movff	log10f@u+1,log10f@ix+1
 13716  00301C  C0C8  F0D0         	movff	log10f@u+2,log10f@ix+2
 13717  003020  C0C9  F0D1         	movff	log10f@u+3,log10f@ix+3
 13718  003024  D021               	goto	i2l4756
 13719  003026                     i2l4744:
 13720                           
 13721                           ; BSR set to: 0
 13722  003026  0E80               	movlw	128
 13723  003028  5DD0               	subwf	(log10f@ix+2)& (0+255),w,b
 13724  00302A  0E7F               	movlw	127
 13725  00302C  59D1               	subwfb	(log10f@ix+3)& (0+255),w,b
 13726  00302E  A0D8               	btfss	status,0,c
 13727  003030  D009               	goto	i2l4750
 13728                           
 13729                           ; BSR set to: 0
 13730  003032  C04B  F04B         	movff	log10f@x,?_log10f
 13731  003036  C04C  F04C         	movff	log10f@x+1,?_log10f+1
 13732  00303A  C04D  F04D         	movff	log10f@x+2,?_log10f+2
 13733  00303E  C04E  F04E         	movff	log10f@x+3,?_log10f+3
 13734  003042  0012               	return	
 13735  003044                     i2l4750:
 13736                           
 13737                           ; BSR set to: 0
 13738  003044  0E80               	movlw	128
 13739  003046  19D0               	xorwf	(log10f@ix+2)& (0+255),w,b
 13740  003048  E10F               	bnz	i2l4756
 13741  00304A  0E3F               	movlw	63
 13742  00304C  19D1               	xorwf	(log10f@ix+3)& (0+255),w,b
 13743  00304E  11CE               	iorwf	log10f@ix& (0+255),w,b
 13744  003050  11CF               	iorwf	(log10f@ix+1)& (0+255),w,b
 13745  003052  A4D8               	btfss	status,2,c
 13746  003054  D009               	goto	i2l4756
 13747                           
 13748                           ; BSR set to: 0
 13749  003056  0E00               	movlw	0
 13750  003058  6E4B               	movwf	?_log10f^0,c
 13751  00305A  0E00               	movlw	0
 13752  00305C  6E4C               	movwf	(?_log10f+1)^0,c
 13753  00305E  0E00               	movlw	0
 13754  003060  6E4D               	movwf	(?_log10f+2)^0,c
 13755  003062  0E00               	movlw	0
 13756  003064  6E4E               	movwf	(?_log10f+3)^0,c
 13757  003066  0012               	return	
 13758  003068                     i2l4756:
 13759  003068  0E0D               	movlw	13
 13760  00306A  0100               	movlb	0	; () banked
 13761  00306C  27CE               	addwf	log10f@ix& (0+255),f,b
 13762  00306E  0EFB               	movlw	251
 13763  003070  23CF               	addwfc	(log10f@ix+1)& (0+255),f,b
 13764  003072  0E4A               	movlw	74
 13765  003074  23D0               	addwfc	(log10f@ix+2)& (0+255),f,b
 13766  003076  0E00               	movlw	0
 13767  003078  23D1               	addwfc	(log10f@ix+3)& (0+255),f,b
 13768  00307A  0E81               	movlw	129
 13769  00307C  6E4F               	movwf	??_log10f^0,c
 13770  00307E  0EFF               	movlw	255
 13771  003080  6E50               	movwf	(??_log10f+1)^0,c
 13772  003082  C0CE  F051         	movff	log10f@ix,??_log10f+2
 13773  003086  C0CF  F052         	movff	log10f@ix+1,??_log10f+3
 13774  00308A  C0D0  F053         	movff	log10f@ix+2,??_log10f+4
 13775  00308E  C0D1  F054         	movff	log10f@ix+3,??_log10f+5
 13776  003092  0E18               	movlw	24
 13777  003094  D005               	goto	i2u532_40
 13778  003096                     i2u532_45:
 13779  003096  90D8               	bcf	status,0,c
 13780  003098  3254               	rrcf	(??_log10f+5)^0,f,c
 13781  00309A  3253               	rrcf	(??_log10f+4)^0,f,c
 13782  00309C  3252               	rrcf	(??_log10f+3)^0,f,c
 13783  00309E  3251               	rrcf	(??_log10f+2)^0,f,c
 13784  0030A0                     i2u532_40:
 13785  0030A0  2EE8               	decfsz	wreg,f,c
 13786  0030A2  D7F9               	goto	i2u532_45
 13787  0030A4  504F               	movf	??_log10f^0,w,c
 13788  0030A6  2651               	addwf	(??_log10f+2)^0,f,c
 13789  0030A8  5050               	movf	(??_log10f+1)^0,w,c
 13790  0030AA  2252               	addwfc	(??_log10f+3)^0,f,c
 13791  0030AC  5051               	movf	(??_log10f+2)^0,w,c
 13792  0030AE  27A0               	addwf	log10f@k& (0+255),f,b
 13793  0030B0  5052               	movf	(??_log10f+3)^0,w,c
 13794  0030B2  23A1               	addwfc	(log10f@k+1)& (0+255),f,b
 13795  0030B4  0EFF               	movlw	255
 13796  0030B6  15CE               	andwf	log10f@ix& (0+255),w,b
 13797  0030B8  6E4F               	movwf	??_log10f^0,c
 13798  0030BA  0EFF               	movlw	255
 13799  0030BC  15CF               	andwf	(log10f@ix+1)& (0+255),w,b
 13800  0030BE  6E50               	movwf	(??_log10f+1)^0,c
 13801  0030C0  0E7F               	movlw	127
 13802  0030C2  15D0               	andwf	(log10f@ix+2)& (0+255),w,b
 13803  0030C4  6E51               	movwf	(??_log10f+2)^0,c
 13804  0030C6  0E00               	movlw	0
 13805  0030C8  15D1               	andwf	(log10f@ix+3)& (0+255),w,b
 13806  0030CA  6E52               	movwf	(??_log10f+3)^0,c
 13807  0030CC  0EF3               	movlw	243
 13808  0030CE  244F               	addwf	??_log10f^0,w,c
 13809  0030D0  6FCE               	movwf	log10f@ix& (0+255),b
 13810  0030D2  0E04               	movlw	4
 13811  0030D4  2050               	addwfc	(??_log10f+1)^0,w,c
 13812  0030D6  6FCF               	movwf	(log10f@ix+1)& (0+255),b
 13813  0030D8  0E35               	movlw	53
 13814  0030DA  2051               	addwfc	(??_log10f+2)^0,w,c
 13815  0030DC  6FD0               	movwf	(log10f@ix+2)& (0+255),b
 13816  0030DE  0E3F               	movlw	63
 13817  0030E0  2052               	addwfc	(??_log10f+3)^0,w,c
 13818  0030E2  6FD1               	movwf	(log10f@ix+3)& (0+255),b
 13819                           
 13820                           ; BSR set to: 0
 13821  0030E4  C0CE  F0C6         	movff	log10f@ix,log10f@u
 13822  0030E8  C0CF  F0C7         	movff	log10f@ix+1,log10f@u+1
 13823  0030EC  C0D0  F0C8         	movff	log10f@ix+2,log10f@u+2
 13824  0030F0  C0D1  F0C9         	movff	log10f@ix+3,log10f@u+3
 13825                           
 13826                           ; BSR set to: 0
 13827  0030F4  C0C6  F04B         	movff	log10f@u,log10f@x
 13828  0030F8  C0C7  F04C         	movff	log10f@u+1,log10f@x+1
 13829  0030FC  C0C8  F04D         	movff	log10f@u+2,log10f@x+2
 13830  003100  C0C9  F04E         	movff	log10f@u+3,log10f@x+3
 13831                           
 13832                           ; BSR set to: 0
 13833  003104  C04B  F001         	movff	log10f@x,i2___fladd@b
 13834  003108  C04C  F002         	movff	log10f@x+1,i2___fladd@b+1
 13835  00310C  C04D  F003         	movff	log10f@x+2,i2___fladd@b+2
 13836  003110  C04E  F004         	movff	log10f@x+3,i2___fladd@b+3
 13837  003114  0E00               	movlw	0
 13838  003116  6E05               	movwf	i2___fladd@a^0,c
 13839  003118  0E00               	movlw	0
 13840  00311A  6E06               	movwf	(i2___fladd@a+1)^0,c
 13841  00311C  0E80               	movlw	128
 13842  00311E  6E07               	movwf	(i2___fladd@a+2)^0,c
 13843  003120  0EBF               	movlw	191
 13844  003122  6E08               	movwf	(i2___fladd@a+3)^0,c
 13845  003124  EC61  F022         	call	i2___fladd	;wreg free
 13846  003128  C001  F0CA         	movff	?i2___fladd,log10f@f
 13847  00312C  C002  F0CB         	movff	?i2___fladd+1,log10f@f+1
 13848  003130  C003  F0CC         	movff	?i2___fladd+2,log10f@f+2
 13849  003134  C004  F0CD         	movff	?i2___fladd+3,log10f@f+3
 13850  003138  C0CA  F032         	movff	log10f@f,i2___fldiv@b
 13851  00313C  C0CB  F033         	movff	log10f@f+1,i2___fldiv@b+1
 13852  003140  C0CC  F034         	movff	log10f@f+2,i2___fldiv@b+2
 13853  003144  C0CD  F035         	movff	log10f@f+3,i2___fldiv@b+3
 13854  003148  0E00               	movlw	0
 13855  00314A  6E05               	movwf	i2___fladd@a^0,c
 13856  00314C  0E00               	movlw	0
 13857  00314E  6E06               	movwf	(i2___fladd@a+1)^0,c
 13858  003150  0E00               	movlw	0
 13859  003152  6E07               	movwf	(i2___fladd@a+2)^0,c
 13860  003154  0E40               	movlw	64
 13861  003156  6E08               	movwf	(i2___fladd@a+3)^0,c
 13862  003158  C0CA  F001         	movff	log10f@f,i2___fladd@b
 13863  00315C  C0CB  F002         	movff	log10f@f+1,i2___fladd@b+1
 13864  003160  C0CC  F003         	movff	log10f@f+2,i2___fladd@b+2
 13865  003164  C0CD  F004         	movff	log10f@f+3,i2___fladd@b+3
 13866  003168  EC61  F022         	call	i2___fladd	;wreg free
 13867  00316C  C001  F036         	movff	?i2___fladd,i2___fldiv@a
 13868  003170  C002  F037         	movff	?i2___fladd+1,i2___fldiv@a+1
 13869  003174  C003  F038         	movff	?i2___fladd+2,i2___fldiv@a+2
 13870  003178  C004  F039         	movff	?i2___fladd+3,i2___fldiv@a+3
 13871  00317C  EC98  F026         	call	i2___fldiv	;wreg free
 13872  003180  C032  F0B2         	movff	?i2___fldiv,log10f@s
 13873  003184  C033  F0B3         	movff	?i2___fldiv+1,log10f@s+1
 13874  003188  C034  F0B4         	movff	?i2___fldiv+2,log10f@s+2
 13875  00318C  C035  F0B5         	movff	?i2___fldiv+3,log10f@s+3
 13876  003190  C0B2  F011         	movff	log10f@s,i2___flmul@b
 13877  003194  C0B3  F012         	movff	log10f@s+1,i2___flmul@b+1
 13878  003198  C0B4  F013         	movff	log10f@s+2,i2___flmul@b+2
 13879  00319C  C0B5  F014         	movff	log10f@s+3,i2___flmul@b+3
 13880  0031A0  C0B2  F015         	movff	log10f@s,i2___flmul@a
 13881  0031A4  C0B3  F016         	movff	log10f@s+1,i2___flmul@a+1
 13882  0031A8  C0B4  F017         	movff	log10f@s+2,i2___flmul@a+2
 13883  0031AC  C0B5  F018         	movff	log10f@s+3,i2___flmul@a+3
 13884  0031B0  EC31  F01F         	call	i2___flmul	;wreg free
 13885  0031B4  C011  F0B6         	movff	?i2___flmul,log10f@z
 13886  0031B8  C012  F0B7         	movff	?i2___flmul+1,log10f@z+1
 13887  0031BC  C013  F0B8         	movff	?i2___flmul+2,log10f@z+2
 13888  0031C0  C014  F0B9         	movff	?i2___flmul+3,log10f@z+3
 13889  0031C4  C0B6  F011         	movff	log10f@z,i2___flmul@b
 13890  0031C8  C0B7  F012         	movff	log10f@z+1,i2___flmul@b+1
 13891  0031CC  C0B8  F013         	movff	log10f@z+2,i2___flmul@b+2
 13892  0031D0  C0B9  F014         	movff	log10f@z+3,i2___flmul@b+3
 13893  0031D4  C0B6  F015         	movff	log10f@z,i2___flmul@a
 13894  0031D8  C0B7  F016         	movff	log10f@z+1,i2___flmul@a+1
 13895  0031DC  C0B8  F017         	movff	log10f@z+2,i2___flmul@a+2
 13896  0031E0  C0B9  F018         	movff	log10f@z+3,i2___flmul@a+3
 13897  0031E4  EC31  F01F         	call	i2___flmul	;wreg free
 13898  0031E8  C011  F0BA         	movff	?i2___flmul,log10f@w
 13899  0031EC  C012  F0BB         	movff	?i2___flmul+1,log10f@w+1
 13900  0031F0  C013  F0BC         	movff	?i2___flmul+2,log10f@w+2
 13901  0031F4  C014  F0BD         	movff	?i2___flmul+3,log10f@w+3
 13902  0031F8  0E13               	movlw	19
 13903  0031FA  6E05               	movwf	i2___fladd@a^0,c
 13904  0031FC  0ECE               	movlw	206
 13905  0031FE  6E06               	movwf	(i2___fladd@a+1)^0,c
 13906  003200  0ECC               	movlw	204
 13907  003202  6E07               	movwf	(i2___fladd@a+2)^0,c
 13908  003204  0E3E               	movlw	62
 13909  003206  6E08               	movwf	(i2___fladd@a+3)^0,c
 13910  003208  0E26               	movlw	38
 13911  00320A  6E15               	movwf	i2___flmul@a^0,c
 13912  00320C  0E9E               	movlw	158
 13913  00320E  6E16               	movwf	(i2___flmul@a+1)^0,c
 13914  003210  0E78               	movlw	120
 13915  003212  6E17               	movwf	(i2___flmul@a+2)^0,c
 13916  003214  0E3E               	movlw	62
 13917  003216  6E18               	movwf	(i2___flmul@a+3)^0,c
 13918  003218  C0BA  F011         	movff	log10f@w,i2___flmul@b
 13919  00321C  C0BB  F012         	movff	log10f@w+1,i2___flmul@b+1
 13920  003220  C0BC  F013         	movff	log10f@w+2,i2___flmul@b+2
 13921  003224  C0BD  F014         	movff	log10f@w+3,i2___flmul@b+3
 13922  003228  EC31  F01F         	call	i2___flmul	;wreg free
 13923  00322C  C011  F001         	movff	?i2___flmul,i2___fladd@b
 13924  003230  C012  F002         	movff	?i2___flmul+1,i2___fladd@b+1
 13925  003234  C013  F003         	movff	?i2___flmul+2,i2___fladd@b+2
 13926  003238  C014  F004         	movff	?i2___flmul+3,i2___fladd@b+3
 13927  00323C  EC61  F022         	call	i2___fladd	;wreg free
 13928  003240  C001  F0BE         	movff	?i2___fladd,_log10f$2094
 13929  003244  C002  F0BF         	movff	?i2___fladd+1,_log10f$2094+1
 13930  003248  C003  F0C0         	movff	?i2___fladd+2,_log10f$2094+2
 13931  00324C  C004  F0C1         	movff	?i2___fladd+3,_log10f$2094+3
 13932  003250  C0BE  F011         	movff	_log10f$2094,i2___flmul@b
 13933  003254  C0BF  F012         	movff	_log10f$2094+1,i2___flmul@b+1
 13934  003258  C0C0  F013         	movff	_log10f$2094+2,i2___flmul@b+2
 13935  00325C  C0C1  F014         	movff	_log10f$2094+3,i2___flmul@b+3
 13936  003260  C0BA  F015         	movff	log10f@w,i2___flmul@a
 13937  003264  C0BB  F016         	movff	log10f@w+1,i2___flmul@a+1
 13938  003268  C0BC  F017         	movff	log10f@w+2,i2___flmul@a+2
 13939  00326C  C0BD  F018         	movff	log10f@w+3,i2___flmul@a+3
 13940  003270  EC31  F01F         	call	i2___flmul	;wreg free
 13941  003274  C011  F084         	movff	?i2___flmul,log10f@t1
 13942  003278  C012  F085         	movff	?i2___flmul+1,log10f@t1+1
 13943  00327C  C013  F086         	movff	?i2___flmul+2,log10f@t1+2
 13944  003280  C014  F087         	movff	?i2___flmul+3,log10f@t1+3
 13945  003284  0EAA               	movlw	170
 13946  003286  6E05               	movwf	i2___fladd@a^0,c
 13947  003288  0EAA               	movlw	170
 13948  00328A  6E06               	movwf	(i2___fladd@a+1)^0,c
 13949  00328C  0E2A               	movlw	42
 13950  00328E  6E07               	movwf	(i2___fladd@a+2)^0,c
 13951  003290  0E3F               	movlw	63
 13952  003292  6E08               	movwf	(i2___fladd@a+3)^0,c
 13953  003294  0EEE               	movlw	238
 13954  003296  6E15               	movwf	i2___flmul@a^0,c
 13955  003298  0EE9               	movlw	233
 13956  00329A  6E16               	movwf	(i2___flmul@a+1)^0,c
 13957  00329C  0E91               	movlw	145
 13958  00329E  6E17               	movwf	(i2___flmul@a+2)^0,c
 13959  0032A0  0E3E               	movlw	62
 13960  0032A2  6E18               	movwf	(i2___flmul@a+3)^0,c
 13961  0032A4  C0BA  F011         	movff	log10f@w,i2___flmul@b
 13962  0032A8  C0BB  F012         	movff	log10f@w+1,i2___flmul@b+1
 13963  0032AC  C0BC  F013         	movff	log10f@w+2,i2___flmul@b+2
 13964  0032B0  C0BD  F014         	movff	log10f@w+3,i2___flmul@b+3
 13965  0032B4  EC31  F01F         	call	i2___flmul	;wreg free
 13966  0032B8  C011  F001         	movff	?i2___flmul,i2___fladd@b
 13967  0032BC  C012  F002         	movff	?i2___flmul+1,i2___fladd@b+1
 13968  0032C0  C013  F003         	movff	?i2___flmul+2,i2___fladd@b+2
 13969  0032C4  C014  F004         	movff	?i2___flmul+3,i2___fladd@b+3
 13970  0032C8  EC61  F022         	call	i2___fladd	;wreg free
 13971  0032CC  C001  F0BE         	movff	?i2___fladd,_log10f$2094
 13972  0032D0  C002  F0BF         	movff	?i2___fladd+1,_log10f$2094+1
 13973  0032D4  C003  F0C0         	movff	?i2___fladd+2,_log10f$2094+2
 13974  0032D8  C004  F0C1         	movff	?i2___fladd+3,_log10f$2094+3
 13975  0032DC  C0BE  F011         	movff	_log10f$2094,i2___flmul@b
 13976  0032E0  C0BF  F012         	movff	_log10f$2094+1,i2___flmul@b+1
 13977  0032E4  C0C0  F013         	movff	_log10f$2094+2,i2___flmul@b+2
 13978  0032E8  C0C1  F014         	movff	_log10f$2094+3,i2___flmul@b+3
 13979  0032EC  C0B6  F015         	movff	log10f@z,i2___flmul@a
 13980  0032F0  C0B7  F016         	movff	log10f@z+1,i2___flmul@a+1
 13981  0032F4  C0B8  F017         	movff	log10f@z+2,i2___flmul@a+2
 13982  0032F8  C0B9  F018         	movff	log10f@z+3,i2___flmul@a+3
 13983  0032FC  EC31  F01F         	call	i2___flmul	;wreg free
 13984  003300  C011  F088         	movff	?i2___flmul,log10f@t2
 13985  003304  C012  F089         	movff	?i2___flmul+1,log10f@t2+1
 13986  003308  C013  F08A         	movff	?i2___flmul+2,log10f@t2+2
 13987  00330C  C014  F08B         	movff	?i2___flmul+3,log10f@t2+3
 13988  003310  C088  F001         	movff	log10f@t2,i2___fladd@b
 13989  003314  C089  F002         	movff	log10f@t2+1,i2___fladd@b+1
 13990  003318  C08A  F003         	movff	log10f@t2+2,i2___fladd@b+2
 13991  00331C  C08B  F004         	movff	log10f@t2+3,i2___fladd@b+3
 13992  003320  C084  F005         	movff	log10f@t1,i2___fladd@a
 13993  003324  C085  F006         	movff	log10f@t1+1,i2___fladd@a+1
 13994  003328  C086  F007         	movff	log10f@t1+2,i2___fladd@a+2
 13995  00332C  C087  F008         	movff	log10f@t1+3,i2___fladd@a+3
 13996  003330  EC61  F022         	call	i2___fladd	;wreg free
 13997  003334  C001  F080         	movff	?i2___fladd,log10f@R
 13998  003338  C002  F081         	movff	?i2___fladd+1,log10f@R+1
 13999  00333C  C003  F082         	movff	?i2___fladd+2,log10f@R+2
 14000  003340  C004  F083         	movff	?i2___fladd+3,log10f@R+3
 14001  003344  0E00               	movlw	0
 14002  003346  6E15               	movwf	i2___flmul@a^0,c
 14003  003348  0E00               	movlw	0
 14004  00334A  6E16               	movwf	(i2___flmul@a+1)^0,c
 14005  00334C  0E00               	movlw	0
 14006  00334E  6E17               	movwf	(i2___flmul@a+2)^0,c
 14007  003350  0E3F               	movlw	63
 14008  003352  6E18               	movwf	(i2___flmul@a+3)^0,c
 14009  003354  C0CA  F011         	movff	log10f@f,i2___flmul@b
 14010  003358  C0CB  F012         	movff	log10f@f+1,i2___flmul@b+1
 14011  00335C  C0CC  F013         	movff	log10f@f+2,i2___flmul@b+2
 14012  003360  C0CD  F014         	movff	log10f@f+3,i2___flmul@b+3
 14013  003364  EC31  F01F         	call	i2___flmul	;wreg free
 14014  003368  C011  F0BE         	movff	?i2___flmul,_log10f$2094
 14015  00336C  C012  F0BF         	movff	?i2___flmul+1,_log10f$2094+1
 14016  003370  C013  F0C0         	movff	?i2___flmul+2,_log10f$2094+2
 14017  003374  C014  F0C1         	movff	?i2___flmul+3,_log10f$2094+3
 14018  003378  C0BE  F011         	movff	_log10f$2094,i2___flmul@b
 14019  00337C  C0BF  F012         	movff	_log10f$2094+1,i2___flmul@b+1
 14020  003380  C0C0  F013         	movff	_log10f$2094+2,i2___flmul@b+2
 14021  003384  C0C1  F014         	movff	_log10f$2094+3,i2___flmul@b+3
 14022  003388  C0CA  F015         	movff	log10f@f,i2___flmul@a
 14023  00338C  C0CB  F016         	movff	log10f@f+1,i2___flmul@a+1
 14024  003390  C0CC  F017         	movff	log10f@f+2,i2___flmul@a+2
 14025  003394  C0CD  F018         	movff	log10f@f+3,i2___flmul@a+3
 14026  003398  EC31  F01F         	call	i2___flmul	;wreg free
 14027  00339C  C011  F0AE         	movff	?i2___flmul,log10f@hfsq
 14028  0033A0  C012  F0AF         	movff	?i2___flmul+1,log10f@hfsq+1
 14029  0033A4  C013  F0B0         	movff	?i2___flmul+2,log10f@hfsq+2
 14030  0033A8  C014  F0B1         	movff	?i2___flmul+3,log10f@hfsq+3
 14031  0033AC  C0CA  F02A         	movff	log10f@f,___flsub@b
 14032  0033B0  C0CB  F02B         	movff	log10f@f+1,___flsub@b+1
 14033  0033B4  C0CC  F02C         	movff	log10f@f+2,___flsub@b+2
 14034  0033B8  C0CD  F02D         	movff	log10f@f+3,___flsub@b+3
 14035  0033BC  C0AE  F02E         	movff	log10f@hfsq,___flsub@a
 14036  0033C0  C0AF  F02F         	movff	log10f@hfsq+1,___flsub@a+1
 14037  0033C4  C0B0  F030         	movff	log10f@hfsq+2,___flsub@a+2
 14038  0033C8  C0B1  F031         	movff	log10f@hfsq+3,___flsub@a+3
 14039  0033CC  ECA5  F034         	call	___flsub	;wreg free
 14040  0033D0  C02A  F0C2         	movff	?___flsub,log10f@hi
 14041  0033D4  C02B  F0C3         	movff	?___flsub+1,log10f@hi+1
 14042  0033D8  C02C  F0C4         	movff	?___flsub+2,log10f@hi+2
 14043  0033DC  C02D  F0C5         	movff	?___flsub+3,log10f@hi+3
 14044  0033E0  C0C2  F0C6         	movff	log10f@hi,log10f@u
 14045  0033E4  C0C3  F0C7         	movff	log10f@hi+1,log10f@u+1
 14046  0033E8  C0C4  F0C8         	movff	log10f@hi+2,log10f@u+2
 14047  0033EC  C0C5  F0C9         	movff	log10f@hi+3,log10f@u+3
 14048  0033F0  0E00               	movlw	0
 14049  0033F2  0100               	movlb	0	; () banked
 14050  0033F4  17C6               	andwf	log10f@u& (0+255),f,b
 14051  0033F6  0EF0               	movlw	240
 14052  0033F8  17C7               	andwf	(log10f@u+1)& (0+255),f,b
 14053  0033FA  0EFF               	movlw	255
 14054  0033FC  17C8               	andwf	(log10f@u+2)& (0+255),f,b
 14055  0033FE  0EFF               	movlw	255
 14056  003400  17C9               	andwf	(log10f@u+3)& (0+255),f,b
 14057                           
 14058                           ; BSR set to: 0
 14059  003402  C0C6  F0C2         	movff	log10f@u,log10f@hi
 14060  003406  C0C7  F0C3         	movff	log10f@u+1,log10f@hi+1
 14061  00340A  C0C8  F0C4         	movff	log10f@u+2,log10f@hi+2
 14062  00340E  C0C9  F0C5         	movff	log10f@u+3,log10f@hi+3
 14063                           
 14064                           ; BSR set to: 0
 14065  003412  C0C2  F02E         	movff	log10f@hi,___flsub@a
 14066  003416  C0C3  F02F         	movff	log10f@hi+1,___flsub@a+1
 14067  00341A  C0C4  F030         	movff	log10f@hi+2,___flsub@a+2
 14068  00341E  C0C5  F031         	movff	log10f@hi+3,___flsub@a+3
 14069  003422  C0CA  F02A         	movff	log10f@f,___flsub@b
 14070  003426  C0CB  F02B         	movff	log10f@f+1,___flsub@b+1
 14071  00342A  C0CC  F02C         	movff	log10f@f+2,___flsub@b+2
 14072  00342E  C0CD  F02D         	movff	log10f@f+3,___flsub@b+3
 14073  003432  ECA5  F034         	call	___flsub	;wreg free
 14074  003436  C02A  F08C         	movff	?___flsub,_log10f$1961
 14075  00343A  C02B  F08D         	movff	?___flsub+1,_log10f$1961+1
 14076  00343E  C02C  F08E         	movff	?___flsub+2,_log10f$1961+2
 14077  003442  C02D  F08F         	movff	?___flsub+3,_log10f$1961+3
 14078  003446  C0AE  F02E         	movff	log10f@hfsq,___flsub@a
 14079  00344A  C0AF  F02F         	movff	log10f@hfsq+1,___flsub@a+1
 14080  00344E  C0B0  F030         	movff	log10f@hfsq+2,___flsub@a+2
 14081  003452  C0B1  F031         	movff	log10f@hfsq+3,___flsub@a+3
 14082  003456  C08C  F02A         	movff	_log10f$1961,___flsub@b
 14083  00345A  C08D  F02B         	movff	_log10f$1961+1,___flsub@b+1
 14084  00345E  C08E  F02C         	movff	_log10f$1961+2,___flsub@b+2
 14085  003462  C08F  F02D         	movff	_log10f$1961+3,___flsub@b+3
 14086  003466  ECA5  F034         	call	___flsub	;wreg free
 14087  00346A  C02A  F090         	movff	?___flsub,_log10f$2095
 14088  00346E  C02B  F091         	movff	?___flsub+1,_log10f$2095+1
 14089  003472  C02C  F092         	movff	?___flsub+2,_log10f$2095+2
 14090  003476  C02D  F093         	movff	?___flsub+3,_log10f$2095+3
 14091  00347A  C0B2  F015         	movff	log10f@s,i2___flmul@a
 14092  00347E  C0B3  F016         	movff	log10f@s+1,i2___flmul@a+1
 14093  003482  C0B4  F017         	movff	log10f@s+2,i2___flmul@a+2
 14094  003486  C0B5  F018         	movff	log10f@s+3,i2___flmul@a+3
 14095  00348A  C080  F005         	movff	log10f@R,i2___fladd@a
 14096  00348E  C081  F006         	movff	log10f@R+1,i2___fladd@a+1
 14097  003492  C082  F007         	movff	log10f@R+2,i2___fladd@a+2
 14098  003496  C083  F008         	movff	log10f@R+3,i2___fladd@a+3
 14099  00349A  C0AE  F001         	movff	log10f@hfsq,i2___fladd@b
 14100  00349E  C0AF  F002         	movff	log10f@hfsq+1,i2___fladd@b+1
 14101  0034A2  C0B0  F003         	movff	log10f@hfsq+2,i2___fladd@b+2
 14102  0034A6  C0B1  F004         	movff	log10f@hfsq+3,i2___fladd@b+3
 14103  0034AA  EC61  F022         	call	i2___fladd	;wreg free
 14104  0034AE  C001  F011         	movff	?i2___fladd,i2___flmul@b
 14105  0034B2  C002  F012         	movff	?i2___fladd+1,i2___flmul@b+1
 14106  0034B6  C003  F013         	movff	?i2___fladd+2,i2___flmul@b+2
 14107  0034BA  C004  F014         	movff	?i2___fladd+3,i2___flmul@b+3
 14108  0034BE  EC31  F01F         	call	i2___flmul	;wreg free
 14109  0034C2  C011  F0AA         	movff	?i2___flmul,_log10f$2096
 14110  0034C6  C012  F0AB         	movff	?i2___flmul+1,_log10f$2096+1
 14111  0034CA  C013  F0AC         	movff	?i2___flmul+2,_log10f$2096+2
 14112  0034CE  C014  F0AD         	movff	?i2___flmul+3,_log10f$2096+3
 14113  0034D2  C090  F001         	movff	_log10f$2095,i2___fladd@b
 14114  0034D6  C091  F002         	movff	_log10f$2095+1,i2___fladd@b+1
 14115  0034DA  C092  F003         	movff	_log10f$2095+2,i2___fladd@b+2
 14116  0034DE  C093  F004         	movff	_log10f$2095+3,i2___fladd@b+3
 14117  0034E2  C0AA  F005         	movff	_log10f$2096,i2___fladd@a
 14118  0034E6  C0AB  F006         	movff	_log10f$2096+1,i2___fladd@a+1
 14119  0034EA  C0AC  F007         	movff	_log10f$2096+2,i2___fladd@a+2
 14120  0034EE  C0AD  F008         	movff	_log10f$2096+3,i2___fladd@a+3
 14121  0034F2  EC61  F022         	call	i2___fladd	;wreg free
 14122  0034F6  C001  F0A6         	movff	?i2___fladd,log10f@lo
 14123  0034FA  C002  F0A7         	movff	?i2___fladd+1,log10f@lo+1
 14124  0034FE  C003  F0A8         	movff	?i2___fladd+2,log10f@lo+2
 14125  003502  C004  F0A9         	movff	?i2___fladd+3,log10f@lo+3
 14126  003506  C0A0  F001         	movff	log10f@k,i2___xxtofl@val
 14127  00350A  C0A1  F002         	movff	log10f@k+1,i2___xxtofl@val+1
 14128  00350E  0E00               	movlw	0
 14129  003510  BE02               	btfsc	(i2___xxtofl@val+1)^0,7,c
 14130  003512  0EFF               	movlw	-1
 14131  003514  6E03               	movwf	(i2___xxtofl@val+2)^0,c
 14132  003516  6E04               	movwf	(i2___xxtofl@val+3)^0,c
 14133  003518  0E01               	movlw	1
 14134  00351A  ECB9  F02F         	call	i2___xxtofl
 14135  00351E  C001  F0A2         	movff	?i2___xxtofl,log10f@dk
 14136  003522  C002  F0A3         	movff	?i2___xxtofl+1,log10f@dk+1
 14137  003526  C003  F0A4         	movff	?i2___xxtofl+2,log10f@dk+2
 14138  00352A  C004  F0A5         	movff	?i2___xxtofl+3,log10f@dk+3
 14139  00352E  0ED9               	movlw	217
 14140  003530  6E15               	movwf	i2___flmul@a^0,c
 14141  003532  0EEA               	movlw	234
 14142  003534  6E16               	movwf	(i2___flmul@a+1)^0,c
 14143  003536  0E04               	movlw	4
 14144  003538  6E17               	movwf	(i2___flmul@a+2)^0,c
 14145  00353A  0EB8               	movlw	184
 14146  00353C  6E18               	movwf	(i2___flmul@a+3)^0,c
 14147  00353E  C0C2  F005         	movff	log10f@hi,i2___fladd@a
 14148  003542  C0C3  F006         	movff	log10f@hi+1,i2___fladd@a+1
 14149  003546  C0C4  F007         	movff	log10f@hi+2,i2___fladd@a+2
 14150  00354A  C0C5  F008         	movff	log10f@hi+3,i2___fladd@a+3
 14151  00354E  C0A6  F001         	movff	log10f@lo,i2___fladd@b
 14152  003552  C0A7  F002         	movff	log10f@lo+1,i2___fladd@b+1
 14153  003556  C0A8  F003         	movff	log10f@lo+2,i2___fladd@b+2
 14154  00355A  C0A9  F004         	movff	log10f@lo+3,i2___fladd@b+3
 14155  00355E  EC61  F022         	call	i2___fladd	;wreg free
 14156  003562  C001  F011         	movff	?i2___fladd,i2___flmul@b
 14157  003566  C002  F012         	movff	?i2___fladd+1,i2___flmul@b+1
 14158  00356A  C003  F013         	movff	?i2___fladd+2,i2___flmul@b+2
 14159  00356E  C004  F014         	movff	?i2___fladd+3,i2___flmul@b+3
 14160  003572  EC31  F01F         	call	i2___flmul	;wreg free
 14161  003576  C011  F094         	movff	?i2___flmul,_log10f$2097
 14162  00357A  C012  F095         	movff	?i2___flmul+1,_log10f$2097+1
 14163  00357E  C013  F096         	movff	?i2___flmul+2,_log10f$2097+2
 14164  003582  C014  F097         	movff	?i2___flmul+3,_log10f$2097+3
 14165  003586  C094  F005         	movff	_log10f$2097,i2___fladd@a
 14166  00358A  C095  F006         	movff	_log10f$2097+1,i2___fladd@a+1
 14167  00358E  C096  F007         	movff	_log10f$2097+2,i2___fladd@a+2
 14168  003592  C097  F008         	movff	_log10f$2097+3,i2___fladd@a+3
 14169  003596  0EDB               	movlw	219
 14170  003598  6E15               	movwf	i2___flmul@a^0,c
 14171  00359A  0E27               	movlw	39
 14172  00359C  6E16               	movwf	(i2___flmul@a+1)^0,c
 14173  00359E  0E54               	movlw	84
 14174  0035A0  6E17               	movwf	(i2___flmul@a+2)^0,c
 14175  0035A2  0E35               	movlw	53
 14176  0035A4  6E18               	movwf	(i2___flmul@a+3)^0,c
 14177  0035A6  C0A2  F011         	movff	log10f@dk,i2___flmul@b
 14178  0035AA  C0A3  F012         	movff	log10f@dk+1,i2___flmul@b+1
 14179  0035AE  C0A4  F013         	movff	log10f@dk+2,i2___flmul@b+2
 14180  0035B2  C0A5  F014         	movff	log10f@dk+3,i2___flmul@b+3
 14181  0035B6  EC31  F01F         	call	i2___flmul	;wreg free
 14182  0035BA  C011  F001         	movff	?i2___flmul,i2___fladd@b
 14183  0035BE  C012  F002         	movff	?i2___flmul+1,i2___fladd@b+1
 14184  0035C2  C013  F003         	movff	?i2___flmul+2,i2___fladd@b+2
 14185  0035C6  C014  F004         	movff	?i2___flmul+3,i2___fladd@b+3
 14186  0035CA  EC61  F022         	call	i2___fladd	;wreg free
 14187  0035CE  C001  F098         	movff	?i2___fladd,_log10f$2098
 14188  0035D2  C002  F099         	movff	?i2___fladd+1,_log10f$2098+1
 14189  0035D6  C003  F09A         	movff	?i2___fladd+2,_log10f$2098+2
 14190  0035DA  C004  F09B         	movff	?i2___fladd+3,_log10f$2098+3
 14191  0035DE  0E00               	movlw	0
 14192  0035E0  6E15               	movwf	i2___flmul@a^0,c
 14193  0035E2  0E60               	movlw	96
 14194  0035E4  6E16               	movwf	(i2___flmul@a+1)^0,c
 14195  0035E6  0EDE               	movlw	222
 14196  0035E8  6E17               	movwf	(i2___flmul@a+2)^0,c
 14197  0035EA  0E3E               	movlw	62
 14198  0035EC  6E18               	movwf	(i2___flmul@a+3)^0,c
 14199  0035EE  C0A6  F011         	movff	log10f@lo,i2___flmul@b
 14200  0035F2  C0A7  F012         	movff	log10f@lo+1,i2___flmul@b+1
 14201  0035F6  C0A8  F013         	movff	log10f@lo+2,i2___flmul@b+2
 14202  0035FA  C0A9  F014         	movff	log10f@lo+3,i2___flmul@b+3
 14203  0035FE  EC31  F01F         	call	i2___flmul	;wreg free
 14204  003602  C011  F005         	movff	?i2___flmul,i2___fladd@a
 14205  003606  C012  F006         	movff	?i2___flmul+1,i2___fladd@a+1
 14206  00360A  C013  F007         	movff	?i2___flmul+2,i2___fladd@a+2
 14207  00360E  C014  F008         	movff	?i2___flmul+3,i2___fladd@a+3
 14208  003612  C098  F001         	movff	_log10f$2098,i2___fladd@b
 14209  003616  C099  F002         	movff	_log10f$2098+1,i2___fladd@b+1
 14210  00361A  C09A  F003         	movff	_log10f$2098+2,i2___fladd@b+2
 14211  00361E  C09B  F004         	movff	_log10f$2098+3,i2___fladd@b+3
 14212  003622  EC61  F022         	call	i2___fladd	;wreg free
 14213  003626  C001  F0AA         	movff	?i2___fladd,_log10f$2096
 14214  00362A  C002  F0AB         	movff	?i2___fladd+1,_log10f$2096+1
 14215  00362E  C003  F0AC         	movff	?i2___fladd+2,_log10f$2096+2
 14216  003632  C004  F0AD         	movff	?i2___fladd+3,_log10f$2096+3
 14217  003636  0E00               	movlw	0
 14218  003638  6E15               	movwf	i2___flmul@a^0,c
 14219  00363A  0E60               	movlw	96
 14220  00363C  6E16               	movwf	(i2___flmul@a+1)^0,c
 14221  00363E  0EDE               	movlw	222
 14222  003640  6E17               	movwf	(i2___flmul@a+2)^0,c
 14223  003642  0E3E               	movlw	62
 14224  003644  6E18               	movwf	(i2___flmul@a+3)^0,c
 14225  003646  C0C2  F011         	movff	log10f@hi,i2___flmul@b
 14226  00364A  C0C3  F012         	movff	log10f@hi+1,i2___flmul@b+1
 14227  00364E  C0C4  F013         	movff	log10f@hi+2,i2___flmul@b+2
 14228  003652  C0C5  F014         	movff	log10f@hi+3,i2___flmul@b+3
 14229  003656  EC31  F01F         	call	i2___flmul	;wreg free
 14230  00365A  C011  F005         	movff	?i2___flmul,i2___fladd@a
 14231  00365E  C012  F006         	movff	?i2___flmul+1,i2___fladd@a+1
 14232  003662  C013  F007         	movff	?i2___flmul+2,i2___fladd@a+2
 14233  003666  C014  F008         	movff	?i2___flmul+3,i2___fladd@a+3
 14234  00366A  C0AA  F001         	movff	_log10f$2096,i2___fladd@b
 14235  00366E  C0AB  F002         	movff	_log10f$2096+1,i2___fladd@b+1
 14236  003672  C0AC  F003         	movff	_log10f$2096+2,i2___fladd@b+2
 14237  003676  C0AD  F004         	movff	_log10f$2096+3,i2___fladd@b+3
 14238  00367A  EC61  F022         	call	i2___fladd	;wreg free
 14239  00367E  C001  F09C         	movff	?i2___fladd,_log10f$2099
 14240  003682  C002  F09D         	movff	?i2___fladd+1,_log10f$2099+1
 14241  003686  C003  F09E         	movff	?i2___fladd+2,_log10f$2099+2
 14242  00368A  C004  F09F         	movff	?i2___fladd+3,_log10f$2099+3
 14243  00368E  C09C  F001         	movff	_log10f$2099,i2___fladd@b
 14244  003692  C09D  F002         	movff	_log10f$2099+1,i2___fladd@b+1
 14245  003696  C09E  F003         	movff	_log10f$2099+2,i2___fladd@b+2
 14246  00369A  C09F  F004         	movff	_log10f$2099+3,i2___fladd@b+3
 14247  00369E  0E80               	movlw	128
 14248  0036A0  6E15               	movwf	i2___flmul@a^0,c
 14249  0036A2  0E20               	movlw	32
 14250  0036A4  6E16               	movwf	(i2___flmul@a+1)^0,c
 14251  0036A6  0E9A               	movlw	154
 14252  0036A8  6E17               	movwf	(i2___flmul@a+2)^0,c
 14253  0036AA  0E3E               	movlw	62
 14254  0036AC  6E18               	movwf	(i2___flmul@a+3)^0,c
 14255  0036AE  C0A2  F011         	movff	log10f@dk,i2___flmul@b
 14256  0036B2  C0A3  F012         	movff	log10f@dk+1,i2___flmul@b+1
 14257  0036B6  C0A4  F013         	movff	log10f@dk+2,i2___flmul@b+2
 14258  0036BA  C0A5  F014         	movff	log10f@dk+3,i2___flmul@b+3
 14259  0036BE  EC31  F01F         	call	i2___flmul	;wreg free
 14260  0036C2  C011  F005         	movff	?i2___flmul,i2___fladd@a
 14261  0036C6  C012  F006         	movff	?i2___flmul+1,i2___fladd@a+1
 14262  0036CA  C013  F007         	movff	?i2___flmul+2,i2___fladd@a+2
 14263  0036CE  C014  F008         	movff	?i2___flmul+3,i2___fladd@a+3
 14264  0036D2  EC61  F022         	call	i2___fladd	;wreg free
 14265  0036D6  C001  F04B         	movff	?i2___fladd,?_log10f
 14266  0036DA  C002  F04C         	movff	?i2___fladd+1,?_log10f+1
 14267  0036DE  C003  F04D         	movff	?i2___fladd+2,?_log10f+2
 14268  0036E2  C004  F04E         	movff	?i2___fladd+3,?_log10f+3
 14269  0036E6  0012               	return		;funcret
 14270  0036E8                     __end_of_log10f:
 14271                           	opt callstack 0
 14272                           
 14273 ;; *************** function i2___xxtofl *****************
 14274 ;; Defined at:
 14275 ;;		line 10 in file "C:\Program Files (x86)\Microchip\xc8\v2.10\pic\sources\c99\common\xxtofl.c"
 14276 ;; Parameters:    Size  Location     Type
 14277 ;;  sign            1    wreg     unsigned char 
 14278 ;;  val             4    0[COMRAM] long 
 14279 ;; Auto vars:     Size  Location     Type
 14280 ;;  sign            1    8[COMRAM] unsigned char 
 14281 ;;  __xxtofl        4   10[COMRAM] unsigned long 
 14282 ;;  __xxtofl        1    9[COMRAM] unsigned char 
 14283 ;; Return value:  Size  Location     Type
 14284 ;;                  4    0[COMRAM] unsigned char 
 14285 ;; Registers used:
 14286 ;;		wreg, status,2, status,0
 14287 ;; Tracked objects:
 14288 ;;		On entry : 0/0
 14289 ;;		On exit  : 0/0
 14290 ;;		Unchanged: 0/0
 14291 ;; Data sizes:     COMRAM   BANK0   BANK1   BANK2   BANK3   BANK4   BANK5
 14292 ;;      Params:         4       0       0       0       0       0       0
 14293 ;;      Locals:         6       0       0       0       0       0       0
 14294 ;;      Temps:          4       0       0       0       0       0       0
 14295 ;;      Totals:        14       0       0       0       0       0       0
 14296 ;;Total ram usage:       14 bytes
 14297 ;; Hardware stack levels used:    1
 14298 ;; This function calls:
 14299 ;;		Nothing
 14300 ;; This function is called by:
 14301 ;;		_MQGetGasPercentage
 14302 ;;		_MQ_Read
 14303 ;;		_log10f
 14304 ;;		_powf
 14305 ;; This function uses a non-reentrant model
 14306 ;;
 14307                           
 14308                           	psect	text52
 14309  005F72                     __ptext52:
 14310                           	opt callstack 0
 14311  005F72                     i2___xxtofl:
 14312                           	opt callstack 24
 14313                           
 14314                           ;incstack = 0
 14315                           ;i2___xxtofl@sign stored from wreg
 14316  005F72  6E09               	movwf	i2___xxtofl@sign^0,c
 14317  005F74  5009               	movf	i2___xxtofl@sign^0,w,c
 14318  005F76  A4D8               	btfss	status,2,c
 14319  005F78  AE04               	btfss	(i2___xxtofl@val+3)^0,7,c
 14320  005F7A  D01A               	goto	i2l995
 14321  005F7C  C001  F005         	movff	i2___xxtofl@val,??i2___xxtofl
 14322  005F80  C002  F006         	movff	i2___xxtofl@val+1,??i2___xxtofl+1
 14323  005F84  C003  F007         	movff	i2___xxtofl@val+2,??i2___xxtofl+2
 14324  005F88  C004  F008         	movff	i2___xxtofl@val+3,??i2___xxtofl+3
 14325  005F8C  1E05               	comf	??i2___xxtofl^0,f,c
 14326  005F8E  1E06               	comf	(??i2___xxtofl+1)^0,f,c
 14327  005F90  1E07               	comf	(??i2___xxtofl+2)^0,f,c
 14328  005F92  1E08               	comf	(??i2___xxtofl+3)^0,f,c
 14329  005F94  2A05               	incf	??i2___xxtofl^0,f,c
 14330  005F96  0E00               	movlw	0
 14331  005F98  2206               	addwfc	(??i2___xxtofl+1)^0,f,c
 14332  005F9A  2207               	addwfc	(??i2___xxtofl+2)^0,f,c
 14333  005F9C  2208               	addwfc	(??i2___xxtofl+3)^0,f,c
 14334  005F9E  C005  F00B         	movff	??i2___xxtofl,i2___xxtofl@arg
 14335  005FA2  C006  F00C         	movff	??i2___xxtofl+1,i2___xxtofl@arg+1
 14336  005FA6  C007  F00D         	movff	??i2___xxtofl+2,i2___xxtofl@arg+2
 14337  005FAA  C008  F00E         	movff	??i2___xxtofl+3,i2___xxtofl@arg+3
 14338  005FAE  D008               	goto	i2l4676
 14339  005FB0                     i2l995:
 14340  005FB0  C001  F00B         	movff	i2___xxtofl@val,i2___xxtofl@arg
 14341  005FB4  C002  F00C         	movff	i2___xxtofl@val+1,i2___xxtofl@arg+1
 14342  005FB8  C003  F00D         	movff	i2___xxtofl@val+2,i2___xxtofl@arg+2
 14343  005FBC  C004  F00E         	movff	i2___xxtofl@val+3,i2___xxtofl@arg+3
 14344  005FC0                     i2l4676:
 14345  005FC0  5001               	movf	i2___xxtofl@val^0,w,c
 14346  005FC2  1002               	iorwf	(i2___xxtofl@val+1)^0,w,c
 14347  005FC4  1003               	iorwf	(i2___xxtofl@val+2)^0,w,c
 14348  005FC6  1004               	iorwf	(i2___xxtofl@val+3)^0,w,c
 14349  005FC8  A4D8               	btfss	status,2,c
 14350  005FCA  D009               	goto	i2l4682
 14351  005FCC  0E00               	movlw	0
 14352  005FCE  6E01               	movwf	?i2___xxtofl^0,c
 14353  005FD0  0E00               	movlw	0
 14354  005FD2  6E02               	movwf	(?i2___xxtofl+1)^0,c
 14355  005FD4  0E00               	movlw	0
 14356  005FD6  6E03               	movwf	(?i2___xxtofl+2)^0,c
 14357  005FD8  0E00               	movlw	0
 14358  005FDA  6E04               	movwf	(?i2___xxtofl+3)^0,c
 14359  005FDC  0012               	return	
 14360  005FDE                     i2l4682:
 14361  005FDE  0E96               	movlw	150
 14362  005FE0  6E0A               	movwf	i2___xxtofl@exp^0,c
 14363  005FE2  D006               	goto	i2l4686
 14364  005FE4                     i2l4684:
 14365  005FE4  2A0A               	incf	i2___xxtofl@exp^0,f,c
 14366  005FE6  90D8               	bcf	status,0,c
 14367  005FE8  320E               	rrcf	(i2___xxtofl@arg+3)^0,f,c
 14368  005FEA  320D               	rrcf	(i2___xxtofl@arg+2)^0,f,c
 14369  005FEC  320C               	rrcf	(i2___xxtofl@arg+1)^0,f,c
 14370  005FEE  320B               	rrcf	i2___xxtofl@arg^0,f,c
 14371  005FF0                     i2l4686:
 14372  005FF0  0E00               	movlw	0
 14373  005FF2  140B               	andwf	i2___xxtofl@arg^0,w,c
 14374  005FF4  6E05               	movwf	??i2___xxtofl^0,c
 14375  005FF6  0E00               	movlw	0
 14376  005FF8  140C               	andwf	(i2___xxtofl@arg+1)^0,w,c
 14377  005FFA  6E06               	movwf	(??i2___xxtofl+1)^0,c
 14378  005FFC  0E00               	movlw	0
 14379  005FFE  140D               	andwf	(i2___xxtofl@arg+2)^0,w,c
 14380  006000  6E07               	movwf	(??i2___xxtofl+2)^0,c
 14381  006002  0EFE               	movlw	254
 14382  006004  140E               	andwf	(i2___xxtofl@arg+3)^0,w,c
 14383  006006  6E08               	movwf	(??i2___xxtofl+3)^0,c
 14384  006008  5005               	movf	??i2___xxtofl^0,w,c
 14385  00600A  1006               	iorwf	(??i2___xxtofl+1)^0,w,c
 14386  00600C  1007               	iorwf	(??i2___xxtofl+2)^0,w,c
 14387  00600E  1008               	iorwf	(??i2___xxtofl+3)^0,w,c
 14388  006010  B4D8               	btfsc	status,2,c
 14389  006012  D00D               	goto	i2l1002
 14390  006014  D7E7               	goto	i2l4684
 14391  006016                     i2l4688:
 14392  006016  2A0A               	incf	i2___xxtofl@exp^0,f,c
 14393  006018  0E01               	movlw	1
 14394  00601A  260B               	addwf	i2___xxtofl@arg^0,f,c
 14395  00601C  0E00               	movlw	0
 14396  00601E  220C               	addwfc	(i2___xxtofl@arg+1)^0,f,c
 14397  006020  220D               	addwfc	(i2___xxtofl@arg+2)^0,f,c
 14398  006022  220E               	addwfc	(i2___xxtofl@arg+3)^0,f,c
 14399  006024  90D8               	bcf	status,0,c
 14400  006026  320E               	rrcf	(i2___xxtofl@arg+3)^0,f,c
 14401  006028  320D               	rrcf	(i2___xxtofl@arg+2)^0,f,c
 14402  00602A  320C               	rrcf	(i2___xxtofl@arg+1)^0,f,c
 14403  00602C  320B               	rrcf	i2___xxtofl@arg^0,f,c
 14404  00602E                     i2l1002:
 14405  00602E  0E00               	movlw	0
 14406  006030  140B               	andwf	i2___xxtofl@arg^0,w,c
 14407  006032  6E05               	movwf	??i2___xxtofl^0,c
 14408  006034  0E00               	movlw	0
 14409  006036  140C               	andwf	(i2___xxtofl@arg+1)^0,w,c
 14410  006038  6E06               	movwf	(??i2___xxtofl+1)^0,c
 14411  00603A  0E00               	movlw	0
 14412  00603C  140D               	andwf	(i2___xxtofl@arg+2)^0,w,c
 14413  00603E  6E07               	movwf	(??i2___xxtofl+2)^0,c
 14414  006040  0EFF               	movlw	255
 14415  006042  140E               	andwf	(i2___xxtofl@arg+3)^0,w,c
 14416  006044  6E08               	movwf	(??i2___xxtofl+3)^0,c
 14417  006046  5005               	movf	??i2___xxtofl^0,w,c
 14418  006048  1006               	iorwf	(??i2___xxtofl+1)^0,w,c
 14419  00604A  1007               	iorwf	(??i2___xxtofl+2)^0,w,c
 14420  00604C  1008               	iorwf	(??i2___xxtofl+3)^0,w,c
 14421  00604E  B4D8               	btfsc	status,2,c
 14422  006050  D007               	goto	i2l4696
 14423  006052  D7E1               	goto	i2l4688
 14424  006054                     i2l4694:
 14425  006054  060A               	decf	i2___xxtofl@exp^0,f,c
 14426  006056  90D8               	bcf	status,0,c
 14427  006058  360B               	rlcf	i2___xxtofl@arg^0,f,c
 14428  00605A  360C               	rlcf	(i2___xxtofl@arg+1)^0,f,c
 14429  00605C  360D               	rlcf	(i2___xxtofl@arg+2)^0,f,c
 14430  00605E  360E               	rlcf	(i2___xxtofl@arg+3)^0,f,c
 14431  006060                     i2l4696:
 14432  006060  BE0D               	btfsc	(i2___xxtofl@arg+2)^0,7,c
 14433  006062  D003               	goto	i2u520_40
 14434  006064  0E02               	movlw	2
 14435  006066  600A               	cpfslt	i2___xxtofl@exp^0,c
 14436  006068  D7F5               	goto	i2l4694
 14437  00606A                     i2u520_40:
 14438  00606A  A00A               	btfss	i2___xxtofl@exp^0,0,c
 14439  00606C  9E0D               	bcf	(i2___xxtofl@arg+2)^0,7,c
 14440  00606E  90D8               	bcf	status,0,c
 14441  006070  320A               	rrcf	i2___xxtofl@exp^0,f,c
 14442  006072  C00A  F005         	movff	i2___xxtofl@exp,??i2___xxtofl
 14443  006076  6A06               	clrf	(??i2___xxtofl+1)^0,c
 14444  006078  6A07               	clrf	(??i2___xxtofl+2)^0,c
 14445  00607A  6A08               	clrf	(??i2___xxtofl+3)^0,c
 14446  00607C  C005  F008         	movff	??i2___xxtofl,??i2___xxtofl+3
 14447  006080  6A07               	clrf	(??i2___xxtofl+2)^0,c
 14448  006082  6A06               	clrf	(??i2___xxtofl+1)^0,c
 14449  006084  6A05               	clrf	??i2___xxtofl^0,c
 14450  006086  5005               	movf	??i2___xxtofl^0,w,c
 14451  006088  120B               	iorwf	i2___xxtofl@arg^0,f,c
 14452  00608A  5006               	movf	(??i2___xxtofl+1)^0,w,c
 14453  00608C  120C               	iorwf	(i2___xxtofl@arg+1)^0,f,c
 14454  00608E  5007               	movf	(??i2___xxtofl+2)^0,w,c
 14455  006090  120D               	iorwf	(i2___xxtofl@arg+2)^0,f,c
 14456  006092  5008               	movf	(??i2___xxtofl+3)^0,w,c
 14457  006094  120E               	iorwf	(i2___xxtofl@arg+3)^0,f,c
 14458  006096  5009               	movf	i2___xxtofl@sign^0,w,c
 14459  006098  A4D8               	btfss	status,2,c
 14460  00609A  AE04               	btfss	(i2___xxtofl@val+3)^0,7,c
 14461  00609C  D001               	goto	i2l4712
 14462  00609E  8E0E               	bsf	(i2___xxtofl@arg+3)^0,7,c
 14463  0060A0                     i2l4712:
 14464  0060A0  C00B  F001         	movff	i2___xxtofl@arg,?i2___xxtofl
 14465  0060A4  C00C  F002         	movff	i2___xxtofl@arg+1,?i2___xxtofl+1
 14466  0060A8  C00D  F003         	movff	i2___xxtofl@arg+2,?i2___xxtofl+2
 14467  0060AC  C00E  F004         	movff	i2___xxtofl@arg+3,?i2___xxtofl+3
 14468  0060B0  0012               	return		;funcret
 14469  0060B2                     __end_ofi2___xxtofl:
 14470                           	opt callstack 0
 14471                           
 14472 ;; *************** function i2___flmul *****************
 14473 ;; Defined at:
 14474 ;;		line 8 in file "C:\Program Files (x86)\Microchip\xc8\v2.10\pic\sources\c99\common\sprcmul.c"
 14475 ;; Parameters:    Size  Location     Type
 14476 ;;  b               4   16[COMRAM] unsigned char 
 14477 ;;  a               4   20[COMRAM] unsigned char 
 14478 ;; Auto vars:     Size  Location     Type
 14479 ;;  __flmul         4   35[COMRAM] struct .
 14480 ;;  __flmul         4   29[COMRAM] unsigned long 
 14481 ;;  __flmul         2   39[COMRAM] struct .
 14482 ;;  __flmul         1   34[COMRAM] unsigned char 
 14483 ;;  __flmul         1   33[COMRAM] unsigned char 
 14484 ;;  __flmul         1   28[COMRAM] unsigned char 
 14485 ;; Return value:  Size  Location     Type
 14486 ;;                  4   16[COMRAM] unsigned char 
 14487 ;; Registers used:
 14488 ;;		wreg, status,2, status,0, prodl, prodh
 14489 ;; Tracked objects:
 14490 ;;		On entry : 0/0
 14491 ;;		On exit  : 0/0
 14492 ;;		Unchanged: 0/0
 14493 ;; Data sizes:     COMRAM   BANK0   BANK1   BANK2   BANK3   BANK4   BANK5
 14494 ;;      Params:         8       0       0       0       0       0       0
 14495 ;;      Locals:        13       0       0       0       0       0       0
 14496 ;;      Temps:          4       0       0       0       0       0       0
 14497 ;;      Totals:        25       0       0       0       0       0       0
 14498 ;;Total ram usage:       25 bytes
 14499 ;; Hardware stack levels used:    1
 14500 ;; This function calls:
 14501 ;;		Nothing
 14502 ;; This function is called by:
 14503 ;;		_MQ_Read
 14504 ;;		_log10f
 14505 ;;		_powf
 14506 ;;		_scalbnf
 14507 ;;		_sqrtf
 14508 ;; This function uses a non-reentrant model
 14509 ;;
 14510                           
 14511                           	psect	text53
 14512  003E62                     __ptext53:
 14513                           	opt callstack 0
 14514  003E62                     i2___flmul:
 14515                           	opt callstack 24
 14516                           
 14517                           ;incstack = 0
 14518  003E62  5014               	movf	(i2___flmul@b+3)^0,w,c
 14519  003E64  0B80               	andlw	128
 14520  003E66  6E1D               	movwf	i2___flmul@sign^0,c
 14521  003E68  5014               	movf	(i2___flmul@b+3)^0,w,c
 14522  003E6A  2414               	addwf	(i2___flmul@b+3)^0,w,c
 14523  003E6C  6E23               	movwf	i2___flmul@bexp^0,c
 14524  003E6E  BE13               	btfsc	(i2___flmul@b+2)^0,7,c
 14525  003E70  8023               	bsf	i2___flmul@bexp^0,0,c
 14526  003E72  5023               	movf	i2___flmul@bexp^0,w,c
 14527  003E74  B4D8               	btfsc	status,2,c
 14528  003E76  D00D               	goto	i2l4148
 14529  003E78  2823               	incf	i2___flmul@bexp^0,w,c
 14530  003E7A  A4D8               	btfss	status,2,c
 14531  003E7C  D008               	goto	i2l4146
 14532  003E7E  0E00               	movlw	0
 14533  003E80  6E11               	movwf	i2___flmul@b^0,c
 14534  003E82  0E00               	movlw	0
 14535  003E84  6E12               	movwf	(i2___flmul@b+1)^0,c
 14536  003E86  0E00               	movlw	0
 14537  003E88  6E13               	movwf	(i2___flmul@b+2)^0,c
 14538  003E8A  0E00               	movlw	0
 14539  003E8C  6E14               	movwf	(i2___flmul@b+3)^0,c
 14540  003E8E                     i2l4146:
 14541  003E8E  8E13               	bsf	(i2___flmul@b+2)^0,7,c
 14542  003E90  D008               	goto	i2l4150
 14543  003E92                     i2l4148:
 14544  003E92  0E00               	movlw	0
 14545  003E94  6E11               	movwf	i2___flmul@b^0,c
 14546  003E96  0E00               	movlw	0
 14547  003E98  6E12               	movwf	(i2___flmul@b+1)^0,c
 14548  003E9A  0E00               	movlw	0
 14549  003E9C  6E13               	movwf	(i2___flmul@b+2)^0,c
 14550  003E9E  0E00               	movlw	0
 14551  003EA0  6E14               	movwf	(i2___flmul@b+3)^0,c
 14552  003EA2                     i2l4150:
 14553  003EA2  5018               	movf	(i2___flmul@a+3)^0,w,c
 14554  003EA4  0B80               	andlw	128
 14555  003EA6  1A1D               	xorwf	i2___flmul@sign^0,f,c
 14556  003EA8  5018               	movf	(i2___flmul@a+3)^0,w,c
 14557  003EAA  2418               	addwf	(i2___flmul@a+3)^0,w,c
 14558  003EAC  6E22               	movwf	i2___flmul@aexp^0,c
 14559  003EAE  BE17               	btfsc	(i2___flmul@a+2)^0,7,c
 14560  003EB0  8022               	bsf	i2___flmul@aexp^0,0,c
 14561  003EB2  5022               	movf	i2___flmul@aexp^0,w,c
 14562  003EB4  B4D8               	btfsc	status,2,c
 14563  003EB6  D00D               	goto	i2l4166
 14564  003EB8  2822               	incf	i2___flmul@aexp^0,w,c
 14565  003EBA  A4D8               	btfss	status,2,c
 14566  003EBC  D008               	goto	i2l4164
 14567  003EBE  0E00               	movlw	0
 14568  003EC0  6E15               	movwf	i2___flmul@a^0,c
 14569  003EC2  0E00               	movlw	0
 14570  003EC4  6E16               	movwf	(i2___flmul@a+1)^0,c
 14571  003EC6  0E00               	movlw	0
 14572  003EC8  6E17               	movwf	(i2___flmul@a+2)^0,c
 14573  003ECA  0E00               	movlw	0
 14574  003ECC  6E18               	movwf	(i2___flmul@a+3)^0,c
 14575  003ECE                     i2l4164:
 14576  003ECE  8E17               	bsf	(i2___flmul@a+2)^0,7,c
 14577  003ED0  D008               	goto	i2l954
 14578  003ED2                     i2l4166:
 14579  003ED2  0E00               	movlw	0
 14580  003ED4  6E15               	movwf	i2___flmul@a^0,c
 14581  003ED6  0E00               	movlw	0
 14582  003ED8  6E16               	movwf	(i2___flmul@a+1)^0,c
 14583  003EDA  0E00               	movlw	0
 14584  003EDC  6E17               	movwf	(i2___flmul@a+2)^0,c
 14585  003EDE  0E00               	movlw	0
 14586  003EE0  6E18               	movwf	(i2___flmul@a+3)^0,c
 14587  003EE2                     i2l954:
 14588  003EE2  5022               	movf	i2___flmul@aexp^0,w,c
 14589  003EE4  B4D8               	btfsc	status,2,c
 14590  003EE6  D003               	goto	i2u435_40
 14591  003EE8  5023               	movf	i2___flmul@bexp^0,w,c
 14592  003EEA  A4D8               	btfss	status,2,c
 14593  003EEC  D009               	goto	i2l4174
 14594  003EEE                     i2u435_40:
 14595  003EEE  0E00               	movlw	0
 14596  003EF0  6E11               	movwf	?i2___flmul^0,c
 14597  003EF2  0E00               	movlw	0
 14598  003EF4  6E12               	movwf	(?i2___flmul+1)^0,c
 14599  003EF6  0E00               	movlw	0
 14600  003EF8  6E13               	movwf	(?i2___flmul+2)^0,c
 14601  003EFA  0E00               	movlw	0
 14602  003EFC  6E14               	movwf	(?i2___flmul+3)^0,c
 14603  003EFE  0012               	return	
 14604  003F00                     i2l4174:
 14605  003F00  5017               	movf	(i2___flmul@a+2)^0,w,c
 14606  003F02  0211               	mulwf	i2___flmul@b^0,c
 14607  003F04  CFF3 F028          	movff	prodl,i2___flmul@temp
 14608  003F08  CFF4 F029          	movff	prodh,i2___flmul@temp+1
 14609  003F0C  5028               	movf	i2___flmul@temp^0,w,c
 14610  003F0E  6E1E               	movwf	i2___flmul@grs^0,c
 14611  003F10  6A1F               	clrf	(i2___flmul@grs+1)^0,c
 14612  003F12  6A20               	clrf	(i2___flmul@grs+2)^0,c
 14613  003F14  6A21               	clrf	(i2___flmul@grs+3)^0,c
 14614  003F16  5029               	movf	(i2___flmul@temp+1)^0,w,c
 14615  003F18  6E24               	movwf	i2___flmul@prod^0,c
 14616  003F1A  6A25               	clrf	(i2___flmul@prod+1)^0,c
 14617  003F1C  6A26               	clrf	(i2___flmul@prod+2)^0,c
 14618  003F1E  6A27               	clrf	(i2___flmul@prod+3)^0,c
 14619  003F20  5016               	movf	(i2___flmul@a+1)^0,w,c
 14620  003F22  0212               	mulwf	(i2___flmul@b+1)^0,c
 14621  003F24  CFF3 F028          	movff	prodl,i2___flmul@temp
 14622  003F28  CFF4 F029          	movff	prodh,i2___flmul@temp+1
 14623  003F2C  5028               	movf	i2___flmul@temp^0,w,c
 14624  003F2E  261E               	addwf	i2___flmul@grs^0,f,c
 14625  003F30  0E00               	movlw	0
 14626  003F32  221F               	addwfc	(i2___flmul@grs+1)^0,f,c
 14627  003F34  2220               	addwfc	(i2___flmul@grs+2)^0,f,c
 14628  003F36  2221               	addwfc	(i2___flmul@grs+3)^0,f,c
 14629  003F38  5029               	movf	(i2___flmul@temp+1)^0,w,c
 14630  003F3A  2624               	addwf	i2___flmul@prod^0,f,c
 14631  003F3C  0E00               	movlw	0
 14632  003F3E  2225               	addwfc	(i2___flmul@prod+1)^0,f,c
 14633  003F40  2226               	addwfc	(i2___flmul@prod+2)^0,f,c
 14634  003F42  2227               	addwfc	(i2___flmul@prod+3)^0,f,c
 14635  003F44  5015               	movf	i2___flmul@a^0,w,c
 14636  003F46  0213               	mulwf	(i2___flmul@b+2)^0,c
 14637  003F48  CFF3 F028          	movff	prodl,i2___flmul@temp
 14638  003F4C  CFF4 F029          	movff	prodh,i2___flmul@temp+1
 14639  003F50  5028               	movf	i2___flmul@temp^0,w,c
 14640  003F52  261E               	addwf	i2___flmul@grs^0,f,c
 14641  003F54  0E00               	movlw	0
 14642  003F56  221F               	addwfc	(i2___flmul@grs+1)^0,f,c
 14643  003F58  2220               	addwfc	(i2___flmul@grs+2)^0,f,c
 14644  003F5A  2221               	addwfc	(i2___flmul@grs+3)^0,f,c
 14645  003F5C  5029               	movf	(i2___flmul@temp+1)^0,w,c
 14646  003F5E  2624               	addwf	i2___flmul@prod^0,f,c
 14647  003F60  0E00               	movlw	0
 14648  003F62  2225               	addwfc	(i2___flmul@prod+1)^0,f,c
 14649  003F64  2226               	addwfc	(i2___flmul@prod+2)^0,f,c
 14650  003F66  2227               	addwfc	(i2___flmul@prod+3)^0,f,c
 14651  003F68  C020  F021         	movff	i2___flmul@grs+2,i2___flmul@grs+3
 14652  003F6C  C01F  F020         	movff	i2___flmul@grs+1,i2___flmul@grs+2
 14653  003F70  C01E  F01F         	movff	i2___flmul@grs,i2___flmul@grs+1
 14654  003F74  6A1E               	clrf	i2___flmul@grs^0,c
 14655  003F76  5015               	movf	i2___flmul@a^0,w,c
 14656  003F78  0212               	mulwf	(i2___flmul@b+1)^0,c
 14657  003F7A  CFF3 F028          	movff	prodl,i2___flmul@temp
 14658  003F7E  CFF4 F029          	movff	prodh,i2___flmul@temp+1
 14659  003F82  5028               	movf	i2___flmul@temp^0,w,c
 14660  003F84  261E               	addwf	i2___flmul@grs^0,f,c
 14661  003F86  5029               	movf	(i2___flmul@temp+1)^0,w,c
 14662  003F88  221F               	addwfc	(i2___flmul@grs+1)^0,f,c
 14663  003F8A  0E00               	movlw	0
 14664  003F8C  2220               	addwfc	(i2___flmul@grs+2)^0,f,c
 14665  003F8E  0E00               	movlw	0
 14666  003F90  2221               	addwfc	(i2___flmul@grs+3)^0,f,c
 14667  003F92  5016               	movf	(i2___flmul@a+1)^0,w,c
 14668  003F94  0211               	mulwf	i2___flmul@b^0,c
 14669  003F96  CFF3 F028          	movff	prodl,i2___flmul@temp
 14670  003F9A  CFF4 F029          	movff	prodh,i2___flmul@temp+1
 14671  003F9E  5028               	movf	i2___flmul@temp^0,w,c
 14672  003FA0  261E               	addwf	i2___flmul@grs^0,f,c
 14673  003FA2  5029               	movf	(i2___flmul@temp+1)^0,w,c
 14674  003FA4  221F               	addwfc	(i2___flmul@grs+1)^0,f,c
 14675  003FA6  0E00               	movlw	0
 14676  003FA8  2220               	addwfc	(i2___flmul@grs+2)^0,f,c
 14677  003FAA  0E00               	movlw	0
 14678  003FAC  2221               	addwfc	(i2___flmul@grs+3)^0,f,c
 14679  003FAE  C020  F021         	movff	i2___flmul@grs+2,i2___flmul@grs+3
 14680  003FB2  C01F  F020         	movff	i2___flmul@grs+1,i2___flmul@grs+2
 14681  003FB6  C01E  F01F         	movff	i2___flmul@grs,i2___flmul@grs+1
 14682  003FBA  6A1E               	clrf	i2___flmul@grs^0,c
 14683  003FBC  5015               	movf	i2___flmul@a^0,w,c
 14684  003FBE  0211               	mulwf	i2___flmul@b^0,c
 14685  003FC0  CFF3 F028          	movff	prodl,i2___flmul@temp
 14686  003FC4  CFF4 F029          	movff	prodh,i2___flmul@temp+1
 14687  003FC8  5028               	movf	i2___flmul@temp^0,w,c
 14688  003FCA  261E               	addwf	i2___flmul@grs^0,f,c
 14689  003FCC  5029               	movf	(i2___flmul@temp+1)^0,w,c
 14690  003FCE  221F               	addwfc	(i2___flmul@grs+1)^0,f,c
 14691  003FD0  0E00               	movlw	0
 14692  003FD2  2220               	addwfc	(i2___flmul@grs+2)^0,f,c
 14693  003FD4  0E00               	movlw	0
 14694  003FD6  2221               	addwfc	(i2___flmul@grs+3)^0,f,c
 14695  003FD8  5017               	movf	(i2___flmul@a+2)^0,w,c
 14696  003FDA  0212               	mulwf	(i2___flmul@b+1)^0,c
 14697  003FDC  CFF3 F028          	movff	prodl,i2___flmul@temp
 14698  003FE0  CFF4 F029          	movff	prodh,i2___flmul@temp+1
 14699  003FE4  5028               	movf	i2___flmul@temp^0,w,c
 14700  003FE6  2624               	addwf	i2___flmul@prod^0,f,c
 14701  003FE8  5029               	movf	(i2___flmul@temp+1)^0,w,c
 14702  003FEA  2225               	addwfc	(i2___flmul@prod+1)^0,f,c
 14703  003FEC  0E00               	movlw	0
 14704  003FEE  2226               	addwfc	(i2___flmul@prod+2)^0,f,c
 14705  003FF0  0E00               	movlw	0
 14706  003FF2  2227               	addwfc	(i2___flmul@prod+3)^0,f,c
 14707  003FF4  5016               	movf	(i2___flmul@a+1)^0,w,c
 14708  003FF6  0213               	mulwf	(i2___flmul@b+2)^0,c
 14709  003FF8  CFF3 F028          	movff	prodl,i2___flmul@temp
 14710  003FFC  CFF4 F029          	movff	prodh,i2___flmul@temp+1
 14711  004000  5028               	movf	i2___flmul@temp^0,w,c
 14712  004002  2624               	addwf	i2___flmul@prod^0,f,c
 14713  004004  5029               	movf	(i2___flmul@temp+1)^0,w,c
 14714  004006  2225               	addwfc	(i2___flmul@prod+1)^0,f,c
 14715  004008  0E00               	movlw	0
 14716  00400A  2226               	addwfc	(i2___flmul@prod+2)^0,f,c
 14717  00400C  0E00               	movlw	0
 14718  00400E  2227               	addwfc	(i2___flmul@prod+3)^0,f,c
 14719  004010  5017               	movf	(i2___flmul@a+2)^0,w,c
 14720  004012  0213               	mulwf	(i2___flmul@b+2)^0,c
 14721  004014  CFF3 F028          	movff	prodl,i2___flmul@temp
 14722  004018  CFF4 F029          	movff	prodh,i2___flmul@temp+1
 14723  00401C  5028               	movf	i2___flmul@temp^0,w,c
 14724  00401E  6E19               	movwf	??i2___flmul^0,c
 14725  004020  5029               	movf	(i2___flmul@temp+1)^0,w,c
 14726  004022  6E1A               	movwf	(??i2___flmul+1)^0,c
 14727  004024  6A1B               	clrf	(??i2___flmul+2)^0,c
 14728  004026  6A1C               	clrf	(??i2___flmul+3)^0,c
 14729  004028  C01B  F01C         	movff	??i2___flmul+2,??i2___flmul+3
 14730  00402C  C01A  F01B         	movff	??i2___flmul+1,??i2___flmul+2
 14731  004030  C019  F01A         	movff	??i2___flmul,??i2___flmul+1
 14732  004034  6A19               	clrf	??i2___flmul^0,c
 14733  004036  5019               	movf	??i2___flmul^0,w,c
 14734  004038  2624               	addwf	i2___flmul@prod^0,f,c
 14735  00403A  501A               	movf	(??i2___flmul+1)^0,w,c
 14736  00403C  2225               	addwfc	(i2___flmul@prod+1)^0,f,c
 14737  00403E  501B               	movf	(??i2___flmul+2)^0,w,c
 14738  004040  2226               	addwfc	(i2___flmul@prod+2)^0,f,c
 14739  004042  501C               	movf	(??i2___flmul+3)^0,w,c
 14740  004044  2227               	addwfc	(i2___flmul@prod+3)^0,f,c
 14741  004046  C01E  F019         	movff	i2___flmul@grs,??i2___flmul
 14742  00404A  C01F  F01A         	movff	i2___flmul@grs+1,??i2___flmul+1
 14743  00404E  C020  F01B         	movff	i2___flmul@grs+2,??i2___flmul+2
 14744  004052  C021  F01C         	movff	i2___flmul@grs+3,??i2___flmul+3
 14745  004056  0E19               	movlw	25
 14746  004058  D005               	goto	i2u436_40
 14747  00405A                     i2u436_45:
 14748  00405A  90D8               	bcf	status,0,c
 14749  00405C  321C               	rrcf	(??i2___flmul+3)^0,f,c
 14750  00405E  321B               	rrcf	(??i2___flmul+2)^0,f,c
 14751  004060  321A               	rrcf	(??i2___flmul+1)^0,f,c
 14752  004062  3219               	rrcf	??i2___flmul^0,f,c
 14753  004064                     i2u436_40:
 14754  004064  2EE8               	decfsz	wreg,f,c
 14755  004066  D7F9               	goto	i2u436_45
 14756  004068  5019               	movf	??i2___flmul^0,w,c
 14757  00406A  2624               	addwf	i2___flmul@prod^0,f,c
 14758  00406C  501A               	movf	(??i2___flmul+1)^0,w,c
 14759  00406E  2225               	addwfc	(i2___flmul@prod+1)^0,f,c
 14760  004070  501B               	movf	(??i2___flmul+2)^0,w,c
 14761  004072  2226               	addwfc	(i2___flmul@prod+2)^0,f,c
 14762  004074  501C               	movf	(??i2___flmul+3)^0,w,c
 14763  004076  2227               	addwfc	(i2___flmul@prod+3)^0,f,c
 14764  004078  C020  F021         	movff	i2___flmul@grs+2,i2___flmul@grs+3
 14765  00407C  C01F  F020         	movff	i2___flmul@grs+1,i2___flmul@grs+2
 14766  004080  C01E  F01F         	movff	i2___flmul@grs,i2___flmul@grs+1
 14767  004084  6A1E               	clrf	i2___flmul@grs^0,c
 14768  004086  5022               	movf	i2___flmul@aexp^0,w,c
 14769  004088  C023  F019         	movff	i2___flmul@bexp,??i2___flmul
 14770  00408C  6A1A               	clrf	(??i2___flmul+1)^0,c
 14771  00408E  2619               	addwf	??i2___flmul^0,f,c
 14772  004090  0E00               	movlw	0
 14773  004092  221A               	addwfc	(??i2___flmul+1)^0,f,c
 14774  004094  0E82               	movlw	130
 14775  004096  2419               	addwf	??i2___flmul^0,w,c
 14776  004098  6E28               	movwf	i2___flmul@temp^0,c
 14777  00409A  0EFF               	movlw	255
 14778  00409C  201A               	addwfc	(??i2___flmul+1)^0,w,c
 14779  00409E  6E29               	movwf	(i2___flmul@temp+1)^0,c
 14780  0040A0  D00F               	goto	i2l4222
 14781  0040A2                     i2l4216:
 14782  0040A2  90D8               	bcf	status,0,c
 14783  0040A4  3624               	rlcf	i2___flmul@prod^0,f,c
 14784  0040A6  3625               	rlcf	(i2___flmul@prod+1)^0,f,c
 14785  0040A8  3626               	rlcf	(i2___flmul@prod+2)^0,f,c
 14786  0040AA  3627               	rlcf	(i2___flmul@prod+3)^0,f,c
 14787  0040AC  BE21               	btfsc	(i2___flmul@grs+3)^0,7,c
 14788  0040AE  8024               	bsf	i2___flmul@prod^0,0,c
 14789  0040B0  90D8               	bcf	status,0,c
 14790  0040B2  361E               	rlcf	i2___flmul@grs^0,f,c
 14791  0040B4  361F               	rlcf	(i2___flmul@grs+1)^0,f,c
 14792  0040B6  3620               	rlcf	(i2___flmul@grs+2)^0,f,c
 14793  0040B8  3621               	rlcf	(i2___flmul@grs+3)^0,f,c
 14794  0040BA  0628               	decf	i2___flmul@temp^0,f,c
 14795  0040BC  A0D8               	btfss	status,0,c
 14796  0040BE  0629               	decf	(i2___flmul@temp+1)^0,f,c
 14797  0040C0                     i2l4222:
 14798  0040C0  AE26               	btfss	(i2___flmul@prod+2)^0,7,c
 14799  0040C2  D7EF               	goto	i2l4216
 14800  0040C4  0E00               	movlw	0
 14801  0040C6  6E22               	movwf	i2___flmul@aexp^0,c
 14802  0040C8  AE21               	btfss	(i2___flmul@grs+3)^0,7,c
 14803  0040CA  D017               	goto	i2l963
 14804  0040CC  0EFF               	movlw	255
 14805  0040CE  141E               	andwf	i2___flmul@grs^0,w,c
 14806  0040D0  6E19               	movwf	??i2___flmul^0,c
 14807  0040D2  0EFF               	movlw	255
 14808  0040D4  141F               	andwf	(i2___flmul@grs+1)^0,w,c
 14809  0040D6  6E1A               	movwf	(??i2___flmul+1)^0,c
 14810  0040D8  0EFF               	movlw	255
 14811  0040DA  1420               	andwf	(i2___flmul@grs+2)^0,w,c
 14812  0040DC  6E1B               	movwf	(??i2___flmul+2)^0,c
 14813  0040DE  0E7F               	movlw	127
 14814  0040E0  1421               	andwf	(i2___flmul@grs+3)^0,w,c
 14815  0040E2  6E1C               	movwf	(??i2___flmul+3)^0,c
 14816  0040E4  5019               	movf	??i2___flmul^0,w,c
 14817  0040E6  101A               	iorwf	(??i2___flmul+1)^0,w,c
 14818  0040E8  101B               	iorwf	(??i2___flmul+2)^0,w,c
 14819  0040EA  101C               	iorwf	(??i2___flmul+3)^0,w,c
 14820  0040EC  B4D8               	btfsc	status,2,c
 14821  0040EE  D003               	goto	i2l964
 14822  0040F0                     i2u440_40:
 14823  0040F0  0E01               	movlw	1
 14824  0040F2  6E22               	movwf	i2___flmul@aexp^0,c
 14825  0040F4  D002               	goto	i2l963
 14826  0040F6                     i2l964:
 14827  0040F6  B024               	btfsc	i2___flmul@prod^0,0,c
 14828  0040F8  D7FB               	goto	i2u440_40
 14829  0040FA                     i2l963:
 14830  0040FA  5022               	movf	i2___flmul@aexp^0,w,c
 14831  0040FC  B4D8               	btfsc	status,2,c
 14832  0040FE  D01F               	goto	i2l4242
 14833  004100  0E01               	movlw	1
 14834  004102  2624               	addwf	i2___flmul@prod^0,f,c
 14835  004104  0E00               	movlw	0
 14836  004106  2225               	addwfc	(i2___flmul@prod+1)^0,f,c
 14837  004108  2226               	addwfc	(i2___flmul@prod+2)^0,f,c
 14838  00410A  2227               	addwfc	(i2___flmul@prod+3)^0,f,c
 14839  00410C  A027               	btfss	(i2___flmul@prod+3)^0,0,c
 14840  00410E  D017               	goto	i2l4242
 14841  004110  C024  F019         	movff	i2___flmul@prod,??i2___flmul
 14842  004114  C025  F01A         	movff	i2___flmul@prod+1,??i2___flmul+1
 14843  004118  C026  F01B         	movff	i2___flmul@prod+2,??i2___flmul+2
 14844  00411C  C027  F01C         	movff	i2___flmul@prod+3,??i2___flmul+3
 14845  004120  341C               	rlcf	(??i2___flmul+3)^0,w,c
 14846  004122  321C               	rrcf	(??i2___flmul+3)^0,f,c
 14847  004124  321B               	rrcf	(??i2___flmul+2)^0,f,c
 14848  004126  321A               	rrcf	(??i2___flmul+1)^0,f,c
 14849  004128  3219               	rrcf	??i2___flmul^0,f,c
 14850  00412A  C019  F024         	movff	??i2___flmul,i2___flmul@prod
 14851  00412E  C01A  F025         	movff	??i2___flmul+1,i2___flmul@prod+1
 14852  004132  C01B  F026         	movff	??i2___flmul+2,i2___flmul@prod+2
 14853  004136  C01C  F027         	movff	??i2___flmul+3,i2___flmul@prod+3
 14854  00413A  4A28               	infsnz	i2___flmul@temp^0,f,c
 14855  00413C  2A29               	incf	(i2___flmul@temp+1)^0,f,c
 14856  00413E                     i2l4242:
 14857  00413E  BE29               	btfsc	(i2___flmul@temp+1)^0,7,c
 14858  004140  D00D               	goto	i2l4246
 14859  004142  5029               	movf	(i2___flmul@temp+1)^0,w,c
 14860  004144  E103               	bnz	i2u444_40
 14861  004146  2828               	incf	i2___flmul@temp^0,w,c
 14862  004148  A0D8               	btfss	status,0,c
 14863  00414A  D008               	goto	i2l4246
 14864  00414C                     i2u444_40:
 14865  00414C  0E00               	movlw	0
 14866  00414E  6E24               	movwf	i2___flmul@prod^0,c
 14867  004150  0E00               	movlw	0
 14868  004152  6E25               	movwf	(i2___flmul@prod+1)^0,c
 14869  004154  0E80               	movlw	128
 14870  004156  6E26               	movwf	(i2___flmul@prod+2)^0,c
 14871  004158  0E7F               	movlw	127
 14872  00415A  D020               	goto	L14
 14873  00415C                     i2l4246:
 14874  00415C  BE29               	btfsc	(i2___flmul@temp+1)^0,7,c
 14875  00415E  D005               	goto	i2u445_40
 14876  004160  5029               	movf	(i2___flmul@temp+1)^0,w,c
 14877  004162  E10E               	bnz	i2l971
 14878  004164  0428               	decf	i2___flmul@temp^0,w,c
 14879  004166  B0D8               	btfsc	status,0,c
 14880  004168  D00B               	goto	i2l971
 14881  00416A                     i2u445_40:
 14882  00416A  0E00               	movlw	0
 14883  00416C  6E24               	movwf	i2___flmul@prod^0,c
 14884  00416E  0E00               	movlw	0
 14885  004170  6E25               	movwf	(i2___flmul@prod+1)^0,c
 14886  004172  0E00               	movlw	0
 14887  004174  6E26               	movwf	(i2___flmul@prod+2)^0,c
 14888  004176  0E00               	movlw	0
 14889  004178  6E27               	movwf	(i2___flmul@prod+3)^0,c
 14890  00417A  0E00               	movlw	0
 14891  00417C  6E1D               	movwf	i2___flmul@sign^0,c
 14892  00417E  D00F               	goto	i2l4258
 14893  004180                     i2l971:
 14894  004180  C028  F023         	movff	i2___flmul@temp,i2___flmul@bexp
 14895  004184  0EFF               	movlw	255
 14896  004186  1624               	andwf	i2___flmul@prod^0,f,c
 14897  004188  0EFF               	movlw	255
 14898  00418A  1625               	andwf	(i2___flmul@prod+1)^0,f,c
 14899  00418C  0E7F               	movlw	127
 14900  00418E  1626               	andwf	(i2___flmul@prod+2)^0,f,c
 14901  004190  0E00               	movlw	0
 14902  004192  1627               	andwf	(i2___flmul@prod+3)^0,f,c
 14903  004194  B023               	btfsc	i2___flmul@bexp^0,0,c
 14904  004196  8E26               	bsf	(i2___flmul@prod+2)^0,7,c
 14905  004198  90D8               	bcf	status,0,c
 14906  00419A  3023               	rrcf	i2___flmul@bexp^0,w,c
 14907  00419C                     L14:
 14908  00419C  6E27               	movwf	(i2___flmul@prod+3)^0,c
 14909  00419E                     i2l4258:
 14910  00419E  501D               	movf	i2___flmul@sign^0,w,c
 14911  0041A0  1227               	iorwf	(i2___flmul@prod+3)^0,f,c
 14912  0041A2  C024  F011         	movff	i2___flmul@prod,?i2___flmul
 14913  0041A6  C025  F012         	movff	i2___flmul@prod+1,?i2___flmul+1
 14914  0041AA  C026  F013         	movff	i2___flmul@prod+2,?i2___flmul+2
 14915  0041AE  C027  F014         	movff	i2___flmul@prod+3,?i2___flmul+3
 14916  0041B2  0012               	return		;funcret
 14917  0041B4                     __end_ofi2___flmul:
 14918                           	opt callstack 0
 14919                           
 14920 ;; *************** function i2___fldiv *****************
 14921 ;; Defined at:
 14922 ;;		line 11 in file "C:\Program Files (x86)\Microchip\xc8\v2.10\pic\sources\c99\common\sprcdiv.c"
 14923 ;; Parameters:    Size  Location     Type
 14924 ;;  b               4   49[COMRAM] unsigned char 
 14925 ;;  a               4   53[COMRAM] unsigned char 
 14926 ;; Auto vars:     Size  Location     Type
 14927 ;;  __fldiv         4   68[COMRAM] unsigned long 
 14928 ;;  __fldiv         4   61[COMRAM] unsigned long 
 14929 ;;  __fldiv         2   66[COMRAM] short 
 14930 ;;  __fldiv         1   73[COMRAM] unsigned char 
 14931 ;;  __fldiv         1   72[COMRAM] unsigned char 
 14932 ;;  __fldiv         1   65[COMRAM] unsigned char 
 14933 ;; Return value:  Size  Location     Type
 14934 ;;                  4   49[COMRAM] unsigned char 
 14935 ;; Registers used:
 14936 ;;		wreg, status,2, status,0
 14937 ;; Tracked objects:
 14938 ;;		On entry : 0/0
 14939 ;;		On exit  : 0/0
 14940 ;;		Unchanged: 0/0
 14941 ;; Data sizes:     COMRAM   BANK0   BANK1   BANK2   BANK3   BANK4   BANK5
 14942 ;;      Params:         8       0       0       0       0       0       0
 14943 ;;      Locals:        13       0       0       0       0       0       0
 14944 ;;      Temps:          4       0       0       0       0       0       0
 14945 ;;      Totals:        25       0       0       0       0       0       0
 14946 ;;Total ram usage:       25 bytes
 14947 ;; Hardware stack levels used:    1
 14948 ;; This function calls:
 14949 ;;		Nothing
 14950 ;; This function is called by:
 14951 ;;		_MQGetPercentage
 14952 ;;		_MQ_Read
 14953 ;;		_log10f
 14954 ;;		_powf
 14955 ;; This function uses a non-reentrant model
 14956 ;;
 14957                           
 14958                           	psect	text54
 14959  004D30                     __ptext54:
 14960                           	opt callstack 0
 14961  004D30                     i2___fldiv:
 14962                           	opt callstack 24
 14963                           
 14964                           ;incstack = 0
 14965  004D30  5035               	movf	(i2___fldiv@b+3)^0,w,c
 14966  004D32  0B80               	andlw	128
 14967  004D34  6E42               	movwf	i2___fldiv@sign^0,c
 14968  004D36  5035               	movf	(i2___fldiv@b+3)^0,w,c
 14969  004D38  2435               	addwf	(i2___fldiv@b+3)^0,w,c
 14970  004D3A  6E49               	movwf	i2___fldiv@bexp^0,c
 14971  004D3C  BE34               	btfsc	(i2___fldiv@b+2)^0,7,c
 14972  004D3E  8049               	bsf	i2___fldiv@bexp^0,0,c
 14973  004D40  5049               	movf	i2___fldiv@bexp^0,w,c
 14974  004D42  B4D8               	btfsc	status,2,c
 14975  004D44  D00D               	goto	i2l4548
 14976  004D46  2849               	incf	i2___fldiv@bexp^0,w,c
 14977  004D48  A4D8               	btfss	status,2,c
 14978  004D4A  D008               	goto	i2l4544
 14979  004D4C  0E00               	movlw	0
 14980  004D4E  6E32               	movwf	i2___fldiv@b^0,c
 14981  004D50  0E00               	movlw	0
 14982  004D52  6E33               	movwf	(i2___fldiv@b+1)^0,c
 14983  004D54  0E00               	movlw	0
 14984  004D56  6E34               	movwf	(i2___fldiv@b+2)^0,c
 14985  004D58  0E00               	movlw	0
 14986  004D5A  6E35               	movwf	(i2___fldiv@b+3)^0,c
 14987  004D5C                     i2l4544:
 14988  004D5C  8E34               	bsf	(i2___fldiv@b+2)^0,7,c
 14989  004D5E  D006               	goto	L15
 14990  004D60                     i2l4548:
 14991  004D60  0E00               	movlw	0
 14992  004D62  6E32               	movwf	i2___fldiv@b^0,c
 14993  004D64  0E00               	movlw	0
 14994  004D66  6E33               	movwf	(i2___fldiv@b+1)^0,c
 14995  004D68  0E00               	movlw	0
 14996  004D6A  6E34               	movwf	(i2___fldiv@b+2)^0,c
 14997  004D6C                     L15:
 14998  004D6C  0E00               	movlw	0
 14999  004D6E  6E35               	movwf	(i2___fldiv@b+3)^0,c
 15000  004D70  5039               	movf	(i2___fldiv@a+3)^0,w,c
 15001  004D72  0B80               	andlw	128
 15002  004D74  1A42               	xorwf	i2___fldiv@sign^0,f,c
 15003  004D76  5039               	movf	(i2___fldiv@a+3)^0,w,c
 15004  004D78  2439               	addwf	(i2___fldiv@a+3)^0,w,c
 15005  004D7A  6E4A               	movwf	i2___fldiv@aexp^0,c
 15006  004D7C  BE38               	btfsc	(i2___fldiv@a+2)^0,7,c
 15007  004D7E  804A               	bsf	i2___fldiv@aexp^0,0,c
 15008  004D80  504A               	movf	i2___fldiv@aexp^0,w,c
 15009  004D82  B4D8               	btfsc	status,2,c
 15010  004D84  D00D               	goto	i2l4568
 15011  004D86  284A               	incf	i2___fldiv@aexp^0,w,c
 15012  004D88  A4D8               	btfss	status,2,c
 15013  004D8A  D008               	goto	i2l4564
 15014  004D8C  0E00               	movlw	0
 15015  004D8E  6E36               	movwf	i2___fldiv@a^0,c
 15016  004D90  0E00               	movlw	0
 15017  004D92  6E37               	movwf	(i2___fldiv@a+1)^0,c
 15018  004D94  0E00               	movlw	0
 15019  004D96  6E38               	movwf	(i2___fldiv@a+2)^0,c
 15020  004D98  0E00               	movlw	0
 15021  004D9A  6E39               	movwf	(i2___fldiv@a+3)^0,c
 15022  004D9C                     i2l4564:
 15023  004D9C  8E38               	bsf	(i2___fldiv@a+2)^0,7,c
 15024  004D9E  D006               	goto	L16
 15025  004DA0                     i2l4568:
 15026  004DA0  0E00               	movlw	0
 15027  004DA2  6E36               	movwf	i2___fldiv@a^0,c
 15028  004DA4  0E00               	movlw	0
 15029  004DA6  6E37               	movwf	(i2___fldiv@a+1)^0,c
 15030  004DA8  0E00               	movlw	0
 15031  004DAA  6E38               	movwf	(i2___fldiv@a+2)^0,c
 15032  004DAC                     L16:
 15033  004DAC  0E00               	movlw	0
 15034  004DAE  6E39               	movwf	(i2___fldiv@a+3)^0,c
 15035  004DB0  5036               	movf	i2___fldiv@a^0,w,c
 15036  004DB2  1037               	iorwf	(i2___fldiv@a+1)^0,w,c
 15037  004DB4  1038               	iorwf	(i2___fldiv@a+2)^0,w,c
 15038  004DB6  1039               	iorwf	(i2___fldiv@a+3)^0,w,c
 15039  004DB8  A4D8               	btfss	status,2,c
 15040  004DBA  D017               	goto	i2l4582
 15041  004DBC  0E00               	movlw	0
 15042  004DBE  6E32               	movwf	i2___fldiv@b^0,c
 15043  004DC0  0E00               	movlw	0
 15044  004DC2  6E33               	movwf	(i2___fldiv@b+1)^0,c
 15045  004DC4  0E00               	movlw	0
 15046  004DC6  6E34               	movwf	(i2___fldiv@b+2)^0,c
 15047  004DC8  0E00               	movlw	0
 15048  004DCA  6E35               	movwf	(i2___fldiv@b+3)^0,c
 15049  004DCC  0E80               	movlw	128
 15050  004DCE  1234               	iorwf	(i2___fldiv@b+2)^0,f,c
 15051  004DD0  0E7F               	movlw	127
 15052  004DD2  1235               	iorwf	(i2___fldiv@b+3)^0,f,c
 15053  004DD4                     i2l4576:
 15054  004DD4  5042               	movf	i2___fldiv@sign^0,w,c
 15055  004DD6  1235               	iorwf	(i2___fldiv@b+3)^0,f,c
 15056  004DD8  C032  F032         	movff	i2___fldiv@b,?i2___fldiv
 15057  004DDC  C033  F033         	movff	i2___fldiv@b+1,?i2___fldiv+1
 15058  004DE0  C034  F034         	movff	i2___fldiv@b+2,?i2___fldiv+2
 15059  004DE4  C035  F035         	movff	i2___fldiv@b+3,?i2___fldiv+3
 15060  004DE8  0012               	return	
 15061  004DEA                     i2l4582:
 15062  004DEA  5049               	movf	i2___fldiv@bexp^0,w,c
 15063  004DEC  A4D8               	btfss	status,2,c
 15064  004DEE  D009               	goto	i2l4590
 15065  004DF0  0E00               	movlw	0
 15066  004DF2  6E32               	movwf	?i2___fldiv^0,c
 15067  004DF4  0E00               	movlw	0
 15068  004DF6  6E33               	movwf	(?i2___fldiv+1)^0,c
 15069  004DF8  0E00               	movlw	0
 15070  004DFA  6E34               	movwf	(?i2___fldiv+2)^0,c
 15071  004DFC  0E00               	movlw	0
 15072  004DFE  6E35               	movwf	(?i2___fldiv+3)^0,c
 15073  004E00  0012               	return	
 15074  004E02                     i2l4590:
 15075  004E02  504A               	movf	i2___fldiv@aexp^0,w,c
 15076  004E04  C049  F03A         	movff	i2___fldiv@bexp,??i2___fldiv
 15077  004E08  6A3B               	clrf	(??i2___fldiv+1)^0,c
 15078  004E0A  5E3A               	subwf	??i2___fldiv^0,f,c
 15079  004E0C  0E00               	movlw	0
 15080  004E0E  5A3B               	subwfb	(??i2___fldiv+1)^0,f,c
 15081  004E10  0E7F               	movlw	127
 15082  004E12  243A               	addwf	??i2___fldiv^0,w,c
 15083  004E14  6E43               	movwf	i2___fldiv@new_exp^0,c
 15084  004E16  0E00               	movlw	0
 15085  004E18  203B               	addwfc	(??i2___fldiv+1)^0,w,c
 15086  004E1A  6E44               	movwf	(i2___fldiv@new_exp+1)^0,c
 15087  004E1C  C032  F03E         	movff	i2___fldiv@b,i2___fldiv@rem
 15088  004E20  C033  F03F         	movff	i2___fldiv@b+1,i2___fldiv@rem+1
 15089  004E24  C034  F040         	movff	i2___fldiv@b+2,i2___fldiv@rem+2
 15090  004E28  C035  F041         	movff	i2___fldiv@b+3,i2___fldiv@rem+3
 15091  004E2C  0E00               	movlw	0
 15092  004E2E  6E32               	movwf	i2___fldiv@b^0,c
 15093  004E30  0E00               	movlw	0
 15094  004E32  6E33               	movwf	(i2___fldiv@b+1)^0,c
 15095  004E34  0E00               	movlw	0
 15096  004E36  6E34               	movwf	(i2___fldiv@b+2)^0,c
 15097  004E38  0E00               	movlw	0
 15098  004E3A  6E35               	movwf	(i2___fldiv@b+3)^0,c
 15099  004E3C  0E00               	movlw	0
 15100  004E3E  6E45               	movwf	i2___fldiv@grs^0,c
 15101  004E40  0E00               	movlw	0
 15102  004E42  6E46               	movwf	(i2___fldiv@grs+1)^0,c
 15103  004E44  0E00               	movlw	0
 15104  004E46  6E47               	movwf	(i2___fldiv@grs+2)^0,c
 15105  004E48  0E00               	movlw	0
 15106  004E4A  6E48               	movwf	(i2___fldiv@grs+3)^0,c
 15107  004E4C  0E00               	movlw	0
 15108  004E4E  6E4A               	movwf	i2___fldiv@aexp^0,c
 15109  004E50  D028               	goto	i2l924
 15110  004E52                     i2l4600:
 15111  004E52  504A               	movf	i2___fldiv@aexp^0,w,c
 15112  004E54  B4D8               	btfsc	status,2,c
 15113  004E56  D011               	goto	i2l4608
 15114  004E58  90D8               	bcf	status,0,c
 15115  004E5A  363E               	rlcf	i2___fldiv@rem^0,f,c
 15116  004E5C  363F               	rlcf	(i2___fldiv@rem+1)^0,f,c
 15117  004E5E  3640               	rlcf	(i2___fldiv@rem+2)^0,f,c
 15118  004E60  3641               	rlcf	(i2___fldiv@rem+3)^0,f,c
 15119  004E62  90D8               	bcf	status,0,c
 15120  004E64  3632               	rlcf	i2___fldiv@b^0,f,c
 15121  004E66  3633               	rlcf	(i2___fldiv@b+1)^0,f,c
 15122  004E68  3634               	rlcf	(i2___fldiv@b+2)^0,f,c
 15123  004E6A  3635               	rlcf	(i2___fldiv@b+3)^0,f,c
 15124  004E6C  BE48               	btfsc	(i2___fldiv@grs+3)^0,7,c
 15125  004E6E  8032               	bsf	i2___fldiv@b^0,0,c
 15126  004E70  90D8               	bcf	status,0,c
 15127  004E72  3645               	rlcf	i2___fldiv@grs^0,f,c
 15128  004E74  3646               	rlcf	(i2___fldiv@grs+1)^0,f,c
 15129  004E76  3647               	rlcf	(i2___fldiv@grs+2)^0,f,c
 15130  004E78  3648               	rlcf	(i2___fldiv@grs+3)^0,f,c
 15131  004E7A                     i2l4608:
 15132  004E7A  5036               	movf	i2___fldiv@a^0,w,c
 15133  004E7C  5C3E               	subwf	i2___fldiv@rem^0,w,c
 15134  004E7E  5037               	movf	(i2___fldiv@a+1)^0,w,c
 15135  004E80  583F               	subwfb	(i2___fldiv@rem+1)^0,w,c
 15136  004E82  5038               	movf	(i2___fldiv@a+2)^0,w,c
 15137  004E84  5840               	subwfb	(i2___fldiv@rem+2)^0,w,c
 15138  004E86  5039               	movf	(i2___fldiv@a+3)^0,w,c
 15139  004E88  5841               	subwfb	(i2___fldiv@rem+3)^0,w,c
 15140  004E8A  A0D8               	btfss	status,0,c
 15141  004E8C  D009               	goto	i2l4614
 15142  004E8E  8C48               	bsf	(i2___fldiv@grs+3)^0,6,c
 15143  004E90  5036               	movf	i2___fldiv@a^0,w,c
 15144  004E92  5E3E               	subwf	i2___fldiv@rem^0,f,c
 15145  004E94  5037               	movf	(i2___fldiv@a+1)^0,w,c
 15146  004E96  5A3F               	subwfb	(i2___fldiv@rem+1)^0,f,c
 15147  004E98  5038               	movf	(i2___fldiv@a+2)^0,w,c
 15148  004E9A  5A40               	subwfb	(i2___fldiv@rem+2)^0,f,c
 15149  004E9C  5039               	movf	(i2___fldiv@a+3)^0,w,c
 15150  004E9E  5A41               	subwfb	(i2___fldiv@rem+3)^0,f,c
 15151  004EA0                     i2l4614:
 15152  004EA0  2A4A               	incf	i2___fldiv@aexp^0,f,c
 15153  004EA2                     i2l924:
 15154  004EA2  0E19               	movlw	25
 15155  004EA4  644A               	cpfsgt	i2___fldiv@aexp^0,c
 15156  004EA6  D7D5               	goto	i2l4600
 15157  004EA8  503E               	movf	i2___fldiv@rem^0,w,c
 15158  004EAA  103F               	iorwf	(i2___fldiv@rem+1)^0,w,c
 15159  004EAC  1040               	iorwf	(i2___fldiv@rem+2)^0,w,c
 15160  004EAE  1041               	iorwf	(i2___fldiv@rem+3)^0,w,c
 15161  004EB0  B4D8               	btfsc	status,2,c
 15162  004EB2  D011               	goto	i2l4626
 15163  004EB4  8045               	bsf	i2___fldiv@grs^0,0,c
 15164  004EB6  D00F               	goto	i2l4626
 15165  004EB8                     i2l4620:
 15166  004EB8  90D8               	bcf	status,0,c
 15167  004EBA  3632               	rlcf	i2___fldiv@b^0,f,c
 15168  004EBC  3633               	rlcf	(i2___fldiv@b+1)^0,f,c
 15169  004EBE  3634               	rlcf	(i2___fldiv@b+2)^0,f,c
 15170  004EC0  3635               	rlcf	(i2___fldiv@b+3)^0,f,c
 15171  004EC2  BE48               	btfsc	(i2___fldiv@grs+3)^0,7,c
 15172  004EC4  8032               	bsf	i2___fldiv@b^0,0,c
 15173  004EC6  90D8               	bcf	status,0,c
 15174  004EC8  3645               	rlcf	i2___fldiv@grs^0,f,c
 15175  004ECA  3646               	rlcf	(i2___fldiv@grs+1)^0,f,c
 15176  004ECC  3647               	rlcf	(i2___fldiv@grs+2)^0,f,c
 15177  004ECE  3648               	rlcf	(i2___fldiv@grs+3)^0,f,c
 15178  004ED0  0643               	decf	i2___fldiv@new_exp^0,f,c
 15179  004ED2  A0D8               	btfss	status,0,c
 15180  004ED4  0644               	decf	(i2___fldiv@new_exp+1)^0,f,c
 15181  004ED6                     i2l4626:
 15182  004ED6  AE34               	btfss	(i2___fldiv@b+2)^0,7,c
 15183  004ED8  D7EF               	goto	i2l4620
 15184  004EDA  0E00               	movlw	0
 15185  004EDC  6E4A               	movwf	i2___fldiv@aexp^0,c
 15186  004EDE  AE48               	btfss	(i2___fldiv@grs+3)^0,7,c
 15187  004EE0  D017               	goto	i2l935
 15188  004EE2  0EFF               	movlw	255
 15189  004EE4  1445               	andwf	i2___fldiv@grs^0,w,c
 15190  004EE6  6E3A               	movwf	??i2___fldiv^0,c
 15191  004EE8  0EFF               	movlw	255
 15192  004EEA  1446               	andwf	(i2___fldiv@grs+1)^0,w,c
 15193  004EEC  6E3B               	movwf	(??i2___fldiv+1)^0,c
 15194  004EEE  0EFF               	movlw	255
 15195  004EF0  1447               	andwf	(i2___fldiv@grs+2)^0,w,c
 15196  004EF2  6E3C               	movwf	(??i2___fldiv+2)^0,c
 15197  004EF4  0E7F               	movlw	127
 15198  004EF6  1448               	andwf	(i2___fldiv@grs+3)^0,w,c
 15199  004EF8  6E3D               	movwf	(??i2___fldiv+3)^0,c
 15200  004EFA  503A               	movf	??i2___fldiv^0,w,c
 15201  004EFC  103B               	iorwf	(??i2___fldiv+1)^0,w,c
 15202  004EFE  103C               	iorwf	(??i2___fldiv+2)^0,w,c
 15203  004F00  103D               	iorwf	(??i2___fldiv+3)^0,w,c
 15204  004F02  B4D8               	btfsc	status,2,c
 15205  004F04  D003               	goto	i2l936
 15206  004F06                     i2u507_40:
 15207  004F06  0E01               	movlw	1
 15208  004F08  6E4A               	movwf	i2___fldiv@aexp^0,c
 15209  004F0A  D002               	goto	i2l935
 15210  004F0C                     i2l936:
 15211  004F0C  B032               	btfsc	i2___fldiv@b^0,0,c
 15212  004F0E  D7FB               	goto	i2u507_40
 15213  004F10                     i2l935:
 15214  004F10  504A               	movf	i2___fldiv@aexp^0,w,c
 15215  004F12  B4D8               	btfsc	status,2,c
 15216  004F14  D01F               	goto	i2l4646
 15217  004F16  0E01               	movlw	1
 15218  004F18  2632               	addwf	i2___fldiv@b^0,f,c
 15219  004F1A  0E00               	movlw	0
 15220  004F1C  2233               	addwfc	(i2___fldiv@b+1)^0,f,c
 15221  004F1E  2234               	addwfc	(i2___fldiv@b+2)^0,f,c
 15222  004F20  2235               	addwfc	(i2___fldiv@b+3)^0,f,c
 15223  004F22  A035               	btfss	(i2___fldiv@b+3)^0,0,c
 15224  004F24  D017               	goto	i2l4646
 15225  004F26  C032  F03A         	movff	i2___fldiv@b,??i2___fldiv
 15226  004F2A  C033  F03B         	movff	i2___fldiv@b+1,??i2___fldiv+1
 15227  004F2E  C034  F03C         	movff	i2___fldiv@b+2,??i2___fldiv+2
 15228  004F32  C035  F03D         	movff	i2___fldiv@b+3,??i2___fldiv+3
 15229  004F36  343D               	rlcf	(??i2___fldiv+3)^0,w,c
 15230  004F38  323D               	rrcf	(??i2___fldiv+3)^0,f,c
 15231  004F3A  323C               	rrcf	(??i2___fldiv+2)^0,f,c
 15232  004F3C  323B               	rrcf	(??i2___fldiv+1)^0,f,c
 15233  004F3E  323A               	rrcf	??i2___fldiv^0,f,c
 15234  004F40  C03A  F032         	movff	??i2___fldiv,i2___fldiv@b
 15235  004F44  C03B  F033         	movff	??i2___fldiv+1,i2___fldiv@b+1
 15236  004F48  C03C  F034         	movff	??i2___fldiv+2,i2___fldiv@b+2
 15237  004F4C  C03D  F035         	movff	??i2___fldiv+3,i2___fldiv@b+3
 15238  004F50  4A43               	infsnz	i2___fldiv@new_exp^0,f,c
 15239  004F52  2A44               	incf	(i2___fldiv@new_exp+1)^0,f,c
 15240  004F54                     i2l4646:
 15241  004F54  BE44               	btfsc	(i2___fldiv@new_exp+1)^0,7,c
 15242  004F56  D010               	goto	i2l4650
 15243  004F58  5044               	movf	(i2___fldiv@new_exp+1)^0,w,c
 15244  004F5A  E103               	bnz	i2u511_40
 15245  004F5C  2843               	incf	i2___fldiv@new_exp^0,w,c
 15246  004F5E  A0D8               	btfss	status,0,c
 15247  004F60  D00B               	goto	i2l4650
 15248  004F62                     i2u511_40:
 15249  004F62  0E00               	movlw	0
 15250  004F64  6E44               	movwf	(i2___fldiv@new_exp+1)^0,c
 15251  004F66  6843               	setf	i2___fldiv@new_exp^0,c
 15252  004F68  0E00               	movlw	0
 15253  004F6A  6E32               	movwf	i2___fldiv@b^0,c
 15254  004F6C  0E00               	movlw	0
 15255  004F6E  6E33               	movwf	(i2___fldiv@b+1)^0,c
 15256  004F70  0E00               	movlw	0
 15257  004F72  6E34               	movwf	(i2___fldiv@b+2)^0,c
 15258  004F74  0E00               	movlw	0
 15259  004F76  6E35               	movwf	(i2___fldiv@b+3)^0,c
 15260  004F78                     i2l4650:
 15261  004F78  BE44               	btfsc	(i2___fldiv@new_exp+1)^0,7,c
 15262  004F7A  D005               	goto	i2u512_40
 15263  004F7C  5044               	movf	(i2___fldiv@new_exp+1)^0,w,c
 15264  004F7E  E111               	bnz	i2l4654
 15265  004F80  0443               	decf	i2___fldiv@new_exp^0,w,c
 15266  004F82  B0D8               	btfsc	status,0,c
 15267  004F84  D00E               	goto	i2l4654
 15268  004F86                     i2u512_40:
 15269  004F86  0E00               	movlw	0
 15270  004F88  6E44               	movwf	(i2___fldiv@new_exp+1)^0,c
 15271  004F8A  0E00               	movlw	0
 15272  004F8C  6E43               	movwf	i2___fldiv@new_exp^0,c
 15273  004F8E  0E00               	movlw	0
 15274  004F90  6E32               	movwf	i2___fldiv@b^0,c
 15275  004F92  0E00               	movlw	0
 15276  004F94  6E33               	movwf	(i2___fldiv@b+1)^0,c
 15277  004F96  0E00               	movlw	0
 15278  004F98  6E34               	movwf	(i2___fldiv@b+2)^0,c
 15279  004F9A  0E00               	movlw	0
 15280  004F9C  6E35               	movwf	(i2___fldiv@b+3)^0,c
 15281  004F9E  0E00               	movlw	0
 15282  004FA0  6E42               	movwf	i2___fldiv@sign^0,c
 15283  004FA2                     i2l4654:
 15284  004FA2  C043  F049         	movff	i2___fldiv@new_exp,i2___fldiv@bexp
 15285  004FA6  A049               	btfss	i2___fldiv@bexp^0,0,c
 15286  004FA8  D002               	goto	i2l4660
 15287  004FAA  8E34               	bsf	(i2___fldiv@b+2)^0,7,c
 15288  004FAC  D001               	goto	i2l4662
 15289  004FAE                     i2l4660:
 15290  004FAE  9E34               	bcf	(i2___fldiv@b+2)^0,7,c
 15291  004FB0                     i2l4662:
 15292  004FB0  90D8               	bcf	status,0,c
 15293  004FB2  3049               	rrcf	i2___fldiv@bexp^0,w,c
 15294  004FB4  6E35               	movwf	(i2___fldiv@b+3)^0,c
 15295  004FB6  D70E               	goto	i2l4576
 15296  004FB8                     __end_ofi2___fldiv:
 15297                           	opt callstack 0
 15298                           
 15299 ;; *************** function ___flsub *****************
 15300 ;; Defined at:
 15301 ;;		line 245 in file "C:\Program Files (x86)\Microchip\xc8\v2.10\pic\sources\c99\common\sprcadd.c"
 15302 ;; Parameters:    Size  Location     Type
 15303 ;;  b               4   41[COMRAM] unsigned char 
 15304 ;;  a               4   45[COMRAM] unsigned char 
 15305 ;; Auto vars:     Size  Location     Type
 15306 ;;		None
 15307 ;; Return value:  Size  Location     Type
 15308 ;;                  4   41[COMRAM] unsigned char 
 15309 ;; Registers used:
 15310 ;;		wreg, status,2, status,0, cstack
 15311 ;; Tracked objects:
 15312 ;;		On entry : 0/0
 15313 ;;		On exit  : 0/0
 15314 ;;		Unchanged: 0/0
 15315 ;; Data sizes:     COMRAM   BANK0   BANK1   BANK2   BANK3   BANK4   BANK5
 15316 ;;      Params:         8       0       0       0       0       0       0
 15317 ;;      Locals:         0       0       0       0       0       0       0
 15318 ;;      Temps:          0       0       0       0       0       0       0
 15319 ;;      Totals:         8       0       0       0       0       0       0
 15320 ;;Total ram usage:        8 bytes
 15321 ;; Hardware stack levels used:    1
 15322 ;; Hardware stack levels required when called:    1
 15323 ;; This function calls:
 15324 ;;		i2___fladd
 15325 ;; This function is called by:
 15326 ;;		_MQGetPercentage
 15327 ;;		_log10f
 15328 ;;		_powf
 15329 ;; This function uses a non-reentrant model
 15330 ;;
 15331                           
 15332                           	psect	text55
 15333  00694A                     __ptext55:
 15334                           	opt callstack 0
 15335  00694A                     ___flsub:
 15336                           	opt callstack 20
 15337                           
 15338                           ;incstack = 0
 15339  00694A  0E00               	movlw	0
 15340  00694C  1A2E               	xorwf	___flsub@a^0,f,c
 15341  00694E  0E00               	movlw	0
 15342  006950  1A2F               	xorwf	(___flsub@a+1)^0,f,c
 15343  006952  0E00               	movlw	0
 15344  006954  1A30               	xorwf	(___flsub@a+2)^0,f,c
 15345  006956  0E80               	movlw	128
 15346  006958  1A31               	xorwf	(___flsub@a+3)^0,f,c
 15347  00695A  C02A  F001         	movff	___flsub@b,i2___fladd@b
 15348  00695E  C02B  F002         	movff	___flsub@b+1,i2___fladd@b+1
 15349  006962  C02C  F003         	movff	___flsub@b+2,i2___fladd@b+2
 15350  006966  C02D  F004         	movff	___flsub@b+3,i2___fladd@b+3
 15351  00696A  C02E  F005         	movff	___flsub@a,i2___fladd@a
 15352  00696E  C02F  F006         	movff	___flsub@a+1,i2___fladd@a+1
 15353  006972  C030  F007         	movff	___flsub@a+2,i2___fladd@a+2
 15354  006976  C031  F008         	movff	___flsub@a+3,i2___fladd@a+3
 15355  00697A  EC61  F022         	call	i2___fladd	;wreg free
 15356  00697E  C001  F02A         	movff	?i2___fladd,?___flsub
 15357  006982  C002  F02B         	movff	?i2___fladd+1,?___flsub+1
 15358  006986  C003  F02C         	movff	?i2___fladd+2,?___flsub+2
 15359  00698A  C004  F02D         	movff	?i2___fladd+3,?___flsub+3
 15360  00698E  0012               	return		;funcret
 15361  006990                     __end_of___flsub:
 15362                           	opt callstack 0
 15363                           
 15364 ;; *************** function i2___fladd *****************
 15365 ;; Defined at:
 15366 ;;		line 10 in file "C:\Program Files (x86)\Microchip\xc8\v2.10\pic\sources\c99\common\sprcadd.c"
 15367 ;; Parameters:    Size  Location     Type
 15368 ;;  b               4    0[COMRAM] unsigned char 
 15369 ;;  a               4    4[COMRAM] unsigned char 
 15370 ;; Auto vars:     Size  Location     Type
 15371 ;;  __fladd         1   15[COMRAM] unsigned char 
 15372 ;;  __fladd         1   14[COMRAM] unsigned char 
 15373 ;;  __fladd         1   13[COMRAM] unsigned char 
 15374 ;;  __fladd         1   12[COMRAM] unsigned char 
 15375 ;; Return value:  Size  Location     Type
 15376 ;;                  4    0[COMRAM] unsigned char 
 15377 ;; Registers used:
 15378 ;;		wreg, status,2, status,0
 15379 ;; Tracked objects:
 15380 ;;		On entry : 0/0
 15381 ;;		On exit  : 0/0
 15382 ;;		Unchanged: 0/0
 15383 ;; Data sizes:     COMRAM   BANK0   BANK1   BANK2   BANK3   BANK4   BANK5
 15384 ;;      Params:         8       0       0       0       0       0       0
 15385 ;;      Locals:         4       0       0       0       0       0       0
 15386 ;;      Temps:          4       0       0       0       0       0       0
 15387 ;;      Totals:        16       0       0       0       0       0       0
 15388 ;;Total ram usage:       16 bytes
 15389 ;; Hardware stack levels used:    1
 15390 ;; This function calls:
 15391 ;;		Nothing
 15392 ;; This function is called by:
 15393 ;;		_MQGetPercentage
 15394 ;;		___flsub
 15395 ;;		_log10f
 15396 ;;		_powf
 15397 ;;		_sqrtf
 15398 ;; This function uses a non-reentrant model
 15399 ;;
 15400                           
 15401                           	psect	text56
 15402  0044C2                     __ptext56:
 15403                           	opt callstack 0
 15404  0044C2                     i2___fladd:
 15405                           	opt callstack 22
 15406                           
 15407                           ;incstack = 0
 15408  0044C2  5004               	movf	(i2___fladd@b+3)^0,w,c
 15409  0044C4  0B80               	andlw	128
 15410  0044C6  6E0D               	movwf	i2___fladd@signs^0,c
 15411  0044C8  5004               	movf	(i2___fladd@b+3)^0,w,c
 15412  0044CA  2404               	addwf	(i2___fladd@b+3)^0,w,c
 15413  0044CC  6E0F               	movwf	i2___fladd@bexp^0,c
 15414  0044CE  BE03               	btfsc	(i2___fladd@b+2)^0,7,c
 15415  0044D0  800F               	bsf	i2___fladd@bexp^0,0,c
 15416  0044D2  500F               	movf	i2___fladd@bexp^0,w,c
 15417  0044D4  B4D8               	btfsc	status,2,c
 15418  0044D6  D00D               	goto	i2l3948
 15419  0044D8  280F               	incf	i2___fladd@bexp^0,w,c
 15420  0044DA  A4D8               	btfss	status,2,c
 15421  0044DC  D008               	goto	i2l3944
 15422  0044DE  0E00               	movlw	0
 15423  0044E0  6E01               	movwf	i2___fladd@b^0,c
 15424  0044E2  0E00               	movlw	0
 15425  0044E4  6E02               	movwf	(i2___fladd@b+1)^0,c
 15426  0044E6  0E00               	movlw	0
 15427  0044E8  6E03               	movwf	(i2___fladd@b+2)^0,c
 15428  0044EA  0E00               	movlw	0
 15429  0044EC  6E04               	movwf	(i2___fladd@b+3)^0,c
 15430  0044EE                     i2l3944:
 15431  0044EE  8E03               	bsf	(i2___fladd@b+2)^0,7,c
 15432  0044F0  D006               	goto	L17
 15433  0044F2                     i2l3948:
 15434  0044F2  0E00               	movlw	0
 15435  0044F4  6E01               	movwf	i2___fladd@b^0,c
 15436  0044F6  0E00               	movlw	0
 15437  0044F8  6E02               	movwf	(i2___fladd@b+1)^0,c
 15438  0044FA  0E00               	movlw	0
 15439  0044FC  6E03               	movwf	(i2___fladd@b+2)^0,c
 15440  0044FE                     L17:
 15441  0044FE  0E00               	movlw	0
 15442  004500  6E04               	movwf	(i2___fladd@b+3)^0,c
 15443  004502  5008               	movf	(i2___fladd@a+3)^0,w,c
 15444  004504  0B80               	andlw	128
 15445  004506  6E0E               	movwf	i2___fladd@aexp^0,c
 15446  004508  500D               	movf	i2___fladd@signs^0,w,c
 15447  00450A  180E               	xorwf	i2___fladd@aexp^0,w,c
 15448  00450C  A4D8               	btfss	status,2,c
 15449  00450E  8C0D               	bsf	i2___fladd@signs^0,6,c
 15450  004510  5008               	movf	(i2___fladd@a+3)^0,w,c
 15451  004512  2408               	addwf	(i2___fladd@a+3)^0,w,c
 15452  004514  6E0E               	movwf	i2___fladd@aexp^0,c
 15453  004516  BE07               	btfsc	(i2___fladd@a+2)^0,7,c
 15454  004518  800E               	bsf	i2___fladd@aexp^0,0,c
 15455  00451A  500E               	movf	i2___fladd@aexp^0,w,c
 15456  00451C  B4D8               	btfsc	status,2,c
 15457  00451E  D00D               	goto	i2l3972
 15458  004520  280E               	incf	i2___fladd@aexp^0,w,c
 15459  004522  A4D8               	btfss	status,2,c
 15460  004524  D008               	goto	i2l3968
 15461  004526  0E00               	movlw	0
 15462  004528  6E05               	movwf	i2___fladd@a^0,c
 15463  00452A  0E00               	movlw	0
 15464  00452C  6E06               	movwf	(i2___fladd@a+1)^0,c
 15465  00452E  0E00               	movlw	0
 15466  004530  6E07               	movwf	(i2___fladd@a+2)^0,c
 15467  004532  0E00               	movlw	0
 15468  004534  6E08               	movwf	(i2___fladd@a+3)^0,c
 15469  004536                     i2l3968:
 15470  004536  8E07               	bsf	(i2___fladd@a+2)^0,7,c
 15471  004538  D006               	goto	L18
 15472  00453A                     i2l3972:
 15473  00453A  0E00               	movlw	0
 15474  00453C  6E05               	movwf	i2___fladd@a^0,c
 15475  00453E  0E00               	movlw	0
 15476  004540  6E06               	movwf	(i2___fladd@a+1)^0,c
 15477  004542  0E00               	movlw	0
 15478  004544  6E07               	movwf	(i2___fladd@a+2)^0,c
 15479  004546                     L18:
 15480  004546  0E00               	movlw	0
 15481  004548  6E08               	movwf	(i2___fladd@a+3)^0,c
 15482  00454A  500F               	movf	i2___fladd@bexp^0,w,c
 15483  00454C  5C0E               	subwf	i2___fladd@aexp^0,w,c
 15484  00454E  B0D8               	btfsc	status,0,c
 15485  004550  D022               	goto	i2l4010
 15486  004552  AC0D               	btfss	i2___fladd@signs^0,6,c
 15487  004554  D002               	goto	i2l3980
 15488  004556  0E80               	movlw	128
 15489  004558  1A0D               	xorwf	i2___fladd@signs^0,f,c
 15490  00455A                     i2l3980:
 15491  00455A  C00F  F010         	movff	i2___fladd@bexp,i2___fladd@grs
 15492  00455E  C00E  F00F         	movff	i2___fladd@aexp,i2___fladd@bexp
 15493  004562  C010  F00E         	movff	i2___fladd@grs,i2___fladd@aexp
 15494  004566  C001  F010         	movff	i2___fladd@b,i2___fladd@grs
 15495  00456A  C005  F001         	movff	i2___fladd@a,i2___fladd@b
 15496  00456E  C010  F005         	movff	i2___fladd@grs,i2___fladd@a
 15497  004572  C002  F010         	movff	i2___fladd@b+1,i2___fladd@grs
 15498  004576  C006  F002         	movff	i2___fladd@a+1,i2___fladd@b+1
 15499  00457A  C010  F006         	movff	i2___fladd@grs,i2___fladd@a+1
 15500  00457E  C003  F010         	movff	i2___fladd@b+2,i2___fladd@grs
 15501  004582  C007  F003         	movff	i2___fladd@a+2,i2___fladd@b+2
 15502  004586  C010  F007         	movff	i2___fladd@grs,i2___fladd@a+2
 15503  00458A  C004  F010         	movff	i2___fladd@b+3,i2___fladd@grs
 15504  00458E  C008  F004         	movff	i2___fladd@a+3,i2___fladd@b+3
 15505  004592  C010  F008         	movff	i2___fladd@grs,i2___fladd@a+3
 15506  004596                     i2l4010:
 15507  004596  0E00               	movlw	0
 15508  004598  6E10               	movwf	i2___fladd@grs^0,c
 15509  00459A  500F               	movf	i2___fladd@bexp^0,w,c
 15510  00459C  C00E  F009         	movff	i2___fladd@aexp,??i2___fladd
 15511  0045A0  6A0A               	clrf	(??i2___fladd+1)^0,c
 15512  0045A2  5E09               	subwf	??i2___fladd^0,f,c
 15513  0045A4  0E00               	movlw	0
 15514  0045A6  5A0A               	subwfb	(??i2___fladd+1)^0,f,c
 15515  0045A8  BE0A               	btfsc	(??i2___fladd+1)^0,7,c
 15516  0045AA  D02C               	goto	i2l869
 15517  0045AC  500A               	movf	(??i2___fladd+1)^0,w,c
 15518  0045AE  E104               	bnz	i2u398_40
 15519  0045B0  0E1A               	movlw	26
 15520  0045B2  5C09               	subwf	??i2___fladd^0,w,c
 15521  0045B4  A0D8               	btfss	status,0,c
 15522  0045B6  D026               	goto	i2l869
 15523  0045B8                     i2u398_40:
 15524  0045B8  5001               	movf	i2___fladd@b^0,w,c
 15525  0045BA  1002               	iorwf	(i2___fladd@b+1)^0,w,c
 15526  0045BC  1003               	iorwf	(i2___fladd@b+2)^0,w,c
 15527  0045BE  1004               	iorwf	(i2___fladd@b+3)^0,w,c
 15528  0045C0  B4D8               	btfsc	status,2,c
 15529  0045C2  D002               	goto	i2u399_40
 15530  0045C4  0E01               	movlw	1
 15531  0045C6  D001               	goto	i2u400_40
 15532  0045C8                     i2u399_40:
 15533  0045C8  0E00               	movlw	0
 15534  0045CA                     i2u400_40:
 15535  0045CA  6E10               	movwf	i2___fladd@grs^0,c
 15536  0045CC  0E00               	movlw	0
 15537  0045CE  6E01               	movwf	i2___fladd@b^0,c
 15538  0045D0  0E00               	movlw	0
 15539  0045D2  6E02               	movwf	(i2___fladd@b+1)^0,c
 15540  0045D4  0E00               	movlw	0
 15541  0045D6  6E03               	movwf	(i2___fladd@b+2)^0,c
 15542  0045D8  0E00               	movlw	0
 15543  0045DA  6E04               	movwf	(i2___fladd@b+3)^0,c
 15544  0045DC  C00E  F00F         	movff	i2___fladd@aexp,i2___fladd@bexp
 15545  0045E0  D015               	goto	i2u403_40
 15546  0045E2                     i2l870:
 15547  0045E2  A010               	btfss	i2___fladd@grs^0,0,c
 15548  0045E4  D005               	goto	i2l4022
 15549  0045E6  90D8               	bcf	status,0,c
 15550  0045E8  3010               	rrcf	i2___fladd@grs^0,w,c
 15551  0045EA  0901               	iorlw	1
 15552  0045EC  6E10               	movwf	i2___fladd@grs^0,c
 15553  0045EE  D002               	goto	i2l4024
 15554  0045F0                     i2l4022:
 15555  0045F0  90D8               	bcf	status,0,c
 15556  0045F2  3210               	rrcf	i2___fladd@grs^0,f,c
 15557  0045F4                     i2l4024:
 15558  0045F4  B001               	btfsc	i2___fladd@b^0,0,c
 15559  0045F6  8E10               	bsf	i2___fladd@grs^0,7,c
 15560  0045F8  3404               	rlcf	(i2___fladd@b+3)^0,w,c
 15561  0045FA  3204               	rrcf	(i2___fladd@b+3)^0,f,c
 15562  0045FC  3203               	rrcf	(i2___fladd@b+2)^0,f,c
 15563  0045FE  3202               	rrcf	(i2___fladd@b+1)^0,f,c
 15564  004600  3201               	rrcf	i2___fladd@b^0,f,c
 15565  004602  2A0F               	incf	i2___fladd@bexp^0,f,c
 15566  004604                     i2l869:
 15567  004604  500E               	movf	i2___fladd@aexp^0,w,c
 15568  004606  5C0F               	subwf	i2___fladd@bexp^0,w,c
 15569  004608  A0D8               	btfss	status,0,c
 15570  00460A  D7EB               	goto	i2l870
 15571  00460C                     i2u403_40:
 15572  00460C  BC0D               	btfsc	i2___fladd@signs^0,6,c
 15573  00460E  D028               	goto	i2l4056
 15574  004610  500F               	movf	i2___fladd@bexp^0,w,c
 15575  004612  A4D8               	btfss	status,2,c
 15576  004614  D009               	goto	i2l4038
 15577  004616  0E00               	movlw	0
 15578  004618  6E01               	movwf	?i2___fladd^0,c
 15579  00461A  0E00               	movlw	0
 15580  00461C  6E02               	movwf	(?i2___fladd+1)^0,c
 15581  00461E  0E00               	movlw	0
 15582  004620  6E03               	movwf	(?i2___fladd+2)^0,c
 15583  004622  0E00               	movlw	0
 15584  004624  6E04               	movwf	(?i2___fladd+3)^0,c
 15585  004626  0012               	return	
 15586  004628                     i2l4038:
 15587  004628  5005               	movf	i2___fladd@a^0,w,c
 15588  00462A  2601               	addwf	i2___fladd@b^0,f,c
 15589  00462C  5006               	movf	(i2___fladd@a+1)^0,w,c
 15590  00462E  2202               	addwfc	(i2___fladd@b+1)^0,f,c
 15591  004630  5007               	movf	(i2___fladd@a+2)^0,w,c
 15592  004632  2203               	addwfc	(i2___fladd@b+2)^0,f,c
 15593  004634  5008               	movf	(i2___fladd@a+3)^0,w,c
 15594  004636  2204               	addwfc	(i2___fladd@b+3)^0,f,c
 15595  004638  A004               	btfss	(i2___fladd@b+3)^0,0,c
 15596  00463A  D071               	goto	i2u416_40
 15597  00463C  A010               	btfss	i2___fladd@grs^0,0,c
 15598  00463E  D005               	goto	i2l4046
 15599  004640  90D8               	bcf	status,0,c
 15600  004642  3010               	rrcf	i2___fladd@grs^0,w,c
 15601  004644  0901               	iorlw	1
 15602  004646  6E10               	movwf	i2___fladd@grs^0,c
 15603  004648  D002               	goto	i2l4048
 15604  00464A                     i2l4046:
 15605  00464A  90D8               	bcf	status,0,c
 15606  00464C  3210               	rrcf	i2___fladd@grs^0,f,c
 15607  00464E                     i2l4048:
 15608  00464E  B001               	btfsc	i2___fladd@b^0,0,c
 15609  004650  8E10               	bsf	i2___fladd@grs^0,7,c
 15610  004652  3404               	rlcf	(i2___fladd@b+3)^0,w,c
 15611  004654  3204               	rrcf	(i2___fladd@b+3)^0,f,c
 15612  004656  3203               	rrcf	(i2___fladd@b+2)^0,f,c
 15613  004658  3202               	rrcf	(i2___fladd@b+1)^0,f,c
 15614  00465A  3201               	rrcf	i2___fladd@b^0,f,c
 15615  00465C  2A0F               	incf	i2___fladd@bexp^0,f,c
 15616  00465E  D05F               	goto	i2u416_40
 15617  004660                     i2l4056:
 15618  004660  5005               	movf	i2___fladd@a^0,w,c
 15619  004662  5C01               	subwf	i2___fladd@b^0,w,c
 15620  004664  5006               	movf	(i2___fladd@a+1)^0,w,c
 15621  004666  5802               	subwfb	(i2___fladd@b+1)^0,w,c
 15622  004668  5007               	movf	(i2___fladd@a+2)^0,w,c
 15623  00466A  5803               	subwfb	(i2___fladd@b+2)^0,w,c
 15624  00466C  5004               	movf	(i2___fladd@b+3)^0,w,c
 15625  00466E  0A80               	xorlw	128
 15626  004670  6E09               	movwf	??i2___fladd^0,c
 15627  004672  5008               	movf	(i2___fladd@a+3)^0,w,c
 15628  004674  0A80               	xorlw	128
 15629  004676  5809               	subwfb	??i2___fladd^0,w,c
 15630  004678  B0D8               	btfsc	status,0,c
 15631  00467A  D025               	goto	i2l4066
 15632  00467C  5001               	movf	i2___fladd@b^0,w,c
 15633  00467E  5C05               	subwf	i2___fladd@a^0,w,c
 15634  004680  6E09               	movwf	??i2___fladd^0,c
 15635  004682  5002               	movf	(i2___fladd@b+1)^0,w,c
 15636  004684  5806               	subwfb	(i2___fladd@a+1)^0,w,c
 15637  004686  6E0A               	movwf	(??i2___fladd+1)^0,c
 15638  004688  5003               	movf	(i2___fladd@b+2)^0,w,c
 15639  00468A  5807               	subwfb	(i2___fladd@a+2)^0,w,c
 15640  00468C  6E0B               	movwf	(??i2___fladd+2)^0,c
 15641  00468E  5004               	movf	(i2___fladd@b+3)^0,w,c
 15642  004690  5808               	subwfb	(i2___fladd@a+3)^0,w,c
 15643  004692  6E0C               	movwf	(??i2___fladd+3)^0,c
 15644  004694  0EFF               	movlw	255
 15645  004696  2409               	addwf	??i2___fladd^0,w,c
 15646  004698  6E01               	movwf	i2___fladd@b^0,c
 15647  00469A  0EFF               	movlw	255
 15648  00469C  200A               	addwfc	(??i2___fladd+1)^0,w,c
 15649  00469E  6E02               	movwf	(i2___fladd@b+1)^0,c
 15650  0046A0  0EFF               	movlw	255
 15651  0046A2  200B               	addwfc	(??i2___fladd+2)^0,w,c
 15652  0046A4  6E03               	movwf	(i2___fladd@b+2)^0,c
 15653  0046A6  0EFF               	movlw	255
 15654  0046A8  200C               	addwfc	(??i2___fladd+3)^0,w,c
 15655  0046AA  6E04               	movwf	(i2___fladd@b+3)^0,c
 15656  0046AC  0E80               	movlw	128
 15657  0046AE  1A0D               	xorwf	i2___fladd@signs^0,f,c
 15658  0046B0  6C10               	negf	i2___fladd@grs^0,c
 15659  0046B2  5010               	movf	i2___fladd@grs^0,w,c
 15660  0046B4  A4D8               	btfss	status,2,c
 15661  0046B6  D00F               	goto	i2l885
 15662  0046B8  0E01               	movlw	1
 15663  0046BA  2601               	addwf	i2___fladd@b^0,f,c
 15664  0046BC  0E00               	movlw	0
 15665  0046BE  2202               	addwfc	(i2___fladd@b+1)^0,f,c
 15666  0046C0  2203               	addwfc	(i2___fladd@b+2)^0,f,c
 15667  0046C2  2204               	addwfc	(i2___fladd@b+3)^0,f,c
 15668  0046C4  D008               	goto	i2l885
 15669  0046C6                     i2l4066:
 15670  0046C6  5005               	movf	i2___fladd@a^0,w,c
 15671  0046C8  5E01               	subwf	i2___fladd@b^0,f,c
 15672  0046CA  5006               	movf	(i2___fladd@a+1)^0,w,c
 15673  0046CC  5A02               	subwfb	(i2___fladd@b+1)^0,f,c
 15674  0046CE  5007               	movf	(i2___fladd@a+2)^0,w,c
 15675  0046D0  5A03               	subwfb	(i2___fladd@b+2)^0,f,c
 15676  0046D2  5008               	movf	(i2___fladd@a+3)^0,w,c
 15677  0046D4  5A04               	subwfb	(i2___fladd@b+3)^0,f,c
 15678  0046D6                     i2l885:
 15679  0046D6  5001               	movf	i2___fladd@b^0,w,c
 15680  0046D8  1002               	iorwf	(i2___fladd@b+1)^0,w,c
 15681  0046DA  1003               	iorwf	(i2___fladd@b+2)^0,w,c
 15682  0046DC  1004               	iorwf	(i2___fladd@b+3)^0,w,c
 15683  0046DE  A4D8               	btfss	status,2,c
 15684  0046E0  D01C               	goto	i2l4090
 15685  0046E2  5010               	movf	i2___fladd@grs^0,w,c
 15686  0046E4  A4D8               	btfss	status,2,c
 15687  0046E6  D019               	goto	i2l4090
 15688  0046E8  0E00               	movlw	0
 15689  0046EA  6E01               	movwf	?i2___fladd^0,c
 15690  0046EC  0E00               	movlw	0
 15691  0046EE  6E02               	movwf	(?i2___fladd+1)^0,c
 15692  0046F0  0E00               	movlw	0
 15693  0046F2  6E03               	movwf	(?i2___fladd+2)^0,c
 15694  0046F4  0E00               	movlw	0
 15695  0046F6  6E04               	movwf	(?i2___fladd+3)^0,c
 15696  0046F8  0012               	return	
 15697  0046FA                     i2l4074:
 15698  0046FA  90D8               	bcf	status,0,c
 15699  0046FC  3601               	rlcf	i2___fladd@b^0,f,c
 15700  0046FE  3602               	rlcf	(i2___fladd@b+1)^0,f,c
 15701  004700  3603               	rlcf	(i2___fladd@b+2)^0,f,c
 15702  004702  3604               	rlcf	(i2___fladd@b+3)^0,f,c
 15703  004704  BE10               	btfsc	i2___fladd@grs^0,7,c
 15704  004706  8001               	bsf	i2___fladd@b^0,0,c
 15705  004708  A010               	btfss	i2___fladd@grs^0,0,c
 15706  00470A  D002               	goto	i2l4084
 15707  00470C  80D8               	bsf	status,0,c
 15708  00470E  D001               	goto	L19
 15709  004710                     i2l4084:
 15710  004710  90D8               	bcf	status,0,c
 15711  004712                     L19:
 15712  004712  3610               	rlcf	i2___fladd@grs^0,f,c
 15713  004714  500F               	movf	i2___fladd@bexp^0,w,c
 15714  004716  A4D8               	btfss	status,2,c
 15715  004718  060F               	decf	i2___fladd@bexp^0,f,c
 15716  00471A                     i2l4090:
 15717  00471A  AE03               	btfss	(i2___fladd@b+2)^0,7,c
 15718  00471C  D7EE               	goto	i2l4074
 15719  00471E                     i2u416_40:
 15720  00471E  0E00               	movlw	0
 15721  004720  6E0E               	movwf	i2___fladd@aexp^0,c
 15722  004722  AE10               	btfss	i2___fladd@grs^0,7,c
 15723  004724  D00B               	goto	i2l894
 15724  004726  C010  F009         	movff	i2___fladd@grs,??i2___fladd
 15725  00472A  0E7F               	movlw	127
 15726  00472C  1609               	andwf	??i2___fladd^0,f,c
 15727  00472E  B4D8               	btfsc	status,2,c
 15728  004730  D003               	goto	i2l895
 15729  004732                     i2u418_40:
 15730  004732  0E01               	movlw	1
 15731  004734  6E0E               	movwf	i2___fladd@aexp^0,c
 15732  004736  D002               	goto	i2l894
 15733  004738                     i2l895:
 15734  004738  B001               	btfsc	i2___fladd@b^0,0,c
 15735  00473A  D7FB               	goto	i2u418_40
 15736  00473C                     i2l894:
 15737  00473C  500E               	movf	i2___fladd@aexp^0,w,c
 15738  00473E  B4D8               	btfsc	status,2,c
 15739  004740  D020               	goto	i2l4110
 15740  004742  0E01               	movlw	1
 15741  004744  2601               	addwf	i2___fladd@b^0,f,c
 15742  004746  0E00               	movlw	0
 15743  004748  2202               	addwfc	(i2___fladd@b+1)^0,f,c
 15744  00474A  2203               	addwfc	(i2___fladd@b+2)^0,f,c
 15745  00474C  2204               	addwfc	(i2___fladd@b+3)^0,f,c
 15746  00474E  A004               	btfss	(i2___fladd@b+3)^0,0,c
 15747  004750  D018               	goto	i2l4110
 15748  004752  C001  F009         	movff	i2___fladd@b,??i2___fladd
 15749  004756  C002  F00A         	movff	i2___fladd@b+1,??i2___fladd+1
 15750  00475A  C003  F00B         	movff	i2___fladd@b+2,??i2___fladd+2
 15751  00475E  C004  F00C         	movff	i2___fladd@b+3,??i2___fladd+3
 15752  004762  340C               	rlcf	(??i2___fladd+3)^0,w,c
 15753  004764  320C               	rrcf	(??i2___fladd+3)^0,f,c
 15754  004766  320B               	rrcf	(??i2___fladd+2)^0,f,c
 15755  004768  320A               	rrcf	(??i2___fladd+1)^0,f,c
 15756  00476A  3209               	rrcf	??i2___fladd^0,f,c
 15757  00476C  C009  F001         	movff	??i2___fladd,i2___fladd@b
 15758  004770  C00A  F002         	movff	??i2___fladd+1,i2___fladd@b+1
 15759  004774  C00B  F003         	movff	??i2___fladd+2,i2___fladd@b+2
 15760  004778  C00C  F004         	movff	??i2___fladd+3,i2___fladd@b+3
 15761  00477C  280F               	incf	i2___fladd@bexp^0,w,c
 15762  00477E  A4D8               	btfss	status,2,c
 15763  004780  2A0F               	incf	i2___fladd@bexp^0,f,c
 15764  004782                     i2l4110:
 15765  004782  280F               	incf	i2___fladd@bexp^0,w,c
 15766  004784  B4D8               	btfsc	status,2,c
 15767  004786  D003               	goto	i2u424_40
 15768  004788  500F               	movf	i2___fladd@bexp^0,w,c
 15769  00478A  A4D8               	btfss	status,2,c
 15770  00478C  D00D               	goto	i2l4118
 15771  00478E                     i2u424_40:
 15772  00478E  0E00               	movlw	0
 15773  004790  6E01               	movwf	i2___fladd@b^0,c
 15774  004792  0E00               	movlw	0
 15775  004794  6E02               	movwf	(i2___fladd@b+1)^0,c
 15776  004796  0E00               	movlw	0
 15777  004798  6E03               	movwf	(i2___fladd@b+2)^0,c
 15778  00479A  0E00               	movlw	0
 15779  00479C  6E04               	movwf	(i2___fladd@b+3)^0,c
 15780  00479E  500F               	movf	i2___fladd@bexp^0,w,c
 15781  0047A0  A4D8               	btfss	status,2,c
 15782  0047A2  D002               	goto	i2l4118
 15783  0047A4  0E00               	movlw	0
 15784  0047A6  6E0D               	movwf	i2___fladd@signs^0,c
 15785  0047A8                     i2l4118:
 15786  0047A8  A00F               	btfss	i2___fladd@bexp^0,0,c
 15787  0047AA  D002               	goto	i2l4122
 15788  0047AC  8E03               	bsf	(i2___fladd@b+2)^0,7,c
 15789  0047AE  D001               	goto	i2l4124
 15790  0047B0                     i2l4122:
 15791  0047B0  9E03               	bcf	(i2___fladd@b+2)^0,7,c
 15792  0047B2                     i2l4124:
 15793  0047B2  90D8               	bcf	status,0,c
 15794  0047B4  300F               	rrcf	i2___fladd@bexp^0,w,c
 15795  0047B6  6E04               	movwf	(i2___fladd@b+3)^0,c
 15796  0047B8  BE0D               	btfsc	i2___fladd@signs^0,7,c
 15797  0047BA  8E04               	bsf	(i2___fladd@b+3)^0,7,c
 15798  0047BC  C001  F001         	movff	i2___fladd@b,?i2___fladd
 15799  0047C0  C002  F002         	movff	i2___fladd@b+1,?i2___fladd+1
 15800  0047C4  C003  F003         	movff	i2___fladd@b+2,?i2___fladd+2
 15801  0047C8  C004  F004         	movff	i2___fladd@b+3,?i2___fladd+3
 15802  0047CC  0012               	return		;funcret
 15803  0047CE                     __end_ofi2___fladd:
 15804                           	opt callstack 0
 15805                           
 15806 ;; *************** function ___fltol *****************
 15807 ;; Defined at:
 15808 ;;		line 43 in file "C:\Program Files (x86)\Microchip\xc8\v2.10\pic\sources\c99\common\fltol.c"
 15809 ;; Parameters:    Size  Location     Type
 15810 ;;  f1              4  118[COMRAM] unsigned char 
 15811 ;; Auto vars:     Size  Location     Type
 15812 ;;  exp1            1   92[BANK0 ] unsigned char 
 15813 ;;  sign1           1   91[BANK0 ] unsigned char 
 15814 ;; Return value:  Size  Location     Type
 15815 ;;                  4  118[COMRAM] long 
 15816 ;; Registers used:
 15817 ;;		wreg, status,2, status,0
 15818 ;; Tracked objects:
 15819 ;;		On entry : 0/0
 15820 ;;		On exit  : 0/0
 15821 ;;		Unchanged: 0/0
 15822 ;; Data sizes:     COMRAM   BANK0   BANK1   BANK2   BANK3   BANK4   BANK5
 15823 ;;      Params:         4       0       0       0       0       0       0
 15824 ;;      Locals:         0       2       0       0       0       0       0
 15825 ;;      Temps:          4       0       0       0       0       0       0
 15826 ;;      Totals:         8       2       0       0       0       0       0
 15827 ;;Total ram usage:       10 bytes
 15828 ;; Hardware stack levels used:    1
 15829 ;; This function calls:
 15830 ;;		Nothing
 15831 ;; This function is called by:
 15832 ;;		_MQGetPercentage
 15833 ;;		_Hi_ISR
 15834 ;; This function uses a non-reentrant model
 15835 ;;
 15836                           
 15837                           	psect	text57
 15838  0064EC                     __ptext57:
 15839                           	opt callstack 0
 15840  0064EC                     ___fltol:
 15841                           	opt callstack 25
 15842                           
 15843                           ;incstack = 0
 15844  0064EC  3479               	rlcf	(___fltol@f1+2)^0,w,c
 15845  0064EE  347A               	rlcf	(___fltol@f1+3)^0,w,c
 15846  0064F0  0100               	movlb	0	; () banked
 15847  0064F2  6FDC               	movwf	___fltol@exp1& (0+255),b
 15848  0064F4  51DC               	movf	___fltol@exp1& (0+255),w,b
 15849  0064F6  A4D8               	btfss	status,2,c
 15850  0064F8  D009               	goto	i2l5386
 15851  0064FA                     i2u612_40:
 15852                           
 15853                           ; BSR set to: 0
 15854  0064FA  0E00               	movlw	0
 15855  0064FC  6E77               	movwf	?___fltol^0,c
 15856  0064FE  0E00               	movlw	0
 15857  006500  6E78               	movwf	(?___fltol+1)^0,c
 15858  006502  0E00               	movlw	0
 15859  006504  6E79               	movwf	(?___fltol+2)^0,c
 15860  006506  0E00               	movlw	0
 15861  006508  6E7A               	movwf	(?___fltol+3)^0,c
 15862  00650A  0012               	return	
 15863  00650C                     i2l5386:
 15864                           
 15865                           ; BSR set to: 0
 15866  00650C  C077  F07B         	movff	___fltol@f1,??___fltol
 15867  006510  C078  F07C         	movff	___fltol@f1+1,??___fltol+1
 15868  006514  C079  F07D         	movff	___fltol@f1+2,??___fltol+2
 15869  006518  C07A  F07E         	movff	___fltol@f1+3,??___fltol+3
 15870  00651C  0E20               	movlw	32
 15871  00651E  D005               	goto	i2u613_40
 15872  006520                     i2u613_45:
 15873  006520  90D8               	bcf	status,0,c
 15874  006522  327E               	rrcf	(??___fltol+3)^0,f,c
 15875  006524  327D               	rrcf	(??___fltol+2)^0,f,c
 15876  006526  327C               	rrcf	(??___fltol+1)^0,f,c
 15877  006528  327B               	rrcf	??___fltol^0,f,c
 15878  00652A                     i2u613_40:
 15879  00652A  2EE8               	decfsz	wreg,f,c
 15880  00652C  D7F9               	goto	i2u613_45
 15881  00652E  507B               	movf	??___fltol^0,w,c
 15882  006530  6FDB               	movwf	___fltol@sign1& (0+255),b
 15883                           
 15884                           ; BSR set to: 0
 15885  006532  8E79               	bsf	(___fltol@f1+2)^0,7,c
 15886                           
 15887                           ; BSR set to: 0
 15888  006534  0EFF               	movlw	255
 15889  006536  1677               	andwf	___fltol@f1^0,f,c
 15890  006538  0EFF               	movlw	255
 15891  00653A  1678               	andwf	(___fltol@f1+1)^0,f,c
 15892  00653C  0EFF               	movlw	255
 15893  00653E  1679               	andwf	(___fltol@f1+2)^0,f,c
 15894  006540  0E00               	movlw	0
 15895  006542  167A               	andwf	(___fltol@f1+3)^0,f,c
 15896                           
 15897                           ; BSR set to: 0
 15898  006544  0E96               	movlw	150
 15899  006546  5FDC               	subwf	___fltol@exp1& (0+255),f,b
 15900                           
 15901                           ; BSR set to: 0
 15902  006548  AFDC               	btfss	___fltol@exp1& (0+255),7,b
 15903  00654A  D00D               	goto	i2l5406
 15904                           
 15905                           ; BSR set to: 0
 15906  00654C  51DC               	movf	___fltol@exp1& (0+255),w,b
 15907  00654E  0A80               	xorlw	128
 15908  006550  0F97               	addlw	151
 15909  006552  A0D8               	btfss	status,0,c
 15910  006554  D7D2               	goto	i2u612_40
 15911  006556                     i2l5402:
 15912                           
 15913                           ; BSR set to: 0
 15914  006556  90D8               	bcf	status,0,c
 15915  006558  327A               	rrcf	(___fltol@f1+3)^0,f,c
 15916  00655A  3279               	rrcf	(___fltol@f1+2)^0,f,c
 15917  00655C  3278               	rrcf	(___fltol@f1+1)^0,f,c
 15918  00655E  3277               	rrcf	___fltol@f1^0,f,c
 15919                           
 15920                           ; BSR set to: 0
 15921  006560  3FDC               	incfsz	___fltol@exp1& (0+255),f,b
 15922  006562  D7F9               	goto	i2l5402
 15923  006564  D00D               	goto	i2u617_40
 15924  006566                     i2l5406:
 15925                           
 15926                           ; BSR set to: 0
 15927  006566  0E1F               	movlw	31
 15928  006568  65DC               	cpfsgt	___fltol@exp1& (0+255),b
 15929  00656A  D007               	goto	i2l5414
 15930  00656C  D7C6               	goto	i2u612_40
 15931  00656E                     i2l5412:
 15932                           
 15933                           ; BSR set to: 0
 15934  00656E  90D8               	bcf	status,0,c
 15935  006570  3677               	rlcf	___fltol@f1^0,f,c
 15936  006572  3678               	rlcf	(___fltol@f1+1)^0,f,c
 15937  006574  3679               	rlcf	(___fltol@f1+2)^0,f,c
 15938  006576  367A               	rlcf	(___fltol@f1+3)^0,f,c
 15939  006578  07DC               	decf	___fltol@exp1& (0+255),f,b
 15940  00657A                     i2l5414:
 15941                           
 15942                           ; BSR set to: 0
 15943  00657A  51DC               	movf	___fltol@exp1& (0+255),w,b
 15944  00657C  A4D8               	btfss	status,2,c
 15945  00657E  D7F7               	goto	i2l5412
 15946  006580                     i2u617_40:
 15947                           
 15948                           ; BSR set to: 0
 15949  006580  51DB               	movf	___fltol@sign1& (0+255),w,b
 15950  006582  B4D8               	btfsc	status,2,c
 15951  006584  D008               	goto	i2l5420
 15952                           
 15953                           ; BSR set to: 0
 15954  006586  1E7A               	comf	(___fltol@f1+3)^0,f,c
 15955  006588  1E79               	comf	(___fltol@f1+2)^0,f,c
 15956  00658A  1E78               	comf	(___fltol@f1+1)^0,f,c
 15957  00658C  6C77               	negf	___fltol@f1^0,c
 15958  00658E  0E00               	movlw	0
 15959  006590  2278               	addwfc	(___fltol@f1+1)^0,f,c
 15960  006592  2279               	addwfc	(___fltol@f1+2)^0,f,c
 15961  006594  227A               	addwfc	(___fltol@f1+3)^0,f,c
 15962  006596                     i2l5420:
 15963                           
 15964                           ; BSR set to: 0
 15965  006596  C077  F077         	movff	___fltol@f1,?___fltol
 15966  00659A  C078  F078         	movff	___fltol@f1+1,?___fltol+1
 15967  00659E  C079  F079         	movff	___fltol@f1+2,?___fltol+2
 15968  0065A2  C07A  F07A         	movff	___fltol@f1+3,?___fltol+3
 15969                           
 15970                           ; BSR set to: 0
 15971  0065A6  0012               	return		;funcret
 15972  0065A8                     __end_of___fltol:
 15973                           	opt callstack 0
 15974                           
 15975 ;; *************** function _DHT11_Start *****************
 15976 ;; Defined at:
 15977 ;;		line 15 in file "setting_hardaware/dht.c"
 15978 ;; Parameters:    Size  Location     Type
 15979 ;;		None
 15980 ;; Auto vars:     Size  Location     Type
 15981 ;;		None
 15982 ;; Return value:  Size  Location     Type
 15983 ;;                  1    wreg      void 
 15984 ;; Registers used:
 15985 ;;		wreg
 15986 ;; Tracked objects:
 15987 ;;		On entry : 0/0
 15988 ;;		On exit  : 0/0
 15989 ;;		Unchanged: 0/0
 15990 ;; Data sizes:     COMRAM   BANK0   BANK1   BANK2   BANK3   BANK4   BANK5
 15991 ;;      Params:         0       0       0       0       0       0       0
 15992 ;;      Locals:         0       0       0       0       0       0       0
 15993 ;;      Temps:          1       0       0       0       0       0       0
 15994 ;;      Totals:         1       0       0       0       0       0       0
 15995 ;;Total ram usage:        1 bytes
 15996 ;; Hardware stack levels used:    1
 15997 ;; This function calls:
 15998 ;;		Nothing
 15999 ;; This function is called by:
 16000 ;;		_Hi_ISR
 16001 ;; This function uses a non-reentrant model
 16002 ;;
 16003                           
 16004                           	psect	text58
 16005  006C4E                     __ptext58:
 16006                           	opt callstack 0
 16007  006C4E                     _DHT11_Start:
 16008                           	opt callstack 25
 16009                           
 16010                           ;setting_hardaware/dht.c: 16:     TRISAbits.RA2 = 0;
 16011                           
 16012                           ; BSR set to: 0
 16013                           ;incstack = 0
 16014  006C4E  9492               	bcf	146,2,c	;volatile
 16015                           
 16016                           ;setting_hardaware/dht.c: 17:     LATAbits.LATA2 = 0;
 16017  006C50  9489               	bcf	137,2,c	;volatile
 16018                           
 16019                           ;setting_hardaware/dht.c: 18:     _delay((unsigned long)((18)*(4000000/4000.0)));
 16020  006C52  0E18               	movlw	24
 16021  006C54  6E01               	movwf	??_DHT11_Start^0,c
 16022  006C56  0E5F               	movlw	95
 16023  006C58                     i2u773_47:
 16024  006C58  2EE8               	decfsz	wreg,f,c
 16025  006C5A  D7FE               	bra	i2u773_47
 16026  006C5C  2E01               	decfsz	??_DHT11_Start^0,f,c
 16027  006C5E  D7FC               	bra	i2u773_47
 16028  006C60  F000               	nop	
 16029                           
 16030                           ;setting_hardaware/dht.c: 19:     LATAbits.LATA2 = 1;
 16031  006C62  8489               	bsf	137,2,c	;volatile
 16032                           
 16033                           ;setting_hardaware/dht.c: 20:     _delay((unsigned long)((20)*(4000000/4000000.0)));
 16034  006C64  0E06               	movlw	6
 16035  006C66                     i2u774_47:
 16036  006C66  2EE8               	decfsz	wreg,f,c
 16037  006C68  D7FE               	bra	i2u774_47
 16038  006C6A  D000               	nop2	
 16039                           
 16040                           ;setting_hardaware/dht.c: 21:     TRISAbits.RA2 = 1;
 16041  006C6C  8492               	bsf	146,2,c	;volatile
 16042  006C6E  0012               	return		;funcret
 16043  006C70                     __end_of_DHT11_Start:
 16044                           	opt callstack 0
 16045                           
 16046 ;; *************** function _DHT11_ReadData *****************
 16047 ;; Defined at:
 16048 ;;		line 27 in file "setting_hardaware/dht.c"
 16049 ;; Parameters:    Size  Location     Type
 16050 ;;		None
 16051 ;; Auto vars:     Size  Location     Type
 16052 ;;  data            1    1[COMRAM] unsigned char 
 16053 ;;  i               1    0[COMRAM] unsigned char 
 16054 ;; Return value:  Size  Location     Type
 16055 ;;                  1    wreg      unsigned char 
 16056 ;; Registers used:
 16057 ;;		wreg, status,2, status,0
 16058 ;; Tracked objects:
 16059 ;;		On entry : 0/0
 16060 ;;		On exit  : 0/0
 16061 ;;		Unchanged: 0/0
 16062 ;; Data sizes:     COMRAM   BANK0   BANK1   BANK2   BANK3   BANK4   BANK5
 16063 ;;      Params:         0       0       0       0       0       0       0
 16064 ;;      Locals:         2       0       0       0       0       0       0
 16065 ;;      Temps:          0       0       0       0       0       0       0
 16066 ;;      Totals:         2       0       0       0       0       0       0
 16067 ;;Total ram usage:        2 bytes
 16068 ;; Hardware stack levels used:    1
 16069 ;; This function calls:
 16070 ;;		Nothing
 16071 ;; This function is called by:
 16072 ;;		_Hi_ISR
 16073 ;; This function uses a non-reentrant model
 16074 ;;
 16075                           
 16076                           	psect	text59
 16077  006A6C                     __ptext59:
 16078                           	opt callstack 0
 16079  006A6C                     _DHT11_ReadData:
 16080                           	opt callstack 25
 16081                           
 16082                           ;setting_hardaware/dht.c: 28:     char i, data = 0;
 16083                           
 16084                           ;incstack = 0
 16085  006A6C  0E00               	movlw	0
 16086  006A6E  6E02               	movwf	DHT11_ReadData@data^0,c
 16087                           
 16088                           ;setting_hardaware/dht.c: 29:     for (i = 0; i < 8; i++) {
 16089  006A70  0E00               	movlw	0
 16090  006A72  6E01               	movwf	DHT11_ReadData@i^0,c
 16091  006A74                     i2l177:
 16092  006A74  A480               	btfss	128,2,c	;volatile
 16093  006A76  D7FE               	goto	i2l177
 16094                           
 16095                           ;setting_hardaware/dht.c: 31:         _delay((unsigned long)((30)*(4000000/4000000.0)));
 16096  006A78  0E0A               	movlw	10
 16097  006A7A                     i2u775_47:
 16098  006A7A  2EE8               	decfsz	wreg,f,c
 16099  006A7C  D7FE               	bra	i2u775_47
 16100                           
 16101                           ;setting_hardaware/dht.c: 32:         if (PORTAbits.RA2 & 1)
 16102  006A7E  A480               	btfss	128,2,c	;volatile
 16103  006A80  D003               	goto	i2l6218
 16104                           
 16105                           ;setting_hardaware/dht.c: 33:             data = ((data << 1) | 1);
 16106  006A82  80D8               	bsf	status,0,c
 16107  006A84  3602               	rlcf	DHT11_ReadData@data^0,f,c
 16108  006A86  D003               	goto	i2l182
 16109  006A88                     i2l6218:
 16110                           
 16111                           ;setting_hardaware/dht.c: 35:             data = (data << 1);
 16112  006A88  5002               	movf	DHT11_ReadData@data^0,w,c
 16113  006A8A  2402               	addwf	DHT11_ReadData@data^0,w,c
 16114  006A8C  6E02               	movwf	DHT11_ReadData@data^0,c
 16115  006A8E                     i2l182:
 16116  006A8E  B480               	btfsc	128,2,c	;volatile
 16117  006A90  D7FE               	goto	i2l182
 16118                           
 16119                           ;setting_hardaware/dht.c: 37:     }
 16120  006A92  2A01               	incf	DHT11_ReadData@i^0,f,c
 16121  006A94  0E07               	movlw	7
 16122  006A96  6401               	cpfsgt	DHT11_ReadData@i^0,c
 16123  006A98  D7ED               	goto	i2l177
 16124                           
 16125                           ;setting_hardaware/dht.c: 38:     return data;
 16126  006A9A  5002               	movf	DHT11_ReadData@data^0,w,c
 16127  006A9C  0012               	return		;funcret
 16128  006A9E                     __end_of_DHT11_ReadData:
 16129                           	opt callstack 0
 16130                           
 16131 ;; *************** function _DHT11_CheckResponse *****************
 16132 ;; Defined at:
 16133 ;;		line 6 in file "setting_hardaware/dht.c"
 16134 ;; Parameters:    Size  Location     Type
 16135 ;;		None
 16136 ;; Auto vars:     Size  Location     Type
 16137 ;;		None
 16138 ;; Return value:  Size  Location     Type
 16139 ;;                  1    wreg      void 
 16140 ;; Registers used:
 16141 ;;		None
 16142 ;; Tracked objects:
 16143 ;;		On entry : 0/0
 16144 ;;		On exit  : 0/0
 16145 ;;		Unchanged: 0/0
 16146 ;; Data sizes:     COMRAM   BANK0   BANK1   BANK2   BANK3   BANK4   BANK5
 16147 ;;      Params:         0       0       0       0       0       0       0
 16148 ;;      Locals:         0       0       0       0       0       0       0
 16149 ;;      Temps:          0       0       0       0       0       0       0
 16150 ;;      Totals:         0       0       0       0       0       0       0
 16151 ;;Total ram usage:        0 bytes
 16152 ;; Hardware stack levels used:    1
 16153 ;; This function calls:
 16154 ;;		Nothing
 16155 ;; This function is called by:
 16156 ;;		_Hi_ISR
 16157 ;; This function uses a non-reentrant model
 16158 ;;
 16159                           
 16160                           	psect	text60
 16161  006D08                     __ptext60:
 16162                           	opt callstack 0
 16163  006D08                     _DHT11_CheckResponse:
 16164                           	opt callstack 25
 16165                           
 16166                           ;setting_hardaware/dht.c: 7:     while (PORTAbits.RA2 & 1);
 16167                           
 16168                           ;incstack = 0
 16169  006D08  B480               	btfsc	128,2,c	;volatile
 16170  006D0A  D7FE               	goto	_DHT11_CheckResponse
 16171  006D0C                     i2u732_40:
 16172  006D0C  A480               	btfss	128,2,c	;volatile
 16173  006D0E  D7FE               	goto	i2u732_40
 16174  006D10                     i2u733_40:
 16175  006D10  A480               	btfss	128,2,c	;volatile
 16176  006D12  0012               	return	
 16177  006D14  D7FD               	goto	i2u733_40
 16178  006D16                     __end_of_DHT11_CheckResponse:
 16179                           	opt callstack 0
 16180                           
 16181                           	psect	rparam
 16182  0000                     
 16183                           	psect	temp
 16184  00007F                     btemp:
 16185                           	opt callstack 0
 16186  00007F                     	ds	1
 16187  0000                     int$flags	set	btemp
 16188  0000                     wtemp8	set	btemp+1
 16189  0000                     ttemp5	set	btemp+1
 16190  0000                     ttemp6	set	btemp+4
 16191  0000                     ttemp7	set	btemp+8
 16192                           tosu	equ	0xFFF
 16193                           tosh	equ	0xFFE
 16194                           tosl	equ	0xFFD
 16195                           stkptr	equ	0xFFC
 16196                           pclatu	equ	0xFFB
 16197                           pclath	equ	0xFFA
 16198                           pcl	equ	0xFF9
 16199                           tblptru	equ	0xFF8
 16200                           tblptrh	equ	0xFF7
 16201                           tblptrl	equ	0xFF6
 16202                           tablat	equ	0xFF5
 16203                           prodh	equ	0xFF4
 16204                           prodl	equ	0xFF3
 16205                           indf0	equ	0xFEF
 16206                           postinc0	equ	0xFEE
 16207                           postdec0	equ	0xFED
 16208                           preinc0	equ	0xFEC
 16209                           plusw0	equ	0xFEB
 16210                           fsr0h	equ	0xFEA
 16211                           fsr0l	equ	0xFE9
 16212                           wreg	equ	0xFE8
 16213                           indf1	equ	0xFE7
 16214                           postinc1	equ	0xFE6
 16215                           postdec1	equ	0xFE5
 16216                           preinc1	equ	0xFE4
 16217                           plusw1	equ	0xFE3
 16218                           fsr1h	equ	0xFE2
 16219                           fsr1l	equ	0xFE1
 16220                           bsr	equ	0xFE0
 16221                           indf2	equ	0xFDF
 16222                           postinc2	equ	0xFDE
 16223                           postdec2	equ	0xFDD
 16224                           preinc2	equ	0xFDC
 16225                           plusw2	equ	0xFDB
 16226                           fsr2h	equ	0xFDA
 16227                           fsr2l	equ	0xFD9
 16228                           status	equ	0xFD8


Data Sizes:
    Strings     42
    Constant    156
    Data        44
    BSS         175
    Persistent  0
    Stack       0

Auto Spaces:
    Space          Size  Autos    Used
    COMRAM          126    126     126
    BANK0           128    125     128
    BANK1           256    221     253
    BANK2           256     78     162
    BANK3           256      0     100
    BANK4           256      0       0
    BANK5           244      0       0

Pointer List with Targets:

    nanf@s	PTR const unsigned char  size(2) Largest target is 1
		 -> STR_5(CODE[1]), 

    strlen@s	PTR const unsigned char  size(2) Largest target is 32
		 -> dbuf(BANK2[32]), 

    strlen@a	PTR const unsigned char  size(2) Largest target is 32
		 -> dbuf(BANK2[32]), 

    sprintf@fmt	PTR const unsigned char  size(2) Largest target is 19
		 -> STR_4(CODE[9]), STR_3(CODE[19]), 

    sprintf@s	PTR unsigned char  size(2) Largest target is 100
		 -> r(BANK3[100]), 

    sprintf@ap	PTR void [1] size(2) Largest target is 2
		 -> ?_sprintf(BANK0[2]), 

    f.buffer	PTR unsigned char  size(2) Largest target is 100
		 -> r(BANK3[100]), 

    fputs@s	PTR const unsigned char  size(2) Largest target is 32
		 -> dbuf(BANK2[32]), 

    fputs@fp	PTR struct _IO_FILE size(2) Largest target is 7
		 -> sprintf@f(BANK0[6]), 

    S1550_IO_FILE$buffer	PTR unsigned char  size(2) Largest target is 100
		 -> r(BANK3[100]), 

    fputc@fp.buffer	PTR unsigned char  size(2) Largest target is 100
		 -> r(BANK3[100]), 

    fputc@fp	PTR struct _IO_FILE size(2) Largest target is 7
		 -> sprintf@f(BANK0[6]), 

    memset@dest	PTR void  size(2) Largest target is 100
		 -> r(BANK3[100]), 

    memset@s	PTR unsigned char  size(2) Largest target is 100
		 -> r(BANK3[100]), 

    atoi@s	PTR const unsigned char  size(2) Largest target is 19
		 -> STR_4(CODE[9]), STR_3(CODE[19]), 

    vfprintf@ap	PTR PTR void  size(2) Largest target is 2
		 -> sprintf@ap(BANK0[2]), 

    vfprintf@fp	PTR struct _IO_FILE size(2) Largest target is 7
		 -> sprintf@f(BANK0[6]), 

    vfprintf@fmt	PTR const unsigned char  size(2) Largest target is 19
		 -> STR_4(CODE[9]), STR_3(CODE[19]), 

    vfprintf@cfmt	PTR unsigned char  size(2) Largest target is 19
		 -> STR_4(CODE[9]), STR_3(CODE[19]), 

    vfpfcnvrt@fp	PTR struct _IO_FILE size(2) Largest target is 7
		 -> sprintf@f(BANK0[6]), 

    vfpfcnvrt@ap	PTR PTR void  size(2) Largest target is 2
		 -> sprintf@ap(BANK0[2]), 

    vfpfcnvrt@fmt	PTR PTR unsigned char  size(2) Largest target is 2
		 -> vfprintf@cfmt(COMRAM[2]), 

    dtoa@fp	PTR struct _IO_FILE size(2) Largest target is 7
		 -> sprintf@f(BANK0[6]), 

    pad@fp	PTR struct _IO_FILE size(2) Largest target is 7
		 -> sprintf@f(BANK0[6]), 

    pad@buf	PTR unsigned char  size(2) Largest target is 32
		 -> dbuf(BANK2[32]), 

    sp__memset	PTR void  size(2) Largest target is 100
		 -> r(BANK3[100]), 

    Send2Lcd@Lcd	PTR const unsigned char  size(2) Largest target is 100
		 -> r(BANK3[100]), STR_2(CODE[6]), STR_1(CODE[8]), 

    MQ_Read@values	PTR  size(2) Largest target is 12
		 -> value(BANK2[12]), 

    MQGetPercentage@pcurve	PTR  size(2) Largest target is 12
		 -> SmokeCurve(BANK2[12]), COCurve(BANK2[12]), LPGCurve(BANK2[12]), 


Critical Paths under _main in COMRAM

    None.

Critical Paths under _Hi_ISR in COMRAM

    _Hi_ISR->___fltol
    i2_Send2Lcd->i2_Cmd
    i2_Send2Lcd->i2_Data
    i2_LCD_clear->i2_Cmd
    _sprintf->___fltol
    _vfprintf->_vfpfcnvrt
    _vfpfcnvrt->_dtoa
    _dtoa->_pad
    _pad->_fputs
    _fputs->_fputc
    _abs->___aomod
    _atoi->_isspace
    _MQGetPercentage->___fltol
    _powf->_sqrtf
    _sqrtf->___flge
    ___flge->___flsub
    _scalbnf->i2___flmul
    _log10f->i2___fldiv
    i2___flmul->i2___fladd
    i2___fldiv->___flsub
    ___flsub->i2___flmul
    ___fltol->_powf

Critical Paths under _main in BANK0

    None.

Critical Paths under _Hi_ISR in BANK0

    _Hi_ISR->_MQ_Read
    _sprintf->___fltol
    _MQ_Read->_MQGetGasPercentage
    _MQGetGasPercentage->_MQGetPercentage
    _MQGetPercentage->___fltol
    _powf->_log10f
    ___fltol->_powf

Critical Paths under _main in BANK1

    None.

Critical Paths under _Hi_ISR in BANK1

    _Hi_ISR->_MQ_Read
    _MQGetPercentage->_powf
    ___fltol->_powf

Critical Paths under _main in BANK2

    _SYSTEM_Initialize->_ADC_Initialize
    _buzzer_init->_speak
    _LCD_init->_Send2Lcd
    _Send2Lcd->_Cmd
    _Send2Lcd->_Data
    _LCD_clear->_Cmd
    _ADC_Initialize->___fldiv
    ___flmul->___xxtofl
    ___fldiv->___flmul

Critical Paths under _Hi_ISR in BANK2

    None.

Critical Paths under _main in BANK3

    None.

Critical Paths under _Hi_ISR in BANK3

    None.

Critical Paths under _main in BANK4

    None.

Critical Paths under _Hi_ISR in BANK4

    None.

Critical Paths under _main in BANK5

    None.

Critical Paths under _Hi_ISR in BANK5

    None.

Call Graph Tables:

 ---------------------------------------------------------------------------------
 (Depth) Function   	        Calls       Base Space   Used Autos Params    Refs
 ---------------------------------------------------------------------------------
 (0) _main                                                 0     0      0   22862
                  _SYSTEM_Initialize
 ---------------------------------------------------------------------------------
 (1) _SYSTEM_Initialize                                    0     0      0   22862
                     _ADC_Initialize
               _INTERRUPT_Initialize
                           _LCD_init
              _OSCILLATOR_Initialize
             _PIN_MANAGER_Initialize
                    _TMR1_Initialize
                        _buzzer_init
 ---------------------------------------------------------------------------------
 (2) _buzzer_init                                          0     0      0       0
                              _speak
 ---------------------------------------------------------------------------------
 (3) _speak                                                1     1      0       0
                                              0 BANK2      1     1      0
 ---------------------------------------------------------------------------------
 (2) _TMR1_Initialize                                      0     0      0       0
 ---------------------------------------------------------------------------------
 (2) _PIN_MANAGER_Initialize                               0     0      0       0
 ---------------------------------------------------------------------------------
 (2) _OSCILLATOR_Initialize                                0     0      0       0
 ---------------------------------------------------------------------------------
 (2) _LCD_init                                             1     1      0    1623
                                              7 BANK2      1     1      0
                                _Cmd
                          _LCD_clear
                           _Send2Lcd
 ---------------------------------------------------------------------------------
 (3) _Send2Lcd                                             4     2      2     819
                                              3 BANK2      4     2      2
                                _Cmd
                               _Data
 ---------------------------------------------------------------------------------
 (4) _Data                                                 3     1      2      98
                                              0 BANK2      3     1      2
 ---------------------------------------------------------------------------------
 (3) _LCD_clear                                            0     0      0     402
                                _Cmd
 ---------------------------------------------------------------------------------
 (4) _Cmd                                                  3     1      2     402
                                              0 BANK2      3     1      2
 ---------------------------------------------------------------------------------
 (2) _INTERRUPT_Initialize                                 0     0      0       0
 ---------------------------------------------------------------------------------
 (2) _ADC_Initialize                                      14    14      0   21239
                                             64 BANK2     14    14      0
                            ___fladd
                            ___fldiv
                            ___flmul
                           ___xxtofl
 ---------------------------------------------------------------------------------
 (3) ___xxtofl                                            14    10      4     824
                                              0 BANK2     14    10      4
 ---------------------------------------------------------------------------------
 (3) ___flmul                                             25    17      8   10044
                                             14 BANK2     25    17      8
                           ___xxtofl (ARG)
 ---------------------------------------------------------------------------------
 (3) ___fldiv                                             25    17      8    3103
                                             39 BANK2     25    17      8
                            ___flmul (ARG)
                           ___xxtofl (ARG)
 ---------------------------------------------------------------------------------
 (3) ___fladd                                             16     8      8    7062
                                              0 BANK2     16     8      8
 ---------------------------------------------------------------------------------
 Estimated maximum stack depth 4
 ---------------------------------------------------------------------------------
 (Depth) Function   	        Calls       Base Space   Used Autos Params    Refs
 ---------------------------------------------------------------------------------
 (5) _Hi_ISR                                              11    11      0  117935
                                            210 BANK1     11    11      0
                _DHT11_CheckResponse
                     _DHT11_ReadData
                        _DHT11_Start
                            _MQ_Read
                             ___flge
                            ___fltol
                             _memset
                            _sprintf
                        i2_LCD_clear
                         i2_Send2Lcd
                            i2_speak
 ---------------------------------------------------------------------------------
 (6) i2_speak                                              1     1      0       0
                                              0 COMRAM     1     1      0
 ---------------------------------------------------------------------------------
 (6) i2_Send2Lcd                                           4     2      2     241
                                              3 COMRAM     4     2      2
                              i2_Cmd
                             i2_Data
 ---------------------------------------------------------------------------------
 (7) i2_Data                                               3     1      2      48
                                              0 COMRAM     3     1      2
 ---------------------------------------------------------------------------------
 (6) i2_LCD_clear                                          0     0      0      74
                              i2_Cmd
 ---------------------------------------------------------------------------------
 (7) i2_Cmd                                                3     1      2      74
                                              0 COMRAM     3     1      2
 ---------------------------------------------------------------------------------
 (6) _sprintf                                             22    10     12    8277
                                             93 BANK0     22    10     12
                            ___fltol (ARG)
                           _vfprintf
 ---------------------------------------------------------------------------------
 (7) _vfprintf                                             8     2      6    7772
                                             83 COMRAM     8     2      6
                          _vfpfcnvrt
 ---------------------------------------------------------------------------------
 (8) _vfpfcnvrt                                           46    40      6    7410
                                             63 COMRAM    20    14      6
                               _atoi
                               _dtoa
                              _fputc
                            _isdigit
 ---------------------------------------------------------------------------------
 (9) _dtoa                                                36    26     10    4358
                                             27 COMRAM    36    26     10
                            ___aodiv
                            ___aomod
                                _abs
                                _pad
 ---------------------------------------------------------------------------------
 (10) _pad                                                11     5      6    2709
                                             16 COMRAM    11     5      6
                              _fputc
                              _fputs
                             _strlen
 ---------------------------------------------------------------------------------
 (11) _strlen                                              4     2      2     166
                                              0 COMRAM     4     2      2
 ---------------------------------------------------------------------------------
 (11) _fputs                                               7     3      4    1235
                                              9 COMRAM     7     3      4
                              _fputc
 ---------------------------------------------------------------------------------
 (9) _fputc                                                9     5      4     834
                                              0 COMRAM     9     5      4
                              _putch
 ---------------------------------------------------------------------------------
 (10) _putch                                               1     1      0       0
 ---------------------------------------------------------------------------------
 (10) _abs                                                 4     2      2     142
                                             18 COMRAM     4     2      2
                            ___aomod (ARG)
 ---------------------------------------------------------------------------------
 (10) ___aomod                                            18     2     16     448
                                              0 COMRAM    18     2     16
 ---------------------------------------------------------------------------------
 (10) ___aodiv                                            26    10     16     452
                                              0 COMRAM    26    10     16
 ---------------------------------------------------------------------------------
 (9) _atoi                                                15    13      2    1244
                                              7 COMRAM    15    13      2
                             ___wmul
                            _isdigit
                            _isspace
 ---------------------------------------------------------------------------------
 (10) _isspace                                             7     5      2     207
                                              0 COMRAM     7     5      2
 ---------------------------------------------------------------------------------
 (9) _isdigit                                              6     4      2     237
                                              0 COMRAM     6     4      2
 ---------------------------------------------------------------------------------
 (10) ___wmul                                              6     2      4     403
                                              0 COMRAM     6     2      4
 ---------------------------------------------------------------------------------
 (6) _memset                                              12     6      6    1175
                                              0 COMRAM    12     6      6
 ---------------------------------------------------------------------------------
 (6) _MQ_Read                                             26    24      2  105818
                                            121 BANK0      4     2      2
                                            188 BANK1     22    22      0
                 _MQGetGasPercentage
                             ___flge
                          i2___fldiv
                          i2___flmul
                         i2___xxtofl
 ---------------------------------------------------------------------------------
 (7) _MQGetGasPercentage                                  10     4      6   95520
                                            111 BANK0     10     4      6
                    _MQGetPercentage
                         i2___xxtofl
 ---------------------------------------------------------------------------------
 (8) _MQGetPercentage                                     18    12      6   94359
                                             93 BANK0     18    12      6
                            ___flsub
                            ___fltol
                             _log10f
                               _powf
                          i2___fladd
                          i2___fldiv
 ---------------------------------------------------------------------------------
 (9) _powf                                               205   197      8   51634
                                            110 COMRAM     8     0      8
                                             82 BANK0      9     9      0
                                              0 BANK1    188   188      0
                             ___flge
                            ___flneg
                            ___flsub
                              _fabsf
                             _log10f (ARG)
                            _scalbnf
                              _sqrtf
                          i2___fladd
                          i2___fldiv
                          i2___flmul
                         i2___xxtofl
 ---------------------------------------------------------------------------------
 (10) _sqrtf                                              49    45      4   13005
                                             61 COMRAM    49    45      4
                             ___flge
                               _nanf
                          i2___fladd
                          i2___flmul
 ---------------------------------------------------------------------------------
 (11) _nanf                                                8     4      4      99
                                              0 COMRAM     8     4      4
 ---------------------------------------------------------------------------------
 (6) ___flge                                              12     4      8    1702
                                             49 COMRAM    12     4      8
                            ___flsub (ARG)
                          i2___fladd (ARG)
 ---------------------------------------------------------------------------------
 (10) _scalbnf                                            18    12      6    6277
                                             41 COMRAM    18    12      6
                          i2___flmul
 ---------------------------------------------------------------------------------
 (10) _fabsf                                               8     4      4     123
                                              0 COMRAM     8     4      4
 ---------------------------------------------------------------------------------
 (10) ___flneg                                             4     0      4     197
                                              0 COMRAM     4     0      4
 ---------------------------------------------------------------------------------
 (9) _log10f                                              92    88      4   24671
                                             74 COMRAM    10     6      4
                                              0 BANK0     82    82      0
                            ___flsub
                          i2___fladd
                          i2___fldiv
                          i2___flmul
                         i2___xxtofl
 ---------------------------------------------------------------------------------
 (7) i2___xxtofl                                          14    10      4     504
                                              0 COMRAM    14    10      4
 ---------------------------------------------------------------------------------
 (7) i2___flmul                                           25    17      8    5782
                                             16 COMRAM    25    17      8
                          i2___fladd (ARG)
                         i2___xxtofl (ARG)
 ---------------------------------------------------------------------------------
 (7) i2___fldiv                                           25    17      8    1849
                                             49 COMRAM    25    17      8
                            ___flsub (ARG)
                          i2___fladd (ARG)
                          i2___flmul (ARG)
                         i2___xxtofl (ARG)
 ---------------------------------------------------------------------------------
 (10) ___flsub                                             8     0      8   10579
                                             41 COMRAM     8     0      8
                          i2___fladd
                          i2___flmul (ARG)
 ---------------------------------------------------------------------------------
 (9) i2___fladd                                           16     8      8    4480
                                              0 COMRAM    16     8      8
 ---------------------------------------------------------------------------------
 (6) ___fltol                                             10     6      4     533
                                            118 COMRAM     8     4      4
                                             91 BANK0      2     2      0
                            ___flsub (ARG)
                             _log10f (ARG)
                               _powf (ARG)
                          i2___fladd (ARG)
                          i2___fldiv (ARG)
 ---------------------------------------------------------------------------------
 (6) _DHT11_Start                                          1     1      0       0
                                              0 COMRAM     1     1      0
 ---------------------------------------------------------------------------------
 (6) _DHT11_ReadData                                       2     2      0     115
                                              0 COMRAM     2     2      0
 ---------------------------------------------------------------------------------
 (6) _DHT11_CheckResponse                                  0     0      0       0
 ---------------------------------------------------------------------------------
 Estimated maximum stack depth 11
 ---------------------------------------------------------------------------------

 Call Graph Graphs:

 _main (ROOT)
   _SYSTEM_Initialize
     _ADC_Initialize
       ___fladd
       ___fldiv
         ___flmul (ARG)
           ___xxtofl (ARG)
         ___xxtofl (ARG)
       ___flmul
         ___xxtofl (ARG)
       ___xxtofl
     _INTERRUPT_Initialize
     _LCD_init
       _Cmd
       _LCD_clear
         _Cmd
       _Send2Lcd
         _Cmd
         _Data
     _OSCILLATOR_Initialize
     _PIN_MANAGER_Initialize
     _TMR1_Initialize
     _buzzer_init
       _speak

 _Hi_ISR (ROOT)
   _DHT11_CheckResponse
   _DHT11_ReadData
   _DHT11_Start
   _MQ_Read
     _MQGetGasPercentage
       _MQGetPercentage
         ___flsub
           i2___fladd
           i2___flmul (ARG)
             i2___fladd (ARG)
             i2___xxtofl (ARG)
         ___fltol
           ___flsub (ARG)
             i2___fladd
             i2___flmul (ARG)
               i2___fladd (ARG)
               i2___xxtofl (ARG)
           _log10f (ARG)
             ___flsub
               i2___fladd
               i2___flmul (ARG)
                 i2___fladd (ARG)
                 i2___xxtofl (ARG)
             i2___fladd
             i2___fldiv
               ___flsub (ARG)
                 i2___fladd
                 i2___flmul (ARG)
                   i2___fladd (ARG)
                   i2___xxtofl (ARG)
               i2___fladd (ARG)
               i2___flmul (ARG)
                 i2___fladd (ARG)
                 i2___xxtofl (ARG)
               i2___xxtofl (ARG)
             i2___flmul
               i2___fladd (ARG)
               i2___xxtofl (ARG)
             i2___xxtofl
           _powf (ARG)
             ___flge
               ___flsub (ARG)
                 i2___fladd
                 i2___flmul (ARG)
                   i2___fladd (ARG)
                   i2___xxtofl (ARG)
               i2___fladd (ARG)
             ___flneg
             ___flsub
               i2___fladd
               i2___flmul (ARG)
                 i2___fladd (ARG)
                 i2___xxtofl (ARG)
             _fabsf
             _log10f (ARG)
               ___flsub
                 i2___fladd
                 i2___flmul (ARG)
                   i2___fladd (ARG)
                   i2___xxtofl (ARG)
               i2___fladd
               i2___fldiv
                 ___flsub (ARG)
                   i2___fladd
                   i2___flmul (ARG)
                     i2___fladd (ARG)
                     i2___xxtofl (ARG)
                 i2___fladd (ARG)
                 i2___flmul (ARG)
                   i2___fladd (ARG)
                   i2___xxtofl (ARG)
                 i2___xxtofl (ARG)
               i2___flmul
                 i2___fladd (ARG)
                 i2___xxtofl (ARG)
               i2___xxtofl
             _scalbnf (ARG)
               i2___flmul
                 i2___fladd (ARG)
                 i2___xxtofl (ARG)
             _sqrtf (ARG)
               ___flge
                 ___flsub (ARG)
                   i2___fladd
                   i2___flmul (ARG)
                     i2___fladd (ARG)
                     i2___xxtofl (ARG)
                 i2___fladd (ARG)
               _nanf
               i2___fladd
               i2___flmul
                 i2___fladd (ARG)
                 i2___xxtofl (ARG)
             i2___fladd (ARG)
             i2___fldiv (ARG)
               ___flsub (ARG)
                 i2___fladd
                 i2___flmul (ARG)
                   i2___fladd (ARG)
                   i2___xxtofl (ARG)
               i2___fladd (ARG)
               i2___flmul (ARG)
                 i2___fladd (ARG)
                 i2___xxtofl (ARG)
               i2___xxtofl (ARG)
             i2___flmul (ARG)
               i2___fladd (ARG)
               i2___xxtofl (ARG)
             i2___xxtofl (ARG)
           i2___fladd (ARG)
           i2___fldiv (ARG)
             ___flsub (ARG)
               i2___fladd
               i2___flmul (ARG)
                 i2___fladd (ARG)
                 i2___xxtofl (ARG)
             i2___fladd (ARG)
             i2___flmul (ARG)
               i2___fladd (ARG)
               i2___xxtofl (ARG)
             i2___xxtofl (ARG)
         _log10f
           ___flsub
             i2___fladd
             i2___flmul (ARG)
               i2___fladd (ARG)
               i2___xxtofl (ARG)
           i2___fladd
           i2___fldiv
             ___flsub (ARG)
               i2___fladd
               i2___flmul (ARG)
                 i2___fladd (ARG)
                 i2___xxtofl (ARG)
             i2___fladd (ARG)
             i2___flmul (ARG)
               i2___fladd (ARG)
               i2___xxtofl (ARG)
             i2___xxtofl (ARG)
           i2___flmul
             i2___fladd (ARG)
             i2___xxtofl (ARG)
           i2___xxtofl
         _powf
           ___flge
             ___flsub (ARG)
               i2___fladd
               i2___flmul (ARG)
                 i2___fladd (ARG)
                 i2___xxtofl (ARG)
             i2___fladd (ARG)
           ___flneg
           ___flsub
             i2___fladd
             i2___flmul (ARG)
               i2___fladd (ARG)
               i2___xxtofl (ARG)
           _fabsf
           _log10f (ARG)
             ___flsub
               i2___fladd
               i2___flmul (ARG)
                 i2___fladd (ARG)
                 i2___xxtofl (ARG)
             i2___fladd
             i2___fldiv
               ___flsub (ARG)
                 i2___fladd
                 i2___flmul (ARG)
                   i2___fladd (ARG)
                   i2___xxtofl (ARG)
               i2___fladd (ARG)
               i2___flmul (ARG)
                 i2___fladd (ARG)
                 i2___xxtofl (ARG)
               i2___xxtofl (ARG)
             i2___flmul
               i2___fladd (ARG)
               i2___xxtofl (ARG)
             i2___xxtofl
           _scalbnf (ARG)
             i2___flmul
               i2___fladd (ARG)
               i2___xxtofl (ARG)
           _sqrtf (ARG)
             ___flge
               ___flsub (ARG)
                 i2___fladd
                 i2___flmul (ARG)
                   i2___fladd (ARG)
                   i2___xxtofl (ARG)
               i2___fladd (ARG)
             _nanf
             i2___fladd
             i2___flmul
               i2___fladd (ARG)
               i2___xxtofl (ARG)
           i2___fladd (ARG)
           i2___fldiv (ARG)
             ___flsub (ARG)
               i2___fladd
               i2___flmul (ARG)
                 i2___fladd (ARG)
                 i2___xxtofl (ARG)
             i2___fladd (ARG)
             i2___flmul (ARG)
               i2___fladd (ARG)
               i2___xxtofl (ARG)
             i2___xxtofl (ARG)
           i2___flmul (ARG)
             i2___fladd (ARG)
             i2___xxtofl (ARG)
           i2___xxtofl (ARG)
         i2___fladd
         i2___fldiv
           ___flsub (ARG)
             i2___fladd
             i2___flmul (ARG)
               i2___fladd (ARG)
               i2___xxtofl (ARG)
           i2___fladd (ARG)
           i2___flmul (ARG)
             i2___fladd (ARG)
             i2___xxtofl (ARG)
           i2___xxtofl (ARG)
       i2___xxtofl
     ___flge
       ___flsub (ARG)
         i2___fladd
         i2___flmul (ARG)
           i2___fladd (ARG)
           i2___xxtofl (ARG)
       i2___fladd (ARG)
     i2___fldiv
       ___flsub (ARG)
         i2___fladd
         i2___flmul (ARG)
           i2___fladd (ARG)
           i2___xxtofl (ARG)
       i2___fladd (ARG)
       i2___flmul (ARG)
         i2___fladd (ARG)
         i2___xxtofl (ARG)
       i2___xxtofl (ARG)
     i2___flmul
       i2___fladd (ARG)
       i2___xxtofl (ARG)
     i2___xxtofl
   ___flge
     ___flsub (ARG)
       i2___fladd
       i2___flmul (ARG)
         i2___fladd (ARG)
         i2___xxtofl (ARG)
     i2___fladd (ARG)
   ___fltol
     ___flsub (ARG)
       i2___fladd
       i2___flmul (ARG)
         i2___fladd (ARG)
         i2___xxtofl (ARG)
     _log10f (ARG)
       ___flsub
         i2___fladd
         i2___flmul (ARG)
           i2___fladd (ARG)
           i2___xxtofl (ARG)
       i2___fladd
       i2___fldiv
         ___flsub (ARG)
           i2___fladd
           i2___flmul (ARG)
             i2___fladd (ARG)
             i2___xxtofl (ARG)
         i2___fladd (ARG)
         i2___flmul (ARG)
           i2___fladd (ARG)
           i2___xxtofl (ARG)
         i2___xxtofl (ARG)
       i2___flmul
         i2___fladd (ARG)
         i2___xxtofl (ARG)
       i2___xxtofl
     _powf (ARG)
       ___flge
         ___flsub (ARG)
           i2___fladd
           i2___flmul (ARG)
             i2___fladd (ARG)
             i2___xxtofl (ARG)
         i2___fladd (ARG)
       ___flneg
       ___flsub
         i2___fladd
         i2___flmul (ARG)
           i2___fladd (ARG)
           i2___xxtofl (ARG)
       _fabsf
       _log10f (ARG)
         ___flsub
           i2___fladd
           i2___flmul (ARG)
             i2___fladd (ARG)
             i2___xxtofl (ARG)
         i2___fladd
         i2___fldiv
           ___flsub (ARG)
             i2___fladd
             i2___flmul (ARG)
               i2___fladd (ARG)
               i2___xxtofl (ARG)
           i2___fladd (ARG)
           i2___flmul (ARG)
             i2___fladd (ARG)
             i2___xxtofl (ARG)
           i2___xxtofl (ARG)
         i2___flmul
           i2___fladd (ARG)
           i2___xxtofl (ARG)
         i2___xxtofl
       _scalbnf (ARG)
         i2___flmul
           i2___fladd (ARG)
           i2___xxtofl (ARG)
       _sqrtf (ARG)
         ___flge
           ___flsub (ARG)
             i2___fladd
             i2___flmul (ARG)
               i2___fladd (ARG)
               i2___xxtofl (ARG)
           i2___fladd (ARG)
         _nanf
         i2___fladd
         i2___flmul
           i2___fladd (ARG)
           i2___xxtofl (ARG)
       i2___fladd (ARG)
       i2___fldiv (ARG)
         ___flsub (ARG)
           i2___fladd
           i2___flmul (ARG)
             i2___fladd (ARG)
             i2___xxtofl (ARG)
         i2___fladd (ARG)
         i2___flmul (ARG)
           i2___fladd (ARG)
           i2___xxtofl (ARG)
         i2___xxtofl (ARG)
       i2___flmul (ARG)
         i2___fladd (ARG)
         i2___xxtofl (ARG)
       i2___xxtofl (ARG)
     i2___fladd (ARG)
     i2___fldiv (ARG)
       ___flsub (ARG)
         i2___fladd
         i2___flmul (ARG)
           i2___fladd (ARG)
           i2___xxtofl (ARG)
       i2___fladd (ARG)
       i2___flmul (ARG)
         i2___fladd (ARG)
         i2___xxtofl (ARG)
       i2___xxtofl (ARG)
   _memset
   _sprintf
     ___fltol (ARG)
       ___flsub (ARG)
         i2___fladd
         i2___flmul (ARG)
           i2___fladd (ARG)
           i2___xxtofl (ARG)
       _log10f (ARG)
         ___flsub
           i2___fladd
           i2___flmul (ARG)
             i2___fladd (ARG)
             i2___xxtofl (ARG)
         i2___fladd
         i2___fldiv
           ___flsub (ARG)
             i2___fladd
             i2___flmul (ARG)
               i2___fladd (ARG)
               i2___xxtofl (ARG)
           i2___fladd (ARG)
           i2___flmul (ARG)
             i2___fladd (ARG)
             i2___xxtofl (ARG)
           i2___xxtofl (ARG)
         i2___flmul
           i2___fladd (ARG)
           i2___xxtofl (ARG)
         i2___xxtofl
       _powf (ARG)
         ___flge
           ___flsub (ARG)
             i2___fladd
             i2___flmul (ARG)
               i2___fladd (ARG)
               i2___xxtofl (ARG)
           i2___fladd (ARG)
         ___flneg
         ___flsub
           i2___fladd
           i2___flmul (ARG)
             i2___fladd (ARG)
             i2___xxtofl (ARG)
         _fabsf
         _log10f (ARG)
           ___flsub
             i2___fladd
             i2___flmul (ARG)
               i2___fladd (ARG)
               i2___xxtofl (ARG)
           i2___fladd
           i2___fldiv
             ___flsub (ARG)
               i2___fladd
               i2___flmul (ARG)
                 i2___fladd (ARG)
                 i2___xxtofl (ARG)
             i2___fladd (ARG)
             i2___flmul (ARG)
               i2___fladd (ARG)
               i2___xxtofl (ARG)
             i2___xxtofl (ARG)
           i2___flmul
             i2___fladd (ARG)
             i2___xxtofl (ARG)
           i2___xxtofl
         _scalbnf (ARG)
           i2___flmul
             i2___fladd (ARG)
             i2___xxtofl (ARG)
         _sqrtf (ARG)
           ___flge
             ___flsub (ARG)
               i2___fladd
               i2___flmul (ARG)
                 i2___fladd (ARG)
                 i2___xxtofl (ARG)
             i2___fladd (ARG)
           _nanf
           i2___fladd
           i2___flmul
             i2___fladd (ARG)
             i2___xxtofl (ARG)
         i2___fladd (ARG)
         i2___fldiv (ARG)
           ___flsub (ARG)
             i2___fladd
             i2___flmul (ARG)
               i2___fladd (ARG)
               i2___xxtofl (ARG)
           i2___fladd (ARG)
           i2___flmul (ARG)
             i2___fladd (ARG)
             i2___xxtofl (ARG)
           i2___xxtofl (ARG)
         i2___flmul (ARG)
           i2___fladd (ARG)
           i2___xxtofl (ARG)
         i2___xxtofl (ARG)
       i2___fladd (ARG)
       i2___fldiv (ARG)
         ___flsub (ARG)
           i2___fladd
           i2___flmul (ARG)
             i2___fladd (ARG)
             i2___xxtofl (ARG)
         i2___fladd (ARG)
         i2___flmul (ARG)
           i2___fladd (ARG)
           i2___xxtofl (ARG)
         i2___xxtofl (ARG)
     _vfprintf (ARG)
       _vfpfcnvrt
         _atoi
           ___wmul
           _isdigit
           _isspace
         _dtoa
           ___aodiv
           ___aomod
           _abs
             ___aomod (ARG)
           _pad
             _fputc
               _putch
             _fputs
               _fputc
                 _putch
             _strlen
         _fputc
           _putch
         _isdigit
   i2_LCD_clear
     i2_Cmd
   i2_Send2Lcd
     i2_Cmd
     i2_Data
   i2_speak

 Address spaces:
Name               Size   Autos  Total    Cost      Usage
BIGRAM             5F3      0       0      16        0.0%
EEDATA             100      0       0       0        0.0%
BITBANK4           100      0       0      11        0.0%
BANK4              100      0       0      12        0.0%
BITBANK3           100      0       0       9        0.0%
BANK3              100      0      64      10       39.1%
BITBANK2           100      0       0       7        0.0%
BANK2              100     4E      A2       8       63.3%
BITBANK1           100      0       0       5        0.0%
BANK1              100     DD      FD       6       98.8%
BITBANK5            F4      0       0      15        0.0%
BANK5               F4      0       0      13        0.0%
BITBANK0            80      0       0       3        0.0%
BANK0               80     7D      80       4      100.0%
BITCOMRAM           7E      0       0       0        0.0%
COMRAM              7E     7E      7E       1      100.0%
BITSFR_5             0      0       0     200        0.0%
SFR_5                0      0       0     200        0.0%
BITSFR_4             0      0       0     200        0.0%
SFR_4                0      0       0     200        0.0%
BITSFR_3             0      0       0     200        0.0%
SFR_3                0      0       0     200        0.0%
BITSFR_2             0      0       0     200        0.0%
SFR_2                0      0       0     200        0.0%
BITSFR_1             0      0       0     200        0.0%
SFR_1                0      0       0     200        0.0%
BITSFR               0      0       0     200        0.0%
SFR                  0      0       0     200        0.0%
STACK                0      0       0       2        0.0%
NULL                 0      0       0       0        0.0%
ABS                  0      0     301      14        0.0%
DATA                 0      0     301      17        0.0%
CODE                 0      0       0       0        0.0%


Microchip Technology PIC18 Macro Assembler V2.10 build 88905656 
Symbol Table                                                                                   Mon Jan 06 19:19:08 2020

                    _RH_Integral 00FF                     ___fldiv@aexp 023F  
                   ___fldiv@bexp 023E                                _r 0300  
                   ___fldiv@sign 0237                               _L1 0659  
                             _L2 0655                               _L3 0651  
                             _L4 064D                               _L5 0649  
                             _L6 0645                               _P1 0641  
                             _P2 063D                               _P3 0639  
                             _P4 0635                               _P5 0631  
                             l99 58D4                               _Ro 01E1  
                             _bp 0689                               _cp 061D  
            ___wmul@multiplicand 0003                      __CFG_BORV$3 000000  
                   __CFG_CP0$OFF 000000                     __CFG_CP1$OFF 000000  
                   __CFG_CP2$OFF 000000                     __CFG_CP3$OFF 000000  
                            l236 6D32                              l924 4C1A  
                            l870 42D6                              l935 4C88  
                            l936 4C84                              l954 3B90  
                            l971 3E2E                              l963 3DA8  
                            l964 3DA4                              l885 43CA  
                            l869 42F8                              l894 4430  
                            l895 442C                              l995 5D30  
                   __CFG_CPB$OFF 000000                     __CFG_CPD$OFF 000000  
                            _Lg1 0675                              _Lg2 0671  
                            _Lg3 066D                              _Lg4 0669  
                            _Cmd 6ACE                      i2___fladd@a 0005  
                    i2___fladd@b 0001                              _lg2 062D  
                            _abs 6A3A                              _pad 6648  
                    i2___fldiv@a 0036                      i2___fldiv@b 0032  
                            _ovt 0621                       i2___xxtofl 5F72  
                            wreg 000FE8                      i2___flmul@a 0015  
                    i2___flmul@b 0011                     __CFG_IESO$ON 000000  
                   ___flmul@aexp 021F                     ___flmul@bexp 0220  
                   ___flmul@sign 021A                     ___flmul@temp 0225  
                   ___flmul@prod 0221                  _MQGetPercentage 6308  
                   __CFG_LVP$OFF 000000                             ?_Cmd 0200  
                   ___fltol@exp1 00DC                     __CFG_WDT$OFF 000000  
                           l1002 5DAE                             ?_abs 0013  
                           l6004 5DD4                             l6022 5E20  
                           l6006 5DE0                             ?_pad 0011  
                           l5600 42E4                             l6056 58CC  
                           l5440 6814                             l5602 42E8  
                           l5522 41E2                             l5700 44A4  
                           l5436 67E0                             l5702 44A6  
                           l5550 422E                             l5526 41E6  
                           l5624 433E                             l5616 431C  
                           l5800 4C30                             l5626 4342  
                           l5634 4354                             l5546 422A  
                           l5652 43EE                             l5644 43BA  
                           l5724 4AD4                             l5662 4404  
                           l5558 424E                             l5830 4CF0  
                           l5806 4C4E                             l5840 4D26  
                           l5744 4B14                             l5728 4AD8  
                           l5842 4D28                             l5834 4D1A  
                           l5826 4CCC                             l5770 4B7A  
                           l5762 4B62                             l5668 440E  
                           l5588 428A                             l5780 4BCA  
                           l5756 4B4C                             l5748 4B18  
                           l5932 3D50                             l5862 3B3C  
                           l5696 449C                             l5688 4476  
                           l5880 3B7C                             l5864 3B40  
                           l5794 4C18                             l5962 3E0A  
                           l5938 3D6E                             l5890 3BAE  
                           l5882 3B80                             l5866 3B50  
                           l5788 4BF2                             l5974 3E4C  
                           l5958 3DEC                             l5992 5D5E  
                           l5994 5D64                             l5986 5D40  
                           l5996 5D70                             l5998 5D96  
                           STR_1 06B9                             STR_2 06C1  
                           STR_3 069D                             STR_4 06B0  
                           STR_5 06AF                             _LATD 000F8C  
                           u7000 3B9C                             u6200 6834  
                           u7010 3D12                             u7100 3E18  
                           u7015 3D08                             u6207 682A  
                           u6400 42AC                             u6410 42BC  
                           u7050 3D9E                             u6420 42BE  
                           u7230 59CE                             u6190 6800  
                           u6600 4426                             u6450 4300  
                           u7090 3DFA                             u7180 5DEA  
                           u6197 67F6                             u6660 4482  
                           u6580 4412                             u6900 4CDA  
                           u6910 4CFE                             u7607 6AB2  
                           i2l88 47D6                             u7617 6AC2  
                           u7627 6AD8                             u6860 4C7E  
                           u7637 6AE2                             u7557 6CB4  
                           u7647 6AF2                             u7567 6764  
                           u7657 59B2                             u7577 677E  
                           u7587 67A6                             u7597 6AA8  
                           _TMR1 000FCE                     __CFG_WDTPS$1 000000  
                           _Data 6A9E                             abs@a 0013  
                           _dbuf 0252                             _cp_h 0699  
                           _cp_l 0695                             _dp_h 0609  
                           _dp_l 0601                             _atoi 5E32  
                           _main 6D2E                             _dtoa 546C  
                           _nanf 6C2C                             _huge 0661  
                           _prec 01EB                             _nout 01E7  
                           _powf 06C8                             pad@i 0018  
                __end_of_MQ_Read 4AA6                             pad@p 0015  
                           _tiny 065D                             fsr1h 000FE2  
                           fsr2h 000FDA                             indf1 000FE7  
                           indf2 000FDF                             fsr1l 000FE1  
                           pad@w 001A                             fsr2l 000FD9  
                           btemp 007F                             prodh 000FF4  
                           prodl 000FF3                             start 000E  
                ___fldiv@new_exp 0238                 ??_DHT11_ReadData 0001  
             __size_of_LCD_clear 0010                  __end_ofi2_speak 6CEA  
           __size_of_DHT11_Start 0022                    __CFG_MCLRE$ON 000000  
                   ___param_bank 000000                            ??_Cmd 0202  
                          ??_abs 0015                            ??_pad 0017  
                          ?_Data 0200   __size_of_OSCILLATOR_Initialize 0008  
               __end_of_LCD_init 67CE    __end_of_OSCILLATOR_Initialize 6D26  
                  ___fltol@sign1 00DB                  __end_of___aodiv 5CEE  
                          ?_atoi 0008                  __end_of___fladd 44C2  
                          ?_main 0001                            ?_dtoa 001C  
                          ?_nanf 0001                  __end_of___aomod 6308  
                __end_of___fldiv 4D30                  __end_of___flneg 6BB8  
                          _ADRES 000FC3                  __end_of___flmul 3E62  
                          ?_powf 006F                  __end_of___flsub 6990  
                __end_of___fltol 65A8                     MQ_Read@smoke 01C6  
                          _IRCF0 007E9C                            _IRCF1 007E9D  
                          _IRCF2 007E9E                            i2l251 51E8  
                          i2l182 6A8E                            i2l177 6A74  
                          i2l282 6678                            i2l605 64B0  
                          i2l293 54E6                            i2l295 54EE  
                          i2l924 4EA2                            i2l870 45E2  
                          i2l935 4F10                            i2l936 4F0C  
                          i2l954 3EE2                            i2l971 4180  
                          i2l963 40FA                            i2l964 40F6  
                          i2l885 46D6                            i2l869 4604  
                          i2l894 473C                            i2l895 4738  
                          i2l995 5FB0                     vfpfcnvrt@fmt 0042  
                          i2_Cmd 6B5C                            _TRISA 000F92  
                          _TRISC 000F94                            _TRISD 000F95  
                  __CFG_PWRT$OFF 000000                    __CFG_WRT0$OFF 000000  
                  __CFG_WRT1$OFF 000000                    __CFG_WRT2$OFF 000000  
                  __CFG_WRT3$OFF 000000                    i2___fladd@grs 0010  
                 __CFG_EBTR0$OFF 000000                   __CFG_FCMEN$OFF 000000  
                 __CFG_EBTR1$OFF 000000       __end_of_MQGetGasPercentage 5BA6  
                 __CFG_EBTR2$OFF 000000                   __CFG_EBTR3$OFF 000000  
                  __CFG_WRTB$OFF 000000                    __CFG_WRTC$OFF 000000  
                  __CFG_WRTD$OFF 000000                            _lg2_h 0629  
                          _lg2_l 0625                            _fabsf 6A06  
                 __CFG_EBTRB$OFF 000000                            _flags 00FD  
                          _cycle 01F5                            _count 01ED  
                          _errno 01E5                            _ivln2 0619  
                          _fputc 65A8                            _fputs 69CE  
                __end_of_isdigit 6B2E                  __end_of_ivln2_h 0695  
                __end_of_ivln2_l 0619                       _T_Integral 01F2  
                          _two24 0665                    i2___fldiv@grs 0045  
                __end_of_scalbnf 58A2                    i2___fldiv@rem 003E  
                          _value 0272                            _speak 6CAA  
           _MQGetPercentage$2090 00E7             _MQGetPercentage$2091 00EB  
                          atoi@n 0015                            pad@fp 0011  
                          atoi@s 0008                            _width 01E9  
           _MQGetPercentage$1955 00E3                            _putch 6D3A  
                          dtoa@d 001E                            dtoa@i 003E  
                          dtoa@n 0036                            dtoa@p 0030  
                          _sqrtf 36E8                            dtoa@s 0034  
                          dtoa@w 0032                     ?i2_LCD_clear 0001  
                          nanf@s 0001                            nanf@u 0005  
                __end_of_isspace 69CE          __end_of_TMR1_Initialize 6CAA  
                          tablat 000FF5                            powf@i 012C  
                          powf@j 01AC                            powf@k 01A0  
                          powf@n 017C                            powf@r 014C  
                          powf@s 015C                            powf@t 01B0  
                          powf@u 0174                            powf@v 0178  
                          powf@w 0144                            powf@x 006F  
                          powf@y 0073                            powf@z 01B4  
                          ttemp5 0080                            ttemp6 0083  
                          ttemp7 0087                            status 000FD8  
                          wtemp8 0080                  __end_of_sprintf 694A  
                    ?i2_Send2Lcd 0004                    i2___flmul@grs 001E  
             __size_ofi2___fladd 030C               __size_ofi2___fldiv 0288  
                   ?_buzzer_init 0001               __size_ofi2___flmul 0352  
                 __CFG_PBADEN$ON 000000            ADC_Initialize@digital 0246  
                   __end_of_Data 6ACE                  __initialization 66E2  
              ADC_Initialize@res 0242                ADC_Initialize@val 024A  
                   __end_of_cp_h 069D                     __end_of_cp_l 0699  
                   __end_of_dp_h 0611                     __end_of_dp_l 0609  
                   __end_of_atoi 5F72                     __end_of_main 6D34  
                   __end_of_dtoa 56BC                     __end_of_nanf 6C4E  
                   __end_of_huge 0665                     __end_of_powf 2E54  
                   __end_of_tiny 0661                           ??_Data 0202  
               __end_of_Send2Lcd 683C          __end_of_MQGetPercentage 641C  
                         ??_atoi 000A                           ??_main 024E  
                         ??_dtoa 0026                           ??_nanf 0005  
                         ??_powf 00D2                    __activetblptr 000002  
                    Send2Lcd@Adr 0206                      Send2Lcd@Lcd 0203  
                         ?i2_Cmd 0001                      ?i2___xxtofl 0001  
              __end_of_LCD_clear 6CFA                           ?_fabsf 0001  
                         _ADCON1 000FC1                           _ADCON2 000FC0  
                         ?_fputc 0001                           ?_fputs 000A  
                      ??_MQ_Read 00FB                           ?_speak 0001  
                         ?_putch 0001              _DHT11_CheckResponse 6D08  
                         ?_sqrtf 003E                           _GAS_CO 01F9  
                  MQ_Read@values 00F9                           i2l1002 602E  
                         i2l1015 6A62                           i2l1203 0954  
                         i2l1213 09B8                           i2l1310 2DFE  
                         i2l1046 5F68                           i2l1223 0A52  
                         i2l1340 3898                           i2l1344 38EC  
                         i2l4010 4596                           i2l1347 39A4  
                         i2l1349 3A7A                           i2l4110 4782  
                         i2l4022 45F0                           i2l4024 45F4  
                         i2l5000 1366                           i2l4122 47B0  
                         i2l5010 13BC                           i2l4124 47B2  
                         i2l5004 1390                           i2l4118 47A8  
                         i2l4046 464A                           i2l4038 4628  
                         i2l4222 40C0                           i2l4150 3EA2  
                         i2l4048 464E                           i2l4056 4660  
                         i2l4216 40A2                           i2l5200 27A4  
                         i2l4320 5C20                           i2l4074 46FA  
                         i2l4090 471A                           i2l4066 46C6  
                         i2l4242 413E                           i2l4146 3E8E  
                         i2l4402 69C6                           i2l4322 5C34  
                         i2l4314 5BFA                           i2l4084 4710  
                         i2l4164 3ECE                           i2l4148 3E92  
                         i2l4340 5CCC                           i2l4332 5C90  
                         i2l4308 5BD2                           i2l5300 551A  
                         i2l4246 415C                           i2l4174 3F00  
                         i2l4166 3ED2                           i2l5310 5612  
                         i2l4600 4E52                           i2l4440 386C  
                         i2l4424 37D4                           i2l4432 3800  
                         i2l4336 5CA6                           i2l4360 624E  
                         i2l4352 6210                           i2l4272 6670  
                         i2l5402 6556                           i2l4258 419E  
                         i2l4418 378C                           i2l5170 23BC  
                         i2l5162 22D4                           i2l4362 6262  
                         i2l4282 66C8                           i2l4274 6682  
                         i2l5330 567A                           i2l5420 6596  
                         i2l5412 656E                           i2l4620 4EB8  
                         i2l4524 582C                           i2l4508 577C  
                         i2l4452 3938                           i2l4436 3856  
                         i2l6116 5B94                           i2l6108 5B26  
                         i2l5340 5E44                           i2l4372 62C0  
                         i2l4356 6234                           i2l4268 6662  
                         i2l6124 68B6                           i2l5414 657A  
                         i2l5406 6566                           i2l4614 4EA0  
                         i2l4390 6BA6                           i2l5350 5E8E  
                         i2l5342 5E48                           i2l4278 669A  
                         i2l5334 5692                           i2l5502 5438  
                         i2l6126 68DC                           i2l4608 4E7A  
                         i2l4544 4D5C                           i2l4712 60A0  
                         i2l3912 6484                           i2l4472 3A52  
                         i2l5256 2E1E                           i2l5360 5EAC  
                         i2l4376 62E6                           i2l4368 62AA  
                         i2l6218 6A88                           i2l4650 4F78  
                         i2l4626 4ED6                           i2l4730 2F40  
                         i2l3922 64E8                           i2l4458 39BE  
                         i2l5178 2462                           i2l5186 252C  
                         i2l6250 6192                           i2l5362 5ED4  
                         i2l5282 54C2                           i2l4660 4FAE  
                         i2l4564 4D9C                           i2l4548 4D60  
                         i2l3916 649A                           i2l3908 6450  
                         i2l6252 61C4                           i2l6244 615A  
                         i2l5356 5E9E                           i2l4662 4FB0  
                         i2l4654 4FA2                           i2l4646 4F54  
                         i2l4590 4E02                           i2l4582 4DEA  
                         i2l4750 3044                           i2l5198 2770  
                         i2l4902 0B7C                           i2l6190 4A52  
                         i2l6182 49B8                           i2l6174 491E  
                         i2l6238 60F6                           i2l5366 5F08  
                         i2l5358 5EA6                           i2l5286 54CC  
                         i2l5470 52E2                           i2l3944 44EE  
                         i2l4576 4DD4                           i2l4568 4DA0  
                         i2l4736 2FC8                           i2l4744 3026  
                         i2l4912 0C8C                           i2l4840 0812  
                         i2l4832 07DE                           i2l4824 077C  
                         i2l5296 550A                           i2l6344 51D4  
                         i2l5386 650C                           i2l4682 5FDE  
                         i2l4930 0D58                           i2l4818 0758  
                         i2l6098 5AB8                           i2l6258 61DA  
                         i2l5466 52B6                           i2l6274 684A  
                         i2l6346 51DE                           i2l3980 455A  
                         i2l3972 453A                           i2l3948 44F2  
                         i2l4684 5FE4                           i2l4676 5FC0  
                         i2l4756 3068                           i2l4908 0C5A  
                         i2l4916 0C9E                           i2l3892 69EE  
                         i2l5492 5416                           i2l5468 52D4  
                         i2l4694 6054                           i2l4686 5FF0  
                         i2l4942 0E5E                           i2l4926 0D3C  
                         i2l4862 09CA                           i2l4854 098C  
                         i2l4870 0A06                           i2l3878 65C0  
                         i2l5486 53DA                           i2l6278 687A  
                         i2l3968 4536                           i2l4696 6060  
                         i2l4688 6016                           i2l4952 0F5C  
                         i2l3888 69D8                           i2l3896 6BC2  
                         i2l5496 5420                           i2l4938 0DF4  
                         i2l4890 0ADE                           i2l4882 0AA8  
                         i2l4866 09F4                           i2l3898 6BC6  
                         i2l6298 5004                           i2l4948 0EF2  
                         i2l4876 0A64                           i2l4990 12B8  
                         i2l4978 1232                        ??i2_speak 0001  
                         i2_Data 6B2E                 __end_of___xxtofl 5E32  
                         _Hi_ISR 0008                   i2___fladd@aexp 000E  
                 i2___fladd@bexp 000F                   __CFG_XINST$OFF 000000  
                   vfprintf@cfmt 005A                           ___flge 641C  
                      ??___aodiv 0011                        ??___fladd 0208  
                      ??___aomod 0011                           ___wmul 6BE2  
                      ??___fldiv 022F                        ??___flneg 0005  
                 __CFG_STVREN$ON 000000                        ??___flmul 0216  
                      ??___flsub 0032                        ??___fltol 007B  
           ?_DHT11_CheckResponse 0001                           _log10f 2E54  
               __end_of_ivln10hi 0689                 __end_of_ivln10lo 0685  
                         fabsf@u 0005                           fabsf@x 0001  
                         _memset 60B2                           clear_0 6728  
                         clear_1 6734                           clear_2 6740  
                 i2___fldiv@aexp 004A                   i2___fldiv@bexp 0049  
                 i2___fldiv@sign 0042                           pad@buf 0013  
                         dtoa@fp 001C                           _strlen 6BB8  
                     _SmokeCurve 027E                           fputc@c 0001  
            __size_ofi2_Send2Lcd 0066                           fputs@c 000E  
                         fputs@i 000F                           fputs@s 000A  
              __end_ofi2___fladd 47CE                        ??_isdigit 0003  
              __end_ofi2___fldiv 4FB8                        ??_scalbnf 0030  
              __end_ofi2___flmul 41B4                     __mediumconst 0000  
                      ??_isspace 0003                           powf@s2 018C  
                         powf@t1 0180                           powf@t2 011C  
                         tblptrh 000FF7                           tblptrl 000FF6  
                         powf@y1 0128                           tblptru 000FF8  
                         powf@ax 0170                           powf@is 0190  
                         powf@hx 0160                           powf@hy 0184  
                         powf@ix 01A8                           powf@iy 0198  
                         powf@sn 0188                           putch@c 0001  
               __end_of_vfprintf 68F8                           sqrtf@i 004F  
                         sqrtf@m 0063                           sqrtf@q 0057  
                         sqrtf@r 0067                           sqrtf@s 004B  
                         sqrtf@t 005B                           sqrtf@x 003E  
                         sqrtf@z 005F                        ??_sprintf 007F  
                 i2___flmul@aexp 0022                   i2___flmul@bexp 0023  
                 i2___flmul@sign 001D                   i2___flmul@temp 0028  
                 i2___flmul@prod 0024    __size_of_INTERRUPT_Initialize 0008  
                     ___flge@ff1 0032                       ___flge@ff2 0036  
               ?_TMR1_Initialize 0001                     ___xxtofl@arg 020A  
                   ___xxtofl@exp 0209                _SYSTEM_Initialize 6C70  
                   ___xxtofl@val 0200                       __accesstop 0080  
        __end_of__initialization 674E                       ___flneg@f1 0001  
                      ?_LCD_init 0001               ?_SYSTEM_Initialize 0001  
                  ___rparam_used 000001                       ___fltol@f1 0077  
                  __end_ofi2_Cmd 6B8A              __size_ofi2___xxtofl 0140  
                 __pcstackCOMRAM 0001                     __pidataBANK1 6D16  
                   __pidataBANK2 6C08            ??_DHT11_CheckResponse 0001  
                  __end_of_lg2_h 062D                    __end_of_lg2_l 0629  
            ??_SYSTEM_Initialize 024E                    __end_of_fabsf 6A3A  
                  __end_of_ivln2 061D                    __end_of_fputc 6648  
                  __end_of_fputs 6A06                    __end_of_two24 0669  
                  __end_of_speak 6CC2                    __end_of_putch 6D3C  
                  __end_of_sqrtf 3B0E                       __end_of_L1 065D  
                     __end_of_L2 0659                       __end_of_L3 0655  
                     __end_of_L4 0651                       __end_of_L5 064D  
                     __end_of_L6 0649                       __end_of_P1 0645  
                     __end_of_P2 0641                       __end_of_P3 063D  
                     __end_of_P4 0639                       __end_of_P5 0635  
                ADC_Initialize@i 0248                       __end_of_bp 0691  
                     __end_of_cp 0621                 ?_MQGetPercentage 00DD  
                        ??i2_Cmd 0003         MQGetGasPercentage@gas_id 00F3  
                        ??_fabsf 0005                          ??_fputc 0005  
      __end_of_SYSTEM_Initialize 6C8E                          ??_fputs 000E  
                        ??_speak 0200                          ??_putch 0001  
                        ??_sqrtf 0042                       __pbssBANK0 00FD  
                     __pbssBANK1 01DD                       __pbssBANK2 024E  
                     __pbssBANK3 0300                          ?i2_Data 0001  
           __size_ofi2_LCD_clear 000E                        ?_Send2Lcd 0203  
                     ??_LCD_init 0207                          ?_Hi_ISR 0001  
           __size_of_buzzer_init 0006                          ?___flge 0032  
                 MQ_Read@digital 01BC                          ?___wmul 0001  
                        ?_log10f 004B                          ?_memset 0001  
        __size_of_ADC_Initialize 01A8                          ?_strlen 0001  
                        _GAS_LPG 01EF                        ?___xxtofl 0200  
                        _COCurve 028A               __size_of_vfpfcnvrt 0258  
                        _MQ_Read 47CE                          i2_speak 6CD6  
                      MQ_Read@co 01C2                    ??_DHT11_Start 0001  
                   ??i2_Send2Lcd 0006                __end_of_log10_2hi 0681  
                     ??_Send2Lcd 0205                __end_of_log10_2lo 067D  
                __size_ofi2_Data 002E                  __size_of_Hi_ISR 520C  
             _MQGetGasPercentage 5A4A                  i2___fladd@signs 000D  
                        __Hparam 0000                          __Lparam 0000  
                __size_of___flge 00D0                          ___aodiv 5BA6  
                        ___fladd 41B4                          ___aomod 61E4  
                        ___fldiv 4AA6                          ___flneg 6B8A  
                        ___flmul 3B0E                          ___flsub 694A  
                        ___fltol 64EC              ?_MQGetGasPercentage 00EF  
                __size_of___wmul 0026                        ?_vfprintf 0054  
                __size_of_log10f 0894                     __psmallconst 0600  
                        __pcinit 66E2                  __size_of_memset 0132  
                        __ramtop 0600                        Data@Value 0200  
                        __ptext0 6D2E                          __ptext1 6C70  
                        __ptext2 6D34                          __ptext3 6CAA  
                        __ptext4 6C8E                          __ptext5 6CC2  
                        __ptext6 6D1E                          __ptext7 675C  
                        __ptext8 67CE                          __ptext9 6A9E  
                      _GAS_SMOKE 01F7                  __size_of_strlen 002A  
                      _T1CONbits 000FCD                     __size_of_Cmd 0030  
          _OSCILLATOR_Initialize 6D1E                     __size_of_abs 0032  
                   __size_of_pad 009A                          _isdigit 6AFE  
                        _ivln2_h 0691                     ??i2___xxtofl 0005  
                        _ivln2_l 0615                       ??___xxtofl 0204  
                        _scalbnf 56BC               __end_ofi2_Send2Lcd 68A2  
       ??_PIN_MANAGER_Initialize 0200                          _isspace 6990  
                        log10f@R 0080                          log10f@f 00CA  
                        log10f@k 00A0                          log10f@s 00B2  
                        log10f@u 00C6                          log10f@w 00BA  
                        log10f@x 004B                          log10f@z 00B6  
                        atoi@neg 000E             ??_MQGetGasPercentage 007F  
     __size_of_SYSTEM_Initialize 001E                          _sprintf 68F8  
                 __pintcode_body 4FB8                        _LCD_clear 6CEA  
           end_of_initialization 674E                       log10f@F471 01DD  
                        fputc@fp 0003                          memset@c 0003  
                        memset@k 0009                          memset@n 0005  
                        memset@s 000B                    __Lmediumconst 0000  
                        int_func 4FB8                          fputs@fp 000C  
                     log10f@hfsq 00AE                   i2___xxtofl@arg 000B  
                 i2___xxtofl@exp 000A                   i2___xxtofl@val 0001  
                        powf@p_h 019C                          powf@p_l 0164  
                        powf@s_h 016C                          powf@t_h 0168  
                        powf@s_l 0130                          powf@t_l 0134  
                        powf@z_h 0120                          powf@z_l 0124  
              __end_of_vfpfcnvrt 546C               __end_ofi2___xxtofl 60B2  
            __end_of_DHT11_Start 6C70                          postdec1 000FE5  
                        postdec2 000FDD                          postinc0 000FEE  
                        postinc1 000FE6                          postinc2 000FDE  
                     ??_vfprintf 005A                          sqrtf@ix 006B  
                        strlen@a 0003                          strlen@s 0001  
                      _PORTAbits 000F80          __size_of_DHT11_ReadData 0032  
                    ___fladd@grs 020F                    ___xxtofl@sign 0208  
                      _TRISAbits 000F92                        _TRISBbits 000F93  
                    ___fldiv@grs 023A                      ___fldiv@rem 0233  
                      i2___fladd 44C2                        i2___fldiv 4D30  
                      i2___flmul 3E62                       ?_LCD_clear 0001  
                    ___flmul@grs 021B          _MQGetGasPercentage$2092 00F5  
                 __end_ofi2_Data 6B5C                   __end_of_Hi_ISR 5214  
             DHT11_ReadData@data 0002                __size_of_LCD_init 0072  
                      _T_Decimal 01F3     __end_of_INTERRUPT_Initialize 6D2E  
                 __end_of___flge 64EC                      vfpfcnvrt@ap 0044  
                    vfpfcnvrt@fp 0040                      vfpfcnvrt@ll 004A  
                 __end_of___wmul 6C08                   __end_of_log10f 36E8  
                 _ADC_Initialize 58A2           ?_OSCILLATOR_Initialize 0001  
                 __end_of_memset 61E4                   __end_of_strlen 6BE2  
     MQGetPercentage@rs_ro_ratio 00DD              start_initialization 66E2  
                    __end_of_Lg1 0679                      __end_of_Lg2 0675  
                    __end_of_Lg3 0671                      __end_of_Lg4 066D  
                    __end_of_Cmd 6AFE  __size_of_PIN_MANAGER_Initialize 0014  
                    __end_of_lg2 0631                      __end_of_abs 6A6C  
                    __end_of_pad 66E2                      __end_of_ovt 0625  
                     ?i2___fladd 0001                       ?i2___fldiv 0032  
                     ?i2___flmul 0011                         ??i2_Data 0003  
               __CFG_OSC$INTIO67 000000                      _DHT11_Start 6C4E  
                       ??_Hi_ISR 01D2      __end_of_DHT11_CheckResponse 6D16  
              __size_of_Send2Lcd 006E         __size_of_TMR1_Initialize 001C  
                    vfprintf@fmt 0056                         ??___flge 003A  
                       ??___wmul 0005                         ??_log10f 004F  
         __end_of_ADC_Initialize 5A4A                      __pdataBANK1 01F5  
                    __pdataBANK2 027E                 __CFG_LPT1OSC$OFF 000000  
                       ??_memset 0007                       memset@dest 0001  
  MQGetGasPercentage@rs_ro_ratio 00EF                         ??_strlen 0003  
                      ___fladd@a 0204                        ___fladd@b 0200  
                      ___fldiv@a 022B                        ___fldiv@b 0227  
                      ___flmul@a 0212                        ___flmul@b 020E  
                      ___flsub@a 002E                        ___flsub@b 002A  
                  __pcstackBANK0 0080                    __pcstackBANK1 0100  
                  __pcstackBANK2 0200                 ___aodiv@dividend 0001  
              __end_ofsqrtf@tiny 0615                __size_of___xxtofl 0144  
       __size_of_MQGetPercentage 0114                         ?_MQ_Read 00F9  
                  ??i2_LCD_clear 0004                      ??_LCD_clear 0203  
                       ?i2_speak 0001                      _log10f$2094 00BE  
                    _log10f$2095 0090                      _log10f$2096 00AA  
                    _log10f$2097 0094                      _log10f$2098 0098  
                    _log10f$2099 009C                      _log10f$1961 008C  
                      _atoi$1490 0014                        _atoi$1491 0012  
                      _atoi$1489 0010                    ??_buzzer_init 0201  
         _PIN_MANAGER_Initialize 6CC2                        _dtoa$1017 002E  
          MQGetPercentage@pcurve 00E1                        _log10_2hi 067D  
                      _log10_2lo 0679                __CFG_CCP2MX$PORTC 000000  
                      __pintcode 0008                         ?___aodiv 0001  
                       ?___fladd 0200                         ?___aomod 0001  
                       ?___fldiv 0227                 ___aodiv@quotient 0013  
                       ?___flneg 0001                         ?___flmul 020E  
                       ?___flsub 002A                         ?___fltol 0077  
                ?_ADC_Initialize 0001                   _DHT11_ReadData 6A6C  
              __size_of_vfprintf 0056                        fabsf@F463 024E  
                    __smallconst 0600                         ?_isdigit 0001  
                 __size_ofi2_Cmd 002E                         ?_scalbnf 002A  
                       ?_isspace 0001                         Cmd@Value 0200  
                 __size_of_fabsf 0034                      ??i2___fladd 0009  
                    ??i2___fldiv 003A                         ?_sprintf 00DD  
                    ??i2___flmul 0019                   __size_of_fputc 00A0  
                 __size_of_fputs 0038                   __size_of_speak 0018  
                 __size_of_putch 0002                   __size_of_sqrtf 0426  
           _INTERRUPT_Initialize 6D26                        _powf$2100 01A4  
                      _powf$2101 0154                        _powf$2102 0148  
                      _powf$2110 0114                        _powf$2103 013C  
                      _powf$2111 0118                        _powf$2104 0104  
                      _powf$2105 0108                        _powf$2106 0158  
                      _powf$2107 0140                        _powf$2108 010C  
                      _powf$2109 0110                        _powf$1970 0194  
                      _powf$1976 0138                        _powf$1978 0100  
                 ___wmul@product 0005                         _LATAbits 000F89  
                       _LATBbits 000F8A                         _LATCbits 000F8B  
                       _LCD_init 675C                         _IPR1bits 000F9F  
                       _PIE1bits 000F9D              __end_ofi2_LCD_clear 6D08  
                       i2u400_40 45CA                         i2u403_40 460C  
                       i2u511_40 4F62                         i2u424_40 478E  
                       i2u416_40 471E                         i2u512_40 4F86  
                       i2u440_40 40F0                         i2u520_40 606A  
                       i2u600_40 5650                         i2u601_40 5656  
                       _PIR1bits 000F9E                         i2u418_40 4732  
                       i2u507_40 4F06                         i2u435_40 3EEE  
                       i2u451_40 6A48                         i2u603_40 5664  
                       i2u612_40 64FA                         i2u444_40 414C  
                       i2u436_40 4064                         i2u532_40 30A0  
                       i2u524_40 2E9A                         i2u452_40 6B26  
                       i2u436_45 405A                         i2u532_45 3096  
                       i2u540_45 0838                         i2u540_46 083E  
                       i2u540_47 084C                         i2u613_40 652A  
                       i2u445_40 416A                         i2u525_40 2EB8  
                       i2u453_40 6B28                         i2u381_40 6600  
                       i2u613_45 6520                         i2u525_45 2EAE  
                       i2u541_45 088C                         i2u541_46 0892  
                       i2u541_47 08A0                         i2u526_40 2EC8  
                       i2u542_40 08D8                         i2u606_40 5E8A  
                       i2u542_45 08CE                         i2u471_40 379E  
                       i2u535_40 0792                         _LPGCurve 0296  
                       i2u528_40 2F5E                         i2u536_40 07A8  
                       i2u608_40 5F38                         i2u464_40 6266  
                       i2u456_41 5C00                         i2u528_45 2F54  
                       i2u617_40 6580                         i2u609_40 5F3A  
                       i2u625_40 531A                         i2u554_40 0B16  
                       i2u458_40 5C38                         i2u626_40 531C  
                       i2u490_45 583E                         i2u474_45 3814  
                       i2u570_45 12CE                         i2u474_46 381A  
                       i2u570_46 12D4                         i2u474_47 3828  
                       i2u570_47 12E2                         i2u571_40 1362  
                       i2u379_40 65B8                         i2u627_40 5328  
                       i2u483_45 3ABE                         i2u732_40 6D0C  
                       i2u484_40 56DC                         i2u572_40 137E  
                       i2u556_40 0B34                         i2u556_41 0B32  
                       i2u580_45 255C                         i2u580_46 2562  
                       i2u580_47 2570                         i2u733_40 6D10  
                       i2u485_40 5728                         i2u565_40 0D86  
                       i2u469_40 69C2                         i2u629_40 535C  
                       i2u573_45 15B6                         i2u398_40 45B8  
                       i2u486_40 5774                         i2u590_40 5494  
                       i2u582_45 25D8                         i2u582_46 25DE  
                       i2u582_47 25EC                         i2u399_40 45C8  
                       i2u591_40 5496                         i2u583_45 263C  
                       i2u583_46 2642                         i2u583_47 2650  
                       i2u568_40 0E88                         i2u744_40 686A  
                       i2u584_45 268E                         i2u584_46 2694  
                       i2u584_47 26A2                         i2u744_47 6860  
                       i2u569_40 1252                         i2u745_40 689A  
                       i2u585_45 2736                         i2u585_46 273C  
                       i2u585_47 274A                         i2u745_47 6890  
                       i2u594_40 54DC                         i2u754_40 51C2  
                       i2u770_47 6B66                         i2u587_45 2D64  
                       i2u771_47 6B70                         i2u596_40 5504  
                       i2u588_45 2DA8                         i2u588_46 2DAE  
                       i2u588_47 2DBC                         i2u772_47 6B7E  
                       i2u589_40 2DD0                         i2u597_40 5620  
                       i2u773_47 6C58                         i2u774_47 6C66  
                       i2u766_47 6CDE                         i2u599_40 5642  
                       i2u599_41 5640                         i2u775_47 6A7A  
                       i2u767_47 6B38                         i2u768_47 6B42  
                       i2u769_47 6B50                         _RCONbits 000FD0  
              i2___fldiv@new_exp 0043              __end_of_buzzer_init 6D3A  
         __end_of_DHT11_ReadData 6A9E                        _timer_val 01FB  
                     powf@yisint 0150                        _vfpfcnvrt 5214  
              ??_TMR1_Initialize 0200                       _ADCON0bits 000FC2  
              ___wmul@multiplier 0001                         _Checksum 01F1  
                  i2Send2Lcd@Adr 0007                    i2Send2Lcd@Lcd 0004  
                   _isspace$1507 0007                       MQ_Read@lpg 01BE  
                     MQ_Read@res 01CA      __size_of_MQGetGasPercentage 015C  
                      copy_data0 66F6                        copy_data1 6716  
          ?_INTERRUPT_Initialize 0001                 __size_of_MQ_Read 02D8  
                       _Send2Lcd 67CE                 __size_ofi2_speak 0014  
              ??_MQGetPercentage 007F                         __Hrparam 0000  
                     vfprintf@ap 0058                         __Lrparam 0000  
                     vfprintf@fp 0054               __CFG_BOREN$SBORDIS 000000  
        ??_OSCILLATOR_Initialize 0200                  ?_DHT11_ReadData 0001  
               __size_of___aodiv 0148                 __size_of___fladd 030E  
               __size_of___aomod 0124                 __size_of___fldiv 028A  
               __size_of___flneg 002E                 __size_of___flmul 0354  
               __size_of___flsub 0046                 __size_of___fltol 00BC  
                     ?_vfpfcnvrt 0040                  DHT11_ReadData@i 0001  
                ___aodiv@divisor 0009                      i2Data@Value 0001  
                ___aodiv@counter 0011                       sprintf@fmt 00DF  
                       ___xxtofl 5CEE                 __size_of_isdigit 0030  
               __size_of_scalbnf 01E6                 __size_of_isspace 003E  
                       __ptext10 6CEA                         __ptext11 6ACE  
                       __ptext20 683C                         __ptext12 6D26  
                       __ptext21 6B2E                         __ptext13 58A2  
                       __ptext30 69CE                         __ptext22 6CFA  
                       __ptext14 5CEE                         __ptext31 65A8  
                       __ptext23 6B5C                         __ptext15 3B0E  
                       __ptext40 60B2                         __ptext32 6D3A  
                       __ptext24 68F8                         __ptext16 4AA6  
                       __ptext41 47CE                         __ptext33 6A3A  
                       __ptext25 68A2                         __ptext17 41B4  
                       __ptext50 6B8A                         __ptext42 5A4A  
                       __ptext34 61E4                         __ptext26 5214  
                       __ptext51 2E54                         __ptext43 6308  
                       __ptext35 5BA6                         __ptext27 546C  
                       __ptext19 6CD6                         __ptext60 6D08  
                       __ptext52 5F72                         __ptext44 06C8  
                       __ptext36 5E32                         __ptext28 6648  
                       __ptext53 3E62                         __ptext45 36E8  
                       __ptext37 6990                         __ptext29 6BB8  
                       __ptext54 4D30                         __ptext46 6C2C  
                       __ptext38 6AFE                         __ptext55 694A  
                       __ptext47 641C                         __ptext39 6BE2  
                       __ptext56 44C2                         __ptext48 56BC  
                       __ptext57 64EC                         __ptext49 6A06  
                       __ptext58 6C4E                         __ptext59 6A6C  
                    i2_LCD_clear 6CFA                 __size_of_sprintf 0052  
                  __size_of_Data 0030                         _ivln10hi 0685  
                       _ivln10lo 0681                    __size_of_atoi 0140  
                  __size_of_main 0006                    __size_of_dtoa 0250  
                  __size_of_nanf 0022                     ?_DHT11_Start 0001  
                  __size_of_powf 278C                      _buzzer_init 6D34  
                       log10f@t1 0084                         log10f@t2 0088  
           powf@__xc8_float_word 01B8                         log10f@dk 00A2  
                       log10f@hi 00C2                         log10f@lo 00A6  
                       log10f@ix 00CE                         int$flags 007F  
                       _vfprintf 68A2                 ___aomod@dividend 0001  
                 _vfpfcnvrt$1032 0052                       _INTCONbits 000FF2  
                       isdigit@c 0001           ??_INTERRUPT_Initialize 0200  
                     i2Cmd@Value 0001                         scalbnf@n 002E  
                       scalbnf@u 0034                         scalbnf@x 002A  
                       scalbnf@y 0038                         intlevel2 0000  
                      sprintf@ap 00EB                        sqrtf@tiny 0611  
                i2___xxtofl@sign 0009                         isspace@c 0001  
        ?_PIN_MANAGER_Initialize 0001                 ??_ADC_Initialize 0240  
   __size_of_DHT11_CheckResponse 000E                  ___aomod@divisor 0009  
                    ??_vfpfcnvrt 0046                  ___aomod@counter 0011  
                   _MQ_Read$2093 01CE                         sprintf@f 00ED  
                       sprintf@s 00DD                    ___fladd@signs 020C  
                   ___aodiv@sign 0012   __end_of_PIN_MANAGER_Initialize 6CD6  
          sqrtf@__xc8_float_word 0053                     ___fladd@aexp 020D  
                   ___fladd@bexp 020E                       _RH_Decimal 01F4  
                     i2_Send2Lcd 683C                     ___aomod@sign 0012  
                _TMR1_Initialize 6C8E  
