

Microchip MPLAB XC8 Assembler V2.10 build 88905656 
                                                                                               Wed Dec 25 19:19:09 2019

Microchip MPLAB XC8 C Compiler v2.10 (Free license) build 20190730164152 Og1 
     1                           	processor	18F4520
     2                           	fnconf	rparam,??,?,0
     3                           	opt	pw 120
     4                           	opt	flic
     5                           	psect	idataBANK1,global,class=CODE,delta=1,noexec
     6                           	psect	idataBANK2,global,class=CODE,delta=1,noexec
     7                           	psect	smallconst,global,reloc=2,class=SMALLCONST,delta=1,noexec
     8                           	psect	cinit,global,reloc=2,class=CODE,delta=1
     9                           	psect	bssBANK0,global,class=BANK0,space=1,delta=1,lowdata,noexec
    10                           	psect	bssBANK1,global,class=BANK1,space=1,delta=1,lowdata,noexec
    11                           	psect	dataBANK1,global,class=BANK1,space=1,delta=1,lowdata,noexec
    12                           	psect	bssBANK2,global,class=BANK2,space=1,delta=1,lowdata,noexec
    13                           	psect	dataBANK2,global,class=BANK2,space=1,delta=1,lowdata,noexec
    14                           	psect	cstackBANK2,global,class=BANK2,space=1,delta=1,noexec
    15                           	psect	cstackBANK1,global,class=BANK1,space=1,delta=1,noexec
    16                           	psect	cstackBANK0,global,class=BANK0,space=1,delta=1,noexec
    17                           	psect	cstackCOMRAM,global,class=COMRAM,space=1,delta=1,noexec
    18                           	psect	text0,global,reloc=2,class=CODE,delta=1
    19                           	psect	text1,global,reloc=2,class=CODE,delta=1
    20                           	psect	text2,global,reloc=2,class=CODE,delta=1
    21                           	psect	text3,global,reloc=2,class=CODE,delta=1
    22                           	psect	text4,global,reloc=2,class=CODE,delta=1
    23                           	psect	text5,global,reloc=2,class=CODE,delta=1
    24                           	psect	text6,global,reloc=2,class=CODE,delta=1
    25                           	psect	text7,global,reloc=2,class=CODE,delta=1
    26                           	psect	text8,global,reloc=2,class=CODE,delta=1
    27                           	psect	text9,global,reloc=2,class=CODE,delta=1
    28                           	psect	text10,global,reloc=2,class=CODE,delta=1
    29                           	psect	text11,global,reloc=2,class=CODE,delta=1
    30                           	psect	text12,global,reloc=2,class=CODE,delta=1
    31                           	psect	intcodelo,global,reloc=2,class=CODE,delta=1
    32                           	psect	text14,global,reloc=2,class=CODE,delta=1
    33                           	psect	text15,global,reloc=2,class=CODE,delta=1,group=1
    34                           	psect	text16,global,reloc=2,class=CODE,delta=1
    35                           	psect	intcode,global,reloc=2,class=CODE,delta=1
    36                           	psect	intcode_body,global,reloc=2,class=CODE,delta=1
    37                           	psect	text18,global,reloc=2,class=CODE,delta=1
    38                           	psect	text19,global,reloc=2,class=CODE,delta=1
    39                           	psect	text20,global,reloc=2,class=CODE,delta=1
    40                           	psect	text21,global,reloc=2,class=CODE,delta=1,group=2
    41                           	psect	text22,global,reloc=2,class=CODE,delta=1
    42                           	psect	text23,global,reloc=2,class=CODE,delta=1
    43                           	psect	text24,global,reloc=2,class=CODE,delta=1
    44                           	psect	text25,global,reloc=2,class=CODE,delta=1
    45                           	psect	text26,global,reloc=2,class=CODE,delta=1,group=2
    46                           	psect	text27,global,reloc=2,class=CODE,delta=1,group=2
    47                           	psect	text28,global,reloc=2,class=CODE,delta=1,group=2
    48                           	psect	text29,global,reloc=2,class=CODE,delta=1,group=2
    49                           	psect	text30,global,reloc=2,class=CODE,delta=1,group=2
    50                           	psect	text31,global,reloc=2,class=CODE,delta=1,group=1
    51                           	psect	text32,global,reloc=2,class=CODE,delta=1,group=1
    52                           	psect	text33,global,reloc=2,class=CODE,delta=1,group=2
    53                           	psect	text34,global,reloc=2,class=CODE,delta=1,group=2
    54                           	psect	text35,global,reloc=2,class=CODE,delta=1,group=2
    55                           	psect	text36,global,reloc=2,class=CODE,delta=1,group=1
    56                           	psect	text37,global,reloc=2,class=CODE,delta=1,group=2
    57                           	psect	text38,global,reloc=2,class=CODE,delta=1
    58                           	psect	text39,global,reloc=2,class=CODE,delta=1
    59                           	psect	text40,global,reloc=2,class=CODE,delta=1
    60                           	psect	text41,global,reloc=2,class=CODE,delta=1,group=2
    61                           	psect	text42,global,reloc=2,class=CODE,delta=1,group=2
    62                           	psect	text43,global,reloc=2,class=CODE,delta=1,group=2
    63                           	psect	text44,global,reloc=2,class=CODE,delta=1,group=1
    64                           	psect	text45,global,reloc=2,class=CODE,delta=1,group=2
    65                           	psect	text46,global,reloc=2,class=CODE,delta=1,group=2
    66                           	psect	text47,global,reloc=2,class=CODE,delta=1,group=1
    67                           	psect	text48,global,reloc=2,class=CODE,delta=1,group=2
    68                           	psect	text49,global,reloc=2,class=CODE,delta=1,group=1
    69                           	psect	text50,global,reloc=2,class=CODE,delta=1,group=1
    70                           	psect	text51,global,reloc=2,class=CODE,delta=1,group=1
    71                           	psect	text52,global,reloc=2,class=CODE,delta=1,group=1
    72                           	psect	text53,global,reloc=2,class=CODE,delta=1,group=1
    73                           	psect	text54,global,reloc=2,class=CODE,delta=1,group=1
    74                           	psect	text55,global,reloc=2,class=CODE,delta=1
    75                           	psect	text56,global,reloc=2,class=CODE,delta=1
    76                           	psect	text57,global,reloc=2,class=CODE,delta=1
    77                           	psect	text58,global,reloc=2,class=CODE,delta=1
    78                           	psect	text59,global,reloc=2,class=CODE,delta=1
    79                           	psect	intsave_regs,global,class=BIGRAM,space=1,delta=1,noexec
    80                           	psect	rparam,global,class=COMRAM,space=1,delta=1,noexec
    81                           	psect	temp,global,ovrld,common,class=COMRAM,space=1,delta=1
    82  0000                     
    83                           ; Version 2.10
    84                           ; Generated 31/07/2019 GMT
    85                           ; 
    86                           ; Copyright © 2019, Microchip Technology Inc. and its subsidiaries ("Microchip")
    87                           ; All rights reserved.
    88                           ; 
    89                           ; This software is developed by Microchip Technology Inc. and its subsidiaries ("Microch
      +                          ip").
    90                           ; 
    91                           ; Redistribution and use in source and binary forms, with or without modification, are
    92                           ; permitted provided that the following conditions are met:
    93                           ; 
    94                           ;     1. Redistributions of source code must retain the above copyright notice, this lis
      +                          t of
    95                           ;        conditions and the following disclaimer.
    96                           ; 
    97                           ;     2. Redistributions in binary form must reproduce the above copyright notice, this 
      +                          list
    98                           ;        of conditions and the following disclaimer in the documentation and/or other
    99                           ;        materials provided with the distribution.
   100                           ; 
   101                           ;     3. Microchip's name may not be used to endorse or promote products derived from th
      +                          is
   102                           ;        software without specific prior written permission.
   103                           ; 
   104                           ; THIS SOFTWARE IS PROVIDED BY MICROCHIP "AS IS" AND ANY EXPRESS OR IMPLIED WARRANTIES,
   105                           ; INCLUDING, BUT NOT LIMITED TO, THE IMPLIED WARRANTIES OF MERCHANTABILITY AND FITNESS F
      +                          OR
   106                           ; PURPOSE ARE DISCLAIMED.  IN NO EVENT SHALL MICROCHIP BE LIABLE FOR ANY DIRECT, INDIREC
      +                          T,
   107                           ; INCIDENTAL, SPECIAL, EXEMPLARY, OR CONSEQUENTIAL DAMAGES (INCLUDING BUT NOT LIMITED TO
   108                           ; PROCUREMENT OF SUBSTITUTE GOODS OR SERVICES; LOSS OF USE, DATA OR PROFITS; OR BUSINESS
   109                           ; INTERRUPTION) HOWSOEVER CAUSED AND ON ANY THEORY OF LIABILITY, WHETHER IN CONTRACT, ST
      +                          RICT
   110                           ; LIABILITY, OR TORT (INCLUDING NEGLIGENCE OR OTHERWISE) ARISING IN ANY WAY OUT OF THE U
      +                          SE OF
   111                           ; THIS SOFTWARE, EVEN IF ADVISED OF THE POSSIBILITY OF SUCH DAMAGE.
   112                           ; 
   113                           ; 
   114                           ; Code-generator required, PIC18F4520 Definitions
   115                           ; 
   116                           ; SFR Addresses
   117  0000                     
   118                           	psect	idataBANK1
   119  00602A                     __pidataBANK1:
   120                           	opt callstack 0
   121                           
   122                           ;initializer for _Ro
   123                           ;setting_hardaware/adc.c: 8: double LPGCurve[3] = {2.3,0.21,-0.47};;setting_hardaware/ad
      +                          c.c: 9: double COCurve[3] = {2.3,0.72,-0.34};;setting_hardaware/adc.c: 10: double SmokeC
      +                          urve[3] = {2.3,0.53,-0.44};;setting_hardaware/adc.c: 11: double Ro = 10.0;
   124  00602A  0000               	dw	0
   125  00602C  4120               	dw	16672
   126                           
   127                           ;initializer for _cycle
   128  00602E  0004               	dw	4
   129                           
   130                           ;initializer for _GAS_SMOKE
   131  006030  0002               	dw	2
   132                           
   133                           ;initializer for _GAS_CO
   134  006032  0001               	dw	1
   135                           
   136                           ;initializer for _RL_VALUE
   137  006034  0001               	dw	1
   138                           
   139                           ;initializer for _timer_val
   140  006036  0BDB               	dw	3035
   141                           
   142                           	psect	idataBANK2
   143  005F36                     __pidataBANK2:
   144                           	opt callstack 0
   145                           
   146                           ;initializer for _SmokeCurve
   147                           ;setting_hardaware/adc.c: 8: double LPGCurve[3] = {2.3,0.21,-0.47};;setting_hardaware/ad
      +                          c.c: 9: double COCurve[3] = {2.3,0.72,-0.34};;setting_hardaware/adc.c: 10: double SmokeC
      +                          urve[3] = {2.3,0.53,-0.44};
   148  005F36  3333               	dw	13107
   149  005F38  4013               	dw	16403
   150                           
   151                           ;setting_hardaware/adc.c: 8: double LPGCurve[3] = {2.3,0.21,-0.47};;setting_hardaware/ad
      +                          c.c: 9: double COCurve[3] = {2.3,0.72,-0.34};;setting_hardaware/adc.c: 10: double SmokeC
      +                          urve[3] = {2.3,0.53,-0.44};
   152  005F3A  AE14               	dw	44564
   153  005F3C  3F07               	dw	16135
   154  005F3E  47AE               	dw	18350
   155  005F40  BEE1               	dw	48865
   156                           
   157                           ;initializer for _COCurve
   158                           ;setting_hardaware/adc.c: 8: double LPGCurve[3] = {2.3,0.21,-0.47};;setting_hardaware/ad
      +                          c.c: 9: double COCurve[3] = {2.3,0.72,-0.34};
   159  005F42  3333               	dw	13107
   160  005F44  4013               	dw	16403
   161                           
   162                           ;setting_hardaware/adc.c: 8: double LPGCurve[3] = {2.3,0.21,-0.47};;setting_hardaware/ad
      +                          c.c: 9: double COCurve[3] = {2.3,0.72,-0.34};
   163  005F46  51EC               	dw	20972
   164  005F48  3F38               	dw	16184
   165  005F4A  147B               	dw	5243
   166  005F4C  BEAE               	dw	48814
   167                           
   168                           ;initializer for _LPGCurve
   169                           ;setting_hardaware/adc.c: 8: double LPGCurve[3] = {2.3,0.21,-0.47};
   170  005F4E  3333               	dw	13107
   171  005F50  4013               	dw	16403
   172                           
   173                           ;setting_hardaware/adc.c: 8: double LPGCurve[3] = {2.3,0.21,-0.47};
   174  005F52  0A3D               	dw	2621
   175  005F54  3E57               	dw	15959
   176  005F56  A3D7               	dw	41943
   177  005F58  BEF0               	dw	48880
   178                           
   179                           	psect	smallconst
   180  000600                     __psmallconst:
   181                           	opt callstack 0
   182  000600  00                 	db	0
   183  000601                     _dp_l:
   184                           	opt callstack 0
   185  000601  0000               	dw	0
   186  000603  0000               	dw	0
   187  000605  CFDC               	dw	53212
   188  000607  35D1               	dw	13777
   189  000609                     __end_of_dp_l:
   190                           	opt callstack 0
   191  000609                     _dp_h:
   192                           	opt callstack 0
   193  000609  0000               	dw	0
   194  00060B  0000               	dw	0
   195  00060D  C000               	dw	49152
   196  00060F  3F15               	dw	16149
   197  000611                     __end_of_dp_h:
   198                           	opt callstack 0
   199  000611  4260               	dw	16992
   200  000613  0DA2               	dw	3490
   201  000615                     __end_ofsqrtf@tiny:
   202                           	opt callstack 0
   203  000615  A570               	dw	42352
   204  000617  36EC               	dw	14060
   205  000619                     __end_of_ivln2_l:
   206                           	opt callstack 0
   207  000619  AA3B               	dw	43579
   208  00061B  3FB8               	dw	16312
   209  00061D                     __end_of_ivln2:
   210                           	opt callstack 0
   211  00061D  384F               	dw	14415
   212  00061F  3F76               	dw	16246
   213  000621                     __end_of_cp:
   214                           	opt callstack 0
   215  000621  AA3C               	dw	43580
   216  000623  3338               	dw	13112
   217  000625                     __end_of_ovt:
   218                           	opt callstack 0
   219  000625  BE8C               	dw	48780
   220  000627  35BF               	dw	13759
   221  000629                     __end_of_lg2_l:
   222                           	opt callstack 0
   223  000629  7200               	dw	29184
   224  00062B  3F31               	dw	16177
   225  00062D                     __end_of_lg2_h:
   226                           	opt callstack 0
   227  00062D  7218               	dw	29208
   228  00062F  3F31               	dw	16177
   229  000631                     __end_of_lg2:
   230                           	opt callstack 0
   231  000631  BB4C               	dw	47948
   232  000633  3331               	dw	13105
   233  000635                     __end_of_P5:
   234                           	opt callstack 0
   235  000635  EA0E               	dw	59918
   236  000637  B5DD               	dw	46557
   237  000639                     __end_of_P4:
   238                           	opt callstack 0
   239  000639  B355               	dw	45909
   240  00063B  388A               	dw	14474
   241  00063D                     __end_of_P3:
   242                           	opt callstack 0
   243  00063D  0B61               	dw	2913
   244  00063F  BB36               	dw	47926
   245  000641                     __end_of_P2:
   246                           	opt callstack 0
   247  000641  AAAB               	dw	43691
   248  000643  3E2A               	dw	15914
   249  000645                     __end_of_P1:
   250                           	opt callstack 0
   251  000645  F142               	dw	61762
   252  000647  3E53               	dw	15955
   253  000649                     __end_of_L6:
   254                           	opt callstack 0
   255  000649  3255               	dw	12885
   256  00064B  3E6C               	dw	15980
   257  00064D                     __end_of_L5:
   258                           	opt callstack 0
   259  00064D  A305               	dw	41733
   260  00064F  3E8B               	dw	16011
   261  000651                     __end_of_L4:
   262                           	opt callstack 0
   263  000651  AAAB               	dw	43691
   264  000653  3EAA               	dw	16042
   265  000655                     __end_of_L3:
   266                           	opt callstack 0
   267  000655  6DB7               	dw	28087
   268  000657  3EDB               	dw	16091
   269  000659                     __end_of_L2:
   270                           	opt callstack 0
   271  000659  999A               	dw	39322
   272  00065B  3F19               	dw	16153
   273  00065D                     __end_of_L1:
   274                           	opt callstack 0
   275  00065D  4260               	dw	16992
   276  00065F  0DA2               	dw	3490
   277  000661                     __end_of_tiny:
   278                           	opt callstack 0
   279  000661  F2CA               	dw	62154
   280  000663  7149               	dw	29001
   281  000665                     __end_of_huge:
   282                           	opt callstack 0
   283  000665  0000               	dw	0
   284  000667  4B80               	dw	19328
   285  000669                     __end_of_two24:
   286                           	opt callstack 0
   287  000669  9E26               	dw	40486
   288  00066B  3E78               	dw	15992
   289  00066D                     __end_of_Lg4:
   290                           	opt callstack 0
   291  00066D  E9EE               	dw	59886
   292  00066F  3E91               	dw	16017
   293  000671                     __end_of_Lg3:
   294                           	opt callstack 0
   295  000671  CE13               	dw	52755
   296  000673  3ECC               	dw	16076
   297  000675                     __end_of_Lg2:
   298                           	opt callstack 0
   299  000675  AAAA               	dw	43690
   300  000677  3F2A               	dw	16170
   301  000679                     __end_of_Lg1:
   302                           	opt callstack 0
   303  000679  F7D1               	dw	63441
   304  00067B  3717               	dw	14103
   305  00067D                     __end_of_ln2_lo:
   306                           	opt callstack 0
   307  00067D  7180               	dw	29056
   308  00067F  3F31               	dw	16177
   309  000681                     __end_of_ln2_hi:
   310                           	opt callstack 0
   311  000681                     _bp:
   312                           	opt callstack 0
   313  000681  0000               	dw	0
   314  000683  3F80               	dw	16256
   315  000685  0000               	dw	0
   316  000687  3FC0               	dw	16320
   317  000689                     __end_of_bp:
   318                           	opt callstack 0
   319  000689  AA00               	dw	43520
   320  00068B  3FB8               	dw	16312
   321  00068D                     __end_of_ivln2_h:
   322                           	opt callstack 0
   323  00068D  23C6               	dw	9158
   324  00068F  B8F6               	dw	47350
   325  000691                     __end_of_cp_l:
   326                           	opt callstack 0
   327  000691  4000               	dw	16384
   328  000693  3F76               	dw	16246
   329  000695                     __end_of_cp_h:
   330                           	opt callstack 0
   331  0000                     _LATAbits	set	3977
   332  0000                     _TRISAbits	set	3986
   333  0000                     _PORTAbits	set	3968
   334  0000                     _LATBbits	set	3978
   335  0000                     _LATCbits	set	3979
   336  0000                     _LATD	set	3980
   337  0000                     _TRISA	set	3986
   338  0000                     _TRISBbits	set	3987
   339  0000                     _TRISD	set	3989
   340  0000                     _TRISC	set	3988
   341  0000                     _ADRES	set	4035
   342  0000                     _TMR1	set	4046
   343  0000                     _ADCON0bits	set	4034
   344  0000                     _ADCON2	set	4032
   345  0000                     _ADCON1	set	4033
   346  0000                     _RCONbits	set	4048
   347  0000                     _RCSTAbits	set	4011
   348  0000                     _RCREG	set	4014
   349  0000                     _TXREG	set	4013
   350  0000                     _TXSTAbits	set	4012
   351  0000                     _IPR1bits	set	3999
   352  0000                     _PIE1bits	set	3997
   353  0000                     _PIR1bits	set	3998
   354  0000                     _T1CONbits	set	4045
   355  0000                     _CREN	set	32092
   356  0000                     _RCIF	set	31989
   357  0000                     _IRCF0	set	32412
   358  0000                     _IRCF1	set	32413
   359  0000                     _IRCF2	set	32414
   360  0000                     _INTCONbits	set	4082
   361  000695                     STR_3:
   362  000695  25                 	db	37
   363  000696  64                 	db	100	;'d'
   364  000697  2E                 	db	46
   365  000698  25                 	db	37
   366  000699  31                 	db	49	;'1'
   367  00069A  64                 	db	100	;'d'
   368  00069B  20                 	db	32
   369  00069C  43                 	db	67	;'C'
   370  00069D  20                 	db	32
   371  00069E  20                 	db	32
   372  00069F  25                 	db	37
   373  0006A0  64                 	db	100	;'d'
   374  0006A1  2E                 	db	46
   375  0006A2  25                 	db	37
   376  0006A3  31                 	db	49	;'1'
   377  0006A4  64                 	db	100	;'d'
   378  0006A5  20                 	db	32
   379  0006A6  48                 	db	72	;'H'
   380  0006A7  00                 	db	0
   381  0006A8                     STR_4:
   382  0006A8  25                 	db	37
   383  0006A9  64                 	db	100	;'d'
   384  0006AA  20                 	db	32
   385  0006AB  25                 	db	37
   386  0006AC  64                 	db	100	;'d'
   387  0006AD  20                 	db	32
   388  0006AE  25                 	db	37
   389  0006AF  64                 	db	100	;'d'
   390  0006B0  00                 	db	0
   391  0006B1                     STR_1:
   392  0006B1  6D                 	db	109	;'m'
   393  0006B2  6F                 	db	111	;'o'
   394  0006B3  6E                 	db	110	;'n'
   395  0006B4  69                 	db	105	;'i'
   396  0006B5  74                 	db	116	;'t'
   397  0006B6  6F                 	db	111	;'o'
   398  0006B7  72                 	db	114	;'r'
   399  0006B8  00                 	db	0
   400  0006B9                     STR_2:
   401  0006B9  73                 	db	115	;'s'
   402  0006BA  74                 	db	116	;'t'
   403  0006BB  61                 	db	97	;'a'
   404  0006BC  72                 	db	114	;'r'
   405  0006BD  74                 	db	116	;'t'
   406  0006BE  00                 	db	0
   407  0000                     
   408                           ; #config settings
   409  0006BF  00                 	db	0	; dummy byte at the end
   410  0000                     
   411                           	psect	cinit
   412  0059D0                     __pcinit:
   413                           	opt callstack 0
   414  0059D0                     start_initialization:
   415                           	opt callstack 0
   416  0059D0                     __initialization:
   417                           	opt callstack 0
   418                           
   419                           ; Initialize objects allocated to BANK2 (36 bytes)
   420                           ; load TBLPTR registers with __pidataBANK2
   421  0059D0  0E36               	movlw	low __pidataBANK2
   422  0059D2  6EF6               	movwf	tblptrl,c
   423  0059D4  0E5F               	movlw	high __pidataBANK2
   424  0059D6  6EF7               	movwf	tblptrh,c
   425  0059D8  0E00               	movlw	low (__pidataBANK2 shr (0+16))
   426  0059DA  6EF8               	movwf	tblptru,c
   427  0059DC  EE02  F090         	lfsr	0,__pdataBANK2
   428  0059E0  EE10 F024          	lfsr	1,36
   429  0059E4                     copy_data0:
   430  0059E4  0009               	tblrd		*+
   431  0059E6  CFF5 FFEE          	movff	tablat,postinc0
   432  0059EA  50E5               	movf	postdec1,w,c
   433  0059EC  50E1               	movf	fsr1l,w,c
   434  0059EE  E1FA               	bnz	copy_data0
   435                           
   436                           ; Initialize objects allocated to BANK1 (14 bytes)
   437                           ; load TBLPTR registers with __pidataBANK1
   438  0059F0  0E2A               	movlw	low __pidataBANK1
   439  0059F2  6EF6               	movwf	tblptrl,c
   440  0059F4  0E60               	movlw	high __pidataBANK1
   441  0059F6  6EF7               	movwf	tblptrh,c
   442  0059F8  0E00               	movlw	low (__pidataBANK1 shr (0+16))
   443  0059FA  6EF8               	movwf	tblptru,c
   444  0059FC  EE01  F0F1         	lfsr	0,__pdataBANK1
   445  005A00  EE10 F00E          	lfsr	1,14
   446  005A04                     copy_data1:
   447  005A04  0009               	tblrd		*+
   448  005A06  CFF5 FFEE          	movff	tablat,postinc0
   449  005A0A  50E5               	movf	postdec1,w,c
   450  005A0C  50E1               	movf	fsr1l,w,c
   451  005A0E  E1FA               	bnz	copy_data1
   452                           
   453                           ; Clear objects allocated to BANK2 (144 bytes)
   454  005A10  EE02  F000         	lfsr	0,__pbssBANK2
   455  005A14  0E90               	movlw	144
   456  005A16                     clear_0:
   457  005A16  6AEE               	clrf	postinc0,c
   458  005A18  06E8               	decf	wreg,f,c
   459  005A1A  E1FD               	bnz	clear_0
   460                           
   461                           ; Clear objects allocated to BANK1 (42 bytes)
   462  005A1C  EE01  F0C7         	lfsr	0,__pbssBANK1
   463  005A20  0E2A               	movlw	42
   464  005A22                     clear_1:
   465  005A22  6AEE               	clrf	postinc0,c
   466  005A24  06E8               	decf	wreg,f,c
   467  005A26  E1FD               	bnz	clear_1
   468                           
   469                           ; Clear objects allocated to BANK0 (9 bytes)
   470  005A28  EE00  F0F7         	lfsr	0,__pbssBANK0
   471  005A2C  0E09               	movlw	9
   472  005A2E                     clear_2:
   473  005A2E  6AEE               	clrf	postinc0,c
   474  005A30  06E8               	decf	wreg,f,c
   475  005A32  E1FD               	bnz	clear_2
   476  005A34                     end_of_initialization:
   477                           	opt callstack 0
   478  005A34                     __end_of__initialization:
   479                           	opt callstack 0
   480  005A34  907F               	bcf	int$flags,0,c	;clear compiler interrupt flag (level 1)
   481  005A36  927F               	bcf	int$flags,1,c	;clear compiler interrupt flag (level 2)
   482  005A38  0E00               	movlw	low (__Lmediumconst shr (0+16))
   483  005A3A  6EF8               	movwf	tblptru,c
   484  005A3C  0100               	movlb	0
   485  005A3E  EF35  F030         	goto	_main	;jump to C main() function
   486                           
   487                           	psect	bssBANK0
   488  0000F7                     __pbssBANK0:
   489                           	opt callstack 0
   490  0000F7                     _prec:
   491                           	opt callstack 0
   492  0000F7                     	ds	2
   493  0000F9                     _flags:
   494                           	opt callstack 0
   495  0000F9                     	ds	2
   496  0000FB                     _Checksum:
   497                           	opt callstack 0
   498  0000FB                     	ds	1
   499  0000FC                     _T_Integral:
   500                           	opt callstack 0
   501  0000FC                     	ds	1
   502  0000FD                     _T_Decimal:
   503                           	opt callstack 0
   504  0000FD                     	ds	1
   505  0000FE                     _RH_Integral:
   506                           	opt callstack 0
   507  0000FE                     	ds	1
   508  0000FF                     _RH_Decimal:
   509                           	opt callstack 0
   510  0000FF                     	ds	1
   511                           
   512                           	psect	bssBANK1
   513  0001C7                     __pbssBANK1:
   514                           	opt callstack 0
   515  0001C7                     fabsf@F463:
   516                           	opt callstack 0
   517  0001C7                     	ds	4
   518  0001CB                     logf@F469:
   519                           	opt callstack 0
   520  0001CB                     	ds	4
   521  0001CF                     _smoke:
   522                           	opt callstack 0
   523  0001CF                     	ds	4
   524  0001D3                     _co:
   525                           	opt callstack 0
   526  0001D3                     	ds	4
   527  0001D7                     _lpg:
   528                           	opt callstack 0
   529  0001D7                     	ds	4
   530  0001DB                     _errno:
   531                           	opt callstack 0
   532  0001DB                     	ds	2
   533  0001DD                     _nout:
   534                           	opt callstack 0
   535  0001DD                     	ds	2
   536  0001DF                     _width:
   537                           	opt callstack 0
   538  0001DF                     	ds	2
   539  0001E1                     _GAS_LPG:
   540                           	opt callstack 0
   541  0001E1                     	ds	2
   542  0001E3                     _count:
   543                           	opt callstack 0
   544  0001E3                     	ds	2
   545  0001E5                     _value:
   546                           	opt callstack 0
   547  0001E5                     	ds	12
   548                           
   549                           	psect	dataBANK1
   550  0001F1                     __pdataBANK1:
   551                           	opt callstack 0
   552  0001F1                     _Ro:
   553                           	opt callstack 0
   554  0001F1                     	ds	4
   555  0001F5                     _cycle:
   556                           	opt callstack 0
   557  0001F5                     	ds	2
   558  0001F7                     _GAS_SMOKE:
   559                           	opt callstack 0
   560  0001F7                     	ds	2
   561  0001F9                     _GAS_CO:
   562                           	opt callstack 0
   563  0001F9                     	ds	2
   564  0001FB                     _RL_VALUE:
   565                           	opt callstack 0
   566  0001FB                     	ds	2
   567  0001FD                     _timer_val:
   568                           	opt callstack 0
   569  0001FD                     	ds	2
   570                           
   571                           	psect	bssBANK2
   572  000200                     __pbssBANK2:
   573                           	opt callstack 0
   574  000200                     _lenStr:
   575                           	opt callstack 0
   576  000200                     	ds	2
   577  000202                     _r:
   578                           	opt callstack 0
   579  000202                     	ds	100
   580  000266                     _dbuf:
   581                           	opt callstack 0
   582  000266                     	ds	32
   583  000286                     _mystring:
   584                           	opt callstack 0
   585  000286                     	ds	10
   586                           
   587                           	psect	dataBANK2
   588  000290                     __pdataBANK2:
   589                           	opt callstack 0
   590  000290                     _SmokeCurve:
   591                           	opt callstack 0
   592  000290                     	ds	12
   593  00029C                     _COCurve:
   594                           	opt callstack 0
   595  00029C                     	ds	12
   596  0002A8                     _LPGCurve:
   597                           	opt callstack 0
   598  0002A8                     	ds	12
   599                           
   600                           	psect	cstackBANK2
   601  0002B4                     __pcstackBANK2:
   602                           	opt callstack 0
   603  0002B4                     ?___awmod:
   604                           	opt callstack 0
   605  0002B4                     UART_Write@data:
   606                           	opt callstack 0
   607  0002B4                     ___awmod@dividend:
   608                           	opt callstack 0
   609                           
   610                           ; 2 bytes @ 0x0
   611  0002B4                     	ds	2
   612  0002B6                     ___awmod@divisor:
   613                           	opt callstack 0
   614                           
   615                           ; 2 bytes @ 0x2
   616  0002B6                     	ds	2
   617  0002B8                     ___awmod@counter:
   618                           	opt callstack 0
   619                           
   620                           ; 1 bytes @ 0x4
   621  0002B8                     	ds	1
   622  0002B9                     ___awmod@sign:
   623                           	opt callstack 0
   624                           
   625                           ; 1 bytes @ 0x5
   626  0002B9                     	ds	1
   627  0002BA                     ??_Lo_ISR:
   628                           
   629                           ; 1 bytes @ 0x6
   630  0002BA                     	ds	5
   631  0002BF                     ??_speak:
   632  0002BF                     Cmd@Value:
   633                           	opt callstack 0
   634  0002BF                     Data@Value:
   635                           	opt callstack 0
   636                           
   637                           ; 2 bytes @ 0xB
   638  0002BF                     	ds	1
   639  0002C0                     
   640                           ; 1 bytes @ 0xC
   641  0002C0                     	ds	1
   642  0002C1                     ??_Cmd:
   643  0002C1                     ??_Data:
   644                           
   645                           ; 1 bytes @ 0xD
   646  0002C1                     	ds	1
   647  0002C2                     Send2Lcd@Lcd:
   648                           	opt callstack 0
   649                           
   650                           ; 2 bytes @ 0xE
   651  0002C2                     	ds	2
   652  0002C4                     ??_Send2Lcd:
   653                           
   654                           ; 1 bytes @ 0x10
   655  0002C4                     	ds	1
   656  0002C5                     Send2Lcd@Adr:
   657                           	opt callstack 0
   658                           
   659                           ; 1 bytes @ 0x11
   660  0002C5                     	ds	1
   661  0002C6                     ??_LCD_init:
   662                           
   663                           ; 1 bytes @ 0x12
   664  0002C6                     	ds	1
   665  0002C7                     
   666                           ; 1 bytes @ 0x13
   667                           
   668                           	psect	cstackBANK1
   669  000100                     __pcstackBANK1:
   670                           	opt callstack 0
   671  000100                     _powf$2140:
   672                           	opt callstack 0
   673                           
   674                           ; 4 bytes @ 0x0
   675  000100                     	ds	4
   676  000104                     _powf$2141:
   677                           	opt callstack 0
   678                           
   679                           ; 4 bytes @ 0x4
   680  000104                     	ds	4
   681  000108                     _powf$2145:
   682                           	opt callstack 0
   683                           
   684                           ; 4 bytes @ 0x8
   685  000108                     	ds	4
   686  00010C                     _powf$2146:
   687                           	opt callstack 0
   688                           
   689                           ; 4 bytes @ 0xC
   690  00010C                     	ds	4
   691  000110                     _powf$2147:
   692                           	opt callstack 0
   693                           
   694                           ; 4 bytes @ 0x10
   695  000110                     	ds	4
   696  000114                     _powf$2148:
   697                           	opt callstack 0
   698                           
   699                           ; 4 bytes @ 0x14
   700  000114                     	ds	4
   701  000118                     _powf$2149:
   702                           	opt callstack 0
   703                           
   704                           ; 4 bytes @ 0x18
   705  000118                     	ds	4
   706  00011C                     powf@t2:
   707                           	opt callstack 0
   708                           
   709                           ; 4 bytes @ 0x1C
   710  00011C                     	ds	4
   711  000120                     powf@z_h:
   712                           	opt callstack 0
   713                           
   714                           ; 4 bytes @ 0x20
   715  000120                     	ds	4
   716  000124                     powf@z_l:
   717                           	opt callstack 0
   718                           
   719                           ; 4 bytes @ 0x24
   720  000124                     	ds	4
   721  000128                     powf@y1:
   722                           	opt callstack 0
   723                           
   724                           ; 4 bytes @ 0x28
   725  000128                     	ds	4
   726  00012C                     powf@i:
   727                           	opt callstack 0
   728                           
   729                           ; 4 bytes @ 0x2C
   730  00012C                     	ds	4
   731  000130                     powf@s_l:
   732                           	opt callstack 0
   733                           
   734                           ; 4 bytes @ 0x30
   735  000130                     	ds	4
   736  000134                     powf@t_l:
   737                           	opt callstack 0
   738                           
   739                           ; 4 bytes @ 0x34
   740  000134                     	ds	4
   741  000138                     _powf$2139:
   742                           	opt callstack 0
   743                           
   744                           ; 4 bytes @ 0x38
   745  000138                     	ds	4
   746  00013C                     _powf$2143:
   747                           	opt callstack 0
   748                           
   749                           ; 4 bytes @ 0x3C
   750  00013C                     	ds	4
   751  000140                     _powf$2144:
   752                           	opt callstack 0
   753                           
   754                           ; 4 bytes @ 0x40
   755  000140                     	ds	4
   756  000144                     powf@w:
   757                           	opt callstack 0
   758                           
   759                           ; 4 bytes @ 0x44
   760  000144                     	ds	4
   761  000148                     _powf$2137:
   762                           	opt callstack 0
   763                           
   764                           ; 4 bytes @ 0x48
   765  000148                     	ds	4
   766  00014C                     powf@r:
   767                           	opt callstack 0
   768                           
   769                           ; 4 bytes @ 0x4C
   770  00014C                     	ds	4
   771  000150                     powf@yisint:
   772                           	opt callstack 0
   773                           
   774                           ; 4 bytes @ 0x50
   775  000150                     	ds	4
   776  000154                     _powf$2136:
   777                           	opt callstack 0
   778                           
   779                           ; 4 bytes @ 0x54
   780  000154                     	ds	4
   781  000158                     _powf$2142:
   782                           	opt callstack 0
   783                           
   784                           ; 4 bytes @ 0x58
   785  000158                     	ds	4
   786  00015C                     powf@s:
   787                           	opt callstack 0
   788                           
   789                           ; 4 bytes @ 0x5C
   790  00015C                     	ds	4
   791  000160                     powf@hx:
   792                           	opt callstack 0
   793                           
   794                           ; 4 bytes @ 0x60
   795  000160                     	ds	4
   796  000164                     powf@p_l:
   797                           	opt callstack 0
   798                           
   799                           ; 4 bytes @ 0x64
   800  000164                     	ds	4
   801  000168                     powf@t_h:
   802                           	opt callstack 0
   803                           
   804                           ; 4 bytes @ 0x68
   805  000168                     	ds	4
   806  00016C                     powf@s_h:
   807                           	opt callstack 0
   808                           
   809                           ; 4 bytes @ 0x6C
   810  00016C                     	ds	4
   811  000170                     powf@ax:
   812                           	opt callstack 0
   813                           
   814                           ; 4 bytes @ 0x70
   815  000170                     	ds	4
   816  000174                     powf@u:
   817                           	opt callstack 0
   818                           
   819                           ; 4 bytes @ 0x74
   820  000174                     	ds	4
   821  000178                     powf@v:
   822                           	opt callstack 0
   823                           
   824                           ; 4 bytes @ 0x78
   825  000178                     	ds	4
   826  00017C                     powf@n:
   827                           	opt callstack 0
   828                           
   829                           ; 4 bytes @ 0x7C
   830  00017C                     	ds	4
   831  000180                     powf@t1:
   832                           	opt callstack 0
   833                           
   834                           ; 4 bytes @ 0x80
   835  000180                     	ds	4
   836  000184                     powf@hy:
   837                           	opt callstack 0
   838                           
   839                           ; 4 bytes @ 0x84
   840  000184                     	ds	4
   841  000188                     powf@sn:
   842                           	opt callstack 0
   843                           
   844                           ; 4 bytes @ 0x88
   845  000188                     	ds	4
   846  00018C                     powf@s2:
   847                           	opt callstack 0
   848                           
   849                           ; 4 bytes @ 0x8C
   850  00018C                     	ds	4
   851  000190                     powf@is:
   852                           	opt callstack 0
   853                           
   854                           ; 4 bytes @ 0x90
   855  000190                     	ds	4
   856  000194                     _powf$2138:
   857                           	opt callstack 0
   858                           
   859                           ; 4 bytes @ 0x94
   860  000194                     	ds	4
   861  000198                     powf@iy:
   862                           	opt callstack 0
   863                           
   864                           ; 4 bytes @ 0x98
   865  000198                     	ds	4
   866  00019C                     powf@p_h:
   867                           	opt callstack 0
   868                           
   869                           ; 4 bytes @ 0x9C
   870  00019C                     	ds	4
   871  0001A0                     powf@k:
   872                           	opt callstack 0
   873                           
   874                           ; 4 bytes @ 0xA0
   875  0001A0                     	ds	4
   876  0001A4                     _powf$2135:
   877                           	opt callstack 0
   878                           
   879                           ; 4 bytes @ 0xA4
   880  0001A4                     	ds	4
   881  0001A8                     powf@ix:
   882                           	opt callstack 0
   883                           
   884                           ; 4 bytes @ 0xA8
   885  0001A8                     	ds	4
   886  0001AC                     powf@j:
   887                           	opt callstack 0
   888                           
   889                           ; 4 bytes @ 0xAC
   890  0001AC                     	ds	4
   891  0001B0                     powf@t:
   892                           	opt callstack 0
   893                           
   894                           ; 4 bytes @ 0xB0
   895  0001B0                     	ds	4
   896  0001B4                     powf@z:
   897                           	opt callstack 0
   898                           
   899                           ; 4 bytes @ 0xB4
   900  0001B4                     	ds	4
   901  0001B8                     powf@__xc8_float_word:
   902                           	opt callstack 0
   903                           
   904                           ; 4 bytes @ 0xB8
   905  0001B8                     	ds	4
   906  0001BC                     ??_Hi_ISR:
   907                           
   908                           ; 1 bytes @ 0xBC
   909  0001BC                     	ds	11
   910                           
   911                           	psect	cstackBANK0
   912  000080                     __pcstackBANK0:
   913                           	opt callstack 0
   914  000080                     logf@R:
   915                           	opt callstack 0
   916                           
   917                           ; 4 bytes @ 0x0
   918  000080                     	ds	4
   919  000084                     logf@t1:
   920                           	opt callstack 0
   921                           
   922                           ; 4 bytes @ 0x4
   923  000084                     	ds	4
   924  000088                     logf@t2:
   925                           	opt callstack 0
   926                           
   927                           ; 4 bytes @ 0x8
   928  000088                     	ds	4
   929  00008C                     _logf$2131:
   930                           	opt callstack 0
   931                           
   932                           ; 4 bytes @ 0xC
   933  00008C                     	ds	4
   934  000090                     _logf$2132:
   935                           	opt callstack 0
   936                           
   937                           ; 4 bytes @ 0x10
   938  000090                     	ds	4
   939  000094                     _logf$2133:
   940                           	opt callstack 0
   941                           
   942                           ; 4 bytes @ 0x14
   943  000094                     	ds	4
   944  000098                     _logf$2134:
   945                           	opt callstack 0
   946                           
   947                           ; 4 bytes @ 0x18
   948  000098                     	ds	4
   949  00009C                     logf@k:
   950                           	opt callstack 0
   951                           
   952                           ; 2 bytes @ 0x1C
   953  00009C                     	ds	2
   954  00009E                     logf@hfsq:
   955                           	opt callstack 0
   956                           
   957                           ; 4 bytes @ 0x1E
   958  00009E                     	ds	4
   959  0000A2                     logf@dk:
   960                           	opt callstack 0
   961                           
   962                           ; 4 bytes @ 0x22
   963  0000A2                     	ds	4
   964  0000A6                     logf@s:
   965                           	opt callstack 0
   966                           
   967                           ; 4 bytes @ 0x26
   968  0000A6                     	ds	4
   969  0000AA                     logf@z:
   970                           	opt callstack 0
   971                           
   972                           ; 4 bytes @ 0x2A
   973  0000AA                     	ds	4
   974  0000AE                     logf@w:
   975                           	opt callstack 0
   976                           
   977                           ; 4 bytes @ 0x2E
   978  0000AE                     	ds	4
   979  0000B2                     _logf$2130:
   980                           	opt callstack 0
   981                           
   982                           ; 4 bytes @ 0x32
   983  0000B2                     	ds	4
   984  0000B6                     logf@u:
   985                           	opt callstack 0
   986                           
   987                           ; 4 bytes @ 0x36
   988  0000B6                     	ds	4
   989  0000BA                     logf@f:
   990                           	opt callstack 0
   991                           
   992                           ; 4 bytes @ 0x3A
   993  0000BA                     	ds	4
   994  0000BE                     logf@ix:
   995                           	opt callstack 0
   996                           
   997                           ; 4 bytes @ 0x3E
   998  0000BE                     	ds	4
   999  0000C2                     ??_powf:
  1000                           
  1001                           ; 1 bytes @ 0x42
  1002  0000C2                     	ds	9
  1003  0000CB                     ___fltol@sign1:
  1004                           	opt callstack 0
  1005                           
  1006                           ; 1 bytes @ 0x4B
  1007  0000CB                     	ds	1
  1008  0000CC                     ___fltol@exp1:
  1009                           	opt callstack 0
  1010                           
  1011                           ; 1 bytes @ 0x4C
  1012  0000CC                     	ds	1
  1013  0000CD                     ?_sprintf:
  1014                           	opt callstack 0
  1015  0000CD                     ?_MQGetPercentage:
  1016                           	opt callstack 0
  1017  0000CD                     sprintf@s:
  1018                           	opt callstack 0
  1019  0000CD                     MQGetPercentage@rs_ro_ratio:
  1020                           	opt callstack 0
  1021                           
  1022                           ; 4 bytes @ 0x4D
  1023  0000CD                     	ds	2
  1024  0000CF                     sprintf@fmt:
  1025                           	opt callstack 0
  1026                           
  1027                           ; 2 bytes @ 0x4F
  1028  0000CF                     	ds	2
  1029  0000D1                     MQGetPercentage@pcurve:
  1030                           	opt callstack 0
  1031                           
  1032                           ; 2 bytes @ 0x51
  1033  0000D1                     	ds	2
  1034  0000D3                     _MQGetPercentage$2125:
  1035                           	opt callstack 0
  1036                           
  1037                           ; 4 bytes @ 0x53
  1038  0000D3                     	ds	4
  1039  0000D7                     _MQGetPercentage$2126:
  1040                           	opt callstack 0
  1041                           
  1042                           ; 4 bytes @ 0x57
  1043  0000D7                     	ds	4
  1044  0000DB                     sprintf@ap:
  1045                           	opt callstack 0
  1046  0000DB                     _MQGetPercentage$2127:
  1047                           	opt callstack 0
  1048                           
  1049                           ; 4 bytes @ 0x5B
  1050  0000DB                     	ds	2
  1051  0000DD                     sprintf@f:
  1052                           	opt callstack 0
  1053                           
  1054                           ; 6 bytes @ 0x5D
  1055  0000DD                     	ds	2
  1056  0000DF                     ?_MQGetGasPercentage:
  1057                           	opt callstack 0
  1058  0000DF                     MQGetGasPercentage@rs_ro_ratio:
  1059                           	opt callstack 0
  1060                           
  1061                           ; 4 bytes @ 0x5F
  1062  0000DF                     	ds	4
  1063  0000E3                     MQGetGasPercentage@gas_id:
  1064                           	opt callstack 0
  1065                           
  1066                           ; 2 bytes @ 0x63
  1067  0000E3                     	ds	2
  1068  0000E5                     _MQGetGasPercentage$2128:
  1069                           	opt callstack 0
  1070                           
  1071                           ; 4 bytes @ 0x65
  1072  0000E5                     	ds	4
  1073  0000E9                     MQ_Read@values:
  1074                           	opt callstack 0
  1075                           
  1076                           ; 2 bytes @ 0x69
  1077  0000E9                     	ds	2
  1078  0000EB                     ??_MQ_Read:
  1079                           
  1080                           ; 1 bytes @ 0x6B
  1081  0000EB                     	ds	2
  1082  0000ED                     MQ_Read@digital:
  1083                           	opt callstack 0
  1084                           
  1085                           ; 2 bytes @ 0x6D
  1086  0000ED                     	ds	2
  1087  0000EF                     MQ_Read@res:
  1088                           	opt callstack 0
  1089                           
  1090                           ; 4 bytes @ 0x6F
  1091  0000EF                     	ds	4
  1092  0000F3                     _MQ_Read$2129:
  1093                           	opt callstack 0
  1094                           
  1095                           ; 4 bytes @ 0x73
  1096  0000F3                     	ds	4
  1097                           
  1098                           	psect	cstackCOMRAM
  1099  000001                     __pcstackCOMRAM:
  1100                           	opt callstack 0
  1101  000001                     ??_DHT11_Start:
  1102  000001                     ??i2_speak:
  1103  000001                     ?_strlen:
  1104                           	opt callstack 0
  1105  000001                     ?_isdigit:
  1106                           	opt callstack 0
  1107  000001                     ?_isspace:
  1108                           	opt callstack 0
  1109  000001                     ?___wmul:
  1110                           	opt callstack 0
  1111  000001                     ?___fladd:
  1112                           	opt callstack 0
  1113  000001                     ?_fabsf:
  1114                           	opt callstack 0
  1115  000001                     ?_nanf:
  1116                           	opt callstack 0
  1117  000001                     ?___flneg:
  1118                           	opt callstack 0
  1119  000001                     ?___xxtofl:
  1120                           	opt callstack 0
  1121  000001                     ?___aodiv:
  1122                           	opt callstack 0
  1123  000001                     ?___aomod:
  1124                           	opt callstack 0
  1125  000001                     DHT11_ReadData@i:
  1126                           	opt callstack 0
  1127  000001                     ___wmul@multiplier:
  1128                           	opt callstack 0
  1129  000001                     isdigit@c:
  1130                           	opt callstack 0
  1131  000001                     isspace@c:
  1132                           	opt callstack 0
  1133  000001                     memset@dest:
  1134                           	opt callstack 0
  1135  000001                     fputc@c:
  1136                           	opt callstack 0
  1137  000001                     strlen@s:
  1138                           	opt callstack 0
  1139  000001                     nanf@s:
  1140                           	opt callstack 0
  1141  000001                     i2Cmd@Value:
  1142                           	opt callstack 0
  1143  000001                     i2Data@Value:
  1144                           	opt callstack 0
  1145  000001                     ___flneg@f1:
  1146                           	opt callstack 0
  1147  000001                     ___fladd@b:
  1148                           	opt callstack 0
  1149  000001                     ___xxtofl@val:
  1150                           	opt callstack 0
  1151  000001                     fabsf@x:
  1152                           	opt callstack 0
  1153  000001                     ___aodiv@dividend:
  1154                           	opt callstack 0
  1155  000001                     ___aomod@dividend:
  1156                           	opt callstack 0
  1157                           
  1158                           ; 8 bytes @ 0x0
  1159  000001                     	ds	1
  1160  000002                     DHT11_ReadData@data:
  1161                           	opt callstack 0
  1162                           
  1163                           ; 1 bytes @ 0x1
  1164  000002                     	ds	1
  1165  000003                     ??_isdigit:
  1166  000003                     ??_isspace:
  1167  000003                     ??i2_Cmd:
  1168  000003                     ??i2_Data:
  1169  000003                     ___wmul@multiplicand:
  1170                           	opt callstack 0
  1171  000003                     memset@c:
  1172                           	opt callstack 0
  1173  000003                     fputc@fp:
  1174                           	opt callstack 0
  1175  000003                     strlen@a:
  1176                           	opt callstack 0
  1177                           
  1178                           ; 2 bytes @ 0x2
  1179  000003                     	ds	1
  1180  000004                     i2Send2Lcd@Lcd:
  1181                           	opt callstack 0
  1182                           
  1183                           ; 2 bytes @ 0x3
  1184  000004                     	ds	1
  1185  000005                     ??_fputc:
  1186  000005                     ??___xxtofl:
  1187  000005                     ___wmul@product:
  1188                           	opt callstack 0
  1189  000005                     memset@n:
  1190                           	opt callstack 0
  1191  000005                     ___fladd@a:
  1192                           	opt callstack 0
  1193  000005                     fabsf@u:
  1194                           	opt callstack 0
  1195  000005                     nanf@u:
  1196                           	opt callstack 0
  1197                           
  1198                           ; 4 bytes @ 0x4
  1199  000005                     	ds	1
  1200  000006                     ??i2_Send2Lcd:
  1201                           
  1202                           ; 1 bytes @ 0x5
  1203  000006                     	ds	1
  1204  000007                     ??_memset:
  1205  000007                     _isspace$1664:
  1206                           	opt callstack 0
  1207  000007                     i2Send2Lcd@Adr:
  1208                           	opt callstack 0
  1209                           
  1210                           ; 1 bytes @ 0x6
  1211  000007                     	ds	1
  1212  000008                     ?_atoi:
  1213                           	opt callstack 0
  1214  000008                     atoi@s:
  1215                           	opt callstack 0
  1216                           
  1217                           ; 2 bytes @ 0x7
  1218  000008                     	ds	1
  1219  000009                     ??___fladd:
  1220  000009                     ___xxtofl@sign:
  1221                           	opt callstack 0
  1222  000009                     memset@k:
  1223                           	opt callstack 0
  1224  000009                     ___aodiv@divisor:
  1225                           	opt callstack 0
  1226  000009                     ___aomod@divisor:
  1227                           	opt callstack 0
  1228                           
  1229                           ; 8 bytes @ 0x8
  1230  000009                     	ds	1
  1231  00000A                     ??_atoi:
  1232  00000A                     ___xxtofl@exp:
  1233                           	opt callstack 0
  1234  00000A                     fputs@s:
  1235                           	opt callstack 0
  1236                           
  1237                           ; 2 bytes @ 0x9
  1238  00000A                     	ds	1
  1239  00000B                     memset@s:
  1240                           	opt callstack 0
  1241  00000B                     ___xxtofl@arg:
  1242                           	opt callstack 0
  1243                           
  1244                           ; 4 bytes @ 0xA
  1245  00000B                     	ds	1
  1246  00000C                     fputs@fp:
  1247                           	opt callstack 0
  1248                           
  1249                           ; 2 bytes @ 0xB
  1250  00000C                     	ds	1
  1251  00000D                     ___fladd@signs:
  1252                           	opt callstack 0
  1253                           
  1254                           ; 1 bytes @ 0xC
  1255  00000D                     	ds	1
  1256  00000E                     ___fladd@aexp:
  1257                           	opt callstack 0
  1258  00000E                     fputs@c:
  1259                           	opt callstack 0
  1260  00000E                     atoi@neg:
  1261                           	opt callstack 0
  1262                           
  1263                           ; 2 bytes @ 0xD
  1264  00000E                     	ds	1
  1265  00000F                     ___fladd@bexp:
  1266                           	opt callstack 0
  1267  00000F                     fputs@i:
  1268                           	opt callstack 0
  1269                           
  1270                           ; 2 bytes @ 0xE
  1271  00000F                     	ds	1
  1272  000010                     ___fladd@grs:
  1273                           	opt callstack 0
  1274  000010                     _atoi$1646:
  1275                           	opt callstack 0
  1276                           
  1277                           ; 2 bytes @ 0xF
  1278  000010                     	ds	1
  1279  000011                     ?_pad:
  1280                           	opt callstack 0
  1281  000011                     ?___flmul:
  1282                           	opt callstack 0
  1283  000011                     ___aodiv@counter:
  1284                           	opt callstack 0
  1285  000011                     ___aomod@counter:
  1286                           	opt callstack 0
  1287  000011                     pad@fp:
  1288                           	opt callstack 0
  1289  000011                     ___flmul@b:
  1290                           	opt callstack 0
  1291                           
  1292                           ; 4 bytes @ 0x10
  1293  000011                     	ds	1
  1294  000012                     ___aodiv@sign:
  1295                           	opt callstack 0
  1296  000012                     ___aomod@sign:
  1297                           	opt callstack 0
  1298  000012                     _atoi$1648:
  1299                           	opt callstack 0
  1300                           
  1301                           ; 2 bytes @ 0x11
  1302  000012                     	ds	1
  1303  000013                     ?_abs:
  1304                           	opt callstack 0
  1305  000013                     pad@buf:
  1306                           	opt callstack 0
  1307  000013                     abs@a:
  1308                           	opt callstack 0
  1309  000013                     ___aodiv@quotient:
  1310                           	opt callstack 0
  1311                           
  1312                           ; 8 bytes @ 0x12
  1313  000013                     	ds	1
  1314  000014                     _atoi$1647:
  1315                           	opt callstack 0
  1316                           
  1317                           ; 1 bytes @ 0x13
  1318  000014                     	ds	1
  1319  000015                     ??_abs:
  1320  000015                     pad@p:
  1321                           	opt callstack 0
  1322  000015                     atoi@n:
  1323                           	opt callstack 0
  1324  000015                     ___flmul@a:
  1325                           	opt callstack 0
  1326                           
  1327                           ; 4 bytes @ 0x14
  1328  000015                     	ds	2
  1329  000017                     ??_pad:
  1330                           
  1331                           ; 1 bytes @ 0x16
  1332  000017                     	ds	1
  1333  000018                     pad@i:
  1334                           	opt callstack 0
  1335                           
  1336                           ; 2 bytes @ 0x17
  1337  000018                     	ds	1
  1338  000019                     ??___flmul:
  1339                           
  1340                           ; 1 bytes @ 0x18
  1341  000019                     	ds	1
  1342  00001A                     pad@w:
  1343                           	opt callstack 0
  1344                           
  1345                           ; 2 bytes @ 0x19
  1346  00001A                     	ds	2
  1347  00001C                     ?_dtoa:
  1348                           	opt callstack 0
  1349  00001C                     dtoa@fp:
  1350                           	opt callstack 0
  1351                           
  1352                           ; 2 bytes @ 0x1B
  1353  00001C                     	ds	1
  1354  00001D                     ___flmul@sign:
  1355                           	opt callstack 0
  1356                           
  1357                           ; 1 bytes @ 0x1C
  1358  00001D                     	ds	1
  1359  00001E                     ___flmul@grs:
  1360                           	opt callstack 0
  1361  00001E                     dtoa@d:
  1362                           	opt callstack 0
  1363                           
  1364                           ; 8 bytes @ 0x1D
  1365  00001E                     	ds	4
  1366  000022                     ___flmul@aexp:
  1367                           	opt callstack 0
  1368                           
  1369                           ; 1 bytes @ 0x21
  1370  000022                     	ds	1
  1371  000023                     ___flmul@bexp:
  1372                           	opt callstack 0
  1373                           
  1374                           ; 1 bytes @ 0x22
  1375  000023                     	ds	1
  1376  000024                     ___flmul@prod:
  1377                           	opt callstack 0
  1378                           
  1379                           ; 4 bytes @ 0x23
  1380  000024                     	ds	2
  1381  000026                     ??_dtoa:
  1382                           
  1383                           ; 1 bytes @ 0x25
  1384  000026                     	ds	2
  1385  000028                     ___flmul@temp:
  1386                           	opt callstack 0
  1387                           
  1388                           ; 2 bytes @ 0x27
  1389  000028                     	ds	2
  1390  00002A                     ?___flsub:
  1391                           	opt callstack 0
  1392  00002A                     ?_scalbnf:
  1393                           	opt callstack 0
  1394  00002A                     ___flsub@b:
  1395                           	opt callstack 0
  1396  00002A                     scalbnf@x:
  1397                           	opt callstack 0
  1398                           
  1399                           ; 4 bytes @ 0x29
  1400  00002A                     	ds	4
  1401  00002E                     _dtoa$1174:
  1402                           	opt callstack 0
  1403  00002E                     scalbnf@n:
  1404                           	opt callstack 0
  1405  00002E                     ___flsub@a:
  1406                           	opt callstack 0
  1407                           
  1408                           ; 4 bytes @ 0x2D
  1409  00002E                     	ds	2
  1410  000030                     ??_scalbnf:
  1411  000030                     dtoa@p:
  1412                           	opt callstack 0
  1413                           
  1414                           ; 2 bytes @ 0x2F
  1415  000030                     	ds	2
  1416  000032                     ?___fldiv:
  1417                           	opt callstack 0
  1418  000032                     dtoa@w:
  1419                           	opt callstack 0
  1420  000032                     ___flge@ff1:
  1421                           	opt callstack 0
  1422  000032                     ___fldiv@b:
  1423                           	opt callstack 0
  1424                           
  1425                           ; 4 bytes @ 0x31
  1426  000032                     	ds	2
  1427  000034                     dtoa@s:
  1428                           	opt callstack 0
  1429  000034                     scalbnf@u:
  1430                           	opt callstack 0
  1431                           
  1432                           ; 4 bytes @ 0x33
  1433  000034                     	ds	2
  1434  000036                     ___flge@ff2:
  1435                           	opt callstack 0
  1436  000036                     ___fldiv@a:
  1437                           	opt callstack 0
  1438  000036                     dtoa@n:
  1439                           	opt callstack 0
  1440                           
  1441                           ; 8 bytes @ 0x35
  1442  000036                     	ds	2
  1443  000038                     scalbnf@y:
  1444                           	opt callstack 0
  1445                           
  1446                           ; 4 bytes @ 0x37
  1447  000038                     	ds	2
  1448  00003A                     ??___fldiv:
  1449  00003A                     ??___flge:
  1450                           
  1451                           ; 1 bytes @ 0x39
  1452  00003A                     	ds	4
  1453  00003E                     ?_sqrtf:
  1454                           	opt callstack 0
  1455  00003E                     dtoa@i:
  1456                           	opt callstack 0
  1457  00003E                     ___fldiv@rem:
  1458                           	opt callstack 0
  1459  00003E                     sqrtf@x:
  1460                           	opt callstack 0
  1461                           
  1462                           ; 4 bytes @ 0x3D
  1463  00003E                     	ds	2
  1464  000040                     ?_vfpfcnvrt:
  1465                           	opt callstack 0
  1466  000040                     vfpfcnvrt@fp:
  1467                           	opt callstack 0
  1468                           
  1469                           ; 2 bytes @ 0x3F
  1470  000040                     	ds	2
  1471  000042                     ??_sqrtf:
  1472  000042                     ___fldiv@sign:
  1473                           	opt callstack 0
  1474  000042                     vfpfcnvrt@fmt:
  1475                           	opt callstack 0
  1476                           
  1477                           ; 2 bytes @ 0x41
  1478  000042                     	ds	1
  1479  000043                     ___fldiv@new_exp:
  1480                           	opt callstack 0
  1481                           
  1482                           ; 2 bytes @ 0x42
  1483  000043                     	ds	1
  1484  000044                     vfpfcnvrt@ap:
  1485                           	opt callstack 0
  1486                           
  1487                           ; 2 bytes @ 0x43
  1488  000044                     	ds	1
  1489  000045                     ___fldiv@grs:
  1490                           	opt callstack 0
  1491                           
  1492                           ; 4 bytes @ 0x44
  1493  000045                     	ds	1
  1494  000046                     ??_vfpfcnvrt:
  1495                           
  1496                           ; 1 bytes @ 0x45
  1497  000046                     	ds	3
  1498  000049                     ___fldiv@bexp:
  1499                           	opt callstack 0
  1500                           
  1501                           ; 1 bytes @ 0x48
  1502  000049                     	ds	1
  1503  00004A                     ___fldiv@aexp:
  1504                           	opt callstack 0
  1505  00004A                     vfpfcnvrt@ll:
  1506                           	opt callstack 0
  1507                           
  1508                           ; 8 bytes @ 0x49
  1509  00004A                     	ds	1
  1510  00004B                     ?_logf:
  1511                           	opt callstack 0
  1512  00004B                     logf@x:
  1513                           	opt callstack 0
  1514  00004B                     sqrtf@s:
  1515                           	opt callstack 0
  1516                           
  1517                           ; 4 bytes @ 0x4A
  1518  00004B                     	ds	4
  1519  00004F                     ??_logf:
  1520  00004F                     sqrtf@i:
  1521                           	opt callstack 0
  1522                           
  1523                           ; 4 bytes @ 0x4E
  1524  00004F                     	ds	3
  1525  000052                     _vfpfcnvrt$1189:
  1526                           	opt callstack 0
  1527                           
  1528                           ; 2 bytes @ 0x51
  1529  000052                     	ds	1
  1530  000053                     sqrtf@__xc8_float_word:
  1531                           	opt callstack 0
  1532                           
  1533                           ; 4 bytes @ 0x52
  1534  000053                     	ds	1
  1535  000054                     ?_vfprintf:
  1536                           	opt callstack 0
  1537  000054                     vfprintf@fp:
  1538                           	opt callstack 0
  1539                           
  1540                           ; 2 bytes @ 0x53
  1541  000054                     	ds	2
  1542  000056                     vfprintf@fmt:
  1543                           	opt callstack 0
  1544                           
  1545                           ; 2 bytes @ 0x55
  1546  000056                     	ds	1
  1547  000057                     sqrtf@q:
  1548                           	opt callstack 0
  1549                           
  1550                           ; 4 bytes @ 0x56
  1551  000057                     	ds	1
  1552  000058                     vfprintf@ap:
  1553                           	opt callstack 0
  1554                           
  1555                           ; 2 bytes @ 0x57
  1556  000058                     	ds	2
  1557  00005A                     vfprintf@cfmt:
  1558                           	opt callstack 0
  1559                           
  1560                           ; 2 bytes @ 0x59
  1561  00005A                     	ds	1
  1562  00005B                     sqrtf@t:
  1563                           	opt callstack 0
  1564                           
  1565                           ; 4 bytes @ 0x5A
  1566  00005B                     	ds	4
  1567  00005F                     sqrtf@z:
  1568                           	opt callstack 0
  1569                           
  1570                           ; 4 bytes @ 0x5E
  1571  00005F                     	ds	4
  1572  000063                     sqrtf@m:
  1573                           	opt callstack 0
  1574                           
  1575                           ; 4 bytes @ 0x62
  1576  000063                     	ds	4
  1577  000067                     sqrtf@r:
  1578                           	opt callstack 0
  1579                           
  1580                           ; 4 bytes @ 0x66
  1581  000067                     	ds	4
  1582  00006B                     sqrtf@ix:
  1583                           	opt callstack 0
  1584                           
  1585                           ; 4 bytes @ 0x6A
  1586  00006B                     	ds	4
  1587  00006F                     ?_powf:
  1588                           	opt callstack 0
  1589  00006F                     powf@x:
  1590                           	opt callstack 0
  1591                           
  1592                           ; 4 bytes @ 0x6E
  1593  00006F                     	ds	4
  1594  000073                     powf@y:
  1595                           	opt callstack 0
  1596                           
  1597                           ; 4 bytes @ 0x72
  1598  000073                     	ds	4
  1599  000077                     ?___fltol:
  1600                           	opt callstack 0
  1601  000077                     ___fltol@f1:
  1602                           	opt callstack 0
  1603                           
  1604                           ; 4 bytes @ 0x76
  1605  000077                     	ds	4
  1606  00007B                     ??___fltol:
  1607                           
  1608                           ; 1 bytes @ 0x7A
  1609  00007B                     	ds	4
  1610  00007F                     
  1611                           ; 1 bytes @ 0x7E
  1612 ;;
  1613 ;;Main: autosize = 0, tempsize = 0, incstack = 0, save=0
  1614 ;;
  1615 ;; *************** function _main *****************
  1616 ;; Defined at:
  1617 ;;		line 15 in file "main.c"
  1618 ;; Parameters:    Size  Location     Type
  1619 ;;		None
  1620 ;; Auto vars:     Size  Location     Type
  1621 ;;		None
  1622 ;; Return value:  Size  Location     Type
  1623 ;;                  1    wreg      void 
  1624 ;; Registers used:
  1625 ;;		wreg, fsr1l, fsr1h, status,2, status,0, tblptrl, tblptrh, tblptru, cstack
  1626 ;; Tracked objects:
  1627 ;;		On entry : 0/0
  1628 ;;		On exit  : 0/0
  1629 ;;		Unchanged: 0/0
  1630 ;; Data sizes:     COMRAM   BANK0   BANK1   BANK2   BANK3   BANK4   BANK5
  1631 ;;      Params:         0       0       0       0       0       0       0
  1632 ;;      Locals:         0       0       0       0       0       0       0
  1633 ;;      Temps:          0       0       0       0       0       0       0
  1634 ;;      Totals:         0       0       0       0       0       0       0
  1635 ;;Total ram usage:        0 bytes
  1636 ;; Hardware stack levels required when called:   16
  1637 ;; This function calls:
  1638 ;;		_SYSTEM_Initialize
  1639 ;; This function is called by:
  1640 ;;		Startup code after reset
  1641 ;; This function uses a non-reentrant model
  1642 ;;
  1643                           
  1644                           	psect	text0
  1645  00606A                     __ptext0:
  1646                           	opt callstack 0
  1647  00606A                     _main:
  1648                           	opt callstack 15
  1649                           
  1650                           ;main.c: 17:     SYSTEM_Initialize() ;
  1651                           
  1652                           ;incstack = 0
  1653  00606A  ECCF  F02F         	call	_SYSTEM_Initialize	;wreg free
  1654  00606E                     l265:
  1655  00606E  D7FF               	goto	l265
  1656  006070                     __end_of_main:
  1657                           	opt callstack 0
  1658                           
  1659 ;; *************** function _SYSTEM_Initialize *****************
  1660 ;; Defined at:
  1661 ;;		line 73 in file "setting_hardaware/setting.c"
  1662 ;; Parameters:    Size  Location     Type
  1663 ;;		None
  1664 ;; Auto vars:     Size  Location     Type
  1665 ;;		None
  1666 ;; Return value:  Size  Location     Type
  1667 ;;                  1    wreg      void 
  1668 ;; Registers used:
  1669 ;;		wreg, fsr1l, fsr1h, status,2, status,0, tblptrl, tblptrh, tblptru, cstack
  1670 ;; Tracked objects:
  1671 ;;		On entry : 0/0
  1672 ;;		On exit  : 0/0
  1673 ;;		Unchanged: 0/0
  1674 ;; Data sizes:     COMRAM   BANK0   BANK1   BANK2   BANK3   BANK4   BANK5
  1675 ;;      Params:         0       0       0       0       0       0       0
  1676 ;;      Locals:         0       0       0       0       0       0       0
  1677 ;;      Temps:          0       0       0       0       0       0       0
  1678 ;;      Totals:         0       0       0       0       0       0       0
  1679 ;;Total ram usage:        0 bytes
  1680 ;; Hardware stack levels used:    1
  1681 ;; Hardware stack levels required when called:   15
  1682 ;; This function calls:
  1683 ;;		_ADC_Initialize
  1684 ;;		_INTERRUPT_Initialize
  1685 ;;		_LCD_init
  1686 ;;		_OSCILLATOR_Initialize
  1687 ;;		_PIN_MANAGER_Initialize
  1688 ;;		_TMR1_Initialize
  1689 ;;		_buzzer_init
  1690 ;; This function is called by:
  1691 ;;		_main
  1692 ;; This function uses a non-reentrant model
  1693 ;;
  1694                           
  1695                           	psect	text1
  1696  005F9E                     __ptext1:
  1697                           	opt callstack 0
  1698  005F9E                     _SYSTEM_Initialize:
  1699                           	opt callstack 15
  1700                           
  1701                           ;setting_hardaware/setting.c: 75:     INTERRUPT_Initialize();
  1702                           
  1703                           ;incstack = 0
  1704  005F9E  EC3B  F030         	call	_INTERRUPT_Initialize	;wreg free
  1705                           
  1706                           ;setting_hardaware/setting.c: 76:     PIN_MANAGER_Initialize();
  1707  005FA2  ECF8  F02F         	call	_PIN_MANAGER_Initialize	;wreg free
  1708                           
  1709                           ;setting_hardaware/setting.c: 77:     OSCILLATOR_Initialize();
  1710  005FA6  EC31  F030         	call	_OSCILLATOR_Initialize	;wreg free
  1711                           
  1712                           ;setting_hardaware/setting.c: 78:     buzzer_init();
  1713  005FAA  EC38  F030         	call	_buzzer_init	;wreg free
  1714                           
  1715                           ;setting_hardaware/setting.c: 79:     ADC_Initialize();
  1716  005FAE  EC0C  F030         	call	_ADC_Initialize	;wreg free
  1717                           
  1718                           ;setting_hardaware/setting.c: 80:     LCD_init();
  1719  005FB2  ECAA  F02C         	call	_LCD_init	;wreg free
  1720                           
  1721                           ;setting_hardaware/setting.c: 81:     TMR1_Initialize();
  1722  005FB6  ECDE  F02F         	call	_TMR1_Initialize	;wreg free
  1723  005FBA  0012               	return		;funcret
  1724  005FBC                     __end_of_SYSTEM_Initialize:
  1725                           	opt callstack 0
  1726                           
  1727 ;; *************** function _buzzer_init *****************
  1728 ;; Defined at:
  1729 ;;		line 19 in file "setting_hardaware/buzzer.c"
  1730 ;; Parameters:    Size  Location     Type
  1731 ;;		None
  1732 ;; Auto vars:     Size  Location     Type
  1733 ;;		None
  1734 ;; Return value:  Size  Location     Type
  1735 ;;                  1    wreg      void 
  1736 ;; Registers used:
  1737 ;;		wreg, cstack
  1738 ;; Tracked objects:
  1739 ;;		On entry : 0/0
  1740 ;;		On exit  : 0/0
  1741 ;;		Unchanged: 0/0
  1742 ;; Data sizes:     COMRAM   BANK0   BANK1   BANK2   BANK3   BANK4   BANK5
  1743 ;;      Params:         0       0       0       0       0       0       0
  1744 ;;      Locals:         0       0       0       0       0       0       0
  1745 ;;      Temps:          0       0       0       0       0       0       0
  1746 ;;      Totals:         0       0       0       0       0       0       0
  1747 ;;Total ram usage:        0 bytes
  1748 ;; Hardware stack levels used:    1
  1749 ;; Hardware stack levels required when called:   13
  1750 ;; This function calls:
  1751 ;;		_speak
  1752 ;; This function is called by:
  1753 ;;		_SYSTEM_Initialize
  1754 ;; This function uses a non-reentrant model
  1755 ;;
  1756                           
  1757                           	psect	text2
  1758  006070                     __ptext2:
  1759                           	opt callstack 0
  1760  006070                     _buzzer_init:
  1761                           	opt callstack 16
  1762                           
  1763                           ;setting_hardaware/buzzer.c: 20:     speak();
  1764                           
  1765                           ;incstack = 0
  1766  006070  ECEC  F02F         	call	_speak	;wreg free
  1767  006074  0012               	return		;funcret
  1768  006076                     __end_of_buzzer_init:
  1769                           	opt callstack 0
  1770                           
  1771 ;; *************** function _speak *****************
  1772 ;; Defined at:
  1773 ;;		line 13 in file "setting_hardaware/buzzer.c"
  1774 ;; Parameters:    Size  Location     Type
  1775 ;;		None
  1776 ;; Auto vars:     Size  Location     Type
  1777 ;;		None
  1778 ;; Return value:  Size  Location     Type
  1779 ;;                  1    wreg      void 
  1780 ;; Registers used:
  1781 ;;		wreg
  1782 ;; Tracked objects:
  1783 ;;		On entry : 0/0
  1784 ;;		On exit  : 0/0
  1785 ;;		Unchanged: 0/0
  1786 ;; Data sizes:     COMRAM   BANK0   BANK1   BANK2   BANK3   BANK4   BANK5
  1787 ;;      Params:         0       0       0       0       0       0       0
  1788 ;;      Locals:         0       0       0       0       0       0       0
  1789 ;;      Temps:          0       0       0       1       0       0       0
  1790 ;;      Totals:         0       0       0       1       0       0       0
  1791 ;;Total ram usage:        1 bytes
  1792 ;; Hardware stack levels used:    1
  1793 ;; Hardware stack levels required when called:   12
  1794 ;; This function calls:
  1795 ;;		Nothing
  1796 ;; This function is called by:
  1797 ;;		_buzzer_init
  1798 ;; This function uses a non-reentrant model
  1799 ;;
  1800                           
  1801                           	psect	text3
  1802  005FD8                     __ptext3:
  1803                           	opt callstack 0
  1804  005FD8                     _speak:
  1805                           	opt callstack 16
  1806                           
  1807                           ;setting_hardaware/buzzer.c: 14:     LATBbits.LATB0=1;
  1808                           
  1809                           ;incstack = 0
  1810  005FD8  808A               	bsf	138,0,c	;volatile
  1811                           
  1812                           ;setting_hardaware/buzzer.c: 15:     _delay((unsigned long)((40)*(4000000/4000.0)));
  1813  005FDA  0E34               	movlw	52
  1814  005FDC  0102               	movlb	2	; () banked
  1815  005FDE  6FBF               	movwf	??_speak& (0+255),b
  1816  005FE0  0EF1               	movlw	241
  1817  005FE2                     u5917:
  1818  005FE2  2EE8               	decfsz	wreg,f,c
  1819  005FE4  D7FE               	bra	u5917
  1820  005FE6  2FBF               	decfsz	??_speak& (0+255),f,b
  1821  005FE8  D7FC               	bra	u5917
  1822  005FEA  D000               	nop2	
  1823                           
  1824                           ;setting_hardaware/buzzer.c: 16:     LATBbits.LATB0=0;
  1825  005FEC  908A               	bcf	138,0,c	;volatile
  1826  005FEE  0012               	return		;funcret
  1827  005FF0                     __end_of_speak:
  1828                           	opt callstack 0
  1829                           
  1830 ;; *************** function _TMR1_Initialize *****************
  1831 ;; Defined at:
  1832 ;;		line 62 in file "setting_hardaware/setting.c"
  1833 ;; Parameters:    Size  Location     Type
  1834 ;;		None
  1835 ;; Auto vars:     Size  Location     Type
  1836 ;;		None
  1837 ;; Return value:  Size  Location     Type
  1838 ;;                  1    wreg      void 
  1839 ;; Registers used:
  1840 ;;		wreg, status,2
  1841 ;; Tracked objects:
  1842 ;;		On entry : 0/0
  1843 ;;		On exit  : 0/0
  1844 ;;		Unchanged: 0/0
  1845 ;; Data sizes:     COMRAM   BANK0   BANK1   BANK2   BANK3   BANK4   BANK5
  1846 ;;      Params:         0       0       0       0       0       0       0
  1847 ;;      Locals:         0       0       0       0       0       0       0
  1848 ;;      Temps:          0       0       0       0       0       0       0
  1849 ;;      Totals:         0       0       0       0       0       0       0
  1850 ;;Total ram usage:        0 bytes
  1851 ;; Hardware stack levels used:    1
  1852 ;; Hardware stack levels required when called:   12
  1853 ;; This function calls:
  1854 ;;		Nothing
  1855 ;; This function is called by:
  1856 ;;		_SYSTEM_Initialize
  1857 ;; This function uses a non-reentrant model
  1858 ;;
  1859                           
  1860                           	psect	text4
  1861  005FBC                     __ptext4:
  1862                           	opt callstack 0
  1863  005FBC                     _TMR1_Initialize:
  1864                           	opt callstack 17
  1865                           
  1866                           ;setting_hardaware/setting.c: 63:     T1CONbits.RD16=1;
  1867                           
  1868                           ;incstack = 0
  1869  005FBC  8ECD               	bsf	205,7,c	;volatile
  1870                           
  1871                           ;setting_hardaware/setting.c: 64:     T1CONbits.T1CKPS=2;
  1872  005FBE  50CD               	movf	205,w,c	;volatile
  1873  005FC0  0BCF               	andlw	-49
  1874  005FC2  0920               	iorlw	32
  1875  005FC4  6ECD               	movwf	205,c	;volatile
  1876                           
  1877                           ;setting_hardaware/setting.c: 65:     T1CONbits.TMR1ON=1;
  1878  005FC6  80CD               	bsf	205,0,c	;volatile
  1879                           
  1880                           ;setting_hardaware/setting.c: 66:     PIR1bits.TMR1IF=0;
  1881  005FC8  909E               	bcf	158,0,c	;volatile
  1882                           
  1883                           ;setting_hardaware/setting.c: 67:     PIE1bits.TMR1IE=1;
  1884  005FCA  809D               	bsf	157,0,c	;volatile
  1885                           
  1886                           ;setting_hardaware/setting.c: 68:     IPR1bits.TMR1IP=1;
  1887  005FCC  809F               	bsf	159,0,c	;volatile
  1888                           
  1889                           ;setting_hardaware/setting.c: 69:     TMR1=timer_val;
  1890  005FCE  C1FD  FFCE         	movff	_timer_val,4046	;volatile
  1891  005FD2  C1FE  FFCF         	movff	_timer_val+1,4047	;volatile
  1892  005FD6  0012               	return		;funcret
  1893  005FD8                     __end_of_TMR1_Initialize:
  1894                           	opt callstack 0
  1895                           
  1896 ;; *************** function _PIN_MANAGER_Initialize *****************
  1897 ;; Defined at:
  1898 ;;		line 12 in file "setting_hardaware/pin_manager.c"
  1899 ;; Parameters:    Size  Location     Type
  1900 ;;		None
  1901 ;; Auto vars:     Size  Location     Type
  1902 ;;		None
  1903 ;; Return value:  Size  Location     Type
  1904 ;;                  1    wreg      void 
  1905 ;; Registers used:
  1906 ;;		wreg, status,2
  1907 ;; Tracked objects:
  1908 ;;		On entry : 0/0
  1909 ;;		On exit  : 0/0
  1910 ;;		Unchanged: 0/0
  1911 ;; Data sizes:     COMRAM   BANK0   BANK1   BANK2   BANK3   BANK4   BANK5
  1912 ;;      Params:         0       0       0       0       0       0       0
  1913 ;;      Locals:         0       0       0       0       0       0       0
  1914 ;;      Temps:          0       0       0       0       0       0       0
  1915 ;;      Totals:         0       0       0       0       0       0       0
  1916 ;;Total ram usage:        0 bytes
  1917 ;; Hardware stack levels used:    1
  1918 ;; Hardware stack levels required when called:   12
  1919 ;; This function calls:
  1920 ;;		Nothing
  1921 ;; This function is called by:
  1922 ;;		_SYSTEM_Initialize
  1923 ;; This function uses a non-reentrant model
  1924 ;;
  1925                           
  1926                           	psect	text5
  1927  005FF0                     __ptext5:
  1928                           	opt callstack 0
  1929  005FF0                     _PIN_MANAGER_Initialize:
  1930                           	opt callstack 17
  1931                           
  1932                           ;setting_hardaware/pin_manager.c: 13:     ADCON1 = 0x0D;
  1933                           
  1934                           ;incstack = 0
  1935  005FF0  0E0D               	movlw	13
  1936  005FF2  6EC1               	movwf	193,c	;volatile
  1937                           
  1938                           ;setting_hardaware/pin_manager.c: 16:     TRISC=0X00;
  1939  005FF4  0E00               	movlw	0
  1940  005FF6  6E94               	movwf	148,c	;volatile
  1941                           
  1942                           ;setting_hardaware/pin_manager.c: 17:     TRISD=0X00;
  1943  005FF8  0E00               	movlw	0
  1944  005FFA  6E95               	movwf	149,c	;volatile
  1945                           
  1946                           ;setting_hardaware/pin_manager.c: 20:     TRISBbits.RB0=0;
  1947  005FFC  9093               	bcf	147,0,c	;volatile
  1948                           
  1949                           ;setting_hardaware/pin_manager.c: 23:     TRISA = 0b00000101;
  1950  005FFE  0E05               	movlw	5
  1951  006000  6E92               	movwf	146,c	;volatile
  1952  006002  0012               	return		;funcret
  1953  006004                     __end_of_PIN_MANAGER_Initialize:
  1954                           	opt callstack 0
  1955                           
  1956 ;; *************** function _OSCILLATOR_Initialize *****************
  1957 ;; Defined at:
  1958 ;;		line 84 in file "setting_hardaware/setting.c"
  1959 ;; Parameters:    Size  Location     Type
  1960 ;;		None
  1961 ;; Auto vars:     Size  Location     Type
  1962 ;;		None
  1963 ;; Return value:  Size  Location     Type
  1964 ;;                  1    wreg      void 
  1965 ;; Registers used:
  1966 ;;		None
  1967 ;; Tracked objects:
  1968 ;;		On entry : 0/0
  1969 ;;		On exit  : 0/0
  1970 ;;		Unchanged: 0/0
  1971 ;; Data sizes:     COMRAM   BANK0   BANK1   BANK2   BANK3   BANK4   BANK5
  1972 ;;      Params:         0       0       0       0       0       0       0
  1973 ;;      Locals:         0       0       0       0       0       0       0
  1974 ;;      Temps:          0       0       0       0       0       0       0
  1975 ;;      Totals:         0       0       0       0       0       0       0
  1976 ;;Total ram usage:        0 bytes
  1977 ;; Hardware stack levels used:    1
  1978 ;; Hardware stack levels required when called:   12
  1979 ;; This function calls:
  1980 ;;		Nothing
  1981 ;; This function is called by:
  1982 ;;		_SYSTEM_Initialize
  1983 ;; This function uses a non-reentrant model
  1984 ;;
  1985                           
  1986                           	psect	text6
  1987  006062                     __ptext6:
  1988                           	opt callstack 0
  1989  006062                     _OSCILLATOR_Initialize:
  1990                           	opt callstack 17
  1991                           
  1992                           ;setting_hardaware/setting.c: 86:     IRCF2 = 1;
  1993                           
  1994                           ;incstack = 0
  1995  006062  8CD3               	bsf	4051,6,c	;volatile
  1996                           
  1997                           ;setting_hardaware/setting.c: 87:     IRCF1 = 1;
  1998  006064  8AD3               	bsf	4051,5,c	;volatile
  1999                           
  2000                           ;setting_hardaware/setting.c: 88:     IRCF0 = 0;
  2001  006066  98D3               	bcf	4051,4,c	;volatile
  2002  006068  0012               	return		;funcret
  2003  00606A                     __end_of_OSCILLATOR_Initialize:
  2004                           	opt callstack 0
  2005                           
  2006 ;; *************** function _LCD_init *****************
  2007 ;; Defined at:
  2008 ;;		line 55 in file "setting_hardaware/LCD.c"
  2009 ;; Parameters:    Size  Location     Type
  2010 ;;		None
  2011 ;; Auto vars:     Size  Location     Type
  2012 ;;		None
  2013 ;; Return value:  Size  Location     Type
  2014 ;;                  1    wreg      void 
  2015 ;; Registers used:
  2016 ;;		wreg, fsr1l, fsr1h, status,2, status,0, tblptrl, tblptrh, tblptru, cstack
  2017 ;; Tracked objects:
  2018 ;;		On entry : 0/0
  2019 ;;		On exit  : 0/0
  2020 ;;		Unchanged: 0/0
  2021 ;; Data sizes:     COMRAM   BANK0   BANK1   BANK2   BANK3   BANK4   BANK5
  2022 ;;      Params:         0       0       0       0       0       0       0
  2023 ;;      Locals:         0       0       0       0       0       0       0
  2024 ;;      Temps:          0       0       0       1       0       0       0
  2025 ;;      Totals:         0       0       0       1       0       0       0
  2026 ;;Total ram usage:        1 bytes
  2027 ;; Hardware stack levels used:    1
  2028 ;; Hardware stack levels required when called:   14
  2029 ;; This function calls:
  2030 ;;		_Cmd
  2031 ;;		_Send2Lcd
  2032 ;; This function is called by:
  2033 ;;		_SYSTEM_Initialize
  2034 ;; This function uses a non-reentrant model
  2035 ;;
  2036                           
  2037                           	psect	text7
  2038  005954                     __ptext7:
  2039                           	opt callstack 0
  2040  005954                     _LCD_init:
  2041                           	opt callstack 15
  2042                           
  2043                           ;setting_hardaware/LCD.c: 57:     _delay((unsigned long)((15)*(4000000/4000.0)));
  2044                           
  2045                           ;incstack = 0
  2046  005954  0E14               	movlw	20
  2047  005956  0102               	movlb	2	; () banked
  2048  005958  6FC6               	movwf	??_LCD_init& (0+255),b
  2049  00595A  0E79               	movlw	121
  2050  00595C                     u5927:
  2051  00595C  2EE8               	decfsz	wreg,f,c
  2052  00595E  D7FE               	bra	u5927
  2053  005960  2FC6               	decfsz	??_LCD_init& (0+255),f,b
  2054  005962  D7FC               	bra	u5927
  2055  005964  D000               	nop2	
  2056                           
  2057                           ;setting_hardaware/LCD.c: 58:     Cmd(0X38);
  2058  005966  0E00               	movlw	0
  2059  005968  0102               	movlb	2	; () banked
  2060  00596A  6FC0               	movwf	(Cmd@Value+1)& (0+255),b
  2061  00596C  0E38               	movlw	56
  2062  00596E  6FBF               	movwf	Cmd@Value& (0+255),b
  2063  005970  ECFE  F02E         	call	_Cmd	;wreg free
  2064                           
  2065                           ;setting_hardaware/LCD.c: 59:     _delay((unsigned long)((125)*(4000000/4000000.0)));
  2066  005974  0E29               	movlw	41
  2067  005976                     u5937:
  2068  005976  2EE8               	decfsz	wreg,f,c
  2069  005978  D7FE               	bra	u5937
  2070  00597A  D000               	nop2	
  2071                           
  2072                           ;setting_hardaware/LCD.c: 61:     Cmd(0X01);
  2073  00597C  0E00               	movlw	0
  2074  00597E  0102               	movlb	2	; () banked
  2075  005980  6FC0               	movwf	(Cmd@Value+1)& (0+255),b
  2076  005982  0E01               	movlw	1
  2077  005984  6FBF               	movwf	Cmd@Value& (0+255),b
  2078  005986  ECFE  F02E         	call	_Cmd	;wreg free
  2079                           
  2080                           ;setting_hardaware/LCD.c: 62:     Cmd(0X06);
  2081  00598A  0E00               	movlw	0
  2082  00598C  0102               	movlb	2	; () banked
  2083  00598E  6FC0               	movwf	(Cmd@Value+1)& (0+255),b
  2084  005990  0E06               	movlw	6
  2085  005992  6FBF               	movwf	Cmd@Value& (0+255),b
  2086  005994  ECFE  F02E         	call	_Cmd	;wreg free
  2087                           
  2088                           ;setting_hardaware/LCD.c: 63:     Cmd(0X0C);
  2089  005998  0E00               	movlw	0
  2090  00599A  0102               	movlb	2	; () banked
  2091  00599C  6FC0               	movwf	(Cmd@Value+1)& (0+255),b
  2092  00599E  0E0C               	movlw	12
  2093  0059A0  6FBF               	movwf	Cmd@Value& (0+255),b
  2094  0059A2  ECFE  F02E         	call	_Cmd	;wreg free
  2095                           
  2096                           ;setting_hardaware/LCD.c: 64:     _delay((unsigned long)((125)*(4000000/4000000.0)));
  2097  0059A6  0E29               	movlw	41
  2098  0059A8                     u5947:
  2099  0059A8  2EE8               	decfsz	wreg,f,c
  2100  0059AA  D7FE               	bra	u5947
  2101  0059AC  D000               	nop2	
  2102                           
  2103                           ;setting_hardaware/LCD.c: 65:     Send2Lcd(0x80,"monitor");
  2104  0059AE  0EB1               	movlw	low STR_1
  2105  0059B0  0102               	movlb	2	; () banked
  2106  0059B2  6FC2               	movwf	Send2Lcd@Lcd& (0+255),b
  2107  0059B4  0E06               	movlw	high STR_1
  2108  0059B6  6FC3               	movwf	(Send2Lcd@Lcd+1)& (0+255),b
  2109  0059B8  0E80               	movlw	128
  2110  0059BA  EC5A  F02D         	call	_Send2Lcd
  2111                           
  2112                           ;setting_hardaware/LCD.c: 66:     Send2Lcd(0xc0,"start");
  2113  0059BE  0EB9               	movlw	low STR_2
  2114  0059C0  0102               	movlb	2	; () banked
  2115  0059C2  6FC2               	movwf	Send2Lcd@Lcd& (0+255),b
  2116  0059C4  0E06               	movlw	high STR_2
  2117  0059C6  6FC3               	movwf	(Send2Lcd@Lcd+1)& (0+255),b
  2118  0059C8  0EC0               	movlw	192
  2119  0059CA  EC5A  F02D         	call	_Send2Lcd
  2120  0059CE  0012               	return		;funcret
  2121  0059D0                     __end_of_LCD_init:
  2122                           	opt callstack 0
  2123                           
  2124 ;; *************** function _Send2Lcd *****************
  2125 ;; Defined at:
  2126 ;;		line 41 in file "setting_hardaware/LCD.c"
  2127 ;; Parameters:    Size  Location     Type
  2128 ;;  Adr             1    wreg     const unsigned char 
  2129 ;;  Lcd             2   14[BANK2 ] PTR const unsigned char 
  2130 ;;		 -> r(100), STR_2(6), STR_1(8), 
  2131 ;; Auto vars:     Size  Location     Type
  2132 ;;  Adr             1   17[BANK2 ] const unsigned char 
  2133 ;; Return value:  Size  Location     Type
  2134 ;;                  1    wreg      void 
  2135 ;; Registers used:
  2136 ;;		wreg, fsr1l, fsr1h, status,2, status,0, tblptrl, tblptrh, tblptru, cstack
  2137 ;; Tracked objects:
  2138 ;;		On entry : 0/0
  2139 ;;		On exit  : 0/0
  2140 ;;		Unchanged: 0/0
  2141 ;; Data sizes:     COMRAM   BANK0   BANK1   BANK2   BANK3   BANK4   BANK5
  2142 ;;      Params:         0       0       0       2       0       0       0
  2143 ;;      Locals:         0       0       0       1       0       0       0
  2144 ;;      Temps:          0       0       0       1       0       0       0
  2145 ;;      Totals:         0       0       0       4       0       0       0
  2146 ;;Total ram usage:        4 bytes
  2147 ;; Hardware stack levels used:    1
  2148 ;; Hardware stack levels required when called:   13
  2149 ;; This function calls:
  2150 ;;		_Cmd
  2151 ;;		_Data
  2152 ;; This function is called by:
  2153 ;;		_LCD_init
  2154 ;; This function uses a non-reentrant model
  2155 ;;
  2156                           
  2157                           	psect	text8
  2158  005AB4                     __ptext8:
  2159                           	opt callstack 0
  2160  005AB4                     _Send2Lcd:
  2161                           	opt callstack 15
  2162                           
  2163                           ;incstack = 0
  2164                           ;Send2Lcd@Adr stored from wreg
  2165  005AB4  0102               	movlb	2	; () banked
  2166  005AB6  6FC5               	movwf	Send2Lcd@Adr& (0+255),b
  2167                           
  2168                           ;setting_hardaware/LCD.c: 41: void Send2Lcd(const char Adr, const char *Lcd);setting_har
      +                          daware/LCD.c: 42: {;setting_hardaware/LCD.c: 43:  Cmd(Adr);
  2169  005AB8  C2C5  F2BF         	movff	Send2Lcd@Adr,Cmd@Value
  2170  005ABC  0102               	movlb	2	; () banked
  2171  005ABE  6BC0               	clrf	(Cmd@Value+1)& (0+255),b
  2172  005AC0  ECFE  F02E         	call	_Cmd	;wreg free
  2173                           
  2174                           ;setting_hardaware/LCD.c: 44:  while(*Lcd!='\0')
  2175  005AC4  D01A               	goto	l5019
  2176  005AC6                     l5015:
  2177                           
  2178                           ;setting_hardaware/LCD.c: 45:  {;setting_hardaware/LCD.c: 46:   Data(*Lcd);
  2179  005AC6  C2C2  FFF6         	movff	Send2Lcd@Lcd,tblptrl
  2180  005ACA  C2C3  FFF7         	movff	Send2Lcd@Lcd+1,tblptrh
  2181  005ACE  6AF8               	clrf	tblptru,c
  2182  005AD0  0E05               	movlw	(high __ramtop+-1)
  2183  005AD2  64F7               	cpfsgt	tblptrh,c
  2184  005AD4  D003               	bra	u5377
  2185  005AD6  0008               	tblrd		*
  2186  005AD8  50F5               	movf	tablat,w,c
  2187  005ADA  D005               	bra	u5370
  2188  005ADC                     u5377:
  2189  005ADC  CFF6 FFE1          	movff	tblptrl,fsr1l
  2190  005AE0  CFF7 FFE2          	movff	tblptrh,fsr1h
  2191  005AE4  50E7               	movf	indf1,w,c
  2192  005AE6                     u5370:
  2193  005AE6  0102               	movlb	2	; () banked
  2194  005AE8  6FC4               	movwf	??_Send2Lcd& (0+255),b
  2195  005AEA  51C4               	movf	??_Send2Lcd& (0+255),w,b
  2196  005AEC  6FBF               	movwf	Data@Value& (0+255),b
  2197  005AEE  6BC0               	clrf	(Data@Value+1)& (0+255),b
  2198  005AF0  ECE6  F02E         	call	_Data	;wreg free
  2199                           
  2200                           ;setting_hardaware/LCD.c: 47:   Lcd++;
  2201  005AF4  0102               	movlb	2	; () banked
  2202  005AF6  4BC2               	infsnz	Send2Lcd@Lcd& (0+255),f,b
  2203  005AF8  2BC3               	incf	(Send2Lcd@Lcd+1)& (0+255),f,b
  2204  005AFA                     l5019:
  2205                           
  2206                           ;setting_hardaware/LCD.c: 44:  while(*Lcd!='\0')
  2207  005AFA  C2C2  FFF6         	movff	Send2Lcd@Lcd,tblptrl
  2208  005AFE  C2C3  FFF7         	movff	Send2Lcd@Lcd+1,tblptrh
  2209  005B02  6AF8               	clrf	tblptru,c
  2210  005B04  0E05               	movlw	(high __ramtop+-1)
  2211  005B06  64F7               	cpfsgt	tblptrh,c
  2212  005B08  D003               	bra	u5387
  2213  005B0A  0008               	tblrd		*
  2214  005B0C  50F5               	movf	tablat,w,c
  2215  005B0E  D005               	bra	u5380
  2216  005B10                     u5387:
  2217  005B10  CFF6 FFE1          	movff	tblptrl,fsr1l
  2218  005B14  CFF7 FFE2          	movff	tblptrh,fsr1h
  2219  005B18  50E7               	movf	indf1,w,c
  2220  005B1A                     u5380:
  2221  005B1A  0900               	iorlw	0
  2222  005B1C  B4D8               	btfsc	status,2,c
  2223  005B1E  0012               	return	
  2224  005B20  D7D2               	goto	l5015
  2225  005B22                     __end_of_Send2Lcd:
  2226                           	opt callstack 0
  2227                           
  2228 ;; *************** function _Data *****************
  2229 ;; Defined at:
  2230 ;;		line 28 in file "setting_hardaware/LCD.c"
  2231 ;; Parameters:    Size  Location     Type
  2232 ;;  Value           2   11[BANK2 ] int 
  2233 ;; Auto vars:     Size  Location     Type
  2234 ;;		None
  2235 ;; Return value:  Size  Location     Type
  2236 ;;                  1    wreg      void 
  2237 ;; Registers used:
  2238 ;;		wreg
  2239 ;; Tracked objects:
  2240 ;;		On entry : 0/0
  2241 ;;		On exit  : 0/0
  2242 ;;		Unchanged: 0/0
  2243 ;; Data sizes:     COMRAM   BANK0   BANK1   BANK2   BANK3   BANK4   BANK5
  2244 ;;      Params:         0       0       0       2       0       0       0
  2245 ;;      Locals:         0       0       0       0       0       0       0
  2246 ;;      Temps:          0       0       0       1       0       0       0
  2247 ;;      Totals:         0       0       0       3       0       0       0
  2248 ;;Total ram usage:        3 bytes
  2249 ;; Hardware stack levels used:    1
  2250 ;; Hardware stack levels required when called:   12
  2251 ;; This function calls:
  2252 ;;		Nothing
  2253 ;; This function is called by:
  2254 ;;		_Send2Lcd
  2255 ;; This function uses a non-reentrant model
  2256 ;;
  2257                           
  2258                           	psect	text9
  2259  005DCC                     __ptext9:
  2260                           	opt callstack 0
  2261  005DCC                     _Data:
  2262                           	opt callstack 15
  2263                           
  2264                           ;setting_hardaware/LCD.c: 28: void Data(int Value);setting_hardaware/LCD.c: 29: {;settin
      +                          g_hardaware/LCD.c: 30:  LATD = Value;
  2265                           
  2266                           ;incstack = 0
  2267  005DCC  C2BF  FF8C         	movff	Data@Value,3980	;volatile
  2268                           
  2269                           ;setting_hardaware/LCD.c: 31:  LATCbits.LC4=1;
  2270  005DD0  888B               	bsf	139,4,c	;volatile
  2271                           
  2272                           ;setting_hardaware/LCD.c: 33:  LATCbits.LC6=0;
  2273  005DD2  9C8B               	bcf	139,6,c	;volatile
  2274                           
  2275                           ;setting_hardaware/LCD.c: 34:  _delay((unsigned long)((25)*(4000000/4000000.0)));
  2276  005DD4  0E08               	movlw	8
  2277  005DD6                     u5957:
  2278  005DD6  2EE8               	decfsz	wreg,f,c
  2279  005DD8  D7FE               	bra	u5957
  2280  005DDA  F000               	nop	
  2281                           
  2282                           ;setting_hardaware/LCD.c: 35:  LATCbits.LC6=1;
  2283  005DDC  8C8B               	bsf	139,6,c	;volatile
  2284                           
  2285                           ;setting_hardaware/LCD.c: 36:  _delay((unsigned long)((25)*(4000000/4000000.0)));
  2286  005DDE  0E08               	movlw	8
  2287  005DE0                     u5967:
  2288  005DE0  2EE8               	decfsz	wreg,f,c
  2289  005DE2  D7FE               	bra	u5967
  2290  005DE4  F000               	nop	
  2291                           
  2292                           ;setting_hardaware/LCD.c: 37:  LATCbits.LC6=0;
  2293  005DE6  9C8B               	bcf	139,6,c	;volatile
  2294                           
  2295                           ;setting_hardaware/LCD.c: 38:  _delay((unsigned long)((3)*(4000000/4000.0)));
  2296  005DE8  0E04               	movlw	4
  2297  005DEA  0102               	movlb	2	; () banked
  2298  005DEC  6FC1               	movwf	??_Data& (0+255),b
  2299  005DEE  0EE4               	movlw	228
  2300  005DF0                     u5977:
  2301  005DF0  2EE8               	decfsz	wreg,f,c
  2302  005DF2  D7FE               	bra	u5977
  2303  005DF4  2FC1               	decfsz	??_Data& (0+255),f,b
  2304  005DF6  D7FC               	bra	u5977
  2305  005DF8  F000               	nop	
  2306  005DFA  0012               	return		;funcret
  2307  005DFC                     __end_of_Data:
  2308                           	opt callstack 0
  2309                           
  2310 ;; *************** function _Cmd *****************
  2311 ;; Defined at:
  2312 ;;		line 15 in file "setting_hardaware/LCD.c"
  2313 ;; Parameters:    Size  Location     Type
  2314 ;;  Value           2   11[BANK2 ] int 
  2315 ;; Auto vars:     Size  Location     Type
  2316 ;;		None
  2317 ;; Return value:  Size  Location     Type
  2318 ;;                  1    wreg      void 
  2319 ;; Registers used:
  2320 ;;		wreg
  2321 ;; Tracked objects:
  2322 ;;		On entry : 0/0
  2323 ;;		On exit  : 0/0
  2324 ;;		Unchanged: 0/0
  2325 ;; Data sizes:     COMRAM   BANK0   BANK1   BANK2   BANK3   BANK4   BANK5
  2326 ;;      Params:         0       0       0       2       0       0       0
  2327 ;;      Locals:         0       0       0       0       0       0       0
  2328 ;;      Temps:          0       0       0       1       0       0       0
  2329 ;;      Totals:         0       0       0       3       0       0       0
  2330 ;;Total ram usage:        3 bytes
  2331 ;; Hardware stack levels used:    1
  2332 ;; Hardware stack levels required when called:   12
  2333 ;; This function calls:
  2334 ;;		Nothing
  2335 ;; This function is called by:
  2336 ;;		_Send2Lcd
  2337 ;;		_LCD_init
  2338 ;; This function uses a non-reentrant model
  2339 ;;
  2340                           
  2341                           	psect	text10
  2342  005DFC                     __ptext10:
  2343                           	opt callstack 0
  2344  005DFC                     _Cmd:
  2345                           	opt callstack 15
  2346                           
  2347                           ;setting_hardaware/LCD.c: 15: void Cmd(int Value);setting_hardaware/LCD.c: 16: {;setting
      +                          _hardaware/LCD.c: 17:  LATD = Value;
  2348                           
  2349                           ;incstack = 0
  2350  005DFC  C2BF  FF8C         	movff	Cmd@Value,3980	;volatile
  2351                           
  2352                           ;setting_hardaware/LCD.c: 18:  LATCbits.LC4=0;
  2353  005E00  988B               	bcf	139,4,c	;volatile
  2354                           
  2355                           ;setting_hardaware/LCD.c: 20:  LATCbits.LC6=0;
  2356  005E02  9C8B               	bcf	139,6,c	;volatile
  2357                           
  2358                           ;setting_hardaware/LCD.c: 21:  _delay((unsigned long)((25)*(4000000/4000000.0)));
  2359  005E04  0E08               	movlw	8
  2360  005E06                     u5987:
  2361  005E06  2EE8               	decfsz	wreg,f,c
  2362  005E08  D7FE               	bra	u5987
  2363  005E0A  F000               	nop	
  2364                           
  2365                           ;setting_hardaware/LCD.c: 22:  LATCbits.LC6=1;
  2366  005E0C  8C8B               	bsf	139,6,c	;volatile
  2367                           
  2368                           ;setting_hardaware/LCD.c: 23:  _delay((unsigned long)((25)*(4000000/4000000.0)));
  2369  005E0E  0E08               	movlw	8
  2370  005E10                     u5997:
  2371  005E10  2EE8               	decfsz	wreg,f,c
  2372  005E12  D7FE               	bra	u5997
  2373  005E14  F000               	nop	
  2374                           
  2375                           ;setting_hardaware/LCD.c: 24:  LATCbits.LC6=0;
  2376  005E16  9C8B               	bcf	139,6,c	;volatile
  2377                           
  2378                           ;setting_hardaware/LCD.c: 25:  _delay((unsigned long)((3)*(4000000/4000.0)));
  2379  005E18  0E04               	movlw	4
  2380  005E1A  0102               	movlb	2	; () banked
  2381  005E1C  6FC1               	movwf	??_Cmd& (0+255),b
  2382  005E1E  0EE4               	movlw	228
  2383  005E20                     u6007:
  2384  005E20  2EE8               	decfsz	wreg,f,c
  2385  005E22  D7FE               	bra	u6007
  2386  005E24  2FC1               	decfsz	??_Cmd& (0+255),f,b
  2387  005E26  D7FC               	bra	u6007
  2388  005E28  F000               	nop	
  2389  005E2A  0012               	return		;funcret
  2390  005E2C                     __end_of_Cmd:
  2391                           	opt callstack 0
  2392                           
  2393 ;; *************** function _INTERRUPT_Initialize *****************
  2394 ;; Defined at:
  2395 ;;		line 5 in file "setting_hardaware/interrupt_manager.c"
  2396 ;; Parameters:    Size  Location     Type
  2397 ;;		None
  2398 ;; Auto vars:     Size  Location     Type
  2399 ;;		None
  2400 ;; Return value:  Size  Location     Type
  2401 ;;                  1    wreg      void 
  2402 ;; Registers used:
  2403 ;;		None
  2404 ;; Tracked objects:
  2405 ;;		On entry : 0/0
  2406 ;;		On exit  : 0/0
  2407 ;;		Unchanged: 0/0
  2408 ;; Data sizes:     COMRAM   BANK0   BANK1   BANK2   BANK3   BANK4   BANK5
  2409 ;;      Params:         0       0       0       0       0       0       0
  2410 ;;      Locals:         0       0       0       0       0       0       0
  2411 ;;      Temps:          0       0       0       0       0       0       0
  2412 ;;      Totals:         0       0       0       0       0       0       0
  2413 ;;Total ram usage:        0 bytes
  2414 ;; Hardware stack levels used:    1
  2415 ;; Hardware stack levels required when called:   12
  2416 ;; This function calls:
  2417 ;;		Nothing
  2418 ;; This function is called by:
  2419 ;;		_SYSTEM_Initialize
  2420 ;; This function uses a non-reentrant model
  2421 ;;
  2422                           
  2423                           	psect	text11
  2424  006076                     __ptext11:
  2425                           	opt callstack 0
  2426  006076                     _INTERRUPT_Initialize:
  2427                           	opt callstack 17
  2428                           
  2429                           ;setting_hardaware/interrupt_manager.c: 7:     RCONbits.IPEN = 1;
  2430                           
  2431                           ;incstack = 0
  2432  006076  8ED0               	bsf	208,7,c	;volatile
  2433                           
  2434                           ;setting_hardaware/interrupt_manager.c: 8:     INTCONbits.GIE = 1;
  2435  006078  8EF2               	bsf	242,7,c	;volatile
  2436  00607A  0012               	return		;funcret
  2437  00607C                     __end_of_INTERRUPT_Initialize:
  2438                           	opt callstack 0
  2439                           
  2440 ;; *************** function _ADC_Initialize *****************
  2441 ;; Defined at:
  2442 ;;		line 39 in file "setting_hardaware/adc.c"
  2443 ;; Parameters:    Size  Location     Type
  2444 ;;		None
  2445 ;; Auto vars:     Size  Location     Type
  2446 ;;		None
  2447 ;; Return value:  Size  Location     Type
  2448 ;;                  1    wreg      void 
  2449 ;; Registers used:
  2450 ;;		wreg, status,2
  2451 ;; Tracked objects:
  2452 ;;		On entry : 0/0
  2453 ;;		On exit  : 0/0
  2454 ;;		Unchanged: 0/0
  2455 ;; Data sizes:     COMRAM   BANK0   BANK1   BANK2   BANK3   BANK4   BANK5
  2456 ;;      Params:         0       0       0       0       0       0       0
  2457 ;;      Locals:         0       0       0       0       0       0       0
  2458 ;;      Temps:          0       0       0       0       0       0       0
  2459 ;;      Totals:         0       0       0       0       0       0       0
  2460 ;;Total ram usage:        0 bytes
  2461 ;; Hardware stack levels used:    1
  2462 ;; Hardware stack levels required when called:   12
  2463 ;; This function calls:
  2464 ;;		Nothing
  2465 ;; This function is called by:
  2466 ;;		_SYSTEM_Initialize
  2467 ;; This function uses a non-reentrant model
  2468 ;;
  2469                           
  2470                           	psect	text12
  2471  006018                     __ptext12:
  2472                           	opt callstack 0
  2473  006018                     _ADC_Initialize:
  2474                           	opt callstack 17
  2475                           
  2476                           ;setting_hardaware/adc.c: 41:     ADCON1 = 0x0D;
  2477                           
  2478                           ;incstack = 0
  2479  006018  0E0D               	movlw	13
  2480  00601A  6EC1               	movwf	193,c	;volatile
  2481                           
  2482                           ;setting_hardaware/adc.c: 42:     ADCON2=0x94;
  2483  00601C  0E94               	movlw	148
  2484  00601E  6EC0               	movwf	192,c	;volatile
  2485                           
  2486                           ;setting_hardaware/adc.c: 43:     ADRES=0;
  2487  006020  0E00               	movlw	0
  2488  006022  6EC4               	movwf	196,c	;volatile
  2489  006024  0E00               	movlw	0
  2490  006026  6EC3               	movwf	195,c	;volatile
  2491  006028  0012               	return		;funcret
  2492  00602A                     __end_of_ADC_Initialize:
  2493                           	opt callstack 0
  2494                           
  2495 ;; *************** function _Lo_ISR *****************
  2496 ;; Defined at:
  2497 ;;		line 53 in file "setting_hardaware/uart.c"
  2498 ;; Parameters:    Size  Location     Type
  2499 ;;		None
  2500 ;; Auto vars:     Size  Location     Type
  2501 ;;		None
  2502 ;; Return value:  Size  Location     Type
  2503 ;;                  1    wreg      void 
  2504 ;; Registers used:
  2505 ;;		wreg, fsr2l, fsr2h, status,2, status,0, cstack
  2506 ;; Tracked objects:
  2507 ;;		On entry : 0/0
  2508 ;;		On exit  : 0/0
  2509 ;;		Unchanged: 0/0
  2510 ;; Data sizes:     COMRAM   BANK0   BANK1   BANK2   BANK3   BANK4   BANK5
  2511 ;;      Params:         0       0       0       0       0       0       0
  2512 ;;      Locals:         0       0       0       0       0       0       0
  2513 ;;      Temps:          0       0       0       5       0       0       0
  2514 ;;      Totals:         0       0       0       5       0       0       0
  2515 ;;Total ram usage:        5 bytes
  2516 ;; Hardware stack levels used:    1
  2517 ;; Hardware stack levels required when called:   11
  2518 ;; This function calls:
  2519 ;;		_MyusartRead
  2520 ;; This function is called by:
  2521 ;;		Interrupt level 1
  2522 ;; This function uses a non-reentrant model
  2523 ;;
  2524                           
  2525                           	psect	intcodelo
  2526  000018                     __pintcodelo:
  2527                           	opt callstack 0
  2528  000018                     _Lo_ISR:
  2529                           	opt callstack 15
  2530                           
  2531                           ;incstack = 0
  2532  000018  807F               	bsf	btemp,0,c	;set compiler interrupt flag (level 1)
  2533  00001A  CFD8 F2BA          	movff	status,??_Lo_ISR
  2534  00001E  CFE8 F2BB          	movff	wreg,??_Lo_ISR+1
  2535  000022  CFE0 F2BC          	movff	bsr,??_Lo_ISR+2
  2536  000026  CFD9 F2BD          	movff	fsr2l,??_Lo_ISR+3
  2537  00002A  CFDA F2BE          	movff	fsr2h,??_Lo_ISR+4
  2538                           
  2539                           ;setting_hardaware/uart.c: 55:     if(RCIF)
  2540  00002E  AA9E               	btfss	3998,5,c	;volatile
  2541  000030  D007               	goto	i1l100
  2542                           
  2543                           ;setting_hardaware/uart.c: 56:     {;setting_hardaware/uart.c: 57:         if(RCSTAbits.
      +                          OERR)
  2544  000032  A2AB               	btfss	171,1,c	;volatile
  2545  000034  D003               	goto	i1l5405
  2546                           
  2547                           ;setting_hardaware/uart.c: 58:         {;setting_hardaware/uart.c: 59:             CREN 
      +                          = 0;
  2548  000036  98AB               	bcf	4011,4,c	;volatile
  2549                           
  2550                           ;setting_hardaware/uart.c: 60:             __nop();
  2551  000038  F000               	nop	
  2552                           
  2553                           ;setting_hardaware/uart.c: 61:             CREN = 1;
  2554  00003A  88AB               	bsf	4011,4,c	;volatile
  2555  00003C                     i1l5405:
  2556                           
  2557                           ;setting_hardaware/uart.c: 64:         MyusartRead();
  2558  00003C  EC18  F02E         	call	_MyusartRead	;wreg free
  2559  000040                     i1l100:
  2560  000040  C2BE  FFDA         	movff	??_Lo_ISR+4,fsr2h
  2561  000044  C2BD  FFD9         	movff	??_Lo_ISR+3,fsr2l
  2562  000048  C2BC  FFE0         	movff	??_Lo_ISR+2,bsr
  2563  00004C  C2BB  FFE8         	movff	??_Lo_ISR+1,wreg
  2564  000050  C2BA  FFD8         	movff	??_Lo_ISR,status
  2565  000054  907F               	bcf	btemp,0,c	;clear compiler interrupt flag (level 1)
  2566  000056  0010               	retfie	
  2567  000058                     __end_of_Lo_ISR:
  2568                           	opt callstack 0
  2569                           
  2570 ;; *************** function _MyusartRead *****************
  2571 ;; Defined at:
  2572 ;;		line 32 in file "setting_hardaware/uart.c"
  2573 ;; Parameters:    Size  Location     Type
  2574 ;;		None
  2575 ;; Auto vars:     Size  Location     Type
  2576 ;;		None
  2577 ;; Return value:  Size  Location     Type
  2578 ;;                  1    wreg      void 
  2579 ;; Registers used:
  2580 ;;		wreg, fsr2l, fsr2h, status,2, status,0, cstack
  2581 ;; Tracked objects:
  2582 ;;		On entry : 0/0
  2583 ;;		On exit  : 0/0
  2584 ;;		Unchanged: 0/0
  2585 ;; Data sizes:     COMRAM   BANK0   BANK1   BANK2   BANK3   BANK4   BANK5
  2586 ;;      Params:         0       0       0       0       0       0       0
  2587 ;;      Locals:         0       0       0       0       0       0       0
  2588 ;;      Temps:          0       0       0       0       0       0       0
  2589 ;;      Totals:         0       0       0       0       0       0       0
  2590 ;;Total ram usage:        0 bytes
  2591 ;; Hardware stack levels used:    1
  2592 ;; Hardware stack levels required when called:   10
  2593 ;; This function calls:
  2594 ;;		_UART_Write
  2595 ;;		___awmod
  2596 ;; This function is called by:
  2597 ;;		_Lo_ISR
  2598 ;; This function uses a non-reentrant model
  2599 ;;
  2600                           
  2601                           	psect	text14
  2602  005C30                     __ptext14:
  2603                           	opt callstack 0
  2604  005C30                     _MyusartRead:
  2605                           	opt callstack 15
  2606                           
  2607                           ;setting_hardaware/uart.c: 34:     mystring[lenStr] = RCREG;
  2608                           
  2609                           ;incstack = 0
  2610  005C30  0E86               	movlw	low _mystring
  2611  005C32  0102               	movlb	2	; () banked
  2612  005C34  2500               	addwf	_lenStr& (0+255),w,b
  2613  005C36  6ED9               	movwf	fsr2l,c
  2614  005C38  0E02               	movlw	high _mystring
  2615  005C3A  2101               	addwfc	(_lenStr+1)& (0+255),w,b
  2616  005C3C  6EDA               	movwf	fsr2h,c
  2617  005C3E  CFAE FFDF          	movff	4014,indf2	;volatile
  2618                           
  2619                           ; BSR set to: 2
  2620                           ;setting_hardaware/uart.c: 35:     UART_Write(mystring[lenStr]);
  2621  005C42  0E86               	movlw	low _mystring
  2622  005C44  2500               	addwf	_lenStr& (0+255),w,b
  2623  005C46  6ED9               	movwf	fsr2l,c
  2624  005C48  0E02               	movlw	high _mystring
  2625  005C4A  2101               	addwfc	(_lenStr+1)& (0+255),w,b
  2626  005C4C  6EDA               	movwf	fsr2h,c
  2627  005C4E  50DF               	movf	indf2,w,c
  2628  005C50  EC1C  F030         	call	_UART_Write
  2629                           
  2630                           ;setting_hardaware/uart.c: 36:     lenStr++;
  2631  005C54  0102               	movlb	2	; () banked
  2632  005C56  4B00               	infsnz	_lenStr& (0+255),f,b
  2633  005C58  2B01               	incf	(_lenStr+1)& (0+255),f,b
  2634                           
  2635                           ; BSR set to: 2
  2636                           ;setting_hardaware/uart.c: 37:     lenStr %= 10;
  2637  005C5A  C200  F2B4         	movff	_lenStr,___awmod@dividend
  2638  005C5E  C201  F2B5         	movff	_lenStr+1,___awmod@dividend+1
  2639  005C62  0E00               	movlw	0
  2640  005C64  6FB7               	movwf	(___awmod@divisor+1)& (0+255),b
  2641  005C66  0E0A               	movlw	10
  2642  005C68  6FB6               	movwf	___awmod@divisor& (0+255),b
  2643  005C6A  EC21  F02D         	call	___awmod	;wreg free
  2644  005C6E  C2B4  F200         	movff	?___awmod,_lenStr
  2645  005C72  C2B5  F201         	movff	?___awmod+1,_lenStr+1
  2646  005C76  0012               	return		;funcret
  2647  005C78                     __end_of_MyusartRead:
  2648                           	opt callstack 0
  2649                           
  2650 ;; *************** function ___awmod *****************
  2651 ;; Defined at:
  2652 ;;		line 7 in file "C:\Program Files (x86)\Microchip\xc8\v2.10\pic\sources\c99\common\awmod.c"
  2653 ;; Parameters:    Size  Location     Type
  2654 ;;  dividend        2    0[BANK2 ] int 
  2655 ;;  divisor         2    2[BANK2 ] int 
  2656 ;; Auto vars:     Size  Location     Type
  2657 ;;  sign            1    5[BANK2 ] unsigned char 
  2658 ;;  counter         1    4[BANK2 ] unsigned char 
  2659 ;; Return value:  Size  Location     Type
  2660 ;;                  2    0[BANK2 ] int 
  2661 ;; Registers used:
  2662 ;;		wreg, status,2, status,0
  2663 ;; Tracked objects:
  2664 ;;		On entry : 0/0
  2665 ;;		On exit  : 0/0
  2666 ;;		Unchanged: 0/0
  2667 ;; Data sizes:     COMRAM   BANK0   BANK1   BANK2   BANK3   BANK4   BANK5
  2668 ;;      Params:         0       0       0       4       0       0       0
  2669 ;;      Locals:         0       0       0       2       0       0       0
  2670 ;;      Temps:          0       0       0       0       0       0       0
  2671 ;;      Totals:         0       0       0       6       0       0       0
  2672 ;;Total ram usage:        6 bytes
  2673 ;; Hardware stack levels used:    1
  2674 ;; Hardware stack levels required when called:    9
  2675 ;; This function calls:
  2676 ;;		Nothing
  2677 ;; This function is called by:
  2678 ;;		_MyusartRead
  2679 ;; This function uses a non-reentrant model
  2680 ;;
  2681                           
  2682                           	psect	text15
  2683  005A42                     __ptext15:
  2684                           	opt callstack 0
  2685  005A42                     ___awmod:
  2686                           	opt callstack 15
  2687                           
  2688                           ;incstack = 0
  2689  005A42  0E00               	movlw	0
  2690  005A44  0102               	movlb	2	; () banked
  2691  005A46  6FB9               	movwf	___awmod@sign& (0+255),b
  2692                           
  2693                           ; BSR set to: 2
  2694  005A48  AFB5               	btfss	(___awmod@dividend+1)& (0+255),7,b
  2695  005A4A  D006               	goto	i1l5177
  2696                           
  2697                           ; BSR set to: 2
  2698  005A4C  6DB4               	negf	___awmod@dividend& (0+255),b
  2699  005A4E  1FB5               	comf	(___awmod@dividend+1)& (0+255),f,b
  2700  005A50  B0D8               	btfsc	status,0,c
  2701  005A52  2BB5               	incf	(___awmod@dividend+1)& (0+255),f,b
  2702                           
  2703                           ; BSR set to: 2
  2704  005A54  0E01               	movlw	1
  2705  005A56  6FB9               	movwf	___awmod@sign& (0+255),b
  2706  005A58                     i1l5177:
  2707                           
  2708                           ; BSR set to: 2
  2709  005A58  AFB7               	btfss	(___awmod@divisor+1)& (0+255),7,b
  2710  005A5A  D004               	goto	i1l5181
  2711                           
  2712                           ; BSR set to: 2
  2713  005A5C  6DB6               	negf	___awmod@divisor& (0+255),b
  2714  005A5E  1FB7               	comf	(___awmod@divisor+1)& (0+255),f,b
  2715  005A60  B0D8               	btfsc	status,0,c
  2716  005A62  2BB7               	incf	(___awmod@divisor+1)& (0+255),f,b
  2717  005A64                     i1l5181:
  2718                           
  2719                           ; BSR set to: 2
  2720  005A64  51B6               	movf	___awmod@divisor& (0+255),w,b
  2721  005A66  11B7               	iorwf	(___awmod@divisor+1)& (0+255),w,b
  2722  005A68  B4D8               	btfsc	status,2,c
  2723  005A6A  D018               	goto	i1l5197
  2724                           
  2725                           ; BSR set to: 2
  2726  005A6C  0E01               	movlw	1
  2727  005A6E  6FB8               	movwf	___awmod@counter& (0+255),b
  2728  005A70  D004               	goto	i1l5187
  2729  005A72                     i1l5185:
  2730                           
  2731                           ; BSR set to: 2
  2732  005A72  90D8               	bcf	status,0,c
  2733  005A74  37B6               	rlcf	___awmod@divisor& (0+255),f,b
  2734  005A76  37B7               	rlcf	(___awmod@divisor+1)& (0+255),f,b
  2735  005A78  2BB8               	incf	___awmod@counter& (0+255),f,b
  2736  005A7A                     i1l5187:
  2737                           
  2738                           ; BSR set to: 2
  2739  005A7A  AFB7               	btfss	(___awmod@divisor+1)& (0+255),7,b
  2740  005A7C  D7FA               	goto	i1l5185
  2741  005A7E                     i1u557_20:
  2742                           
  2743                           ; BSR set to: 2
  2744  005A7E  51B6               	movf	___awmod@divisor& (0+255),w,b
  2745  005A80  5DB4               	subwf	___awmod@dividend& (0+255),w,b
  2746  005A82  51B7               	movf	(___awmod@divisor+1)& (0+255),w,b
  2747  005A84  59B5               	subwfb	(___awmod@dividend+1)& (0+255),w,b
  2748  005A86  A0D8               	btfss	status,0,c
  2749  005A88  D004               	goto	i1l5193
  2750                           
  2751                           ; BSR set to: 2
  2752  005A8A  51B6               	movf	___awmod@divisor& (0+255),w,b
  2753  005A8C  5FB4               	subwf	___awmod@dividend& (0+255),f,b
  2754  005A8E  51B7               	movf	(___awmod@divisor+1)& (0+255),w,b
  2755  005A90  5BB5               	subwfb	(___awmod@dividend+1)& (0+255),f,b
  2756  005A92                     i1l5193:
  2757                           
  2758                           ; BSR set to: 2
  2759  005A92  90D8               	bcf	status,0,c
  2760  005A94  33B7               	rrcf	(___awmod@divisor+1)& (0+255),f,b
  2761  005A96  33B6               	rrcf	___awmod@divisor& (0+255),f,b
  2762                           
  2763                           ; BSR set to: 2
  2764  005A98  2FB8               	decfsz	___awmod@counter& (0+255),f,b
  2765  005A9A  D7F1               	goto	i1u557_20
  2766  005A9C                     i1l5197:
  2767                           
  2768                           ; BSR set to: 2
  2769  005A9C  51B9               	movf	___awmod@sign& (0+255),w,b
  2770  005A9E  B4D8               	btfsc	status,2,c
  2771  005AA0  D004               	goto	i1l5201
  2772                           
  2773                           ; BSR set to: 2
  2774  005AA2  6DB4               	negf	___awmod@dividend& (0+255),b
  2775  005AA4  1FB5               	comf	(___awmod@dividend+1)& (0+255),f,b
  2776  005AA6  B0D8               	btfsc	status,0,c
  2777  005AA8  2BB5               	incf	(___awmod@dividend+1)& (0+255),f,b
  2778  005AAA                     i1l5201:
  2779                           
  2780                           ; BSR set to: 2
  2781  005AAA  C2B4  F2B4         	movff	___awmod@dividend,?___awmod
  2782  005AAE  C2B5  F2B5         	movff	___awmod@dividend+1,?___awmod+1
  2783                           
  2784                           ; BSR set to: 2
  2785  005AB2  0012               	return		;funcret
  2786  005AB4                     __end_of___awmod:
  2787                           	opt callstack 0
  2788                           
  2789 ;; *************** function _UART_Write *****************
  2790 ;; Defined at:
  2791 ;;		line 11 in file "setting_hardaware/uart.c"
  2792 ;; Parameters:    Size  Location     Type
  2793 ;;  data            1    wreg     unsigned char 
  2794 ;; Auto vars:     Size  Location     Type
  2795 ;;  data            1    0[BANK2 ] unsigned char 
  2796 ;; Return value:  Size  Location     Type
  2797 ;;                  1    wreg      void 
  2798 ;; Registers used:
  2799 ;;		wreg
  2800 ;; Tracked objects:
  2801 ;;		On entry : 0/0
  2802 ;;		On exit  : 0/0
  2803 ;;		Unchanged: 0/0
  2804 ;; Data sizes:     COMRAM   BANK0   BANK1   BANK2   BANK3   BANK4   BANK5
  2805 ;;      Params:         0       0       0       0       0       0       0
  2806 ;;      Locals:         0       0       0       1       0       0       0
  2807 ;;      Temps:          0       0       0       0       0       0       0
  2808 ;;      Totals:         0       0       0       1       0       0       0
  2809 ;;Total ram usage:        1 bytes
  2810 ;; Hardware stack levels used:    1
  2811 ;; Hardware stack levels required when called:    9
  2812 ;; This function calls:
  2813 ;;		Nothing
  2814 ;; This function is called by:
  2815 ;;		_MyusartRead
  2816 ;;		_UART_Write_Text
  2817 ;; This function uses a non-reentrant model
  2818 ;;
  2819                           
  2820                           	psect	text16
  2821  006038                     __ptext16:
  2822                           	opt callstack 0
  2823  006038                     _UART_Write:
  2824                           	opt callstack 15
  2825                           
  2826                           ; BSR set to: 2
  2827                           ;incstack = 0
  2828                           ;UART_Write@data stored from wreg
  2829  006038  0102               	movlb	2	; () banked
  2830  00603A  6FB4               	movwf	UART_Write@data& (0+255),b
  2831  00603C                     
  2832                           ;setting_hardaware/uart.c: 11: void UART_Write(unsigned char data);setting_hardaware/uar
      +                          t.c: 12: {;setting_hardaware/uart.c: 13:     while(!TXSTAbits.TRMT);
  2833  00603C  A2AC               	btfss	172,1,c	;volatile
  2834  00603E  D7FE               	goto	i1l5125
  2835                           
  2836                           ;setting_hardaware/uart.c: 14:     TXREG = data;
  2837  006040  C2B4  FFAD         	movff	UART_Write@data,4013	;volatile
  2838  006044  0012               	return		;funcret
  2839  006046                     __end_of_UART_Write:
  2840                           	opt callstack 0
  2841                           
  2842 ;; *************** function _Hi_ISR *****************
  2843 ;; Defined at:
  2844 ;;		line 24 in file "main.c"
  2845 ;; Parameters:    Size  Location     Type
  2846 ;;		None
  2847 ;; Auto vars:     Size  Location     Type
  2848 ;;		None
  2849 ;; Return value:  Size  Location     Type
  2850 ;;                  1    wreg      void 
  2851 ;; Registers used:
  2852 ;;		wreg, fsr1l, fsr1h, fsr2l, fsr2h, status,2, status,0, tblptrl, tblptrh, tblptru, prodl, prodh, cstack
  2853 ;; Tracked objects:
  2854 ;;		On entry : 0/0
  2855 ;;		On exit  : 0/0
  2856 ;;		Unchanged: 0/0
  2857 ;; Data sizes:     COMRAM   BANK0   BANK1   BANK2   BANK3   BANK4   BANK5
  2858 ;;      Params:         0       0       0       0       0       0       0
  2859 ;;      Locals:         0       0       0       0       0       0       0
  2860 ;;      Temps:          0       0      11       0       0       0       0
  2861 ;;      Totals:         0       0      11       0       0       0       0
  2862 ;;Total ram usage:       11 bytes
  2863 ;; Hardware stack levels used:    1
  2864 ;; Hardware stack levels required when called:    8
  2865 ;; This function calls:
  2866 ;;		_DHT11_CheckResponse
  2867 ;;		_DHT11_ReadData
  2868 ;;		_DHT11_Start
  2869 ;;		_LCD_clear
  2870 ;;		_MQ_Read
  2871 ;;		___flge
  2872 ;;		___fltol
  2873 ;;		_memset
  2874 ;;		_sprintf
  2875 ;;		i2_Send2Lcd
  2876 ;;		i2_speak
  2877 ;; This function is called by:
  2878 ;;		Interrupt level 2
  2879 ;; This function uses a non-reentrant model
  2880 ;;
  2881                           
  2882                           	psect	intcode
  2883  000008                     __pintcode:
  2884                           	opt callstack 0
  2885  000008                     _Hi_ISR:
  2886                           	opt callstack 15
  2887                           
  2888                           ;incstack = 0
  2889  000008  827F               	bsf	btemp,1,c	;set compiler interrupt flag (level 2)
  2890  00000A  EDBD  F023         	call	int_func,f	;refresh shadow registers
  2891                           
  2892                           	psect	intcode_body
  2893  00477A                     __pintcode_body:
  2894                           	opt callstack 15
  2895  00477A                     int_func:
  2896                           	opt callstack 15
  2897  00477A  0006               	pop		; remove dummy address from shadow register refresh
  2898  00477C  CFE1 F1BD          	movff	fsr1l,??_Hi_ISR+1
  2899  004780  CFE2 F1BE          	movff	fsr1h,??_Hi_ISR+2
  2900  004784  CFD9 F1BF          	movff	fsr2l,??_Hi_ISR+3
  2901  004788  CFDA F1C0          	movff	fsr2h,??_Hi_ISR+4
  2902  00478C  CFF3 F1C1          	movff	prodl,??_Hi_ISR+5
  2903  004790  CFF4 F1C2          	movff	prodh,??_Hi_ISR+6
  2904  004794  CFF6 F1C3          	movff	tblptrl,??_Hi_ISR+7
  2905  004798  CFF7 F1C4          	movff	tblptrh,??_Hi_ISR+8
  2906  00479C  CFF8 F1C5          	movff	tblptru,??_Hi_ISR+9
  2907  0047A0  CFF5 F1C6          	movff	tablat,??_Hi_ISR+10
  2908                           
  2909                           ;main.c: 26:     if(PIR1bits.TMR1IF&&PIE1bits.TMR1IE) {
  2910  0047A4  B09E               	btfsc	158,0,c	;volatile
  2911  0047A6  A09D               	btfss	157,0,c	;volatile
  2912  0047A8  D0FE               	goto	i2l280
  2913                           
  2914                           ;main.c: 27:         if(count<cycle){
  2915  0047AA  0101               	movlb	1	; () banked
  2916  0047AC  51F5               	movf	_cycle& (0+255),w,b
  2917  0047AE  5DE3               	subwf	_count& (0+255),w,b
  2918  0047B0  51E4               	movf	(_count+1)& (0+255),w,b
  2919  0047B2  0A80               	xorlw	128
  2920  0047B4  6FBC               	movwf	??_Hi_ISR& (0+255),b
  2921  0047B6  51F6               	movf	(_cycle+1)& (0+255),w,b
  2922  0047B8  0A80               	xorlw	128
  2923  0047BA  59BC               	subwfb	??_Hi_ISR& (0+255),w,b
  2924  0047BC  B0D8               	btfsc	status,0,c
  2925  0047BE  D003               	goto	i2l5419
  2926                           
  2927                           ; BSR set to: 1
  2928                           ;main.c: 28:             count++;
  2929  0047C0  4BE3               	infsnz	_count& (0+255),f,b
  2930  0047C2  2BE4               	incf	(_count+1)& (0+255),f,b
  2931                           
  2932                           ;main.c: 29:         }
  2933  0047C4  D0EB               	goto	i2l5467
  2934  0047C6                     i2l5419:
  2935                           
  2936                           ; BSR set to: 1
  2937                           ;main.c: 32:             count=0;
  2938  0047C6  0E00               	movlw	0
  2939  0047C8  6FE4               	movwf	(_count+1)& (0+255),b
  2940  0047CA  0E00               	movlw	0
  2941  0047CC  6FE3               	movwf	_count& (0+255),b
  2942                           
  2943                           ; BSR set to: 1
  2944                           ;main.c: 33:             memset(r,'\0',sizeof(r));
  2945  0047CE  0E02               	movlw	low _r
  2946  0047D0  6E01               	movwf	memset@dest^0,c
  2947  0047D2  0E02               	movlw	high _r
  2948  0047D4  6E02               	movwf	(memset@dest+1)^0,c
  2949  0047D6  0E00               	movlw	0
  2950  0047D8  6E04               	movwf	(memset@c+1)^0,c
  2951  0047DA  0E00               	movlw	0
  2952  0047DC  6E03               	movwf	memset@c^0,c
  2953  0047DE  0E00               	movlw	0
  2954  0047E0  6E06               	movwf	(memset@n+1)^0,c
  2955  0047E2  0E64               	movlw	100
  2956  0047E4  6E05               	movwf	memset@n^0,c
  2957  0047E6  EC92  F029         	call	_memset	;wreg free
  2958                           
  2959                           ;main.c: 35:             DHT11_Start();
  2960  0047EA  ECBE  F02F         	call	_DHT11_Start	;wreg free
  2961                           
  2962                           ;main.c: 36:             DHT11_CheckResponse();
  2963  0047EE  EC2A  F030         	call	_DHT11_CheckResponse	;wreg free
  2964                           
  2965                           ;main.c: 38:             RH_Integral = DHT11_ReadData();
  2966  0047F2  ECCD  F02E         	call	_DHT11_ReadData	;wreg free
  2967  0047F6  0100               	movlb	0	; () banked
  2968  0047F8  6FFE               	movwf	_RH_Integral& (0+255),b
  2969                           
  2970                           ; BSR set to: 0
  2971                           ;main.c: 39:             RH_Decimal = DHT11_ReadData();
  2972  0047FA  ECCD  F02E         	call	_DHT11_ReadData	;wreg free
  2973  0047FE  0100               	movlb	0	; () banked
  2974  004800  6FFF               	movwf	_RH_Decimal& (0+255),b
  2975                           
  2976                           ; BSR set to: 0
  2977                           ;main.c: 40:             T_Integral = DHT11_ReadData();
  2978  004802  ECCD  F02E         	call	_DHT11_ReadData	;wreg free
  2979  004806  0100               	movlb	0	; () banked
  2980  004808  6FFC               	movwf	_T_Integral& (0+255),b
  2981                           
  2982                           ; BSR set to: 0
  2983                           ;main.c: 41:             T_Decimal = DHT11_ReadData();
  2984  00480A  ECCD  F02E         	call	_DHT11_ReadData	;wreg free
  2985  00480E  0100               	movlb	0	; () banked
  2986  004810  6FFD               	movwf	_T_Decimal& (0+255),b
  2987                           
  2988                           ; BSR set to: 0
  2989                           ;main.c: 42:             Checksum = DHT11_ReadData();
  2990  004812  ECCD  F02E         	call	_DHT11_ReadData	;wreg free
  2991  004816  0100               	movlb	0	; () banked
  2992  004818  6FFB               	movwf	_Checksum& (0+255),b
  2993                           
  2994                           ; BSR set to: 0
  2995                           ;main.c: 44:             sprintf(r,"%d.%1d C  %d.%1d H",T_Integral,T_Decimal,RH_Integral
      +                          ,RH_Decimal);
  2996  00481A  0E02               	movlw	low _r
  2997  00481C  6FCD               	movwf	sprintf@s& (0+255),b
  2998  00481E  0E02               	movlw	high _r
  2999  004820  6FCE               	movwf	(sprintf@s+1)& (0+255),b
  3000  004822  0E95               	movlw	low STR_3
  3001  004824  6FCF               	movwf	sprintf@fmt& (0+255),b
  3002  004826  0E06               	movlw	high STR_3
  3003  004828  6FD0               	movwf	(sprintf@fmt+1)& (0+255),b
  3004  00482A  C0FC  F0D1         	movff	_T_Integral,?_sprintf+4
  3005  00482E  6BD2               	clrf	(?_sprintf+5)& (0+255),b
  3006  004830  C0FD  F0D3         	movff	_T_Decimal,?_sprintf+6
  3007  004834  6BD4               	clrf	(?_sprintf+7)& (0+255),b
  3008  004836  C0FE  F0D5         	movff	_RH_Integral,?_sprintf+8
  3009  00483A  6BD6               	clrf	(?_sprintf+9)& (0+255),b
  3010  00483C  C0FF  F0D7         	movff	_RH_Decimal,?_sprintf+10
  3011  004840  6BD8               	clrf	(?_sprintf+11)& (0+255),b
  3012  004842  ECEF  F02D         	call	_sprintf	;wreg free
  3013                           
  3014                           ;main.c: 45:             LCD_clear();
  3015  004846  EC23  F030         	call	_LCD_clear	;wreg free
  3016                           
  3017                           ;main.c: 46:             Send2Lcd(0x80,r);
  3018  00484A  0E02               	movlw	low _r
  3019  00484C  6E04               	movwf	i2Send2Lcd@Lcd^0,c
  3020  00484E  0E02               	movlw	high _r
  3021  004850  6E05               	movwf	(i2Send2Lcd@Lcd+1)^0,c
  3022  004852  0E80               	movlw	128
  3023  004854  EC91  F02D         	call	i2_Send2Lcd
  3024                           
  3025                           ;main.c: 48:             MQ_Read(value);
  3026  004858  0EE5               	movlw	low _value
  3027  00485A  0100               	movlb	0	; () banked
  3028  00485C  6FE9               	movwf	MQ_Read@values& (0+255),b
  3029  00485E  0E01               	movlw	high _value
  3030  004860  6FEA               	movwf	(MQ_Read@values+1)& (0+255),b
  3031  004862  ECE1  F01F         	call	_MQ_Read	;wreg free
  3032                           
  3033                           ;main.c: 49:             memset(r,'\0',sizeof(r));
  3034  004866  0E02               	movlw	low _r
  3035  004868  6E01               	movwf	memset@dest^0,c
  3036  00486A  0E02               	movlw	high _r
  3037  00486C  6E02               	movwf	(memset@dest+1)^0,c
  3038  00486E  0E00               	movlw	0
  3039  004870  6E04               	movwf	(memset@c+1)^0,c
  3040  004872  0E00               	movlw	0
  3041  004874  6E03               	movwf	memset@c^0,c
  3042  004876  0E00               	movlw	0
  3043  004878  6E06               	movwf	(memset@n+1)^0,c
  3044  00487A  0E64               	movlw	100
  3045  00487C  6E05               	movwf	memset@n^0,c
  3046  00487E  EC92  F029         	call	_memset	;wreg free
  3047                           
  3048                           ;main.c: 50:             sprintf(r,"%d %d %d",(int)value[0],(int)value[1],(int)value[2])
      +                          ;
  3049  004882  0E02               	movlw	low _r
  3050  004884  0100               	movlb	0	; () banked
  3051  004886  6FCD               	movwf	sprintf@s& (0+255),b
  3052  004888  0E02               	movlw	high _r
  3053  00488A  6FCE               	movwf	(sprintf@s+1)& (0+255),b
  3054  00488C  0EA8               	movlw	low STR_4
  3055  00488E  6FCF               	movwf	sprintf@fmt& (0+255),b
  3056  004890  0E06               	movlw	high STR_4
  3057  004892  6FD0               	movwf	(sprintf@fmt+1)& (0+255),b
  3058  004894  C1E5  F077         	movff	_value,___fltol@f1
  3059  004898  C1E6  F078         	movff	_value+1,___fltol@f1+1
  3060  00489C  C1E7  F079         	movff	_value+2,___fltol@f1+2
  3061  0048A0  C1E8  F07A         	movff	_value+3,___fltol@f1+3
  3062  0048A4  ECAF  F02B         	call	___fltol	;wreg free
  3063  0048A8  C077  F0D1         	movff	?___fltol,?_sprintf+4
  3064  0048AC  C078  F0D2         	movff	?___fltol+1,?_sprintf+5
  3065  0048B0  C1E9  F077         	movff	_value+4,___fltol@f1
  3066  0048B4  C1EA  F078         	movff	_value+5,___fltol@f1+1
  3067  0048B8  C1EB  F079         	movff	_value+6,___fltol@f1+2
  3068  0048BC  C1EC  F07A         	movff	_value+7,___fltol@f1+3
  3069  0048C0  ECAF  F02B         	call	___fltol	;wreg free
  3070  0048C4  C077  F0D3         	movff	?___fltol,?_sprintf+6
  3071  0048C8  C078  F0D4         	movff	?___fltol+1,?_sprintf+7
  3072  0048CC  C1ED  F077         	movff	_value+8,___fltol@f1
  3073  0048D0  C1EE  F078         	movff	_value+9,___fltol@f1+1
  3074  0048D4  C1EF  F079         	movff	_value+10,___fltol@f1+2
  3075  0048D8  C1F0  F07A         	movff	_value+11,___fltol@f1+3
  3076  0048DC  ECAF  F02B         	call	___fltol	;wreg free
  3077  0048E0  C077  F0D5         	movff	?___fltol,?_sprintf+8
  3078  0048E4  C078  F0D6         	movff	?___fltol+1,?_sprintf+9
  3079  0048E8  ECEF  F02D         	call	_sprintf	;wreg free
  3080                           
  3081                           ;main.c: 51:             Send2Lcd(0xc0,r);
  3082  0048EC  0E02               	movlw	low _r
  3083  0048EE  6E04               	movwf	i2Send2Lcd@Lcd^0,c
  3084  0048F0  0E02               	movlw	high _r
  3085  0048F2  6E05               	movwf	(i2Send2Lcd@Lcd+1)^0,c
  3086  0048F4  0EC0               	movlw	192
  3087  0048F6  EC91  F02D         	call	i2_Send2Lcd
  3088                           
  3089                           ;main.c: 55:              if(value[0]>500||value[1]>500||value[2]>500||T_Integral>40||RH
      +                          _Integral>80){
  3090  0048FA  0E00               	movlw	0
  3091  0048FC  6E32               	movwf	___flge@ff1^0,c
  3092  0048FE  0E00               	movlw	0
  3093  004900  6E33               	movwf	(___flge@ff1+1)^0,c
  3094  004902  0EFA               	movlw	250
  3095  004904  6E34               	movwf	(___flge@ff1+2)^0,c
  3096  004906  0E43               	movlw	67
  3097  004908  6E35               	movwf	(___flge@ff1+3)^0,c
  3098  00490A  C1E5  F036         	movff	_value,___flge@ff2
  3099  00490E  C1E6  F037         	movff	_value+1,___flge@ff2+1
  3100  004912  C1E7  F038         	movff	_value+2,___flge@ff2+2
  3101  004916  C1E8  F039         	movff	_value+3,___flge@ff2+3
  3102  00491A  EC47  F02B         	call	___flge	;wreg free
  3103  00491E  A0D8               	btfss	status,0,c
  3104  004920  D02F               	goto	i2u590_40
  3105  004922  0E00               	movlw	0
  3106  004924  6E32               	movwf	___flge@ff1^0,c
  3107  004926  0E00               	movlw	0
  3108  004928  6E33               	movwf	(___flge@ff1+1)^0,c
  3109  00492A  0EFA               	movlw	250
  3110  00492C  6E34               	movwf	(___flge@ff1+2)^0,c
  3111  00492E  0E43               	movlw	67
  3112  004930  6E35               	movwf	(___flge@ff1+3)^0,c
  3113  004932  C1E9  F036         	movff	_value+4,___flge@ff2
  3114  004936  C1EA  F037         	movff	_value+5,___flge@ff2+1
  3115  00493A  C1EB  F038         	movff	_value+6,___flge@ff2+2
  3116  00493E  C1EC  F039         	movff	_value+7,___flge@ff2+3
  3117  004942  EC47  F02B         	call	___flge	;wreg free
  3118  004946  A0D8               	btfss	status,0,c
  3119  004948  D01B               	goto	i2u590_40
  3120  00494A  0E00               	movlw	0
  3121  00494C  6E32               	movwf	___flge@ff1^0,c
  3122  00494E  0E00               	movlw	0
  3123  004950  6E33               	movwf	(___flge@ff1+1)^0,c
  3124  004952  0EFA               	movlw	250
  3125  004954  6E34               	movwf	(___flge@ff1+2)^0,c
  3126  004956  0E43               	movlw	67
  3127  004958  6E35               	movwf	(___flge@ff1+3)^0,c
  3128  00495A  C1ED  F036         	movff	_value+8,___flge@ff2
  3129  00495E  C1EE  F037         	movff	_value+9,___flge@ff2+1
  3130  004962  C1EF  F038         	movff	_value+10,___flge@ff2+2
  3131  004966  C1F0  F039         	movff	_value+11,___flge@ff2+3
  3132  00496A  EC47  F02B         	call	___flge	;wreg free
  3133  00496E  A0D8               	btfss	status,0,c
  3134  004970  D007               	goto	i2u590_40
  3135  004972  0E29               	movlw	41
  3136  004974  0100               	movlb	0	; () banked
  3137  004976  61FC               	cpfslt	_T_Integral& (0+255),b
  3138  004978  D003               	goto	i2u590_40
  3139                           
  3140                           ; BSR set to: 0
  3141  00497A  0E50               	movlw	80
  3142  00497C  65FE               	cpfsgt	_RH_Integral& (0+255),b
  3143  00497E  D009               	goto	i2l5465
  3144  004980                     i2u590_40:
  3145                           
  3146                           ;main.c: 56:                 speak();
  3147  004980  EC02  F030         	call	i2_speak	;wreg free
  3148                           
  3149                           ;main.c: 57:                 speak();
  3150  004984  EC02  F030         	call	i2_speak	;wreg free
  3151                           
  3152                           ;main.c: 58:                 cycle=2;
  3153  004988  0E00               	movlw	0
  3154  00498A  0101               	movlb	1	; () banked
  3155  00498C  6FF6               	movwf	(_cycle+1)& (0+255),b
  3156  00498E  0E02               	movlw	2
  3157  004990  D004               	goto	L1
  3158  004992                     i2l5465:
  3159                           
  3160                           ; BSR set to: 0
  3161                           ;main.c: 61:                  cycle=4;
  3162  004992  0E00               	movlw	0
  3163  004994  0101               	movlb	1	; () banked
  3164  004996  6FF6               	movwf	(_cycle+1)& (0+255),b
  3165  004998  0E04               	movlw	4
  3166  00499A                     L1:
  3167  00499A  6FF5               	movwf	_cycle& (0+255),b
  3168  00499C                     i2l5467:
  3169                           
  3170                           ; BSR set to: 1
  3171                           ;main.c: 68:         PIR1bits.TMR1IF=0;
  3172  00499C  909E               	bcf	158,0,c	;volatile
  3173                           
  3174                           ; BSR set to: 1
  3175                           ;main.c: 69:         TMR1=timer_val;
  3176  00499E  C1FD  FFCE         	movff	_timer_val,4046	;volatile
  3177  0049A2  C1FE  FFCF         	movff	_timer_val+1,4047	;volatile
  3178  0049A6                     i2l280:
  3179  0049A6  C1C6  FFF5         	movff	??_Hi_ISR+10,tablat
  3180  0049AA  C1C5  FFF8         	movff	??_Hi_ISR+9,tblptru
  3181  0049AE  C1C4  FFF7         	movff	??_Hi_ISR+8,tblptrh
  3182  0049B2  C1C3  FFF6         	movff	??_Hi_ISR+7,tblptrl
  3183  0049B6  C1C2  FFF4         	movff	??_Hi_ISR+6,prodh
  3184  0049BA  C1C1  FFF3         	movff	??_Hi_ISR+5,prodl
  3185  0049BE  C1C0  FFDA         	movff	??_Hi_ISR+4,fsr2h
  3186  0049C2  C1BF  FFD9         	movff	??_Hi_ISR+3,fsr2l
  3187  0049C6  C1BE  FFE2         	movff	??_Hi_ISR+2,fsr1h
  3188  0049CA  C1BD  FFE1         	movff	??_Hi_ISR+1,fsr1l
  3189  0049CE  927F               	bcf	btemp,1,c	;clear compiler interrupt flag (level 2)
  3190  0049D0  0011               	retfie		f
  3191  0049D2                     __end_of_Hi_ISR:
  3192                           	opt callstack 0
  3193                           
  3194 ;; *************** function i2_speak *****************
  3195 ;; Defined at:
  3196 ;;		line 13 in file "setting_hardaware/buzzer.c"
  3197 ;; Parameters:    Size  Location     Type
  3198 ;;		None
  3199 ;; Auto vars:     Size  Location     Type
  3200 ;;		None
  3201 ;; Return value:  Size  Location     Type
  3202 ;;                  1    wreg      void 
  3203 ;; Registers used:
  3204 ;;		wreg
  3205 ;; Tracked objects:
  3206 ;;		On entry : 0/0
  3207 ;;		On exit  : 0/0
  3208 ;;		Unchanged: 0/0
  3209 ;; Data sizes:     COMRAM   BANK0   BANK1   BANK2   BANK3   BANK4   BANK5
  3210 ;;      Params:         0       0       0       0       0       0       0
  3211 ;;      Locals:         0       0       0       0       0       0       0
  3212 ;;      Temps:          1       0       0       0       0       0       0
  3213 ;;      Totals:         1       0       0       0       0       0       0
  3214 ;;Total ram usage:        1 bytes
  3215 ;; Hardware stack levels used:    1
  3216 ;; This function calls:
  3217 ;;		Nothing
  3218 ;; This function is called by:
  3219 ;;		_Hi_ISR
  3220 ;; This function uses a non-reentrant model
  3221 ;;
  3222                           
  3223                           	psect	text18
  3224  006004                     __ptext18:
  3225                           	opt callstack 0
  3226  006004                     i2_speak:
  3227                           	opt callstack 22
  3228                           
  3229                           ;setting_hardaware/buzzer.c: 14:     LATBbits.LATB0=1;
  3230                           
  3231                           ;incstack = 0
  3232  006004  808A               	bsf	138,0,c	;volatile
  3233                           
  3234                           ;setting_hardaware/buzzer.c: 15:     _delay((unsigned long)((40)*(4000000/4000.0)));
  3235  006006  0E34               	movlw	52
  3236  006008  6E01               	movwf	??i2_speak^0,c
  3237  00600A  0EF2               	movlw	242
  3238  00600C                     i2u601_47:
  3239  00600C  2EE8               	decfsz	wreg,f,c
  3240  00600E  D7FE               	bra	i2u601_47
  3241  006010  2E01               	decfsz	??i2_speak^0,f,c
  3242  006012  D7FC               	bra	i2u601_47
  3243                           
  3244                           ;setting_hardaware/buzzer.c: 16:     LATBbits.LATB0=0;
  3245  006014  908A               	bcf	138,0,c	;volatile
  3246  006016  0012               	return		;funcret
  3247  006018                     __end_ofi2_speak:
  3248                           	opt callstack 0
  3249                           
  3250 ;; *************** function i2_Send2Lcd *****************
  3251 ;; Defined at:
  3252 ;;		line 41 in file "setting_hardaware/LCD.c"
  3253 ;; Parameters:    Size  Location     Type
  3254 ;;  Adr             1    wreg     const unsigned char 
  3255 ;;  Lcd             2    3[COMRAM] PTR const unsigned char 
  3256 ;;		 -> r(100), STR_2(6), STR_1(8), 
  3257 ;; Auto vars:     Size  Location     Type
  3258 ;;  Adr             1    6[COMRAM] const unsigned char 
  3259 ;; Return value:  Size  Location     Type
  3260 ;;                  1    wreg      void 
  3261 ;; Registers used:
  3262 ;;		wreg, fsr1l, fsr1h, status,2, status,0, tblptrl, tblptrh, tblptru, cstack
  3263 ;; Tracked objects:
  3264 ;;		On entry : 0/0
  3265 ;;		On exit  : 0/0
  3266 ;;		Unchanged: 0/0
  3267 ;; Data sizes:     COMRAM   BANK0   BANK1   BANK2   BANK3   BANK4   BANK5
  3268 ;;      Params:         2       0       0       0       0       0       0
  3269 ;;      Locals:         1       0       0       0       0       0       0
  3270 ;;      Temps:          1       0       0       0       0       0       0
  3271 ;;      Totals:         4       0       0       0       0       0       0
  3272 ;;Total ram usage:        4 bytes
  3273 ;; Hardware stack levels used:    1
  3274 ;; Hardware stack levels required when called:    1
  3275 ;; This function calls:
  3276 ;;		i2_Cmd
  3277 ;;		i2_Data
  3278 ;; This function is called by:
  3279 ;;		_Hi_ISR
  3280 ;; This function uses a non-reentrant model
  3281 ;;
  3282                           
  3283                           	psect	text19
  3284  005B22                     __ptext19:
  3285                           	opt callstack 0
  3286  005B22                     i2_Send2Lcd:
  3287                           	opt callstack 21
  3288                           
  3289                           ;incstack = 0
  3290                           ;i2Send2Lcd@Adr stored from wreg
  3291  005B22  6E07               	movwf	i2Send2Lcd@Adr^0,c
  3292                           
  3293                           ;setting_hardaware/LCD.c: 41: void Send2Lcd(const char Adr, const char *Lcd);setting_har
      +                          daware/LCD.c: 42: {;setting_hardaware/LCD.c: 43:  Cmd(Adr);
  3294  005B24  C007  F001         	movff	i2Send2Lcd@Adr,i2Cmd@Value
  3295  005B28  6A02               	clrf	(i2Cmd@Value+1)^0,c
  3296  005B2A  EC5C  F02F         	call	i2_Cmd	;wreg free
  3297                           
  3298                           ;setting_hardaware/LCD.c: 44:  while(*Lcd!='\0')
  3299  005B2E  D018               	goto	i2l5367
  3300  005B30                     i2l5363:
  3301                           
  3302                           ;setting_hardaware/LCD.c: 45:  {;setting_hardaware/LCD.c: 46:   Data(*Lcd);
  3303  005B30  C004  FFF6         	movff	i2Send2Lcd@Lcd,tblptrl
  3304  005B34  C005  FFF7         	movff	i2Send2Lcd@Lcd+1,tblptrh
  3305  005B38  6AF8               	clrf	tblptru,c
  3306  005B3A  0E05               	movlw	(high __ramtop+-1)
  3307  005B3C  64F7               	cpfsgt	tblptrh,c
  3308  005B3E  D003               	bra	i2u576_47
  3309  005B40  0008               	tblrd		*
  3310  005B42  50F5               	movf	tablat,w,c
  3311  005B44  D005               	bra	i2u576_40
  3312  005B46                     i2u576_47:
  3313  005B46  CFF6 FFE1          	movff	tblptrl,fsr1l
  3314  005B4A  CFF7 FFE2          	movff	tblptrh,fsr1h
  3315  005B4E  50E7               	movf	indf1,w,c
  3316  005B50                     i2u576_40:
  3317  005B50  6E06               	movwf	??i2_Send2Lcd^0,c
  3318  005B52  5006               	movf	??i2_Send2Lcd^0,w,c
  3319  005B54  6E01               	movwf	i2Data@Value^0,c
  3320  005B56  6A02               	clrf	(i2Data@Value+1)^0,c
  3321  005B58  EC2E  F02F         	call	i2_Data	;wreg free
  3322                           
  3323                           ;setting_hardaware/LCD.c: 47:   Lcd++;
  3324  005B5C  4A04               	infsnz	i2Send2Lcd@Lcd^0,f,c
  3325  005B5E  2A05               	incf	(i2Send2Lcd@Lcd+1)^0,f,c
  3326  005B60                     i2l5367:
  3327                           
  3328                           ;setting_hardaware/LCD.c: 44:  while(*Lcd!='\0')
  3329  005B60  C004  FFF6         	movff	i2Send2Lcd@Lcd,tblptrl
  3330  005B64  C005  FFF7         	movff	i2Send2Lcd@Lcd+1,tblptrh
  3331  005B68  6AF8               	clrf	tblptru,c
  3332  005B6A  0E05               	movlw	(high __ramtop+-1)
  3333  005B6C  64F7               	cpfsgt	tblptrh,c
  3334  005B6E  D003               	bra	i2u577_47
  3335  005B70  0008               	tblrd		*
  3336  005B72  50F5               	movf	tablat,w,c
  3337  005B74  D005               	bra	i2u577_40
  3338  005B76                     i2u577_47:
  3339  005B76  CFF6 FFE1          	movff	tblptrl,fsr1l
  3340  005B7A  CFF7 FFE2          	movff	tblptrh,fsr1h
  3341  005B7E  50E7               	movf	indf1,w,c
  3342  005B80                     i2u577_40:
  3343  005B80  0900               	iorlw	0
  3344  005B82  B4D8               	btfsc	status,2,c
  3345  005B84  0012               	return	
  3346  005B86  D7D4               	goto	i2l5363
  3347  005B88                     __end_ofi2_Send2Lcd:
  3348                           	opt callstack 0
  3349                           
  3350 ;; *************** function i2_Data *****************
  3351 ;; Defined at:
  3352 ;;		line 28 in file "setting_hardaware/LCD.c"
  3353 ;; Parameters:    Size  Location     Type
  3354 ;;  Value           2    0[COMRAM] int 
  3355 ;; Auto vars:     Size  Location     Type
  3356 ;;		None
  3357 ;; Return value:  Size  Location     Type
  3358 ;;                  1    wreg      void 
  3359 ;; Registers used:
  3360 ;;		wreg
  3361 ;; Tracked objects:
  3362 ;;		On entry : 0/0
  3363 ;;		On exit  : 0/0
  3364 ;;		Unchanged: 0/0
  3365 ;; Data sizes:     COMRAM   BANK0   BANK1   BANK2   BANK3   BANK4   BANK5
  3366 ;;      Params:         2       0       0       0       0       0       0
  3367 ;;      Locals:         0       0       0       0       0       0       0
  3368 ;;      Temps:          1       0       0       0       0       0       0
  3369 ;;      Totals:         3       0       0       0       0       0       0
  3370 ;;Total ram usage:        3 bytes
  3371 ;; Hardware stack levels used:    1
  3372 ;; This function calls:
  3373 ;;		Nothing
  3374 ;; This function is called by:
  3375 ;;		i2_Send2Lcd
  3376 ;; This function uses a non-reentrant model
  3377 ;;
  3378                           
  3379                           	psect	text20
  3380  005E5C                     __ptext20:
  3381                           	opt callstack 0
  3382  005E5C                     i2_Data:
  3383                           	opt callstack 21
  3384                           
  3385                           ;setting_hardaware/LCD.c: 28: void Data(int Value);setting_hardaware/LCD.c: 29: {;settin
      +                          g_hardaware/LCD.c: 30:  LATD = Value;
  3386                           
  3387                           ;incstack = 0
  3388  005E5C  C001  FF8C         	movff	i2Data@Value,3980	;volatile
  3389                           
  3390                           ;setting_hardaware/LCD.c: 31:  LATCbits.LC4=1;
  3391  005E60  888B               	bsf	139,4,c	;volatile
  3392                           
  3393                           ;setting_hardaware/LCD.c: 33:  LATCbits.LC6=0;
  3394  005E62  9C8B               	bcf	139,6,c	;volatile
  3395                           
  3396                           ;setting_hardaware/LCD.c: 34:  _delay((unsigned long)((25)*(4000000/4000000.0)));
  3397  005E64  0E08               	movlw	8
  3398  005E66                     i2u602_47:
  3399  005E66  2EE8               	decfsz	wreg,f,c
  3400  005E68  D7FE               	bra	i2u602_47
  3401  005E6A  F000               	nop	
  3402                           
  3403                           ;setting_hardaware/LCD.c: 35:  LATCbits.LC6=1;
  3404  005E6C  8C8B               	bsf	139,6,c	;volatile
  3405                           
  3406                           ;setting_hardaware/LCD.c: 36:  _delay((unsigned long)((25)*(4000000/4000000.0)));
  3407  005E6E  0E08               	movlw	8
  3408  005E70                     i2u603_47:
  3409  005E70  2EE8               	decfsz	wreg,f,c
  3410  005E72  D7FE               	bra	i2u603_47
  3411  005E74  F000               	nop	
  3412                           
  3413                           ;setting_hardaware/LCD.c: 37:  LATCbits.LC6=0;
  3414  005E76  9C8B               	bcf	139,6,c	;volatile
  3415                           
  3416                           ;setting_hardaware/LCD.c: 38:  _delay((unsigned long)((3)*(4000000/4000.0)));
  3417  005E78  0E04               	movlw	4
  3418  005E7A  6E03               	movwf	??i2_Data^0,c
  3419  005E7C  0EE4               	movlw	228
  3420  005E7E                     i2u604_47:
  3421  005E7E  2EE8               	decfsz	wreg,f,c
  3422  005E80  D7FE               	bra	i2u604_47
  3423  005E82  2E03               	decfsz	??i2_Data^0,f,c
  3424  005E84  D7FC               	bra	i2u604_47
  3425  005E86  D000               	nop2	
  3426  005E88  0012               	return		;funcret
  3427  005E8A                     __end_ofi2_Data:
  3428                           	opt callstack 0
  3429                           
  3430 ;; *************** function _sprintf *****************
  3431 ;; Defined at:
  3432 ;;		line 9 in file "C:\Program Files (x86)\Microchip\xc8\v2.10\pic\sources\c99\common\nf_sprintf.c"
  3433 ;; Parameters:    Size  Location     Type
  3434 ;;  s               2   77[BANK0 ] PTR unsigned char 
  3435 ;;		 -> r(100), 
  3436 ;;  fmt             2   79[BANK0 ] PTR const unsigned char 
  3437 ;;		 -> STR_4(9), STR_3(19), 
  3438 ;; Auto vars:     Size  Location     Type
  3439 ;;  f               6   93[BANK0 ] struct _IO_FILE
  3440 ;;  ap              2   91[BANK0 ] PTR void [1]
  3441 ;;		 -> ?_sprintf(2), 
  3442 ;;  ret             2    0        int 
  3443 ;; Return value:  Size  Location     Type
  3444 ;;                  2   77[BANK0 ] int 
  3445 ;; Registers used:
  3446 ;;		wreg, fsr1l, fsr1h, fsr2l, fsr2h, status,2, status,0, tblptrl, tblptrh, tblptru, prodl, prodh, cstack
  3447 ;; Tracked objects:
  3448 ;;		On entry : 0/0
  3449 ;;		On exit  : 0/0
  3450 ;;		Unchanged: 0/0
  3451 ;; Data sizes:     COMRAM   BANK0   BANK1   BANK2   BANK3   BANK4   BANK5
  3452 ;;      Params:         0      12       0       0       0       0       0
  3453 ;;      Locals:         0      10       0       0       0       0       0
  3454 ;;      Temps:          0       0       0       0       0       0       0
  3455 ;;      Totals:         0      22       0       0       0       0       0
  3456 ;;Total ram usage:       22 bytes
  3457 ;; Hardware stack levels used:    1
  3458 ;; Hardware stack levels required when called:    7
  3459 ;; This function calls:
  3460 ;;		_vfprintf
  3461 ;; This function is called by:
  3462 ;;		_Hi_ISR
  3463 ;; This function uses a non-reentrant model
  3464 ;;
  3465                           
  3466                           	psect	text21
  3467  005BDE                     __ptext21:
  3468                           	opt callstack 0
  3469  005BDE                     _sprintf:
  3470                           	opt callstack 15
  3471                           
  3472                           ;incstack = 0
  3473  005BDE  0ED1               	movlw	low (?_sprintf+4)
  3474  005BE0  0100               	movlb	0	; () banked
  3475  005BE2  6FDB               	movwf	sprintf@ap& (0+255),b
  3476  005BE4  0E00               	movlw	high (?_sprintf+4)
  3477  005BE6  6FDC               	movwf	(sprintf@ap+1)& (0+255),b
  3478  005BE8  C0CD  F0DD         	movff	sprintf@s,sprintf@f
  3479  005BEC  C0CE  F0DE         	movff	sprintf@s+1,sprintf@f+1
  3480                           
  3481                           ; BSR set to: 0
  3482  005BF0  0E00               	movlw	0
  3483  005BF2  6FE0               	movwf	(sprintf@f+3)& (0+255),b
  3484  005BF4  0E00               	movlw	0
  3485  005BF6  6FDF               	movwf	(sprintf@f+2)& (0+255),b
  3486                           
  3487                           ; BSR set to: 0
  3488  005BF8  0E00               	movlw	0
  3489  005BFA  6FE2               	movwf	(sprintf@f+5)& (0+255),b
  3490  005BFC  0E00               	movlw	0
  3491  005BFE  6FE1               	movwf	(sprintf@f+4)& (0+255),b
  3492                           
  3493                           ; BSR set to: 0
  3494  005C00  0EDD               	movlw	low sprintf@f
  3495  005C02  6E54               	movwf	vfprintf@fp^0,c
  3496  005C04  0E00               	movlw	high sprintf@f
  3497  005C06  6E55               	movwf	(vfprintf@fp+1)^0,c
  3498  005C08  C0CF  F056         	movff	sprintf@fmt,vfprintf@fmt
  3499  005C0C  C0D0  F057         	movff	sprintf@fmt+1,vfprintf@fmt+1
  3500  005C10  0EDB               	movlw	low sprintf@ap
  3501  005C12  6E58               	movwf	vfprintf@ap^0,c
  3502  005C14  0E00               	movlw	high sprintf@ap
  3503  005C16  6E59               	movwf	(vfprintf@ap+1)^0,c
  3504  005C18  ECC4  F02D         	call	_vfprintf	;wreg free
  3505  005C1C  0100               	movlb	0	; () banked
  3506  005C1E  51DF               	movf	(sprintf@f+2)& (0+255),w,b
  3507  005C20  25CD               	addwf	sprintf@s& (0+255),w,b
  3508  005C22  6ED9               	movwf	fsr2l,c
  3509  005C24  51E0               	movf	(sprintf@f+3)& (0+255),w,b
  3510  005C26  21CE               	addwfc	(sprintf@s+1)& (0+255),w,b
  3511  005C28  6EDA               	movwf	fsr2h,c
  3512  005C2A  0E00               	movlw	0
  3513  005C2C  6EDF               	movwf	indf2,c
  3514                           
  3515                           ; BSR set to: 0
  3516  005C2E  0012               	return		;funcret
  3517  005C30                     __end_of_sprintf:
  3518                           	opt callstack 0
  3519                           
  3520 ;; *************** function _vfprintf *****************
  3521 ;; Defined at:
  3522 ;;		line 1368 in file "C:\Program Files (x86)\Microchip\xc8\v2.10\pic\sources\c99\common\doprnt.c"
  3523 ;; Parameters:    Size  Location     Type
  3524 ;;  fp              2   83[COMRAM] PTR struct _IO_FILE
  3525 ;;		 -> sprintf@f(6), 
  3526 ;;  fmt             2   85[COMRAM] PTR const unsigned char 
  3527 ;;		 -> STR_4(9), STR_3(19), 
  3528 ;;  ap              2   87[COMRAM] PTR PTR void 
  3529 ;;		 -> sprintf@ap(2), 
  3530 ;; Auto vars:     Size  Location     Type
  3531 ;;  cfmt            2   89[COMRAM] PTR unsigned char 
  3532 ;;		 -> STR_4(9), STR_3(19), 
  3533 ;; Return value:  Size  Location     Type
  3534 ;;                  2   83[COMRAM] int 
  3535 ;; Registers used:
  3536 ;;		wreg, fsr1l, fsr1h, fsr2l, fsr2h, status,2, status,0, tblptrl, tblptrh, tblptru, prodl, prodh, cstack
  3537 ;; Tracked objects:
  3538 ;;		On entry : 0/0
  3539 ;;		On exit  : 0/0
  3540 ;;		Unchanged: 0/0
  3541 ;; Data sizes:     COMRAM   BANK0   BANK1   BANK2   BANK3   BANK4   BANK5
  3542 ;;      Params:         6       0       0       0       0       0       0
  3543 ;;      Locals:         2       0       0       0       0       0       0
  3544 ;;      Temps:          0       0       0       0       0       0       0
  3545 ;;      Totals:         8       0       0       0       0       0       0
  3546 ;;Total ram usage:        8 bytes
  3547 ;; Hardware stack levels used:    1
  3548 ;; Hardware stack levels required when called:    6
  3549 ;; This function calls:
  3550 ;;		_vfpfcnvrt
  3551 ;; This function is called by:
  3552 ;;		_sprintf
  3553 ;; This function uses a non-reentrant model
  3554 ;;
  3555                           
  3556                           	psect	text22
  3557  005B88                     __ptext22:
  3558                           	opt callstack 0
  3559  005B88                     _vfprintf:
  3560                           	opt callstack 15
  3561                           
  3562                           ;C:\Program Files (x86)\Microchip\xc8\v2.10\pic\sources\c99\common\doprnt.c: 1368: int v
      +                          fprintf(FILE *fp, const char *fmt, va_list ap);C:\Program Files (x86)\Microchip\xc8\v2.1
      +                          0\pic\sources\c99\common\doprnt.c: 1369: {;C:\Program Files (x86)\Microchip\xc8\v2.10\pi
      +                          c\sources\c99\common\doprnt.c: 1371:     char *cfmt;;C:\Program Files (x86)\Microchip\xc
      +                          8\v2.10\pic\sources\c99\common\doprnt.c: 1373:     cfmt = (char *)fmt;
  3563                           
  3564                           ; BSR set to: 0
  3565                           ;incstack = 0
  3566  005B88  C056  F05A         	movff	vfprintf@fmt,vfprintf@cfmt
  3567  005B8C  C057  F05B         	movff	vfprintf@fmt+1,vfprintf@cfmt+1
  3568                           
  3569                           ;C:\Program Files (x86)\Microchip\xc8\v2.10\pic\sources\c99\common\doprnt.c: 1374:     n
      +                          out = 0;
  3570  005B90  0E00               	movlw	0
  3571  005B92  0101               	movlb	1	; () banked
  3572  005B94  6FDE               	movwf	(_nout+1)& (0+255),b
  3573  005B96  0E00               	movlw	0
  3574  005B98  6FDD               	movwf	_nout& (0+255),b
  3575                           
  3576                           ;C:\Program Files (x86)\Microchip\xc8\v2.10\pic\sources\c99\common\doprnt.c: 1375:     w
      +                          hile (*cfmt) {
  3577  005B9A  D013               	goto	i2l5167
  3578  005B9C                     i2l5165:
  3579                           
  3580                           ; BSR set to: 1
  3581                           ;C:\Program Files (x86)\Microchip\xc8\v2.10\pic\sources\c99\common\doprnt.c: 1376:      
      +                             nout += vfpfcnvrt(fp, &cfmt, ap);
  3582  005B9C  C054  F040         	movff	vfprintf@fp,vfpfcnvrt@fp
  3583  005BA0  C055  F041         	movff	vfprintf@fp+1,vfpfcnvrt@fp+1
  3584  005BA4  0E5A               	movlw	low vfprintf@cfmt
  3585  005BA6  6E42               	movwf	vfpfcnvrt@fmt^0,c
  3586  005BA8  0E00               	movlw	high vfprintf@cfmt
  3587  005BAA  6E43               	movwf	(vfpfcnvrt@fmt+1)^0,c
  3588  005BAC  C058  F044         	movff	vfprintf@ap,vfpfcnvrt@ap
  3589  005BB0  C059  F045         	movff	vfprintf@ap+1,vfpfcnvrt@ap+1
  3590  005BB4  EC8F  F022         	call	_vfpfcnvrt	;wreg free
  3591  005BB8  5040               	movf	?_vfpfcnvrt^0,w,c
  3592  005BBA  0101               	movlb	1	; () banked
  3593  005BBC  27DD               	addwf	_nout& (0+255),f,b
  3594  005BBE  5041               	movf	(?_vfpfcnvrt+1)^0,w,c
  3595  005BC0  23DE               	addwfc	(_nout+1)& (0+255),f,b
  3596  005BC2                     i2l5167:
  3597                           
  3598                           ; BSR set to: 1
  3599                           ;C:\Program Files (x86)\Microchip\xc8\v2.10\pic\sources\c99\common\doprnt.c: 1375:     w
      +                          hile (*cfmt) {
  3600  005BC2  C05A  FFF6         	movff	vfprintf@cfmt,tblptrl
  3601  005BC6  C05B  FFF7         	movff	vfprintf@cfmt+1,tblptrh
  3602  005BCA                     	if	0	;tblptru may be non-zero
  3603  005BCA                     	endif
  3604  005BCA                     	if	0	;tblptru may be non-zero
  3605  005BCA                     	endif
  3606  005BCA  0008               	tblrd		*
  3607  005BCC  50F5               	movf	tablat,w,c
  3608  005BCE  0900               	iorlw	0
  3609  005BD0  A4D8               	btfss	status,2,c
  3610  005BD2  D7E4               	goto	i2l5165
  3611                           
  3612                           ; BSR set to: 1
  3613                           ;C:\Program Files (x86)\Microchip\xc8\v2.10\pic\sources\c99\common\doprnt.c: 1378:     r
      +                          eturn nout;
  3614  005BD4  C1DD  F054         	movff	_nout,?_vfprintf
  3615  005BD8  C1DE  F055         	movff	_nout+1,?_vfprintf+1
  3616                           
  3617                           ; BSR set to: 1
  3618  005BDC  0012               	return		;funcret
  3619  005BDE                     __end_of_vfprintf:
  3620                           	opt callstack 0
  3621                           
  3622 ;; *************** function _vfpfcnvrt *****************
  3623 ;; Defined at:
  3624 ;;		line 670 in file "C:\Program Files (x86)\Microchip\xc8\v2.10\pic\sources\c99\common\doprnt.c"
  3625 ;; Parameters:    Size  Location     Type
  3626 ;;  fp              2   63[COMRAM] PTR struct _IO_FILE
  3627 ;;		 -> sprintf@f(6), 
  3628 ;;  fmt             2   65[COMRAM] PTR PTR unsigned char 
  3629 ;;		 -> vfprintf@cfmt(2), 
  3630 ;;  ap              2   67[COMRAM] PTR PTR void 
  3631 ;;		 -> sprintf@ap(2), 
  3632 ;; Auto vars:     Size  Location     Type
  3633 ;;  ll              8   73[COMRAM] long long 
  3634 ;;  llu             8    0        unsigned long long 
  3635 ;;  f               4    0        unsigned long long 
  3636 ;;  vp              3    0        PTR void 
  3637 ;;  ct              3    0        unsigned char [3]
  3638 ;;  cp              3    0        PTR unsigned char 
  3639 ;;  i               2    0        int 
  3640 ;;  done            2    0        int 
  3641 ;;  c               1    0        unsigned char 
  3642 ;; Return value:  Size  Location     Type
  3643 ;;                  2   63[COMRAM] int 
  3644 ;; Registers used:
  3645 ;;		wreg, fsr1l, fsr1h, fsr2l, fsr2h, status,2, status,0, tblptrl, tblptrh, tblptru, prodl, prodh, cstack
  3646 ;; Tracked objects:
  3647 ;;		On entry : 0/0
  3648 ;;		On exit  : 0/0
  3649 ;;		Unchanged: 0/0
  3650 ;; Data sizes:     COMRAM   BANK0   BANK1   BANK2   BANK3   BANK4   BANK5
  3651 ;;      Params:         6       0       0       0       0       0       0
  3652 ;;      Locals:        10       0       0       0       0       0       0
  3653 ;;      Temps:          4       0       0       0       0       0       0
  3654 ;;      Totals:        20       0       0       0       0       0       0
  3655 ;;Total ram usage:       20 bytes
  3656 ;; Hardware stack levels used:    1
  3657 ;; Hardware stack levels required when called:    5
  3658 ;; This function calls:
  3659 ;;		_atoi
  3660 ;;		_dtoa
  3661 ;;		_fputc
  3662 ;;		_isdigit
  3663 ;; This function is called by:
  3664 ;;		_vfprintf
  3665 ;; This function uses a non-reentrant model
  3666 ;;
  3667                           
  3668                           	psect	text23
  3669  00451E                     __ptext23:
  3670                           	opt callstack 0
  3671  00451E                     _vfpfcnvrt:
  3672                           	opt callstack 15
  3673                           
  3674                           ;C:\Program Files (x86)\Microchip\xc8\v2.10\pic\sources\c99\common\doprnt.c: 670: static
      +                           int vfpfcnvrt(FILE *fp, char *fmt[], va_list ap);C:\Program Files (x86)\Microchip\xc8\v
      +                          2.10\pic\sources\c99\common\doprnt.c: 671: {;C:\Program Files (x86)\Microchip\xc8\v2.10\
      +                          pic\sources\c99\common\doprnt.c: 672:     char c, *cp, ct[3];;C:\Program Files (x86)\Mic
      +                          rochip\xc8\v2.10\pic\sources\c99\common\doprnt.c: 673:     int done, i;;C:\Program Files
      +                           (x86)\Microchip\xc8\v2.10\pic\sources\c99\common\doprnt.c: 674:     long long ll;
  3675                           
  3676                           ; BSR set to: 1
  3677                           ;incstack = 0
  3678  00451E  C042  FFD9         	movff	vfpfcnvrt@fmt,fsr2l
  3679  004522  C043  FFDA         	movff	vfpfcnvrt@fmt+1,fsr2h
  3680  004526  CFDE FFF6          	movff	postinc2,tblptrl
  3681  00452A  CFDD FFF7          	movff	postdec2,tblptrh
  3682  00452E                     	if	0	;tblptru may be non-zero
  3683  00452E                     	endif
  3684  00452E                     	if	0	;tblptru may be non-zero
  3685  00452E                     	endif
  3686  00452E  0008               	tblrd		*
  3687  004530  50F5               	movf	tablat,w,c
  3688  004532  0A25               	xorlw	37
  3689  004534  A4D8               	btfss	status,2,c
  3690  004536  D107               	goto	i2l5079
  3691                           
  3692                           ;C:\Program Files (x86)\Microchip\xc8\v2.10\pic\sources\c99\common\doprnt.c: 681:       
      +                            ++*fmt;
  3693  004538  C042  FFD9         	movff	vfpfcnvrt@fmt,fsr2l
  3694  00453C  C043  FFDA         	movff	vfpfcnvrt@fmt+1,fsr2h
  3695  004540  2ADE               	incf	postinc2,f,c
  3696  004542  0E00               	movlw	0
  3697  004544  22DD               	addwfc	postdec2,f,c
  3698                           
  3699                           ;C:\Program Files (x86)\Microchip\xc8\v2.10\pic\sources\c99\common\doprnt.c: 683:       
      +                            flags = width = 0;
  3700  004546  0E00               	movlw	0
  3701  004548  0101               	movlb	1	; () banked
  3702  00454A  6FE0               	movwf	(_width+1)& (0+255),b
  3703  00454C  0E00               	movlw	0
  3704  00454E  6FDF               	movwf	_width& (0+255),b
  3705  004550  C1DF  F0F9         	movff	_width,_flags
  3706  004554  C1E0  F0FA         	movff	_width+1,_flags+1
  3707                           
  3708                           ; BSR set to: 1
  3709                           ;C:\Program Files (x86)\Microchip\xc8\v2.10\pic\sources\c99\common\doprnt.c: 684:       
      +                            prec = -1;
  3710  004558  0100               	movlb	0	; () banked
  3711  00455A  69F7               	setf	_prec& (0+255),b
  3712  00455C  69F8               	setf	(_prec+1)& (0+255),b
  3713                           
  3714                           ; BSR set to: 0
  3715                           ;C:\Program Files (x86)\Microchip\xc8\v2.10\pic\sources\c99\common\doprnt.c: 723:       
      +                            if ((*fmt)[0] == '*') {
  3716  00455E  C042  FFD9         	movff	vfpfcnvrt@fmt,fsr2l
  3717  004562  C043  FFDA         	movff	vfpfcnvrt@fmt+1,fsr2h
  3718  004566  CFDE FFF6          	movff	postinc2,tblptrl
  3719  00456A  CFDD FFF7          	movff	postdec2,tblptrh
  3720  00456E                     	if	0	;tblptru may be non-zero
  3721  00456E                     	endif
  3722  00456E                     	if	0	;tblptru may be non-zero
  3723  00456E                     	endif
  3724  00456E  0008               	tblrd		*
  3725  004570  50F5               	movf	tablat,w,c
  3726  004572  0A2A               	xorlw	42
  3727  004574  A4D8               	btfss	status,2,c
  3728  004576  D026               	goto	i2l5043
  3729                           
  3730                           ; BSR set to: 0
  3731                           ;C:\Program Files (x86)\Microchip\xc8\v2.10\pic\sources\c99\common\doprnt.c: 724:       
      +                                ++*fmt;
  3732  004578  C042  FFD9         	movff	vfpfcnvrt@fmt,fsr2l
  3733  00457C  C043  FFDA         	movff	vfpfcnvrt@fmt+1,fsr2h
  3734  004580  2ADE               	incf	postinc2,f,c
  3735  004582  0E00               	movlw	0
  3736  004584  22DD               	addwfc	postdec2,f,c
  3737                           
  3738                           ;C:\Program Files (x86)\Microchip\xc8\v2.10\pic\sources\c99\common\doprnt.c: 725:       
      +                                width = (*(int *)__va_arg(*(int **)ap, (int)0));
  3739  004586  C044  FFD9         	movff	vfpfcnvrt@ap,fsr2l
  3740  00458A  C045  FFDA         	movff	vfpfcnvrt@ap+1,fsr2h
  3741  00458E  CFDF F046          	movff	indf2,??_vfpfcnvrt
  3742  004592  0E02               	movlw	2
  3743  004594  26DE               	addwf	postinc2,f,c
  3744  004596  CFDF F047          	movff	indf2,??_vfpfcnvrt+1
  3745  00459A  0E00               	movlw	0
  3746  00459C  22DD               	addwfc	postdec2,f,c
  3747  00459E  C046  FFD9         	movff	??_vfpfcnvrt,fsr2l
  3748  0045A2  C047  FFDA         	movff	??_vfpfcnvrt+1,fsr2h
  3749  0045A6  CFDE F1DF          	movff	postinc2,_width
  3750  0045AA  CFDD F1E0          	movff	postdec2,_width+1
  3751                           
  3752                           ; BSR set to: 0
  3753                           ;C:\Program Files (x86)\Microchip\xc8\v2.10\pic\sources\c99\common\doprnt.c: 726:       
      +                                if (width < 0) {
  3754  0045AE  0101               	movlb	1	; () banked
  3755  0045B0  AFE0               	btfss	(_width+1)& (0+255),7,b
  3756  0045B2  D041               	goto	i2u545_40
  3757                           
  3758                           ; BSR set to: 1
  3759                           ;C:\Program Files (x86)\Microchip\xc8\v2.10\pic\sources\c99\common\doprnt.c: 727:       
      +                                    flags |= (1 << 0);
  3760  0045B4  0100               	movlb	0	; () banked
  3761  0045B6  81F9               	bsf	_flags& (0+255),0,b
  3762                           
  3763                           ;C:\Program Files (x86)\Microchip\xc8\v2.10\pic\sources\c99\common\doprnt.c: 728:       
      +                                    width = -width;
  3764  0045B8  0101               	movlb	1	; () banked
  3765  0045BA  6DDF               	negf	_width& (0+255),b
  3766  0045BC  1FE0               	comf	(_width+1)& (0+255),f,b
  3767  0045BE  B0D8               	btfsc	status,0,c
  3768  0045C0  2BE0               	incf	(_width+1)& (0+255),f,b
  3769  0045C2  D039               	goto	i2u545_40
  3770  0045C4                     i2l5043:
  3771                           
  3772                           ; BSR set to: 0
  3773                           ;C:\Program Files (x86)\Microchip\xc8\v2.10\pic\sources\c99\common\doprnt.c: 731:       
      +                                width = atoi(*fmt);
  3774  0045C4  C042  FFD9         	movff	vfpfcnvrt@fmt,fsr2l
  3775  0045C8  C043  FFDA         	movff	vfpfcnvrt@fmt+1,fsr2h
  3776  0045CC  CFDE F008          	movff	postinc2,atoi@s
  3777  0045D0  CFDD F009          	movff	postdec2,atoi@s+1
  3778  0045D4  EC52  F028         	call	_atoi	;wreg free
  3779  0045D8  C008  F1DF         	movff	?_atoi,_width
  3780  0045DC  C009  F1E0         	movff	?_atoi+1,_width+1
  3781                           
  3782                           ;C:\Program Files (x86)\Microchip\xc8\v2.10\pic\sources\c99\common\doprnt.c: 732:       
      +                                while ((0 ? isdigit((*fmt)[0]) : ((unsigned)((*fmt)[0])-'0') < 10)) {
  3783  0045E0  D007               	goto	i2l5047
  3784  0045E2                     i2l5045:
  3785                           
  3786                           ;C:\Program Files (x86)\Microchip\xc8\v2.10\pic\sources\c99\common\doprnt.c: 733:       
      +                                    ++*fmt;
  3787  0045E2  C042  FFD9         	movff	vfpfcnvrt@fmt,fsr2l
  3788  0045E6  C043  FFDA         	movff	vfpfcnvrt@fmt+1,fsr2h
  3789  0045EA  2ADE               	incf	postinc2,f,c
  3790  0045EC  0E00               	movlw	0
  3791  0045EE  22DD               	addwfc	postdec2,f,c
  3792  0045F0                     i2l5047:
  3793  0045F0  0ED0               	movlw	208
  3794  0045F2  6E46               	movwf	??_vfpfcnvrt^0,c
  3795  0045F4  0EFF               	movlw	255
  3796  0045F6  6E47               	movwf	(??_vfpfcnvrt+1)^0,c
  3797  0045F8  C042  FFD9         	movff	vfpfcnvrt@fmt,fsr2l
  3798  0045FC  C043  FFDA         	movff	vfpfcnvrt@fmt+1,fsr2h
  3799  004600  CFDE FFF6          	movff	postinc2,tblptrl
  3800  004604  CFDD FFF7          	movff	postdec2,tblptrh
  3801  004608                     	if	0	;tblptru may be non-zero
  3802  004608                     	endif
  3803  004608                     	if	0	;tblptru may be non-zero
  3804  004608                     	endif
  3805  004608  0008               	tblrd		*
  3806  00460A  50F5               	movf	tablat,w,c
  3807  00460C  6E48               	movwf	(??_vfpfcnvrt+2)^0,c
  3808  00460E  6A49               	clrf	(??_vfpfcnvrt+3)^0,c
  3809  004610  5046               	movf	??_vfpfcnvrt^0,w,c
  3810  004612  2648               	addwf	(??_vfpfcnvrt+2)^0,f,c
  3811  004614  5047               	movf	(??_vfpfcnvrt+1)^0,w,c
  3812  004616  2249               	addwfc	(??_vfpfcnvrt+3)^0,f,c
  3813  004618  5049               	movf	(??_vfpfcnvrt+3)^0,w,c
  3814  00461A  E106               	bnz	i2u543_40
  3815  00461C  0E0A               	movlw	10
  3816  00461E  5C48               	subwf	(??_vfpfcnvrt+2)^0,w,c
  3817  004620  B0D8               	btfsc	status,0,c
  3818  004622  D002               	goto	i2u543_40
  3819  004624  0E01               	movlw	1
  3820  004626  D001               	goto	i2u544_40
  3821  004628                     i2u543_40:
  3822  004628  0E00               	movlw	0
  3823  00462A                     i2u544_40:
  3824  00462A  6E52               	movwf	_vfpfcnvrt$1189^0,c
  3825  00462C  6A53               	clrf	(_vfpfcnvrt$1189+1)^0,c
  3826  00462E  5052               	movf	_vfpfcnvrt$1189^0,w,c
  3827  004630  1053               	iorwf	(_vfpfcnvrt$1189+1)^0,w,c
  3828  004632  A4D8               	btfss	status,2,c
  3829  004634  D7D6               	goto	i2l5045
  3830  004636                     i2u545_40:
  3831                           
  3832                           ;C:\Program Files (x86)\Microchip\xc8\v2.10\pic\sources\c99\common\doprnt.c: 825:       
      +                            if ((*fmt[0] == 'd') || (*fmt[0] == 'i')) {
  3833  004636  C042  FFD9         	movff	vfpfcnvrt@fmt,fsr2l
  3834  00463A  C043  FFDA         	movff	vfpfcnvrt@fmt+1,fsr2h
  3835  00463E  CFDE FFF6          	movff	postinc2,tblptrl
  3836  004642  CFDD FFF7          	movff	postdec2,tblptrh
  3837  004646                     	if	0	;tblptru may be non-zero
  3838  004646                     	endif
  3839  004646                     	if	0	;tblptru may be non-zero
  3840  004646                     	endif
  3841  004646  0008               	tblrd		*
  3842  004648  50F5               	movf	tablat,w,c
  3843  00464A  0A64               	xorlw	100
  3844  00464C  B4D8               	btfsc	status,2,c
  3845  00464E  D00D               	goto	i2u547_40
  3846  004650  C042  FFD9         	movff	vfpfcnvrt@fmt,fsr2l
  3847  004654  C043  FFDA         	movff	vfpfcnvrt@fmt+1,fsr2h
  3848  004658  CFDE FFF6          	movff	postinc2,tblptrl
  3849  00465C  CFDD FFF7          	movff	postdec2,tblptrh
  3850  004660                     	if	0	;tblptru may be non-zero
  3851  004660                     	endif
  3852  004660                     	if	0	;tblptru may be non-zero
  3853  004660                     	endif
  3854  004660  0008               	tblrd		*
  3855  004662  50F5               	movf	tablat,w,c
  3856  004664  0A69               	xorlw	105
  3857  004666  A4D8               	btfss	status,2,c
  3858  004668  D03F               	goto	i2l5063
  3859  00466A                     i2u547_40:
  3860                           
  3861                           ;C:\Program Files (x86)\Microchip\xc8\v2.10\pic\sources\c99\common\doprnt.c: 827:       
      +                                ++*fmt;
  3862  00466A  C042  FFD9         	movff	vfpfcnvrt@fmt,fsr2l
  3863  00466E  C043  FFDA         	movff	vfpfcnvrt@fmt+1,fsr2h
  3864  004672  2ADE               	incf	postinc2,f,c
  3865  004674  0E00               	movlw	0
  3866  004676  22DD               	addwfc	postdec2,f,c
  3867                           
  3868                           ;C:\Program Files (x86)\Microchip\xc8\v2.10\pic\sources\c99\common\doprnt.c: 828:       
      +                                ll = (long long)(*(int *)__va_arg(*(int **)ap, (int)0));
  3869  004678  C044  FFD9         	movff	vfpfcnvrt@ap,fsr2l
  3870  00467C  C045  FFDA         	movff	vfpfcnvrt@ap+1,fsr2h
  3871  004680  CFDF F046          	movff	indf2,??_vfpfcnvrt
  3872  004684  0E02               	movlw	2
  3873  004686  26DE               	addwf	postinc2,f,c
  3874  004688  CFDF F047          	movff	indf2,??_vfpfcnvrt+1
  3875  00468C  0E00               	movlw	0
  3876  00468E  22DD               	addwfc	postdec2,f,c
  3877  004690  C046  FFD9         	movff	??_vfpfcnvrt,fsr2l
  3878  004694  C047  FFDA         	movff	??_vfpfcnvrt+1,fsr2h
  3879  004698  CFDE F04A          	movff	postinc2,vfpfcnvrt@ll
  3880  00469C  CFDD F04B          	movff	postdec2,vfpfcnvrt@ll+1
  3881  0046A0  0E00               	movlw	0
  3882  0046A2  BE4B               	btfsc	(vfpfcnvrt@ll+1)^0,7,c
  3883  0046A4  0EFF               	movlw	-1
  3884  0046A6  6E4C               	movwf	(vfpfcnvrt@ll+2)^0,c
  3885  0046A8  6E4D               	movwf	(vfpfcnvrt@ll+3)^0,c
  3886  0046AA  6E4E               	movwf	(vfpfcnvrt@ll+4)^0,c
  3887  0046AC  6E4F               	movwf	(vfpfcnvrt@ll+5)^0,c
  3888  0046AE  6E50               	movwf	(vfpfcnvrt@ll+6)^0,c
  3889  0046B0  6E51               	movwf	(vfpfcnvrt@ll+7)^0,c
  3890                           
  3891                           ;C:\Program Files (x86)\Microchip\xc8\v2.10\pic\sources\c99\common\doprnt.c: 830:       
      +                                return dtoa(fp, ll);
  3892  0046B2  C040  F01C         	movff	vfpfcnvrt@fp,dtoa@fp
  3893  0046B6  C041  F01D         	movff	vfpfcnvrt@fp+1,dtoa@fp+1
  3894  0046BA  C04A  F01E         	movff	vfpfcnvrt@ll,dtoa@d
  3895  0046BE  C04B  F01F         	movff	vfpfcnvrt@ll+1,dtoa@d+1
  3896  0046C2  C04C  F020         	movff	vfpfcnvrt@ll+2,dtoa@d+2
  3897  0046C6  C04D  F021         	movff	vfpfcnvrt@ll+3,dtoa@d+3
  3898  0046CA  C04E  F022         	movff	vfpfcnvrt@ll+4,dtoa@d+4
  3899  0046CE  C04F  F023         	movff	vfpfcnvrt@ll+5,dtoa@d+5
  3900  0046D2  C050  F024         	movff	vfpfcnvrt@ll+6,dtoa@d+6
  3901  0046D6  C051  F025         	movff	vfpfcnvrt@ll+7,dtoa@d+7
  3902  0046DA  ECE9  F024         	call	_dtoa	;wreg free
  3903  0046DE  C01C  F040         	movff	?_dtoa,?_vfpfcnvrt
  3904  0046E2  C01D  F041         	movff	?_dtoa+1,?_vfpfcnvrt+1
  3905  0046E6  0012               	return	
  3906  0046E8                     i2l5063:
  3907                           
  3908                           ;C:\Program Files (x86)\Microchip\xc8\v2.10\pic\sources\c99\common\doprnt.c: 1350:      
      +                             if ((*fmt)[0] == '%') {
  3909  0046E8  C042  FFD9         	movff	vfpfcnvrt@fmt,fsr2l
  3910  0046EC  C043  FFDA         	movff	vfpfcnvrt@fmt+1,fsr2h
  3911  0046F0  CFDE FFF6          	movff	postinc2,tblptrl
  3912  0046F4  CFDD FFF7          	movff	postdec2,tblptrh
  3913  0046F8                     	if	0	;tblptru may be non-zero
  3914  0046F8                     	endif
  3915  0046F8                     	if	0	;tblptru may be non-zero
  3916  0046F8                     	endif
  3917  0046F8  0008               	tblrd		*
  3918  0046FA  50F5               	movf	tablat,w,c
  3919  0046FC  0A25               	xorlw	37
  3920  0046FE  A4D8               	btfss	status,2,c
  3921  004700  D016               	goto	i2l5073
  3922                           
  3923                           ;C:\Program Files (x86)\Microchip\xc8\v2.10\pic\sources\c99\common\doprnt.c: 1351:      
      +                                 ++*fmt;
  3924  004702  C042  FFD9         	movff	vfpfcnvrt@fmt,fsr2l
  3925  004706  C043  FFDA         	movff	vfpfcnvrt@fmt+1,fsr2h
  3926  00470A  2ADE               	incf	postinc2,f,c
  3927  00470C  0E00               	movlw	0
  3928  00470E  22DD               	addwfc	postdec2,f,c
  3929                           
  3930                           ;C:\Program Files (x86)\Microchip\xc8\v2.10\pic\sources\c99\common\doprnt.c: 1352:      
      +                                 fputc((int)'%', fp);
  3931  004710  0E00               	movlw	0
  3932  004712  6E02               	movwf	(fputc@c+1)^0,c
  3933  004714  0E25               	movlw	37
  3934  004716  6E01               	movwf	fputc@c^0,c
  3935  004718  C040  F003         	movff	vfpfcnvrt@fp,fputc@fp
  3936  00471C  C041  F004         	movff	vfpfcnvrt@fp+1,fputc@fp+1
  3937  004720  EC0D  F02C         	call	_fputc	;wreg free
  3938  004724                     i2l5069:
  3939                           
  3940                           ;C:\Program Files (x86)\Microchip\xc8\v2.10\pic\sources\c99\common\doprnt.c: 1353:      
      +                                 return 1;
  3941  004724  0E00               	movlw	0
  3942  004726  6E41               	movwf	(?_vfpfcnvrt+1)^0,c
  3943  004728  0E01               	movlw	1
  3944  00472A  6E40               	movwf	?_vfpfcnvrt^0,c
  3945  00472C  0012               	return	
  3946  00472E                     i2l5073:
  3947                           
  3948                           ;C:\Program Files (x86)\Microchip\xc8\v2.10\pic\sources\c99\common\doprnt.c: 1357:      
      +                             ++*fmt;
  3949  00472E  C042  FFD9         	movff	vfpfcnvrt@fmt,fsr2l
  3950  004732  C043  FFDA         	movff	vfpfcnvrt@fmt+1,fsr2h
  3951  004736  2ADE               	incf	postinc2,f,c
  3952  004738  0E00               	movlw	0
  3953  00473A  22DD               	addwfc	postdec2,f,c
  3954                           
  3955                           ;C:\Program Files (x86)\Microchip\xc8\v2.10\pic\sources\c99\common\doprnt.c: 1358:      
      +                             return 0;
  3956  00473C  0E00               	movlw	0
  3957  00473E  6E41               	movwf	(?_vfpfcnvrt+1)^0,c
  3958  004740  0E00               	movlw	0
  3959  004742  6E40               	movwf	?_vfpfcnvrt^0,c
  3960  004744  0012               	return	
  3961  004746                     i2l5079:
  3962                           
  3963                           ;C:\Program Files (x86)\Microchip\xc8\v2.10\pic\sources\c99\common\doprnt.c: 1362:     f
      +                          putc((int)(*fmt)[0], fp);
  3964  004746  C042  FFD9         	movff	vfpfcnvrt@fmt,fsr2l
  3965  00474A  C043  FFDA         	movff	vfpfcnvrt@fmt+1,fsr2h
  3966  00474E  CFDE FFF6          	movff	postinc2,tblptrl
  3967  004752  CFDD FFF7          	movff	postdec2,tblptrh
  3968  004756                     	if	0	;tblptru may be non-zero
  3969  004756                     	endif
  3970  004756                     	if	0	;tblptru may be non-zero
  3971  004756                     	endif
  3972  004756  0008               	tblrd		*
  3973  004758  50F5               	movf	tablat,w,c
  3974  00475A  6E01               	movwf	fputc@c^0,c
  3975  00475C  6A02               	clrf	(fputc@c+1)^0,c
  3976  00475E  C040  F003         	movff	vfpfcnvrt@fp,fputc@fp
  3977  004762  C041  F004         	movff	vfpfcnvrt@fp+1,fputc@fp+1
  3978  004766  EC0D  F02C         	call	_fputc	;wreg free
  3979                           
  3980                           ;C:\Program Files (x86)\Microchip\xc8\v2.10\pic\sources\c99\common\doprnt.c: 1363:     +
      +                          +*fmt;
  3981  00476A  C042  FFD9         	movff	vfpfcnvrt@fmt,fsr2l
  3982  00476E  C043  FFDA         	movff	vfpfcnvrt@fmt+1,fsr2h
  3983  004772  2ADE               	incf	postinc2,f,c
  3984  004774  0E00               	movlw	0
  3985  004776  22DD               	addwfc	postdec2,f,c
  3986  004778  D7D5               	goto	i2l5069
  3987  00477A                     __end_of_vfpfcnvrt:
  3988                           	opt callstack 0
  3989                           
  3990 ;; *************** function _dtoa *****************
  3991 ;; Defined at:
  3992 ;;		line 274 in file "C:\Program Files (x86)\Microchip\xc8\v2.10\pic\sources\c99\common\doprnt.c"
  3993 ;; Parameters:    Size  Location     Type
  3994 ;;  fp              2   27[COMRAM] PTR struct _IO_FILE
  3995 ;;		 -> sprintf@f(6), 
  3996 ;;  d               8   29[COMRAM] long long 
  3997 ;; Auto vars:     Size  Location     Type
  3998 ;;  n               8   53[COMRAM] long long 
  3999 ;;  i               2   61[COMRAM] int 
  4000 ;;  s               2   51[COMRAM] int 
  4001 ;;  w               2   49[COMRAM] int 
  4002 ;;  p               2   47[COMRAM] int 
  4003 ;; Return value:  Size  Location     Type
  4004 ;;                  2   27[COMRAM] int 
  4005 ;; Registers used:
  4006 ;;		wreg, fsr1l, fsr1h, fsr2l, fsr2h, status,2, status,0, cstack
  4007 ;; Tracked objects:
  4008 ;;		On entry : 0/0
  4009 ;;		On exit  : 0/0
  4010 ;;		Unchanged: 0/0
  4011 ;; Data sizes:     COMRAM   BANK0   BANK1   BANK2   BANK3   BANK4   BANK5
  4012 ;;      Params:        10       0       0       0       0       0       0
  4013 ;;      Locals:        18       0       0       0       0       0       0
  4014 ;;      Temps:          8       0       0       0       0       0       0
  4015 ;;      Totals:        36       0       0       0       0       0       0
  4016 ;;Total ram usage:       36 bytes
  4017 ;; Hardware stack levels used:    1
  4018 ;; Hardware stack levels required when called:    4
  4019 ;; This function calls:
  4020 ;;		___aodiv
  4021 ;;		___aomod
  4022 ;;		_abs
  4023 ;;		_pad
  4024 ;; This function is called by:
  4025 ;;		_vfpfcnvrt
  4026 ;; This function uses a non-reentrant model
  4027 ;;
  4028                           
  4029                           	psect	text24
  4030  0049D2                     __ptext24:
  4031                           	opt callstack 0
  4032  0049D2                     _dtoa:
  4033                           	opt callstack 15
  4034                           
  4035                           ;C:\Program Files (x86)\Microchip\xc8\v2.10\pic\sources\c99\common\doprnt.c: 274: static
      +                           int dtoa(FILE *fp, long long d);C:\Program Files (x86)\Microchip\xc8\v2.10\pic\sources\
      +                          c99\common\doprnt.c: 275: {;C:\Program Files (x86)\Microchip\xc8\v2.10\pic\sources\c99\c
      +                          ommon\doprnt.c: 276:     int i, p, s, w;;C:\Program Files (x86)\Microchip\xc8\v2.10\pic\
      +                          sources\c99\common\doprnt.c: 277:     long long n;;C:\Program Files (x86)\Microchip\xc8\
      +                          v2.10\pic\sources\c99\common\doprnt.c: 280:     n = d;
  4036                           
  4037                           ;incstack = 0
  4038  0049D2  C01E  F036         	movff	dtoa@d,dtoa@n
  4039  0049D6  C01F  F037         	movff	dtoa@d+1,dtoa@n+1
  4040  0049DA  C020  F038         	movff	dtoa@d+2,dtoa@n+2
  4041  0049DE  C021  F039         	movff	dtoa@d+3,dtoa@n+3
  4042  0049E2  C022  F03A         	movff	dtoa@d+4,dtoa@n+4
  4043  0049E6  C023  F03B         	movff	dtoa@d+5,dtoa@n+5
  4044  0049EA  C024  F03C         	movff	dtoa@d+6,dtoa@n+6
  4045  0049EE  C025  F03D         	movff	dtoa@d+7,dtoa@n+7
  4046                           
  4047                           ;C:\Program Files (x86)\Microchip\xc8\v2.10\pic\sources\c99\common\doprnt.c: 281:     s 
      +                          = n < 0 ? 1 : 0;
  4048  0049F2  AE3D               	btfss	(dtoa@n+7)^0,7,c
  4049  0049F4  D002               	goto	i2u508_40
  4050  0049F6  0E01               	movlw	1
  4051  0049F8  D001               	goto	i2u509_40
  4052  0049FA                     i2u508_40:
  4053  0049FA  0E00               	movlw	0
  4054  0049FC                     i2u509_40:
  4055  0049FC  6E34               	movwf	dtoa@s^0,c
  4056  0049FE  6A35               	clrf	(dtoa@s+1)^0,c
  4057                           
  4058                           ;C:\Program Files (x86)\Microchip\xc8\v2.10\pic\sources\c99\common\doprnt.c: 282:     if
      +                           (s) {
  4059  004A00  5034               	movf	dtoa@s^0,w,c
  4060  004A02  1035               	iorwf	(dtoa@s+1)^0,w,c
  4061  004A04  B4D8               	btfsc	status,2,c
  4062  004A06  D010               	goto	i2l4861
  4063                           
  4064                           ;C:\Program Files (x86)\Microchip\xc8\v2.10\pic\sources\c99\common\doprnt.c: 283:       
      +                            n = -n;
  4065  004A08  1E3D               	comf	(dtoa@n+7)^0,f,c
  4066  004A0A  1E3C               	comf	(dtoa@n+6)^0,f,c
  4067  004A0C  1E3B               	comf	(dtoa@n+5)^0,f,c
  4068  004A0E  1E3A               	comf	(dtoa@n+4)^0,f,c
  4069  004A10  1E39               	comf	(dtoa@n+3)^0,f,c
  4070  004A12  1E38               	comf	(dtoa@n+2)^0,f,c
  4071  004A14  1E37               	comf	(dtoa@n+1)^0,f,c
  4072  004A16  6C36               	negf	dtoa@n^0,c
  4073  004A18  0E00               	movlw	0
  4074  004A1A  2237               	addwfc	(dtoa@n+1)^0,f,c
  4075  004A1C  2238               	addwfc	(dtoa@n+2)^0,f,c
  4076  004A1E  2239               	addwfc	(dtoa@n+3)^0,f,c
  4077  004A20  223A               	addwfc	(dtoa@n+4)^0,f,c
  4078  004A22  223B               	addwfc	(dtoa@n+5)^0,f,c
  4079  004A24  223C               	addwfc	(dtoa@n+6)^0,f,c
  4080  004A26  223D               	addwfc	(dtoa@n+7)^0,f,c
  4081  004A28                     i2l4861:
  4082                           
  4083                           ;C:\Program Files (x86)\Microchip\xc8\v2.10\pic\sources\c99\common\doprnt.c: 287:     if
      +                           (!(prec < 0)) {
  4084  004A28  0100               	movlb	0	; () banked
  4085  004A2A  AFF8               	btfss	(_prec+1)& (0+255),7,b
  4086                           
  4087                           ; BSR set to: 0
  4088                           ;C:\Program Files (x86)\Microchip\xc8\v2.10\pic\sources\c99\common\doprnt.c: 288:       
      +                            flags &= ~(1 << 1);
  4089  004A2C  93F9               	bcf	_flags& (0+255),1,b
  4090                           
  4091                           ; BSR set to: 0
  4092                           ;C:\Program Files (x86)\Microchip\xc8\v2.10\pic\sources\c99\common\doprnt.c: 290:     p 
      +                          = (0 < prec) ? prec : 1;
  4093  004A2E  BFF8               	btfsc	(_prec+1)& (0+255),7,b
  4094  004A30  D005               	goto	i2u512_40
  4095  004A32  51F8               	movf	(_prec+1)& (0+255),w,b
  4096  004A34  E108               	bnz	i2l358
  4097  004A36  05F7               	decf	_prec& (0+255),w,b
  4098  004A38  B0D8               	btfsc	status,0,c
  4099  004A3A  D005               	goto	i2l358
  4100  004A3C                     i2u512_40:
  4101                           
  4102                           ; BSR set to: 0
  4103  004A3C  0E00               	movlw	0
  4104  004A3E  6E31               	movwf	(dtoa@p+1)^0,c
  4105  004A40  0E01               	movlw	1
  4106  004A42  6E30               	movwf	dtoa@p^0,c
  4107  004A44  D004               	goto	i2l360
  4108  004A46                     i2l358:
  4109                           
  4110                           ; BSR set to: 0
  4111  004A46  C0F7  F030         	movff	_prec,dtoa@p
  4112  004A4A  C0F8  F031         	movff	_prec+1,dtoa@p+1
  4113  004A4E                     i2l360:
  4114                           
  4115                           ; BSR set to: 0
  4116                           ;C:\Program Files (x86)\Microchip\xc8\v2.10\pic\sources\c99\common\doprnt.c: 291:     w 
      +                          = width;
  4117  004A4E  C1DF  F032         	movff	_width,dtoa@w
  4118  004A52  C1E0  F033         	movff	_width+1,dtoa@w+1
  4119                           
  4120                           ; BSR set to: 0
  4121                           ;C:\Program Files (x86)\Microchip\xc8\v2.10\pic\sources\c99\common\doprnt.c: 292:     if
      +                           (s || (flags & (1 << 2))) {
  4122  004A56  5034               	movf	dtoa@s^0,w,c
  4123  004A58  1035               	iorwf	(dtoa@s+1)^0,w,c
  4124  004A5A  A4D8               	btfss	status,2,c
  4125  004A5C  D002               	goto	i2u514_40
  4126                           
  4127                           ; BSR set to: 0
  4128  004A5E  A5F9               	btfss	_flags& (0+255),2,b
  4129  004A60  D003               	goto	i2l4875
  4130  004A62                     i2u514_40:
  4131                           
  4132                           ; BSR set to: 0
  4133                           ;C:\Program Files (x86)\Microchip\xc8\v2.10\pic\sources\c99\common\doprnt.c: 293:       
      +                            --w;
  4134  004A62  0632               	decf	dtoa@w^0,f,c
  4135  004A64  A0D8               	btfss	status,0,c
  4136  004A66  0633               	decf	(dtoa@w+1)^0,f,c
  4137  004A68                     i2l4875:
  4138                           
  4139                           ; BSR set to: 0
  4140                           ;C:\Program Files (x86)\Microchip\xc8\v2.10\pic\sources\c99\common\doprnt.c: 297:     i 
      +                          = sizeof(dbuf) - 1;
  4141  004A68  0E00               	movlw	0
  4142  004A6A  6E3F               	movwf	(dtoa@i+1)^0,c
  4143  004A6C  0E1F               	movlw	31
  4144  004A6E  6E3E               	movwf	dtoa@i^0,c
  4145                           
  4146                           ; BSR set to: 0
  4147                           ;C:\Program Files (x86)\Microchip\xc8\v2.10\pic\sources\c99\common\doprnt.c: 298:     db
      +                          uf[i] = '\0';
  4148  004A70  0E00               	movlw	0
  4149  004A72  0102               	movlb	2	; () banked
  4150  004A74  6F85               	movwf	(_dbuf+31)& (0+255),b
  4151                           
  4152                           ;C:\Program Files (x86)\Microchip\xc8\v2.10\pic\sources\c99\common\doprnt.c: 299:     wh
      +                          ile (!(i < 1) && (n || (0 < p) || ((0 < w) && (flags & (1 << 1))))) {
  4153  004A76  D07C               	goto	i2l4889
  4154  004A78                     i2l4879:
  4155                           
  4156                           ;C:\Program Files (x86)\Microchip\xc8\v2.10\pic\sources\c99\common\doprnt.c: 300:       
      +                            --i;
  4157  004A78  063E               	decf	dtoa@i^0,f,c
  4158  004A7A  A0D8               	btfss	status,0,c
  4159  004A7C  063F               	decf	(dtoa@i+1)^0,f,c
  4160                           
  4161                           ;C:\Program Files (x86)\Microchip\xc8\v2.10\pic\sources\c99\common\doprnt.c: 301:       
      +                            dbuf[i] = '0' + abs(n % 10);
  4162  004A7E  0E66               	movlw	low _dbuf
  4163  004A80  243E               	addwf	dtoa@i^0,w,c
  4164  004A82  6ED9               	movwf	fsr2l,c
  4165  004A84  0E02               	movlw	high _dbuf
  4166  004A86  203F               	addwfc	(dtoa@i+1)^0,w,c
  4167  004A88  6EDA               	movwf	fsr2h,c
  4168  004A8A  C036  F001         	movff	dtoa@n,___aomod@dividend
  4169  004A8E  C037  F002         	movff	dtoa@n+1,___aomod@dividend+1
  4170  004A92  C038  F003         	movff	dtoa@n+2,___aomod@dividend+2
  4171  004A96  C039  F004         	movff	dtoa@n+3,___aomod@dividend+3
  4172  004A9A  C03A  F005         	movff	dtoa@n+4,___aomod@dividend+4
  4173  004A9E  C03B  F006         	movff	dtoa@n+5,___aomod@dividend+5
  4174  004AA2  C03C  F007         	movff	dtoa@n+6,___aomod@dividend+6
  4175  004AA6  C03D  F008         	movff	dtoa@n+7,___aomod@dividend+7
  4176  004AAA  0E0A               	movlw	10
  4177  004AAC  6E09               	movwf	___aomod@divisor^0,c
  4178  004AAE  0E00               	movlw	0
  4179  004AB0  6E0A               	movwf	(___aomod@divisor+1)^0,c
  4180  004AB2  0E00               	movlw	0
  4181  004AB4  6E0B               	movwf	(___aomod@divisor+2)^0,c
  4182  004AB6  0E00               	movlw	0
  4183  004AB8  6E0C               	movwf	(___aomod@divisor+3)^0,c
  4184  004ABA  0E00               	movlw	0
  4185  004ABC  6E0D               	movwf	(___aomod@divisor+4)^0,c
  4186  004ABE  0E00               	movlw	0
  4187  004AC0  6E0E               	movwf	(___aomod@divisor+5)^0,c
  4188  004AC2  0E00               	movlw	0
  4189  004AC4  6E0F               	movwf	(___aomod@divisor+6)^0,c
  4190  004AC6  0E00               	movlw	0
  4191  004AC8  6E10               	movwf	(___aomod@divisor+7)^0,c
  4192  004ACA  EC2B  F02A         	call	___aomod	;wreg free
  4193  004ACE  C001  F026         	movff	?___aomod,??_dtoa
  4194  004AD2  C002  F027         	movff	?___aomod+1,??_dtoa+1
  4195  004AD6  C003  F028         	movff	?___aomod+2,??_dtoa+2
  4196  004ADA  C004  F029         	movff	?___aomod+3,??_dtoa+3
  4197  004ADE  C005  F02A         	movff	?___aomod+4,??_dtoa+4
  4198  004AE2  C006  F02B         	movff	?___aomod+5,??_dtoa+5
  4199  004AE6  C007  F02C         	movff	?___aomod+6,??_dtoa+6
  4200  004AEA  C008  F02D         	movff	?___aomod+7,??_dtoa+7
  4201  004AEE  C026  F013         	movff	??_dtoa,abs@a
  4202  004AF2  C028  F014         	movff	??_dtoa+2,abs@a+1
  4203  004AF6  ECB4  F02E         	call	_abs	;wreg free
  4204  004AFA  5013               	movf	?_abs^0,w,c
  4205  004AFC  0F30               	addlw	48
  4206  004AFE  6EDF               	movwf	indf2,c
  4207                           
  4208                           ;C:\Program Files (x86)\Microchip\xc8\v2.10\pic\sources\c99\common\doprnt.c: 302:       
      +                            --p;
  4209  004B00  0630               	decf	dtoa@p^0,f,c
  4210  004B02  A0D8               	btfss	status,0,c
  4211  004B04  0631               	decf	(dtoa@p+1)^0,f,c
  4212                           
  4213                           ;C:\Program Files (x86)\Microchip\xc8\v2.10\pic\sources\c99\common\doprnt.c: 303:       
      +                            --w;
  4214  004B06  0632               	decf	dtoa@w^0,f,c
  4215  004B08  A0D8               	btfss	status,0,c
  4216  004B0A  0633               	decf	(dtoa@w+1)^0,f,c
  4217                           
  4218                           ;C:\Program Files (x86)\Microchip\xc8\v2.10\pic\sources\c99\common\doprnt.c: 304:       
      +                            n = n / 10;
  4219  004B0C  C036  F001         	movff	dtoa@n,___aodiv@dividend
  4220  004B10  C037  F002         	movff	dtoa@n+1,___aodiv@dividend+1
  4221  004B14  C038  F003         	movff	dtoa@n+2,___aodiv@dividend+2
  4222  004B18  C039  F004         	movff	dtoa@n+3,___aodiv@dividend+3
  4223  004B1C  C03A  F005         	movff	dtoa@n+4,___aodiv@dividend+4
  4224  004B20  C03B  F006         	movff	dtoa@n+5,___aodiv@dividend+5
  4225  004B24  C03C  F007         	movff	dtoa@n+6,___aodiv@dividend+6
  4226  004B28  C03D  F008         	movff	dtoa@n+7,___aodiv@dividend+7
  4227  004B2C  0E0A               	movlw	10
  4228  004B2E  6E09               	movwf	___aodiv@divisor^0,c
  4229  004B30  0E00               	movlw	0
  4230  004B32  6E0A               	movwf	(___aodiv@divisor+1)^0,c
  4231  004B34  0E00               	movlw	0
  4232  004B36  6E0B               	movwf	(___aodiv@divisor+2)^0,c
  4233  004B38  0E00               	movlw	0
  4234  004B3A  6E0C               	movwf	(___aodiv@divisor+3)^0,c
  4235  004B3C  0E00               	movlw	0
  4236  004B3E  6E0D               	movwf	(___aodiv@divisor+4)^0,c
  4237  004B40  0E00               	movlw	0
  4238  004B42  6E0E               	movwf	(___aodiv@divisor+5)^0,c
  4239  004B44  0E00               	movlw	0
  4240  004B46  6E0F               	movwf	(___aodiv@divisor+6)^0,c
  4241  004B48  0E00               	movlw	0
  4242  004B4A  6E10               	movwf	(___aodiv@divisor+7)^0,c
  4243  004B4C  ECAE  F027         	call	___aodiv	;wreg free
  4244  004B50  C001  F036         	movff	?___aodiv,dtoa@n
  4245  004B54  C002  F037         	movff	?___aodiv+1,dtoa@n+1
  4246  004B58  C003  F038         	movff	?___aodiv+2,dtoa@n+2
  4247  004B5C  C004  F039         	movff	?___aodiv+3,dtoa@n+3
  4248  004B60  C005  F03A         	movff	?___aodiv+4,dtoa@n+4
  4249  004B64  C006  F03B         	movff	?___aodiv+5,dtoa@n+5
  4250  004B68  C007  F03C         	movff	?___aodiv+6,dtoa@n+6
  4251  004B6C  C008  F03D         	movff	?___aodiv+7,dtoa@n+7
  4252  004B70                     i2l4889:
  4253                           
  4254                           ;C:\Program Files (x86)\Microchip\xc8\v2.10\pic\sources\c99\common\doprnt.c: 299:     wh
      +                          ile (!(i < 1) && (n || (0 < p) || ((0 < w) && (flags & (1 << 1))))) {
  4255  004B70  BE3F               	btfsc	(dtoa@i+1)^0,7,c
  4256  004B72  D020               	goto	i2u519_40
  4257  004B74  503F               	movf	(dtoa@i+1)^0,w,c
  4258  004B76  E103               	bnz	i2u515_40
  4259  004B78  043E               	decf	dtoa@i^0,w,c
  4260  004B7A  A0D8               	btfss	status,0,c
  4261  004B7C  D01B               	goto	i2u519_40
  4262  004B7E                     i2u515_40:
  4263  004B7E  5036               	movf	dtoa@n^0,w,c
  4264  004B80  1037               	iorwf	(dtoa@n+1)^0,w,c
  4265  004B82  1038               	iorwf	(dtoa@n+2)^0,w,c
  4266  004B84  1039               	iorwf	(dtoa@n+3)^0,w,c
  4267  004B86  103A               	iorwf	(dtoa@n+4)^0,w,c
  4268  004B88  103B               	iorwf	(dtoa@n+5)^0,w,c
  4269  004B8A  103C               	iorwf	(dtoa@n+6)^0,w,c
  4270  004B8C  103D               	iorwf	(dtoa@n+7)^0,w,c
  4271  004B8E  A4D8               	btfss	status,2,c
  4272  004B90  D773               	goto	i2l4879
  4273  004B92  BE31               	btfsc	(dtoa@p+1)^0,7,c
  4274  004B94  D005               	goto	i2u517_40
  4275  004B96  5031               	movf	(dtoa@p+1)^0,w,c
  4276  004B98  E102               	bnz	i2u517_41
  4277  004B9A  0430               	decf	dtoa@p^0,w,c
  4278  004B9C  B0D8               	btfsc	status,0,c
  4279  004B9E                     i2u517_41:
  4280  004B9E  D76C               	goto	i2l4879
  4281  004BA0                     i2u517_40:
  4282  004BA0  BE33               	btfsc	(dtoa@w+1)^0,7,c
  4283  004BA2  D008               	goto	i2u519_40
  4284  004BA4  5033               	movf	(dtoa@w+1)^0,w,c
  4285  004BA6  E103               	bnz	i2u518_40
  4286  004BA8  0432               	decf	dtoa@w^0,w,c
  4287  004BAA  A0D8               	btfss	status,0,c
  4288  004BAC  D003               	goto	i2u519_40
  4289  004BAE                     i2u518_40:
  4290  004BAE  0100               	movlb	0	; () banked
  4291  004BB0  B3F9               	btfsc	_flags& (0+255),1,b
  4292  004BB2  D762               	goto	i2l4879
  4293  004BB4                     i2u519_40:
  4294                           
  4295                           ;C:\Program Files (x86)\Microchip\xc8\v2.10\pic\sources\c99\common\doprnt.c: 308:     if
      +                           (s || (flags & (1 << 2))) {
  4296  004BB4  5034               	movf	dtoa@s^0,w,c
  4297  004BB6  1035               	iorwf	(dtoa@s+1)^0,w,c
  4298  004BB8  A4D8               	btfss	status,2,c
  4299  004BBA  D003               	goto	i2u521_40
  4300  004BBC  0100               	movlb	0	; () banked
  4301  004BBE  A5F9               	btfss	_flags& (0+255),2,b
  4302  004BC0  D017               	goto	i2l4913
  4303  004BC2                     i2u521_40:
  4304                           
  4305                           ;C:\Program Files (x86)\Microchip\xc8\v2.10\pic\sources\c99\common\doprnt.c: 309:       
      +                            --i;
  4306  004BC2  063E               	decf	dtoa@i^0,f,c
  4307  004BC4  A0D8               	btfss	status,0,c
  4308  004BC6  063F               	decf	(dtoa@i+1)^0,f,c
  4309                           
  4310                           ;C:\Program Files (x86)\Microchip\xc8\v2.10\pic\sources\c99\common\doprnt.c: 310:       
      +                            dbuf[i] = s ? '-' : '+';
  4311  004BC8  5034               	movf	dtoa@s^0,w,c
  4312  004BCA  1035               	iorwf	(dtoa@s+1)^0,w,c
  4313  004BCC  A4D8               	btfss	status,2,c
  4314  004BCE  D004               	goto	i2l4909
  4315  004BD0  0E00               	movlw	0
  4316  004BD2  6E2F               	movwf	(_dtoa$1174+1)^0,c
  4317  004BD4  0E2B               	movlw	43
  4318  004BD6  D003               	goto	L2
  4319  004BD8                     i2l4909:
  4320  004BD8  0E00               	movlw	0
  4321  004BDA  6E2F               	movwf	(_dtoa$1174+1)^0,c
  4322  004BDC  0E2D               	movlw	45
  4323  004BDE                     L2:
  4324  004BDE  6E2E               	movwf	_dtoa$1174^0,c
  4325  004BE0  0E66               	movlw	low _dbuf
  4326  004BE2  243E               	addwf	dtoa@i^0,w,c
  4327  004BE4  6ED9               	movwf	fsr2l,c
  4328  004BE6  0E02               	movlw	high _dbuf
  4329  004BE8  203F               	addwfc	(dtoa@i+1)^0,w,c
  4330  004BEA  6EDA               	movwf	fsr2h,c
  4331  004BEC  C02E  FFDF         	movff	_dtoa$1174,indf2
  4332  004BF0                     i2l4913:
  4333                           
  4334                           ;C:\Program Files (x86)\Microchip\xc8\v2.10\pic\sources\c99\common\doprnt.c: 314:     re
      +                          turn pad(fp, &dbuf[i], w);
  4335  004BF0  C01C  F011         	movff	dtoa@fp,pad@fp
  4336  004BF4  C01D  F012         	movff	dtoa@fp+1,pad@fp+1
  4337  004BF8  0E66               	movlw	low _dbuf
  4338  004BFA  243E               	addwf	dtoa@i^0,w,c
  4339  004BFC  6E13               	movwf	pad@buf^0,c
  4340  004BFE  0E02               	movlw	high _dbuf
  4341  004C00  203F               	addwfc	(dtoa@i+1)^0,w,c
  4342  004C02  6E14               	movwf	(pad@buf+1)^0,c
  4343  004C04  C032  F015         	movff	dtoa@w,pad@p
  4344  004C08  C033  F016         	movff	dtoa@w+1,pad@p+1
  4345  004C0C  EC5D  F02C         	call	_pad	;wreg free
  4346  004C10  C011  F01C         	movff	?_pad,?_dtoa
  4347  004C14  C012  F01D         	movff	?_pad+1,?_dtoa+1
  4348  004C18  0012               	return		;funcret
  4349  004C1A                     __end_of_dtoa:
  4350                           	opt callstack 0
  4351                           
  4352 ;; *************** function _pad *****************
  4353 ;; Defined at:
  4354 ;;		line 72 in file "C:\Program Files (x86)\Microchip\xc8\v2.10\pic\sources\c99\common\doprnt.c"
  4355 ;; Parameters:    Size  Location     Type
  4356 ;;  fp              2   16[COMRAM] PTR struct _IO_FILE
  4357 ;;		 -> sprintf@f(6), 
  4358 ;;  buf             2   18[COMRAM] PTR unsigned char 
  4359 ;;		 -> dbuf(32), 
  4360 ;;  p               2   20[COMRAM] int 
  4361 ;; Auto vars:     Size  Location     Type
  4362 ;;  w               2   25[COMRAM] int 
  4363 ;;  i               2   23[COMRAM] int 
  4364 ;; Return value:  Size  Location     Type
  4365 ;;                  2   16[COMRAM] int 
  4366 ;; Registers used:
  4367 ;;		wreg, fsr1l, fsr1h, fsr2l, fsr2h, status,2, status,0, cstack
  4368 ;; Tracked objects:
  4369 ;;		On entry : 0/0
  4370 ;;		On exit  : 0/0
  4371 ;;		Unchanged: 0/0
  4372 ;; Data sizes:     COMRAM   BANK0   BANK1   BANK2   BANK3   BANK4   BANK5
  4373 ;;      Params:         6       0       0       0       0       0       0
  4374 ;;      Locals:         4       0       0       0       0       0       0
  4375 ;;      Temps:          1       0       0       0       0       0       0
  4376 ;;      Totals:        11       0       0       0       0       0       0
  4377 ;;Total ram usage:       11 bytes
  4378 ;; Hardware stack levels used:    1
  4379 ;; Hardware stack levels required when called:    3
  4380 ;; This function calls:
  4381 ;;		_fputc
  4382 ;;		_fputs
  4383 ;;		_strlen
  4384 ;; This function is called by:
  4385 ;;		_dtoa
  4386 ;; This function uses a non-reentrant model
  4387 ;;
  4388                           
  4389                           	psect	text25
  4390  0058BA                     __ptext25:
  4391                           	opt callstack 0
  4392  0058BA                     _pad:
  4393                           	opt callstack 15
  4394                           
  4395                           ;C:\Program Files (x86)\Microchip\xc8\v2.10\pic\sources\c99\common\doprnt.c: 72: static 
      +                          int pad(FILE *fp, char *buf, int p);C:\Program Files (x86)\Microchip\xc8\v2.10\pic\sourc
      +                          es\c99\common\doprnt.c: 73: {;C:\Program Files (x86)\Microchip\xc8\v2.10\pic\sources\c99
      +                          \common\doprnt.c: 74:     int i, w;;C:\Program Files (x86)\Microchip\xc8\v2.10\pic\sourc
      +                          es\c99\common\doprnt.c: 77:     if (flags & (1 << 0)) {
  4396                           
  4397                           ;incstack = 0
  4398  0058BA  0100               	movlb	0	; () banked
  4399  0058BC  A1F9               	btfss	_flags& (0+255),0,b
  4400  0058BE  D00A               	goto	i2l3861
  4401                           
  4402                           ; BSR set to: 0
  4403                           ;C:\Program Files (x86)\Microchip\xc8\v2.10\pic\sources\c99\common\doprnt.c: 78:        
      +                           fputs((const char *)buf, fp);
  4404  0058C0  C013  F00A         	movff	pad@buf,fputs@s
  4405  0058C4  C014  F00B         	movff	pad@buf+1,fputs@s+1
  4406  0058C8  C011  F00C         	movff	pad@fp,fputs@fp
  4407  0058CC  C012  F00D         	movff	pad@fp+1,fputs@fp+1
  4408  0058D0  EC7E  F02E         	call	_fputs	;wreg free
  4409  0058D4                     i2l3861:
  4410                           
  4411                           ;C:\Program Files (x86)\Microchip\xc8\v2.10\pic\sources\c99\common\doprnt.c: 82:     w =
      +                           (p < 0) ? 0 : p;
  4412  0058D4  BE16               	btfsc	(pad@p+1)^0,7,c
  4413  0058D6  D005               	goto	i2l3865
  4414  0058D8  C015  F01A         	movff	pad@p,pad@w
  4415  0058DC  C016  F01B         	movff	pad@p+1,pad@w+1
  4416  0058E0  D004               	goto	i2l347
  4417  0058E2                     i2l3865:
  4418  0058E2  0E00               	movlw	0
  4419  0058E4  6E1B               	movwf	(pad@w+1)^0,c
  4420  0058E6  0E00               	movlw	0
  4421  0058E8  6E1A               	movwf	pad@w^0,c
  4422  0058EA                     i2l347:
  4423                           
  4424                           ;C:\Program Files (x86)\Microchip\xc8\v2.10\pic\sources\c99\common\doprnt.c: 83:     i =
      +                           0;
  4425  0058EA  0E00               	movlw	0
  4426  0058EC  6E19               	movwf	(pad@i+1)^0,c
  4427  0058EE  0E00               	movlw	0
  4428  0058F0  6E18               	movwf	pad@i^0,c
  4429                           
  4430                           ;C:\Program Files (x86)\Microchip\xc8\v2.10\pic\sources\c99\common\doprnt.c: 84:     whi
      +                          le (i < w) {
  4431  0058F2  D00C               	goto	i2l3871
  4432  0058F4                     i2l3867:
  4433                           
  4434                           ;C:\Program Files (x86)\Microchip\xc8\v2.10\pic\sources\c99\common\doprnt.c: 85:        
      +                           fputc(' ', fp);
  4435  0058F4  0E00               	movlw	0
  4436  0058F6  6E02               	movwf	(fputc@c+1)^0,c
  4437  0058F8  0E20               	movlw	32
  4438  0058FA  6E01               	movwf	fputc@c^0,c
  4439  0058FC  C011  F003         	movff	pad@fp,fputc@fp
  4440  005900  C012  F004         	movff	pad@fp+1,fputc@fp+1
  4441  005904  EC0D  F02C         	call	_fputc	;wreg free
  4442                           
  4443                           ;C:\Program Files (x86)\Microchip\xc8\v2.10\pic\sources\c99\common\doprnt.c: 86:        
      +                           ++i;
  4444  005908  4A18               	infsnz	pad@i^0,f,c
  4445  00590A  2A19               	incf	(pad@i+1)^0,f,c
  4446  00590C                     i2l3871:
  4447                           
  4448                           ;C:\Program Files (x86)\Microchip\xc8\v2.10\pic\sources\c99\common\doprnt.c: 84:     whi
      +                          le (i < w) {
  4449  00590C  501A               	movf	pad@w^0,w,c
  4450  00590E  5C18               	subwf	pad@i^0,w,c
  4451  005910  5019               	movf	(pad@i+1)^0,w,c
  4452  005912  0A80               	xorlw	128
  4453  005914  6E17               	movwf	??_pad^0,c
  4454  005916  501B               	movf	(pad@w+1)^0,w,c
  4455  005918  0A80               	xorlw	128
  4456  00591A  5817               	subwfb	??_pad^0,w,c
  4457  00591C  A0D8               	btfss	status,0,c
  4458  00591E  D7EA               	goto	i2l3867
  4459                           
  4460                           ;C:\Program Files (x86)\Microchip\xc8\v2.10\pic\sources\c99\common\doprnt.c: 90:     if 
      +                          (!(flags & (1 << 0))) {
  4461  005920  0100               	movlb	0	; () banked
  4462  005922  B1F9               	btfsc	_flags& (0+255),0,b
  4463  005924  D00A               	goto	i2l3875
  4464                           
  4465                           ; BSR set to: 0
  4466                           ;C:\Program Files (x86)\Microchip\xc8\v2.10\pic\sources\c99\common\doprnt.c: 91:        
      +                           fputs((const char *)buf, fp);
  4467  005926  C013  F00A         	movff	pad@buf,fputs@s
  4468  00592A  C014  F00B         	movff	pad@buf+1,fputs@s+1
  4469  00592E  C011  F00C         	movff	pad@fp,fputs@fp
  4470  005932  C012  F00D         	movff	pad@fp+1,fputs@fp+1
  4471  005936  EC7E  F02E         	call	_fputs	;wreg free
  4472  00593A                     i2l3875:
  4473                           
  4474                           ;C:\Program Files (x86)\Microchip\xc8\v2.10\pic\sources\c99\common\doprnt.c: 94:     ret
      +                          urn strlen(buf) + w;
  4475  00593A  C013  F001         	movff	pad@buf,strlen@s
  4476  00593E  C014  F002         	movff	pad@buf+1,strlen@s+1
  4477  005942  EC73  F02F         	call	_strlen	;wreg free
  4478  005946  501A               	movf	pad@w^0,w,c
  4479  005948  2401               	addwf	?_strlen^0,w,c
  4480  00594A  6E11               	movwf	?_pad^0,c
  4481  00594C  501B               	movf	(pad@w+1)^0,w,c
  4482  00594E  2002               	addwfc	(?_strlen+1)^0,w,c
  4483  005950  6E12               	movwf	(?_pad+1)^0,c
  4484  005952  0012               	return		;funcret
  4485  005954                     __end_of_pad:
  4486                           	opt callstack 0
  4487                           
  4488 ;; *************** function _strlen *****************
  4489 ;; Defined at:
  4490 ;;		line 5 in file "C:\Program Files (x86)\Microchip\xc8\v2.10\pic\sources\c99\common\strlen.c"
  4491 ;; Parameters:    Size  Location     Type
  4492 ;;  s               2    0[COMRAM] PTR const unsigned char 
  4493 ;;		 -> dbuf(32), 
  4494 ;; Auto vars:     Size  Location     Type
  4495 ;;  a               2    2[COMRAM] PTR const unsigned char 
  4496 ;;		 -> dbuf(32), 
  4497 ;; Return value:  Size  Location     Type
  4498 ;;                  2    0[COMRAM] unsigned int 
  4499 ;; Registers used:
  4500 ;;		wreg, fsr2l, fsr2h, status,2, status,0
  4501 ;; Tracked objects:
  4502 ;;		On entry : 0/0
  4503 ;;		On exit  : 0/0
  4504 ;;		Unchanged: 0/0
  4505 ;; Data sizes:     COMRAM   BANK0   BANK1   BANK2   BANK3   BANK4   BANK5
  4506 ;;      Params:         2       0       0       0       0       0       0
  4507 ;;      Locals:         2       0       0       0       0       0       0
  4508 ;;      Temps:          0       0       0       0       0       0       0
  4509 ;;      Totals:         4       0       0       0       0       0       0
  4510 ;;Total ram usage:        4 bytes
  4511 ;; Hardware stack levels used:    1
  4512 ;; This function calls:
  4513 ;;		Nothing
  4514 ;; This function is called by:
  4515 ;;		_pad
  4516 ;; This function uses a non-reentrant model
  4517 ;;
  4518                           
  4519                           	psect	text26
  4520  005EE6                     __ptext26:
  4521                           	opt callstack 0
  4522  005EE6                     _strlen:
  4523                           	opt callstack 17
  4524                           
  4525                           ;incstack = 0
  4526  005EE6  C001  F003         	movff	strlen@s,strlen@a
  4527  005EEA  C002  F004         	movff	strlen@s+1,strlen@a+1
  4528  005EEE  D002               	goto	i2l3491
  4529  005EF0                     i2l3489:
  4530  005EF0  4A01               	infsnz	strlen@s^0,f,c
  4531  005EF2  2A02               	incf	(strlen@s+1)^0,f,c
  4532  005EF4                     i2l3491:
  4533  005EF4  C001  FFD9         	movff	strlen@s,fsr2l
  4534  005EF8  C002  FFDA         	movff	strlen@s+1,fsr2h
  4535  005EFC  50DF               	movf	indf2,w,c
  4536  005EFE  A4D8               	btfss	status,2,c
  4537  005F00  D7F7               	goto	i2l3489
  4538  005F02  5003               	movf	strlen@a^0,w,c
  4539  005F04  5C01               	subwf	strlen@s^0,w,c
  4540  005F06  6E01               	movwf	?_strlen^0,c
  4541  005F08  5004               	movf	(strlen@a+1)^0,w,c
  4542  005F0A  5802               	subwfb	(strlen@s+1)^0,w,c
  4543  005F0C  6E02               	movwf	(?_strlen+1)^0,c
  4544  005F0E  0012               	return		;funcret
  4545  005F10                     __end_of_strlen:
  4546                           	opt callstack 0
  4547                           
  4548 ;; *************** function _fputs *****************
  4549 ;; Defined at:
  4550 ;;		line 8 in file "C:\Program Files (x86)\Microchip\xc8\v2.10\pic\sources\c99\common\nf_fputs.c"
  4551 ;; Parameters:    Size  Location     Type
  4552 ;;  s               2    9[COMRAM] PTR const unsigned char 
  4553 ;;		 -> dbuf(32), 
  4554 ;;  fp              2   11[COMRAM] PTR struct _IO_FILE
  4555 ;;		 -> sprintf@f(6), 
  4556 ;; Auto vars:     Size  Location     Type
  4557 ;;  i               2   14[COMRAM] int 
  4558 ;;  c               1   13[COMRAM] unsigned char 
  4559 ;; Return value:  Size  Location     Type
  4560 ;;                  2    9[COMRAM] int 
  4561 ;; Registers used:
  4562 ;;		wreg, fsr1l, fsr1h, fsr2l, fsr2h, status,2, status,0, cstack
  4563 ;; Tracked objects:
  4564 ;;		On entry : 0/0
  4565 ;;		On exit  : 0/0
  4566 ;;		Unchanged: 0/0
  4567 ;; Data sizes:     COMRAM   BANK0   BANK1   BANK2   BANK3   BANK4   BANK5
  4568 ;;      Params:         4       0       0       0       0       0       0
  4569 ;;      Locals:         3       0       0       0       0       0       0
  4570 ;;      Temps:          0       0       0       0       0       0       0
  4571 ;;      Totals:         7       0       0       0       0       0       0
  4572 ;;Total ram usage:        7 bytes
  4573 ;; Hardware stack levels used:    1
  4574 ;; Hardware stack levels required when called:    2
  4575 ;; This function calls:
  4576 ;;		_fputc
  4577 ;; This function is called by:
  4578 ;;		_pad
  4579 ;; This function uses a non-reentrant model
  4580 ;;
  4581                           
  4582                           	psect	text27
  4583  005CFC                     __ptext27:
  4584                           	opt callstack 0
  4585  005CFC                     _fputs:
  4586                           	opt callstack 15
  4587                           
  4588                           ;incstack = 0
  4589  005CFC  0E00               	movlw	0
  4590  005CFE  6E10               	movwf	(fputs@i+1)^0,c
  4591  005D00  0E00               	movlw	0
  4592  005D02  6E0F               	movwf	fputs@i^0,c
  4593  005D04  D00B               	goto	i2l3485
  4594  005D06                     i2l3481:
  4595  005D06  C00E  F001         	movff	fputs@c,fputc@c
  4596  005D0A  6A02               	clrf	(fputc@c+1)^0,c
  4597  005D0C  C00C  F003         	movff	fputs@fp,fputc@fp
  4598  005D10  C00D  F004         	movff	fputs@fp+1,fputc@fp+1
  4599  005D14  EC0D  F02C         	call	_fputc	;wreg free
  4600  005D18  4A0F               	infsnz	fputs@i^0,f,c
  4601  005D1A  2A10               	incf	(fputs@i+1)^0,f,c
  4602  005D1C                     i2l3485:
  4603  005D1C  500F               	movf	fputs@i^0,w,c
  4604  005D1E  240A               	addwf	fputs@s^0,w,c
  4605  005D20  6ED9               	movwf	fsr2l,c
  4606  005D22  5010               	movf	(fputs@i+1)^0,w,c
  4607  005D24  200B               	addwfc	(fputs@s+1)^0,w,c
  4608  005D26  6EDA               	movwf	fsr2h,c
  4609  005D28  50DF               	movf	indf2,w,c
  4610  005D2A  6E0E               	movwf	fputs@c^0,c
  4611  005D2C  500E               	movf	fputs@c^0,w,c
  4612  005D2E  B4D8               	btfsc	status,2,c
  4613  005D30  0012               	return	
  4614  005D32  D7E9               	goto	i2l3481
  4615  005D34                     __end_of_fputs:
  4616                           	opt callstack 0
  4617                           
  4618 ;; *************** function _fputc *****************
  4619 ;; Defined at:
  4620 ;;		line 8 in file "C:\Program Files (x86)\Microchip\xc8\v2.10\pic\sources\c99\common\nf_fputc.c"
  4621 ;; Parameters:    Size  Location     Type
  4622 ;;  c               2    0[COMRAM] int 
  4623 ;;  fp              2    2[COMRAM] PTR struct _IO_FILE
  4624 ;;		 -> sprintf@f(6), 
  4625 ;; Auto vars:     Size  Location     Type
  4626 ;;		None
  4627 ;; Return value:  Size  Location     Type
  4628 ;;                  2    0[COMRAM] int 
  4629 ;; Registers used:
  4630 ;;		wreg, fsr1l, fsr1h, fsr2l, fsr2h, status,2, status,0, cstack
  4631 ;; Tracked objects:
  4632 ;;		On entry : 0/0
  4633 ;;		On exit  : 0/0
  4634 ;;		Unchanged: 0/0
  4635 ;; Data sizes:     COMRAM   BANK0   BANK1   BANK2   BANK3   BANK4   BANK5
  4636 ;;      Params:         4       0       0       0       0       0       0
  4637 ;;      Locals:         0       0       0       0       0       0       0
  4638 ;;      Temps:          5       0       0       0       0       0       0
  4639 ;;      Totals:         9       0       0       0       0       0       0
  4640 ;;Total ram usage:        9 bytes
  4641 ;; Hardware stack levels used:    1
  4642 ;; Hardware stack levels required when called:    1
  4643 ;; This function calls:
  4644 ;;		_putch
  4645 ;; This function is called by:
  4646 ;;		_pad
  4647 ;;		_vfpfcnvrt
  4648 ;;		_fputs
  4649 ;; This function uses a non-reentrant model
  4650 ;;
  4651                           
  4652                           	psect	text28
  4653  00581A                     __ptext28:
  4654                           	opt callstack 0
  4655  00581A                     _fputc:
  4656                           	opt callstack 18
  4657                           
  4658                           ;incstack = 0
  4659  00581A  5003               	movf	fputc@fp^0,w,c
  4660  00581C  1004               	iorwf	(fputc@fp+1)^0,w,c
  4661  00581E  B4D8               	btfsc	status,2,c
  4662  005820  D004               	goto	i2u297_40
  4663  005822  5003               	movf	fputc@fp^0,w,c
  4664  005824  1004               	iorwf	(fputc@fp+1)^0,w,c
  4665  005826  A4D8               	btfss	status,2,c
  4666  005828  D004               	goto	i2l3471
  4667  00582A                     i2u297_40:
  4668  00582A  5001               	movf	fputc@c^0,w,c
  4669  00582C  EC3E  F030         	call	_putch
  4670  005830  0012               	return	
  4671  005832                     i2l3471:
  4672  005832  EE20 F004          	lfsr	2,4
  4673  005836  5003               	movf	fputc@fp^0,w,c
  4674  005838  26D9               	addwf	fsr2l,f,c
  4675  00583A  5004               	movf	(fputc@fp+1)^0,w,c
  4676  00583C  22DA               	addwfc	fsr2h,f,c
  4677  00583E  50DE               	movf	postinc2,w,c
  4678  005840  10DE               	iorwf	postinc2,w,c
  4679  005842  B4D8               	btfsc	status,2,c
  4680  005844  D016               	goto	i2u299_40
  4681  005846  EE20 F004          	lfsr	2,4
  4682  00584A  5003               	movf	fputc@fp^0,w,c
  4683  00584C  26D9               	addwf	fsr2l,f,c
  4684  00584E  5004               	movf	(fputc@fp+1)^0,w,c
  4685  005850  22DA               	addwfc	fsr2h,f,c
  4686  005852  EE10 F002          	lfsr	1,2
  4687  005856  5003               	movf	fputc@fp^0,w,c
  4688  005858  26E1               	addwf	fsr1l,f,c
  4689  00585A  5004               	movf	(fputc@fp+1)^0,w,c
  4690  00585C  22E2               	addwfc	fsr1h,f,c
  4691  00585E  50DE               	movf	postinc2,w,c
  4692  005860  5CE6               	subwf	postinc1,w,c
  4693  005862  50E6               	movf	postinc1,w,c
  4694  005864  0A80               	xorlw	128
  4695  005866  6E09               	movwf	(??_fputc+4)^0,c
  4696  005868  50DE               	movf	postinc2,w,c
  4697  00586A  0A80               	xorlw	128
  4698  00586C  5809               	subwfb	(??_fputc+4)^0,w,c
  4699  00586E  B0D8               	btfsc	status,0,c
  4700  005870  0012               	return	
  4701  005872                     i2u299_40:
  4702  005872  EE20 F002          	lfsr	2,2
  4703  005876  5003               	movf	fputc@fp^0,w,c
  4704  005878  26D9               	addwf	fsr2l,f,c
  4705  00587A  5004               	movf	(fputc@fp+1)^0,w,c
  4706  00587C  22DA               	addwfc	fsr2h,f,c
  4707  00587E  CFDE F005          	movff	postinc2,??_fputc
  4708  005882  CFDD F006          	movff	postdec2,??_fputc+1
  4709  005886  C003  FFD9         	movff	fputc@fp,fsr2l
  4710  00588A  C004  FFDA         	movff	fputc@fp+1,fsr2h
  4711  00588E  CFDE F007          	movff	postinc2,??_fputc+2
  4712  005892  CFDD F008          	movff	postdec2,??_fputc+3
  4713  005896  5005               	movf	??_fputc^0,w,c
  4714  005898  2407               	addwf	(??_fputc+2)^0,w,c
  4715  00589A  6ED9               	movwf	fsr2l,c
  4716  00589C  5006               	movf	(??_fputc+1)^0,w,c
  4717  00589E  2008               	addwfc	(??_fputc+3)^0,w,c
  4718  0058A0  6EDA               	movwf	fsr2h,c
  4719  0058A2  C001  FFDF         	movff	fputc@c,indf2
  4720  0058A6  EE20 F002          	lfsr	2,2
  4721  0058AA  5003               	movf	fputc@fp^0,w,c
  4722  0058AC  26D9               	addwf	fsr2l,f,c
  4723  0058AE  5004               	movf	(fputc@fp+1)^0,w,c
  4724  0058B0  22DA               	addwfc	fsr2h,f,c
  4725  0058B2  2ADE               	incf	postinc2,f,c
  4726  0058B4  0E00               	movlw	0
  4727  0058B6  22DD               	addwfc	postdec2,f,c
  4728  0058B8  0012               	return		;funcret
  4729  0058BA                     __end_of_fputc:
  4730                           	opt callstack 0
  4731                           
  4732 ;; *************** function _putch *****************
  4733 ;; Defined at:
  4734 ;;		line 7 in file "C:\Program Files (x86)\Microchip\xc8\v2.10\pic\sources\c99\common\putch.c"
  4735 ;; Parameters:    Size  Location     Type
  4736 ;;  c               1    wreg     unsigned char 
  4737 ;; Auto vars:     Size  Location     Type
  4738 ;;  c               1    0[COMRAM] unsigned char 
  4739 ;; Return value:  Size  Location     Type
  4740 ;;                  1    wreg      void 
  4741 ;; Registers used:
  4742 ;;		wreg
  4743 ;; Tracked objects:
  4744 ;;		On entry : 0/0
  4745 ;;		On exit  : 0/0
  4746 ;;		Unchanged: 0/0
  4747 ;; Data sizes:     COMRAM   BANK0   BANK1   BANK2   BANK3   BANK4   BANK5
  4748 ;;      Params:         0       0       0       0       0       0       0
  4749 ;;      Locals:         0       0       0       0       0       0       0
  4750 ;;      Temps:          0       0       0       0       0       0       0
  4751 ;;      Totals:         0       0       0       0       0       0       0
  4752 ;;Total ram usage:        0 bytes
  4753 ;; Hardware stack levels used:    1
  4754 ;; This function calls:
  4755 ;;		Nothing
  4756 ;; This function is called by:
  4757 ;;		_fputc
  4758 ;; This function uses a non-reentrant model
  4759 ;;
  4760                           
  4761                           	psect	text29
  4762  00607C                     __ptext29:
  4763                           	opt callstack 0
  4764  00607C                     _putch:
  4765                           	opt callstack 18
  4766                           
  4767                           ;incstack = 0
  4768  00607C  0012               	return		;funcret
  4769  00607E                     __end_of_putch:
  4770                           	opt callstack 0
  4771                           
  4772 ;; *************** function _abs *****************
  4773 ;; Defined at:
  4774 ;;		line 1 in file "C:\Program Files (x86)\Microchip\xc8\v2.10\pic\sources\c99\common\abs.c"
  4775 ;; Parameters:    Size  Location     Type
  4776 ;;  a               2   18[COMRAM] int 
  4777 ;; Auto vars:     Size  Location     Type
  4778 ;;		None
  4779 ;; Return value:  Size  Location     Type
  4780 ;;                  2   18[COMRAM] int 
  4781 ;; Registers used:
  4782 ;;		wreg, status,2, status,0
  4783 ;; Tracked objects:
  4784 ;;		On entry : 0/0
  4785 ;;		On exit  : 0/0
  4786 ;;		Unchanged: 0/0
  4787 ;; Data sizes:     COMRAM   BANK0   BANK1   BANK2   BANK3   BANK4   BANK5
  4788 ;;      Params:         2       0       0       0       0       0       0
  4789 ;;      Locals:         0       0       0       0       0       0       0
  4790 ;;      Temps:          2       0       0       0       0       0       0
  4791 ;;      Totals:         4       0       0       0       0       0       0
  4792 ;;Total ram usage:        4 bytes
  4793 ;; Hardware stack levels used:    1
  4794 ;; This function calls:
  4795 ;;		Nothing
  4796 ;; This function is called by:
  4797 ;;		_dtoa
  4798 ;; This function uses a non-reentrant model
  4799 ;;
  4800                           
  4801                           	psect	text30
  4802  005D68                     __ptext30:
  4803                           	opt callstack 0
  4804  005D68                     _abs:
  4805                           	opt callstack 18
  4806                           
  4807                           ;incstack = 0
  4808  005D68  BE14               	btfsc	(abs@a+1)^0,7,c
  4809  005D6A  D005               	goto	i2u369_40
  4810  005D6C  5014               	movf	(abs@a+1)^0,w,c
  4811  005D6E  E110               	bnz	i2l1080
  4812  005D70  0413               	decf	abs@a^0,w,c
  4813  005D72  B0D8               	btfsc	status,0,c
  4814  005D74  D00D               	goto	i2l1080
  4815  005D76                     i2u369_40:
  4816  005D76  C013  F015         	movff	abs@a,??_abs
  4817  005D7A  C014  F016         	movff	abs@a+1,??_abs+1
  4818  005D7E  1E15               	comf	??_abs^0,f,c
  4819  005D80  1E16               	comf	(??_abs+1)^0,f,c
  4820  005D82  4A15               	infsnz	??_abs^0,f,c
  4821  005D84  2A16               	incf	(??_abs+1)^0,f,c
  4822  005D86  C015  F013         	movff	??_abs,?_abs
  4823  005D8A  C016  F014         	movff	??_abs+1,?_abs+1
  4824  005D8E  0012               	return	
  4825  005D90                     i2l1080:
  4826  005D90  C013  F013         	movff	abs@a,?_abs
  4827  005D94  C014  F014         	movff	abs@a+1,?_abs+1
  4828  005D98  0012               	return		;funcret
  4829  005D9A                     __end_of_abs:
  4830                           	opt callstack 0
  4831                           
  4832 ;; *************** function ___aomod *****************
  4833 ;; Defined at:
  4834 ;;		line 9 in file "C:\Program Files (x86)\Microchip\xc8\v2.10\pic\sources\c99\common\aomod.c"
  4835 ;; Parameters:    Size  Location     Type
  4836 ;;  dividend        8    0[COMRAM] long long 
  4837 ;;  divisor         8    8[COMRAM] long long 
  4838 ;; Auto vars:     Size  Location     Type
  4839 ;;  sign            1   17[COMRAM] unsigned char 
  4840 ;;  counter         1   16[COMRAM] unsigned char 
  4841 ;; Return value:  Size  Location     Type
  4842 ;;                  8    0[COMRAM] long long 
  4843 ;; Registers used:
  4844 ;;		wreg, status,2, status,0
  4845 ;; Tracked objects:
  4846 ;;		On entry : 0/0
  4847 ;;		On exit  : 0/0
  4848 ;;		Unchanged: 0/0
  4849 ;; Data sizes:     COMRAM   BANK0   BANK1   BANK2   BANK3   BANK4   BANK5
  4850 ;;      Params:        16       0       0       0       0       0       0
  4851 ;;      Locals:         2       0       0       0       0       0       0
  4852 ;;      Temps:          0       0       0       0       0       0       0
  4853 ;;      Totals:        18       0       0       0       0       0       0
  4854 ;;Total ram usage:       18 bytes
  4855 ;; Hardware stack levels used:    1
  4856 ;; This function calls:
  4857 ;;		Nothing
  4858 ;; This function is called by:
  4859 ;;		_dtoa
  4860 ;; This function uses a non-reentrant model
  4861 ;;
  4862                           
  4863                           	psect	text31
  4864  005456                     __ptext31:
  4865                           	opt callstack 0
  4866  005456                     ___aomod:
  4867                           	opt callstack 18
  4868                           
  4869                           ;incstack = 0
  4870  005456  0E00               	movlw	0
  4871  005458  6E12               	movwf	___aomod@sign^0,c
  4872  00545A  AE08               	btfss	(___aomod@dividend+7)^0,7,c
  4873  00545C  D012               	goto	i2l3945
  4874  00545E  1E08               	comf	(___aomod@dividend+7)^0,f,c
  4875  005460  1E07               	comf	(___aomod@dividend+6)^0,f,c
  4876  005462  1E06               	comf	(___aomod@dividend+5)^0,f,c
  4877  005464  1E05               	comf	(___aomod@dividend+4)^0,f,c
  4878  005466  1E04               	comf	(___aomod@dividend+3)^0,f,c
  4879  005468  1E03               	comf	(___aomod@dividend+2)^0,f,c
  4880  00546A  1E02               	comf	(___aomod@dividend+1)^0,f,c
  4881  00546C  6C01               	negf	___aomod@dividend^0,c
  4882  00546E  0E00               	movlw	0
  4883  005470  2202               	addwfc	(___aomod@dividend+1)^0,f,c
  4884  005472  2203               	addwfc	(___aomod@dividend+2)^0,f,c
  4885  005474  2204               	addwfc	(___aomod@dividend+3)^0,f,c
  4886  005476  2205               	addwfc	(___aomod@dividend+4)^0,f,c
  4887  005478  2206               	addwfc	(___aomod@dividend+5)^0,f,c
  4888  00547A  2207               	addwfc	(___aomod@dividend+6)^0,f,c
  4889  00547C  2208               	addwfc	(___aomod@dividend+7)^0,f,c
  4890  00547E  0E01               	movlw	1
  4891  005480  6E12               	movwf	___aomod@sign^0,c
  4892  005482                     i2l3945:
  4893  005482  AE10               	btfss	(___aomod@divisor+7)^0,7,c
  4894  005484  D010               	goto	i2l3949
  4895  005486  1E10               	comf	(___aomod@divisor+7)^0,f,c
  4896  005488  1E0F               	comf	(___aomod@divisor+6)^0,f,c
  4897  00548A  1E0E               	comf	(___aomod@divisor+5)^0,f,c
  4898  00548C  1E0D               	comf	(___aomod@divisor+4)^0,f,c
  4899  00548E  1E0C               	comf	(___aomod@divisor+3)^0,f,c
  4900  005490  1E0B               	comf	(___aomod@divisor+2)^0,f,c
  4901  005492  1E0A               	comf	(___aomod@divisor+1)^0,f,c
  4902  005494  6C09               	negf	___aomod@divisor^0,c
  4903  005496  0E00               	movlw	0
  4904  005498  220A               	addwfc	(___aomod@divisor+1)^0,f,c
  4905  00549A  220B               	addwfc	(___aomod@divisor+2)^0,f,c
  4906  00549C  220C               	addwfc	(___aomod@divisor+3)^0,f,c
  4907  00549E  220D               	addwfc	(___aomod@divisor+4)^0,f,c
  4908  0054A0  220E               	addwfc	(___aomod@divisor+5)^0,f,c
  4909  0054A2  220F               	addwfc	(___aomod@divisor+6)^0,f,c
  4910  0054A4  2210               	addwfc	(___aomod@divisor+7)^0,f,c
  4911  0054A6                     i2l3949:
  4912  0054A6  5009               	movf	___aomod@divisor^0,w,c
  4913  0054A8  100A               	iorwf	(___aomod@divisor+1)^0,w,c
  4914  0054AA  100B               	iorwf	(___aomod@divisor+2)^0,w,c
  4915  0054AC  100C               	iorwf	(___aomod@divisor+3)^0,w,c
  4916  0054AE  100D               	iorwf	(___aomod@divisor+4)^0,w,c
  4917  0054B0  100E               	iorwf	(___aomod@divisor+5)^0,w,c
  4918  0054B2  100F               	iorwf	(___aomod@divisor+6)^0,w,c
  4919  0054B4  1010               	iorwf	(___aomod@divisor+7)^0,w,c
  4920  0054B6  B4D8               	btfsc	status,2,c
  4921  0054B8  D03C               	goto	i2l3965
  4922  0054BA  0E01               	movlw	1
  4923  0054BC  6E11               	movwf	___aomod@counter^0,c
  4924  0054BE  D00A               	goto	i2l3955
  4925  0054C0                     i2l3953:
  4926  0054C0  90D8               	bcf	status,0,c
  4927  0054C2  3609               	rlcf	___aomod@divisor^0,f,c
  4928  0054C4  360A               	rlcf	(___aomod@divisor+1)^0,f,c
  4929  0054C6  360B               	rlcf	(___aomod@divisor+2)^0,f,c
  4930  0054C8  360C               	rlcf	(___aomod@divisor+3)^0,f,c
  4931  0054CA  360D               	rlcf	(___aomod@divisor+4)^0,f,c
  4932  0054CC  360E               	rlcf	(___aomod@divisor+5)^0,f,c
  4933  0054CE  360F               	rlcf	(___aomod@divisor+6)^0,f,c
  4934  0054D0  3610               	rlcf	(___aomod@divisor+7)^0,f,c
  4935  0054D2  2A11               	incf	___aomod@counter^0,f,c
  4936  0054D4                     i2l3955:
  4937  0054D4  AE10               	btfss	(___aomod@divisor+7)^0,7,c
  4938  0054D6  D7F4               	goto	i2l3953
  4939  0054D8                     i2u382_40:
  4940  0054D8  5009               	movf	___aomod@divisor^0,w,c
  4941  0054DA  5C01               	subwf	___aomod@dividend^0,w,c
  4942  0054DC  500A               	movf	(___aomod@divisor+1)^0,w,c
  4943  0054DE  5802               	subwfb	(___aomod@dividend+1)^0,w,c
  4944  0054E0  500B               	movf	(___aomod@divisor+2)^0,w,c
  4945  0054E2  5803               	subwfb	(___aomod@dividend+2)^0,w,c
  4946  0054E4  500C               	movf	(___aomod@divisor+3)^0,w,c
  4947  0054E6  5804               	subwfb	(___aomod@dividend+3)^0,w,c
  4948  0054E8  500D               	movf	(___aomod@divisor+4)^0,w,c
  4949  0054EA  5805               	subwfb	(___aomod@dividend+4)^0,w,c
  4950  0054EC  500E               	movf	(___aomod@divisor+5)^0,w,c
  4951  0054EE  5806               	subwfb	(___aomod@dividend+5)^0,w,c
  4952  0054F0  500F               	movf	(___aomod@divisor+6)^0,w,c
  4953  0054F2  5807               	subwfb	(___aomod@dividend+6)^0,w,c
  4954  0054F4  5010               	movf	(___aomod@divisor+7)^0,w,c
  4955  0054F6  5808               	subwfb	(___aomod@dividend+7)^0,w,c
  4956  0054F8  A0D8               	btfss	status,0,c
  4957  0054FA  D010               	goto	i2l3961
  4958  0054FC  5009               	movf	___aomod@divisor^0,w,c
  4959  0054FE  5E01               	subwf	___aomod@dividend^0,f,c
  4960  005500  500A               	movf	(___aomod@divisor+1)^0,w,c
  4961  005502  5A02               	subwfb	(___aomod@dividend+1)^0,f,c
  4962  005504  500B               	movf	(___aomod@divisor+2)^0,w,c
  4963  005506  5A03               	subwfb	(___aomod@dividend+2)^0,f,c
  4964  005508  500C               	movf	(___aomod@divisor+3)^0,w,c
  4965  00550A  5A04               	subwfb	(___aomod@dividend+3)^0,f,c
  4966  00550C  500D               	movf	(___aomod@divisor+4)^0,w,c
  4967  00550E  5A05               	subwfb	(___aomod@dividend+4)^0,f,c
  4968  005510  500E               	movf	(___aomod@divisor+5)^0,w,c
  4969  005512  5A06               	subwfb	(___aomod@dividend+5)^0,f,c
  4970  005514  500F               	movf	(___aomod@divisor+6)^0,w,c
  4971  005516  5A07               	subwfb	(___aomod@dividend+6)^0,f,c
  4972  005518  5010               	movf	(___aomod@divisor+7)^0,w,c
  4973  00551A  5A08               	subwfb	(___aomod@dividend+7)^0,f,c
  4974  00551C                     i2l3961:
  4975  00551C  90D8               	bcf	status,0,c
  4976  00551E  3210               	rrcf	(___aomod@divisor+7)^0,f,c
  4977  005520  320F               	rrcf	(___aomod@divisor+6)^0,f,c
  4978  005522  320E               	rrcf	(___aomod@divisor+5)^0,f,c
  4979  005524  320D               	rrcf	(___aomod@divisor+4)^0,f,c
  4980  005526  320C               	rrcf	(___aomod@divisor+3)^0,f,c
  4981  005528  320B               	rrcf	(___aomod@divisor+2)^0,f,c
  4982  00552A  320A               	rrcf	(___aomod@divisor+1)^0,f,c
  4983  00552C  3209               	rrcf	___aomod@divisor^0,f,c
  4984  00552E  2E11               	decfsz	___aomod@counter^0,f,c
  4985  005530  D7D3               	goto	i2u382_40
  4986  005532                     i2l3965:
  4987  005532  5012               	movf	___aomod@sign^0,w,c
  4988  005534  B4D8               	btfsc	status,2,c
  4989  005536  D010               	goto	i2l3969
  4990  005538  1E08               	comf	(___aomod@dividend+7)^0,f,c
  4991  00553A  1E07               	comf	(___aomod@dividend+6)^0,f,c
  4992  00553C  1E06               	comf	(___aomod@dividend+5)^0,f,c
  4993  00553E  1E05               	comf	(___aomod@dividend+4)^0,f,c
  4994  005540  1E04               	comf	(___aomod@dividend+3)^0,f,c
  4995  005542  1E03               	comf	(___aomod@dividend+2)^0,f,c
  4996  005544  1E02               	comf	(___aomod@dividend+1)^0,f,c
  4997  005546  6C01               	negf	___aomod@dividend^0,c
  4998  005548  0E00               	movlw	0
  4999  00554A  2202               	addwfc	(___aomod@dividend+1)^0,f,c
  5000  00554C  2203               	addwfc	(___aomod@dividend+2)^0,f,c
  5001  00554E  2204               	addwfc	(___aomod@dividend+3)^0,f,c
  5002  005550  2205               	addwfc	(___aomod@dividend+4)^0,f,c
  5003  005552  2206               	addwfc	(___aomod@dividend+5)^0,f,c
  5004  005554  2207               	addwfc	(___aomod@dividend+6)^0,f,c
  5005  005556  2208               	addwfc	(___aomod@dividend+7)^0,f,c
  5006  005558                     i2l3969:
  5007  005558  C001  F001         	movff	___aomod@dividend,?___aomod
  5008  00555C  C002  F002         	movff	___aomod@dividend+1,?___aomod+1
  5009  005560  C003  F003         	movff	___aomod@dividend+2,?___aomod+2
  5010  005564  C004  F004         	movff	___aomod@dividend+3,?___aomod+3
  5011  005568  C005  F005         	movff	___aomod@dividend+4,?___aomod+4
  5012  00556C  C006  F006         	movff	___aomod@dividend+5,?___aomod+5
  5013  005570  C007  F007         	movff	___aomod@dividend+6,?___aomod+6
  5014  005574  C008  F008         	movff	___aomod@dividend+7,?___aomod+7
  5015  005578  0012               	return		;funcret
  5016  00557A                     __end_of___aomod:
  5017                           	opt callstack 0
  5018                           
  5019 ;; *************** function ___aodiv *****************
  5020 ;; Defined at:
  5021 ;;		line 9 in file "C:\Program Files (x86)\Microchip\xc8\v2.10\pic\sources\c99\common\aodiv.c"
  5022 ;; Parameters:    Size  Location     Type
  5023 ;;  dividend        8    0[COMRAM] long long 
  5024 ;;  divisor         8    8[COMRAM] long long 
  5025 ;; Auto vars:     Size  Location     Type
  5026 ;;  quotient        8   18[COMRAM] long long 
  5027 ;;  sign            1   17[COMRAM] unsigned char 
  5028 ;;  counter         1   16[COMRAM] unsigned char 
  5029 ;; Return value:  Size  Location     Type
  5030 ;;                  8    0[COMRAM] long long 
  5031 ;; Registers used:
  5032 ;;		wreg, fsr2l, fsr2h, status,2, status,0
  5033 ;; Tracked objects:
  5034 ;;		On entry : 0/0
  5035 ;;		On exit  : 0/0
  5036 ;;		Unchanged: 0/0
  5037 ;; Data sizes:     COMRAM   BANK0   BANK1   BANK2   BANK3   BANK4   BANK5
  5038 ;;      Params:        16       0       0       0       0       0       0
  5039 ;;      Locals:        10       0       0       0       0       0       0
  5040 ;;      Temps:          0       0       0       0       0       0       0
  5041 ;;      Totals:        26       0       0       0       0       0       0
  5042 ;;Total ram usage:       26 bytes
  5043 ;; Hardware stack levels used:    1
  5044 ;; This function calls:
  5045 ;;		Nothing
  5046 ;; This function is called by:
  5047 ;;		_dtoa
  5048 ;; This function uses a non-reentrant model
  5049 ;;
  5050                           
  5051                           	psect	text32
  5052  004F5C                     __ptext32:
  5053                           	opt callstack 0
  5054  004F5C                     ___aodiv:
  5055                           	opt callstack 18
  5056                           
  5057                           ;incstack = 0
  5058  004F5C  0E00               	movlw	0
  5059  004F5E  6E12               	movwf	___aodiv@sign^0,c
  5060  004F60  AE10               	btfss	(___aodiv@divisor+7)^0,7,c
  5061  004F62  D012               	goto	i2l3901
  5062  004F64  1E10               	comf	(___aodiv@divisor+7)^0,f,c
  5063  004F66  1E0F               	comf	(___aodiv@divisor+6)^0,f,c
  5064  004F68  1E0E               	comf	(___aodiv@divisor+5)^0,f,c
  5065  004F6A  1E0D               	comf	(___aodiv@divisor+4)^0,f,c
  5066  004F6C  1E0C               	comf	(___aodiv@divisor+3)^0,f,c
  5067  004F6E  1E0B               	comf	(___aodiv@divisor+2)^0,f,c
  5068  004F70  1E0A               	comf	(___aodiv@divisor+1)^0,f,c
  5069  004F72  6C09               	negf	___aodiv@divisor^0,c
  5070  004F74  0E00               	movlw	0
  5071  004F76  220A               	addwfc	(___aodiv@divisor+1)^0,f,c
  5072  004F78  220B               	addwfc	(___aodiv@divisor+2)^0,f,c
  5073  004F7A  220C               	addwfc	(___aodiv@divisor+3)^0,f,c
  5074  004F7C  220D               	addwfc	(___aodiv@divisor+4)^0,f,c
  5075  004F7E  220E               	addwfc	(___aodiv@divisor+5)^0,f,c
  5076  004F80  220F               	addwfc	(___aodiv@divisor+6)^0,f,c
  5077  004F82  2210               	addwfc	(___aodiv@divisor+7)^0,f,c
  5078  004F84  0E01               	movlw	1
  5079  004F86  6E12               	movwf	___aodiv@sign^0,c
  5080  004F88                     i2l3901:
  5081  004F88  AE08               	btfss	(___aodiv@dividend+7)^0,7,c
  5082  004F8A  D012               	goto	i2l3907
  5083  004F8C  1E08               	comf	(___aodiv@dividend+7)^0,f,c
  5084  004F8E  1E07               	comf	(___aodiv@dividend+6)^0,f,c
  5085  004F90  1E06               	comf	(___aodiv@dividend+5)^0,f,c
  5086  004F92  1E05               	comf	(___aodiv@dividend+4)^0,f,c
  5087  004F94  1E04               	comf	(___aodiv@dividend+3)^0,f,c
  5088  004F96  1E03               	comf	(___aodiv@dividend+2)^0,f,c
  5089  004F98  1E02               	comf	(___aodiv@dividend+1)^0,f,c
  5090  004F9A  6C01               	negf	___aodiv@dividend^0,c
  5091  004F9C  0E00               	movlw	0
  5092  004F9E  2202               	addwfc	(___aodiv@dividend+1)^0,f,c
  5093  004FA0  2203               	addwfc	(___aodiv@dividend+2)^0,f,c
  5094  004FA2  2204               	addwfc	(___aodiv@dividend+3)^0,f,c
  5095  004FA4  2205               	addwfc	(___aodiv@dividend+4)^0,f,c
  5096  004FA6  2206               	addwfc	(___aodiv@dividend+5)^0,f,c
  5097  004FA8  2207               	addwfc	(___aodiv@dividend+6)^0,f,c
  5098  004FAA  2208               	addwfc	(___aodiv@dividend+7)^0,f,c
  5099  004FAC  0E01               	movlw	1
  5100  004FAE  1A12               	xorwf	___aodiv@sign^0,f,c
  5101  004FB0                     i2l3907:
  5102  004FB0  EE20  F013         	lfsr	2,___aodiv@quotient
  5103  004FB4  0E07               	movlw	7
  5104  004FB6                     i2u374_41:
  5105  004FB6  6ADE               	clrf	postinc2,c
  5106  004FB8  06E8               	decf	wreg,f,c
  5107  004FBA  E2FD               	bc	i2u374_41
  5108  004FBC  5009               	movf	___aodiv@divisor^0,w,c
  5109  004FBE  100A               	iorwf	(___aodiv@divisor+1)^0,w,c
  5110  004FC0  100B               	iorwf	(___aodiv@divisor+2)^0,w,c
  5111  004FC2  100C               	iorwf	(___aodiv@divisor+3)^0,w,c
  5112  004FC4  100D               	iorwf	(___aodiv@divisor+4)^0,w,c
  5113  004FC6  100E               	iorwf	(___aodiv@divisor+5)^0,w,c
  5114  004FC8  100F               	iorwf	(___aodiv@divisor+6)^0,w,c
  5115  004FCA  1010               	iorwf	(___aodiv@divisor+7)^0,w,c
  5116  004FCC  B4D8               	btfsc	status,2,c
  5117  004FCE  D046               	goto	i2l3929
  5118  004FD0  0E01               	movlw	1
  5119  004FD2  6E11               	movwf	___aodiv@counter^0,c
  5120  004FD4  D00A               	goto	i2l3915
  5121  004FD6                     i2l3913:
  5122  004FD6  90D8               	bcf	status,0,c
  5123  004FD8  3609               	rlcf	___aodiv@divisor^0,f,c
  5124  004FDA  360A               	rlcf	(___aodiv@divisor+1)^0,f,c
  5125  004FDC  360B               	rlcf	(___aodiv@divisor+2)^0,f,c
  5126  004FDE  360C               	rlcf	(___aodiv@divisor+3)^0,f,c
  5127  004FE0  360D               	rlcf	(___aodiv@divisor+4)^0,f,c
  5128  004FE2  360E               	rlcf	(___aodiv@divisor+5)^0,f,c
  5129  004FE4  360F               	rlcf	(___aodiv@divisor+6)^0,f,c
  5130  004FE6  3610               	rlcf	(___aodiv@divisor+7)^0,f,c
  5131  004FE8  2A11               	incf	___aodiv@counter^0,f,c
  5132  004FEA                     i2l3915:
  5133  004FEA  AE10               	btfss	(___aodiv@divisor+7)^0,7,c
  5134  004FEC  D7F4               	goto	i2l3913
  5135  004FEE                     i2u376_40:
  5136  004FEE  90D8               	bcf	status,0,c
  5137  004FF0  3613               	rlcf	___aodiv@quotient^0,f,c
  5138  004FF2  3614               	rlcf	(___aodiv@quotient+1)^0,f,c
  5139  004FF4  3615               	rlcf	(___aodiv@quotient+2)^0,f,c
  5140  004FF6  3616               	rlcf	(___aodiv@quotient+3)^0,f,c
  5141  004FF8  3617               	rlcf	(___aodiv@quotient+4)^0,f,c
  5142  004FFA  3618               	rlcf	(___aodiv@quotient+5)^0,f,c
  5143  004FFC  3619               	rlcf	(___aodiv@quotient+6)^0,f,c
  5144  004FFE  361A               	rlcf	(___aodiv@quotient+7)^0,f,c
  5145  005000  5009               	movf	___aodiv@divisor^0,w,c
  5146  005002  5C01               	subwf	___aodiv@dividend^0,w,c
  5147  005004  500A               	movf	(___aodiv@divisor+1)^0,w,c
  5148  005006  5802               	subwfb	(___aodiv@dividend+1)^0,w,c
  5149  005008  500B               	movf	(___aodiv@divisor+2)^0,w,c
  5150  00500A  5803               	subwfb	(___aodiv@dividend+2)^0,w,c
  5151  00500C  500C               	movf	(___aodiv@divisor+3)^0,w,c
  5152  00500E  5804               	subwfb	(___aodiv@dividend+3)^0,w,c
  5153  005010  500D               	movf	(___aodiv@divisor+4)^0,w,c
  5154  005012  5805               	subwfb	(___aodiv@dividend+4)^0,w,c
  5155  005014  500E               	movf	(___aodiv@divisor+5)^0,w,c
  5156  005016  5806               	subwfb	(___aodiv@dividend+5)^0,w,c
  5157  005018  500F               	movf	(___aodiv@divisor+6)^0,w,c
  5158  00501A  5807               	subwfb	(___aodiv@dividend+6)^0,w,c
  5159  00501C  5010               	movf	(___aodiv@divisor+7)^0,w,c
  5160  00501E  5808               	subwfb	(___aodiv@dividend+7)^0,w,c
  5161  005020  A0D8               	btfss	status,0,c
  5162  005022  D011               	goto	i2l3925
  5163  005024  5009               	movf	___aodiv@divisor^0,w,c
  5164  005026  5E01               	subwf	___aodiv@dividend^0,f,c
  5165  005028  500A               	movf	(___aodiv@divisor+1)^0,w,c
  5166  00502A  5A02               	subwfb	(___aodiv@dividend+1)^0,f,c
  5167  00502C  500B               	movf	(___aodiv@divisor+2)^0,w,c
  5168  00502E  5A03               	subwfb	(___aodiv@dividend+2)^0,f,c
  5169  005030  500C               	movf	(___aodiv@divisor+3)^0,w,c
  5170  005032  5A04               	subwfb	(___aodiv@dividend+3)^0,f,c
  5171  005034  500D               	movf	(___aodiv@divisor+4)^0,w,c
  5172  005036  5A05               	subwfb	(___aodiv@dividend+4)^0,f,c
  5173  005038  500E               	movf	(___aodiv@divisor+5)^0,w,c
  5174  00503A  5A06               	subwfb	(___aodiv@dividend+5)^0,f,c
  5175  00503C  500F               	movf	(___aodiv@divisor+6)^0,w,c
  5176  00503E  5A07               	subwfb	(___aodiv@dividend+6)^0,f,c
  5177  005040  5010               	movf	(___aodiv@divisor+7)^0,w,c
  5178  005042  5A08               	subwfb	(___aodiv@dividend+7)^0,f,c
  5179  005044  8013               	bsf	___aodiv@quotient^0,0,c
  5180  005046                     i2l3925:
  5181  005046  90D8               	bcf	status,0,c
  5182  005048  3210               	rrcf	(___aodiv@divisor+7)^0,f,c
  5183  00504A  320F               	rrcf	(___aodiv@divisor+6)^0,f,c
  5184  00504C  320E               	rrcf	(___aodiv@divisor+5)^0,f,c
  5185  00504E  320D               	rrcf	(___aodiv@divisor+4)^0,f,c
  5186  005050  320C               	rrcf	(___aodiv@divisor+3)^0,f,c
  5187  005052  320B               	rrcf	(___aodiv@divisor+2)^0,f,c
  5188  005054  320A               	rrcf	(___aodiv@divisor+1)^0,f,c
  5189  005056  3209               	rrcf	___aodiv@divisor^0,f,c
  5190  005058  2E11               	decfsz	___aodiv@counter^0,f,c
  5191  00505A  D7C9               	goto	i2u376_40
  5192  00505C                     i2l3929:
  5193  00505C  5012               	movf	___aodiv@sign^0,w,c
  5194  00505E  B4D8               	btfsc	status,2,c
  5195  005060  D010               	goto	i2l3933
  5196  005062  1E1A               	comf	(___aodiv@quotient+7)^0,f,c
  5197  005064  1E19               	comf	(___aodiv@quotient+6)^0,f,c
  5198  005066  1E18               	comf	(___aodiv@quotient+5)^0,f,c
  5199  005068  1E17               	comf	(___aodiv@quotient+4)^0,f,c
  5200  00506A  1E16               	comf	(___aodiv@quotient+3)^0,f,c
  5201  00506C  1E15               	comf	(___aodiv@quotient+2)^0,f,c
  5202  00506E  1E14               	comf	(___aodiv@quotient+1)^0,f,c
  5203  005070  6C13               	negf	___aodiv@quotient^0,c
  5204  005072  0E00               	movlw	0
  5205  005074  2214               	addwfc	(___aodiv@quotient+1)^0,f,c
  5206  005076  2215               	addwfc	(___aodiv@quotient+2)^0,f,c
  5207  005078  2216               	addwfc	(___aodiv@quotient+3)^0,f,c
  5208  00507A  2217               	addwfc	(___aodiv@quotient+4)^0,f,c
  5209  00507C  2218               	addwfc	(___aodiv@quotient+5)^0,f,c
  5210  00507E  2219               	addwfc	(___aodiv@quotient+6)^0,f,c
  5211  005080  221A               	addwfc	(___aodiv@quotient+7)^0,f,c
  5212  005082                     i2l3933:
  5213  005082  C013  F001         	movff	___aodiv@quotient,?___aodiv
  5214  005086  C014  F002         	movff	___aodiv@quotient+1,?___aodiv+1
  5215  00508A  C015  F003         	movff	___aodiv@quotient+2,?___aodiv+2
  5216  00508E  C016  F004         	movff	___aodiv@quotient+3,?___aodiv+3
  5217  005092  C017  F005         	movff	___aodiv@quotient+4,?___aodiv+4
  5218  005096  C018  F006         	movff	___aodiv@quotient+5,?___aodiv+5
  5219  00509A  C019  F007         	movff	___aodiv@quotient+6,?___aodiv+6
  5220  00509E  C01A  F008         	movff	___aodiv@quotient+7,?___aodiv+7
  5221  0050A2  0012               	return		;funcret
  5222  0050A4                     __end_of___aodiv:
  5223                           	opt callstack 0
  5224                           
  5225 ;; *************** function _atoi *****************
  5226 ;; Defined at:
  5227 ;;		line 4 in file "C:\Program Files (x86)\Microchip\xc8\v2.10\pic\sources\c99\common\atoi.c"
  5228 ;; Parameters:    Size  Location     Type
  5229 ;;  s               2    7[COMRAM] PTR const unsigned char 
  5230 ;;		 -> STR_4(9), STR_3(19), 
  5231 ;; Auto vars:     Size  Location     Type
  5232 ;;  n               2   20[COMRAM] int 
  5233 ;;  neg             2   13[COMRAM] int 
  5234 ;; Return value:  Size  Location     Type
  5235 ;;                  2    7[COMRAM] int 
  5236 ;; Registers used:
  5237 ;;		wreg, status,2, status,0, tblptrl, tblptrh, tblptru, prodl, prodh, cstack
  5238 ;; Tracked objects:
  5239 ;;		On entry : 0/0
  5240 ;;		On exit  : 0/0
  5241 ;;		Unchanged: 0/0
  5242 ;; Data sizes:     COMRAM   BANK0   BANK1   BANK2   BANK3   BANK4   BANK5
  5243 ;;      Params:         2       0       0       0       0       0       0
  5244 ;;      Locals:         9       0       0       0       0       0       0
  5245 ;;      Temps:          4       0       0       0       0       0       0
  5246 ;;      Totals:        15       0       0       0       0       0       0
  5247 ;;Total ram usage:       15 bytes
  5248 ;; Hardware stack levels used:    1
  5249 ;; Hardware stack levels required when called:    1
  5250 ;; This function calls:
  5251 ;;		___wmul
  5252 ;;		_isdigit
  5253 ;;		_isspace
  5254 ;; This function is called by:
  5255 ;;		_vfpfcnvrt
  5256 ;; This function uses a non-reentrant model
  5257 ;;
  5258                           
  5259                           	psect	text33
  5260  0050A4                     __ptext33:
  5261                           	opt callstack 0
  5262  0050A4                     _atoi:
  5263                           	opt callstack 18
  5264                           
  5265                           ;incstack = 0
  5266  0050A4  0E00               	movlw	0
  5267  0050A6  6E16               	movwf	(atoi@n+1)^0,c
  5268  0050A8  0E00               	movlw	0
  5269  0050AA  6E15               	movwf	atoi@n^0,c
  5270  0050AC  0E00               	movlw	0
  5271  0050AE  6E0F               	movwf	(atoi@neg+1)^0,c
  5272  0050B0  0E00               	movlw	0
  5273  0050B2  6E0E               	movwf	atoi@neg^0,c
  5274  0050B4  D002               	goto	i2l4921
  5275  0050B6                     i2l4919:
  5276  0050B6  4A08               	infsnz	atoi@s^0,f,c
  5277  0050B8  2A09               	incf	(atoi@s+1)^0,f,c
  5278  0050BA                     i2l4921:
  5279  0050BA  0E01               	movlw	1
  5280  0050BC  6E14               	movwf	_atoi$1647^0,c
  5281  0050BE  C008  FFF6         	movff	atoi@s,tblptrl
  5282  0050C2  C009  FFF7         	movff	atoi@s+1,tblptrh
  5283  0050C6                     	if	0	;tblptru may be non-zero
  5284  0050C6                     	endif
  5285  0050C6                     	if	0	;tblptru may be non-zero
  5286  0050C6                     	endif
  5287  0050C6  0008               	tblrd		*
  5288  0050C8  50F5               	movf	tablat,w,c
  5289  0050CA  0A20               	xorlw	32
  5290  0050CC  B4D8               	btfsc	status,2,c
  5291  0050CE  D018               	goto	i2l4929
  5292  0050D0  0EF7               	movlw	247
  5293  0050D2  6E0A               	movwf	??_atoi^0,c
  5294  0050D4  0EFF               	movlw	255
  5295  0050D6  6E0B               	movwf	(??_atoi+1)^0,c
  5296  0050D8  C008  FFF6         	movff	atoi@s,tblptrl
  5297  0050DC  C009  FFF7         	movff	atoi@s+1,tblptrh
  5298  0050E0                     	if	0	;tblptru may be non-zero
  5299  0050E0                     	endif
  5300  0050E0                     	if	0	;tblptru may be non-zero
  5301  0050E0                     	endif
  5302  0050E0  0008               	tblrd		*
  5303  0050E2  50F5               	movf	tablat,w,c
  5304  0050E4  6E0C               	movwf	(??_atoi+2)^0,c
  5305  0050E6  6A0D               	clrf	(??_atoi+3)^0,c
  5306  0050E8  500A               	movf	??_atoi^0,w,c
  5307  0050EA  260C               	addwf	(??_atoi+2)^0,f,c
  5308  0050EC  500B               	movf	(??_atoi+1)^0,w,c
  5309  0050EE  220D               	addwfc	(??_atoi+3)^0,f,c
  5310  0050F0  500D               	movf	(??_atoi+3)^0,w,c
  5311  0050F2  E104               	bnz	i2u524_40
  5312  0050F4  0E05               	movlw	5
  5313  0050F6  5C0C               	subwf	(??_atoi+2)^0,w,c
  5314  0050F8  A0D8               	btfss	status,0,c
  5315  0050FA  D002               	goto	i2l4929
  5316  0050FC                     i2u524_40:
  5317  0050FC  0E00               	movlw	0
  5318  0050FE  6E14               	movwf	_atoi$1647^0,c
  5319  005100                     i2l4929:
  5320  005100  C014  F010         	movff	_atoi$1647,_atoi$1646
  5321  005104  6A11               	clrf	(_atoi$1646+1)^0,c
  5322  005106  5010               	movf	_atoi$1646^0,w,c
  5323  005108  1011               	iorwf	(_atoi$1646+1)^0,w,c
  5324  00510A  B4D8               	btfsc	status,2,c
  5325  00510C  D008               	goto	i2l4939
  5326  00510E  D7D3               	goto	i2l4919
  5327  005110                     i2l4935:
  5328  005110  0E00               	movlw	0
  5329  005112  6E0F               	movwf	(atoi@neg+1)^0,c
  5330  005114  0E01               	movlw	1
  5331  005116  6E0E               	movwf	atoi@neg^0,c
  5332  005118                     i2l4937:
  5333  005118  4A08               	infsnz	atoi@s^0,f,c
  5334  00511A  2A09               	incf	(atoi@s+1)^0,f,c
  5335  00511C  D02E               	goto	i2l4945
  5336  00511E                     i2l4939:
  5337  00511E  C008  FFF6         	movff	atoi@s,tblptrl
  5338  005122  C009  FFF7         	movff	atoi@s+1,tblptrh
  5339  005126                     	if	0	;tblptru may be non-zero
  5340  005126                     	endif
  5341  005126                     	if	0	;tblptru may be non-zero
  5342  005126                     	endif
  5343  005126  0008               	tblrd		*
  5344  005128  50F5               	movf	tablat,w,c
  5345  00512A  6E0A               	movwf	??_atoi^0,c
  5346  00512C  6A0B               	clrf	(??_atoi+1)^0,c
  5347                           
  5348                           ; Switch on 2 bytes has been partitioned into a top level switch of size 1, and 1 sub-sw
      +                          itches
  5349                           ; Switch size 1, requested type "simple"
  5350                           ; Number of cases is 1, Range of values is 0 to 0
  5351                           ; switch strategies available:
  5352                           ; Name         Instructions Cycles
  5353                           ; simple_byte            4     3 (average)
  5354                           ;	Chosen strategy is simple_byte
  5355  00512E  500B               	movf	(??_atoi+1)^0,w,c
  5356  005130  0A00               	xorlw	0	; case 0
  5357  005132  A4D8               	btfss	status,2,c
  5358  005134  D022               	goto	i2l4945
  5359                           
  5360                           ; Switch size 1, requested type "simple"
  5361                           ; Number of cases is 2, Range of values is 43 to 45
  5362                           ; switch strategies available:
  5363                           ; Name         Instructions Cycles
  5364                           ; simple_byte            7     4 (average)
  5365                           ;	Chosen strategy is simple_byte
  5366  005136  500A               	movf	??_atoi^0,w,c
  5367  005138  0A2B               	xorlw	43	; case 43
  5368  00513A  B4D8               	btfsc	status,2,c
  5369  00513C  D7ED               	goto	i2l4937
  5370  00513E  0A06               	xorlw	6	; case 45
  5371  005140  B4D8               	btfsc	status,2,c
  5372  005142  D7E6               	goto	i2l4935
  5373  005144  D01A               	goto	i2l4945
  5374  005146                     i2l4941:
  5375  005146  C015  F001         	movff	atoi@n,___wmul@multiplier
  5376  00514A  C016  F002         	movff	atoi@n+1,___wmul@multiplier+1
  5377  00514E  0E00               	movlw	0
  5378  005150  6E04               	movwf	(___wmul@multiplicand+1)^0,c
  5379  005152  0E0A               	movlw	10
  5380  005154  6E03               	movwf	___wmul@multiplicand^0,c
  5381  005156  EC88  F02F         	call	___wmul	;wreg free
  5382  00515A  C008  FFF6         	movff	atoi@s,tblptrl
  5383  00515E  C009  FFF7         	movff	atoi@s+1,tblptrh
  5384  005162                     	if	0	;tblptru may be non-zero
  5385  005162                     	endif
  5386  005162                     	if	0	;tblptru may be non-zero
  5387  005162                     	endif
  5388  005162  0008               	tblrd		*
  5389  005164  50F5               	movf	tablat,w,c
  5390  005166  5E01               	subwf	?___wmul^0,f,c
  5391  005168  0E00               	movlw	0
  5392  00516A  5A02               	subwfb	(?___wmul+1)^0,f,c
  5393  00516C  0E30               	movlw	48
  5394  00516E  2401               	addwf	?___wmul^0,w,c
  5395  005170  6E15               	movwf	atoi@n^0,c
  5396  005172  0E00               	movlw	0
  5397  005174  2002               	addwfc	(?___wmul+1)^0,w,c
  5398  005176  6E16               	movwf	(atoi@n+1)^0,c
  5399  005178  D7CF               	goto	i2l4937
  5400  00517A                     i2l4945:
  5401  00517A  0ED0               	movlw	208
  5402  00517C  6E0A               	movwf	??_atoi^0,c
  5403  00517E  0EFF               	movlw	255
  5404  005180  6E0B               	movwf	(??_atoi+1)^0,c
  5405  005182  C008  FFF6         	movff	atoi@s,tblptrl
  5406  005186  C009  FFF7         	movff	atoi@s+1,tblptrh
  5407  00518A                     	if	0	;tblptru may be non-zero
  5408  00518A                     	endif
  5409  00518A                     	if	0	;tblptru may be non-zero
  5410  00518A                     	endif
  5411  00518A  0008               	tblrd		*
  5412  00518C  50F5               	movf	tablat,w,c
  5413  00518E  6E0C               	movwf	(??_atoi+2)^0,c
  5414  005190  6A0D               	clrf	(??_atoi+3)^0,c
  5415  005192  500A               	movf	??_atoi^0,w,c
  5416  005194  260C               	addwf	(??_atoi+2)^0,f,c
  5417  005196  500B               	movf	(??_atoi+1)^0,w,c
  5418  005198  220D               	addwfc	(??_atoi+3)^0,f,c
  5419  00519A  500D               	movf	(??_atoi+3)^0,w,c
  5420  00519C  E106               	bnz	i2u526_40
  5421  00519E  0E0A               	movlw	10
  5422  0051A0  5C0C               	subwf	(??_atoi+2)^0,w,c
  5423  0051A2  B0D8               	btfsc	status,0,c
  5424  0051A4  D002               	goto	i2u526_40
  5425  0051A6  0E01               	movlw	1
  5426  0051A8  D001               	goto	i2u527_40
  5427  0051AA                     i2u526_40:
  5428  0051AA  0E00               	movlw	0
  5429  0051AC                     i2u527_40:
  5430  0051AC  6E12               	movwf	_atoi$1648^0,c
  5431  0051AE  6A13               	clrf	(_atoi$1648+1)^0,c
  5432  0051B0  5012               	movf	_atoi$1648^0,w,c
  5433  0051B2  1013               	iorwf	(_atoi$1648+1)^0,w,c
  5434  0051B4  A4D8               	btfss	status,2,c
  5435  0051B6  D7C7               	goto	i2l4941
  5436  0051B8  500E               	movf	atoi@neg^0,w,c
  5437  0051BA  100F               	iorwf	(atoi@neg+1)^0,w,c
  5438  0051BC  A4D8               	btfss	status,2,c
  5439  0051BE  D00D               	goto	i2l1111
  5440  0051C0  C015  F00A         	movff	atoi@n,??_atoi
  5441  0051C4  C016  F00B         	movff	atoi@n+1,??_atoi+1
  5442  0051C8  1E0A               	comf	??_atoi^0,f,c
  5443  0051CA  1E0B               	comf	(??_atoi+1)^0,f,c
  5444  0051CC  4A0A               	infsnz	??_atoi^0,f,c
  5445  0051CE  2A0B               	incf	(??_atoi+1)^0,f,c
  5446  0051D0  C00A  F008         	movff	??_atoi,?_atoi
  5447  0051D4  C00B  F009         	movff	??_atoi+1,?_atoi+1
  5448  0051D8  0012               	return	
  5449  0051DA                     i2l1111:
  5450  0051DA  C015  F008         	movff	atoi@n,?_atoi
  5451  0051DE  C016  F009         	movff	atoi@n+1,?_atoi+1
  5452  0051E2  0012               	return		;funcret
  5453  0051E4                     __end_of_atoi:
  5454                           	opt callstack 0
  5455                           
  5456 ;; *************** function _isspace *****************
  5457 ;; Defined at:
  5458 ;;		line 5 in file "C:\Program Files (x86)\Microchip\xc8\v2.10\pic\sources\c99\common\isspace.c"
  5459 ;; Parameters:    Size  Location     Type
  5460 ;;  c               2    0[COMRAM] int 
  5461 ;; Auto vars:     Size  Location     Type
  5462 ;;		None
  5463 ;; Return value:  Size  Location     Type
  5464 ;;                  2    0[COMRAM] int 
  5465 ;; Registers used:
  5466 ;;		wreg, status,2, status,0
  5467 ;; Tracked objects:
  5468 ;;		On entry : 0/0
  5469 ;;		On exit  : 0/0
  5470 ;;		Unchanged: 0/0
  5471 ;; Data sizes:     COMRAM   BANK0   BANK1   BANK2   BANK3   BANK4   BANK5
  5472 ;;      Params:         2       0       0       0       0       0       0
  5473 ;;      Locals:         1       0       0       0       0       0       0
  5474 ;;      Temps:          4       0       0       0       0       0       0
  5475 ;;      Totals:         7       0       0       0       0       0       0
  5476 ;;Total ram usage:        7 bytes
  5477 ;; Hardware stack levels used:    1
  5478 ;; This function calls:
  5479 ;;		Nothing
  5480 ;; This function is called by:
  5481 ;;		_atoi
  5482 ;; This function uses a non-reentrant model
  5483 ;;
  5484                           
  5485                           	psect	text34
  5486  005CBE                     __ptext34:
  5487                           	opt callstack 0
  5488  005CBE                     _isspace:
  5489                           	opt callstack 18
  5490                           
  5491                           ;incstack = 0
  5492  005CBE  0E01               	movlw	1
  5493  005CC0  6E07               	movwf	_isspace$1664^0,c
  5494  005CC2  0E20               	movlw	32
  5495  005CC4  1801               	xorwf	isspace@c^0,w,c
  5496  005CC6  1002               	iorwf	(isspace@c+1)^0,w,c
  5497  005CC8  B4D8               	btfsc	status,2,c
  5498  005CCA  D014               	goto	i2l4179
  5499  005CCC  0EF7               	movlw	247
  5500  005CCE  6E03               	movwf	??_isspace^0,c
  5501  005CD0  0EFF               	movlw	255
  5502  005CD2  6E04               	movwf	(??_isspace+1)^0,c
  5503  005CD4  C001  F005         	movff	isspace@c,??_isspace+2
  5504  005CD8  C002  F006         	movff	isspace@c+1,??_isspace+3
  5505  005CDC  5003               	movf	??_isspace^0,w,c
  5506  005CDE  2605               	addwf	(??_isspace+2)^0,f,c
  5507  005CE0  5004               	movf	(??_isspace+1)^0,w,c
  5508  005CE2  2206               	addwfc	(??_isspace+3)^0,f,c
  5509  005CE4  5006               	movf	(??_isspace+3)^0,w,c
  5510  005CE6  E104               	bnz	i2u420_40
  5511  005CE8  0E05               	movlw	5
  5512  005CEA  5C05               	subwf	(??_isspace+2)^0,w,c
  5513  005CEC  A0D8               	btfss	status,0,c
  5514  005CEE  D002               	goto	i2l4179
  5515  005CF0                     i2u420_40:
  5516  005CF0  0E00               	movlw	0
  5517  005CF2  6E07               	movwf	_isspace$1664^0,c
  5518  005CF4                     i2l4179:
  5519  005CF4  C007  F001         	movff	_isspace$1664,?_isspace
  5520  005CF8  6A02               	clrf	(?_isspace+1)^0,c
  5521  005CFA  0012               	return		;funcret
  5522  005CFC                     __end_of_isspace:
  5523                           	opt callstack 0
  5524                           
  5525 ;; *************** function _isdigit *****************
  5526 ;; Defined at:
  5527 ;;		line 5 in file "C:\Program Files (x86)\Microchip\xc8\v2.10\pic\sources\c99\common\isdigit.c"
  5528 ;; Parameters:    Size  Location     Type
  5529 ;;  c               2    0[COMRAM] int 
  5530 ;; Auto vars:     Size  Location     Type
  5531 ;;		None
  5532 ;; Return value:  Size  Location     Type
  5533 ;;                  2    0[COMRAM] int 
  5534 ;; Registers used:
  5535 ;;		wreg, status,2, status,0
  5536 ;; Tracked objects:
  5537 ;;		On entry : 0/0
  5538 ;;		On exit  : 0/0
  5539 ;;		Unchanged: 0/0
  5540 ;; Data sizes:     COMRAM   BANK0   BANK1   BANK2   BANK3   BANK4   BANK5
  5541 ;;      Params:         2       0       0       0       0       0       0
  5542 ;;      Locals:         0       0       0       0       0       0       0
  5543 ;;      Temps:          4       0       0       0       0       0       0
  5544 ;;      Totals:         6       0       0       0       0       0       0
  5545 ;;Total ram usage:        6 bytes
  5546 ;; Hardware stack levels used:    1
  5547 ;; This function calls:
  5548 ;;		Nothing
  5549 ;; This function is called by:
  5550 ;;		_vfpfcnvrt
  5551 ;;		_atoi
  5552 ;; This function uses a non-reentrant model
  5553 ;;
  5554                           
  5555                           	psect	text35
  5556  005E2C                     __ptext35:
  5557                           	opt callstack 0
  5558  005E2C                     _isdigit:
  5559                           	opt callstack 19
  5560                           
  5561                           ;incstack = 0
  5562  005E2C  0ED0               	movlw	208
  5563  005E2E  6E03               	movwf	??_isdigit^0,c
  5564  005E30  0EFF               	movlw	255
  5565  005E32  6E04               	movwf	(??_isdigit+1)^0,c
  5566  005E34  C001  F005         	movff	isdigit@c,??_isdigit+2
  5567  005E38  C002  F006         	movff	isdigit@c+1,??_isdigit+3
  5568  005E3C  5003               	movf	??_isdigit^0,w,c
  5569  005E3E  2605               	addwf	(??_isdigit+2)^0,f,c
  5570  005E40  5004               	movf	(??_isdigit+1)^0,w,c
  5571  005E42  2206               	addwfc	(??_isdigit+3)^0,f,c
  5572  005E44  5006               	movf	(??_isdigit+3)^0,w,c
  5573  005E46  E106               	bnz	i2u370_40
  5574  005E48  0E0A               	movlw	10
  5575  005E4A  5C05               	subwf	(??_isdigit+2)^0,w,c
  5576  005E4C  B0D8               	btfsc	status,0,c
  5577  005E4E  D002               	goto	i2u370_40
  5578  005E50  0E01               	movlw	1
  5579  005E52  D001               	goto	i2u371_40
  5580  005E54                     i2u370_40:
  5581  005E54  0E00               	movlw	0
  5582  005E56                     i2u371_40:
  5583  005E56  6E01               	movwf	?_isdigit^0,c
  5584  005E58  6A02               	clrf	(?_isdigit+1)^0,c
  5585  005E5A  0012               	return		;funcret
  5586  005E5C                     __end_of_isdigit:
  5587                           	opt callstack 0
  5588                           
  5589 ;; *************** function ___wmul *****************
  5590 ;; Defined at:
  5591 ;;		line 15 in file "C:\Program Files (x86)\Microchip\xc8\v2.10\pic\sources\c99\common\Umul16.c"
  5592 ;; Parameters:    Size  Location     Type
  5593 ;;  multiplier      2    0[COMRAM] unsigned int 
  5594 ;;  multiplicand    2    2[COMRAM] unsigned int 
  5595 ;; Auto vars:     Size  Location     Type
  5596 ;;  product         2    4[COMRAM] unsigned int 
  5597 ;; Return value:  Size  Location     Type
  5598 ;;                  2    0[COMRAM] unsigned int 
  5599 ;; Registers used:
  5600 ;;		wreg, status,2, status,0, prodl, prodh
  5601 ;; Tracked objects:
  5602 ;;		On entry : 0/0
  5603 ;;		On exit  : 0/0
  5604 ;;		Unchanged: 0/0
  5605 ;; Data sizes:     COMRAM   BANK0   BANK1   BANK2   BANK3   BANK4   BANK5
  5606 ;;      Params:         4       0       0       0       0       0       0
  5607 ;;      Locals:         2       0       0       0       0       0       0
  5608 ;;      Temps:          0       0       0       0       0       0       0
  5609 ;;      Totals:         6       0       0       0       0       0       0
  5610 ;;Total ram usage:        6 bytes
  5611 ;; Hardware stack levels used:    1
  5612 ;; This function calls:
  5613 ;;		Nothing
  5614 ;; This function is called by:
  5615 ;;		_atoi
  5616 ;; This function uses a non-reentrant model
  5617 ;;
  5618                           
  5619                           	psect	text36
  5620  005F10                     __ptext36:
  5621                           	opt callstack 0
  5622  005F10                     ___wmul:
  5623                           	opt callstack 18
  5624                           
  5625                           ;incstack = 0
  5626  005F10  5001               	movf	___wmul@multiplier^0,w,c
  5627  005F12  0203               	mulwf	___wmul@multiplicand^0,c
  5628  005F14  CFF3 F005          	movff	prodl,___wmul@product
  5629  005F18  CFF4 F006          	movff	prodh,___wmul@product+1
  5630  005F1C  5001               	movf	___wmul@multiplier^0,w,c
  5631  005F1E  0204               	mulwf	(___wmul@multiplicand+1)^0,c
  5632  005F20  50F3               	movf	243,w,c
  5633  005F22  2606               	addwf	(___wmul@product+1)^0,f,c
  5634  005F24  5002               	movf	(___wmul@multiplier+1)^0,w,c
  5635  005F26  0203               	mulwf	___wmul@multiplicand^0,c
  5636  005F28  50F3               	movf	243,w,c
  5637  005F2A  2606               	addwf	(___wmul@product+1)^0,f,c
  5638  005F2C  C005  F001         	movff	___wmul@product,?___wmul
  5639  005F30  C006  F002         	movff	___wmul@product+1,?___wmul+1
  5640  005F34  0012               	return		;funcret
  5641  005F36                     __end_of___wmul:
  5642                           	opt callstack 0
  5643                           
  5644 ;; *************** function _memset *****************
  5645 ;; Defined at:
  5646 ;;		line 4 in file "C:\Program Files (x86)\Microchip\xc8\v2.10\pic\sources\c99\common\memset.c"
  5647 ;; Parameters:    Size  Location     Type
  5648 ;;  dest            2    0[COMRAM] PTR void 
  5649 ;;		 -> r(100), 
  5650 ;;  c               2    2[COMRAM] int 
  5651 ;;  n               2    4[COMRAM] unsigned int 
  5652 ;; Auto vars:     Size  Location     Type
  5653 ;;  s               2   10[COMRAM] PTR unsigned char 
  5654 ;;		 -> r(100), 
  5655 ;;  k               2    8[COMRAM] unsigned int 
  5656 ;; Return value:  Size  Location     Type
  5657 ;;                  2    0[COMRAM] PTR void 
  5658 ;; Registers used:
  5659 ;;		wreg, fsr2l, fsr2h, status,2, status,0
  5660 ;; Tracked objects:
  5661 ;;		On entry : 0/0
  5662 ;;		On exit  : 0/0
  5663 ;;		Unchanged: 0/0
  5664 ;; Data sizes:     COMRAM   BANK0   BANK1   BANK2   BANK3   BANK4   BANK5
  5665 ;;      Params:         6       0       0       0       0       0       0
  5666 ;;      Locals:         4       0       0       0       0       0       0
  5667 ;;      Temps:          2       0       0       0       0       0       0
  5668 ;;      Totals:        12       0       0       0       0       0       0
  5669 ;;Total ram usage:       12 bytes
  5670 ;; Hardware stack levels used:    1
  5671 ;; This function calls:
  5672 ;;		Nothing
  5673 ;; This function is called by:
  5674 ;;		_Hi_ISR
  5675 ;; This function uses a non-reentrant model
  5676 ;;
  5677                           
  5678                           	psect	text37
  5679  005324                     __ptext37:
  5680                           	opt callstack 0
  5681  005324                     _memset:
  5682                           	opt callstack 22
  5683                           
  5684                           ;incstack = 0
  5685  005324  C001  F00B         	movff	memset@dest,memset@s
  5686  005328  C002  F00C         	movff	memset@dest+1,memset@s+1
  5687  00532C  5005               	movf	memset@n^0,w,c
  5688  00532E  1006               	iorwf	(memset@n+1)^0,w,c
  5689  005330  B4D8               	btfsc	status,2,c
  5690  005332  0012               	return	
  5691  005334  C00B  FFD9         	movff	memset@s,fsr2l
  5692  005338  C00C  FFDA         	movff	memset@s+1,fsr2h
  5693  00533C  C003  FFDF         	movff	memset@c,indf2
  5694  005340  5005               	movf	memset@n^0,w,c
  5695  005342  240B               	addwf	memset@s^0,w,c
  5696  005344  6E07               	movwf	??_memset^0,c
  5697  005346  5006               	movf	(memset@n+1)^0,w,c
  5698  005348  200C               	addwfc	(memset@s+1)^0,w,c
  5699  00534A  6E08               	movwf	(??_memset+1)^0,c
  5700  00534C  0EFF               	movlw	255
  5701  00534E  2407               	addwf	??_memset^0,w,c
  5702  005350  6ED9               	movwf	fsr2l,c
  5703  005352  0EFF               	movlw	255
  5704  005354  2008               	addwfc	(??_memset+1)^0,w,c
  5705  005356  6EDA               	movwf	fsr2h,c
  5706  005358  C003  FFDF         	movff	memset@c,indf2
  5707  00535C  5006               	movf	(memset@n+1)^0,w,c
  5708  00535E  E104               	bnz	i2l5295
  5709  005360  0E03               	movlw	3
  5710  005362  5C05               	subwf	memset@n^0,w,c
  5711  005364  A0D8               	btfss	status,0,c
  5712  005366  0012               	return	
  5713  005368                     i2l5295:
  5714  005368  EE20 F001          	lfsr	2,1
  5715  00536C  500B               	movf	memset@s^0,w,c
  5716  00536E  26D9               	addwf	fsr2l,f,c
  5717  005370  500C               	movf	(memset@s+1)^0,w,c
  5718  005372  22DA               	addwfc	fsr2h,f,c
  5719  005374  C003  FFDF         	movff	memset@c,indf2
  5720  005378  EE20 F002          	lfsr	2,2
  5721  00537C  500B               	movf	memset@s^0,w,c
  5722  00537E  26D9               	addwf	fsr2l,f,c
  5723  005380  500C               	movf	(memset@s+1)^0,w,c
  5724  005382  22DA               	addwfc	fsr2h,f,c
  5725  005384  C003  FFDF         	movff	memset@c,indf2
  5726  005388  5005               	movf	memset@n^0,w,c
  5727  00538A  240B               	addwf	memset@s^0,w,c
  5728  00538C  6E07               	movwf	??_memset^0,c
  5729  00538E  5006               	movf	(memset@n+1)^0,w,c
  5730  005390  200C               	addwfc	(memset@s+1)^0,w,c
  5731  005392  6E08               	movwf	(??_memset+1)^0,c
  5732  005394  0EFE               	movlw	254
  5733  005396  2407               	addwf	??_memset^0,w,c
  5734  005398  6ED9               	movwf	fsr2l,c
  5735  00539A  0EFF               	movlw	255
  5736  00539C  2008               	addwfc	(??_memset+1)^0,w,c
  5737  00539E  6EDA               	movwf	fsr2h,c
  5738  0053A0  C003  FFDF         	movff	memset@c,indf2
  5739  0053A4  5005               	movf	memset@n^0,w,c
  5740  0053A6  240B               	addwf	memset@s^0,w,c
  5741  0053A8  6E07               	movwf	??_memset^0,c
  5742  0053AA  5006               	movf	(memset@n+1)^0,w,c
  5743  0053AC  200C               	addwfc	(memset@s+1)^0,w,c
  5744  0053AE  6E08               	movwf	(??_memset+1)^0,c
  5745  0053B0  0EFD               	movlw	253
  5746  0053B2  2407               	addwf	??_memset^0,w,c
  5747  0053B4  6ED9               	movwf	fsr2l,c
  5748  0053B6  0EFF               	movlw	255
  5749  0053B8  2008               	addwfc	(??_memset+1)^0,w,c
  5750  0053BA  6EDA               	movwf	fsr2h,c
  5751  0053BC  C003  FFDF         	movff	memset@c,indf2
  5752  0053C0  5006               	movf	(memset@n+1)^0,w,c
  5753  0053C2  E104               	bnz	i2l5301
  5754  0053C4  0E07               	movlw	7
  5755  0053C6  5C05               	subwf	memset@n^0,w,c
  5756  0053C8  A0D8               	btfss	status,0,c
  5757  0053CA  0012               	return	
  5758  0053CC                     i2l5301:
  5759  0053CC  EE20 F003          	lfsr	2,3
  5760  0053D0  500B               	movf	memset@s^0,w,c
  5761  0053D2  26D9               	addwf	fsr2l,f,c
  5762  0053D4  500C               	movf	(memset@s+1)^0,w,c
  5763  0053D6  22DA               	addwfc	fsr2h,f,c
  5764  0053D8  C003  FFDF         	movff	memset@c,indf2
  5765  0053DC  5005               	movf	memset@n^0,w,c
  5766  0053DE  240B               	addwf	memset@s^0,w,c
  5767  0053E0  6E07               	movwf	??_memset^0,c
  5768  0053E2  5006               	movf	(memset@n+1)^0,w,c
  5769  0053E4  200C               	addwfc	(memset@s+1)^0,w,c
  5770  0053E6  6E08               	movwf	(??_memset+1)^0,c
  5771  0053E8  0EFC               	movlw	252
  5772  0053EA  2407               	addwf	??_memset^0,w,c
  5773  0053EC  6ED9               	movwf	fsr2l,c
  5774  0053EE  0EFF               	movlw	255
  5775  0053F0  2008               	addwfc	(??_memset+1)^0,w,c
  5776  0053F2  6EDA               	movwf	fsr2h,c
  5777  0053F4  C003  FFDF         	movff	memset@c,indf2
  5778  0053F8  5006               	movf	(memset@n+1)^0,w,c
  5779  0053FA  E104               	bnz	i2l5307
  5780  0053FC  0E09               	movlw	9
  5781  0053FE  5C05               	subwf	memset@n^0,w,c
  5782  005400  A0D8               	btfss	status,0,c
  5783  005402  0012               	return	
  5784  005404                     i2l5307:
  5785  005404  C00B  F007         	movff	memset@s,??_memset
  5786  005408  C00C  F008         	movff	memset@s+1,??_memset+1
  5787  00540C  1E07               	comf	??_memset^0,f,c
  5788  00540E  1E08               	comf	(??_memset+1)^0,f,c
  5789  005410  4A07               	infsnz	??_memset^0,f,c
  5790  005412  2A08               	incf	(??_memset+1)^0,f,c
  5791  005414  0E03               	movlw	3
  5792  005416  1407               	andwf	??_memset^0,w,c
  5793  005418  6E09               	movwf	memset@k^0,c
  5794  00541A  6A0A               	clrf	(memset@k+1)^0,c
  5795  00541C  5009               	movf	memset@k^0,w,c
  5796  00541E  260B               	addwf	memset@s^0,f,c
  5797  005420  500A               	movf	(memset@k+1)^0,w,c
  5798  005422  220C               	addwfc	(memset@s+1)^0,f,c
  5799  005424  5009               	movf	memset@k^0,w,c
  5800  005426  5E05               	subwf	memset@n^0,f,c
  5801  005428  500A               	movf	(memset@k+1)^0,w,c
  5802  00542A  5A06               	subwfb	(memset@n+1)^0,f,c
  5803  00542C  0EFC               	movlw	252
  5804  00542E  1605               	andwf	memset@n^0,f,c
  5805  005430  0EFF               	movlw	255
  5806  005432  1606               	andwf	(memset@n+1)^0,f,c
  5807  005434  D00B               	goto	i2l5315
  5808  005436                     i2l5309:
  5809  005436  C00B  FFD9         	movff	memset@s,fsr2l
  5810  00543A  C00C  FFDA         	movff	memset@s+1,fsr2h
  5811  00543E  C003  FFDF         	movff	memset@c,indf2
  5812  005442  0605               	decf	memset@n^0,f,c
  5813  005444  A0D8               	btfss	status,0,c
  5814  005446  0606               	decf	(memset@n+1)^0,f,c
  5815  005448  4A0B               	infsnz	memset@s^0,f,c
  5816  00544A  2A0C               	incf	(memset@s+1)^0,f,c
  5817  00544C                     i2l5315:
  5818  00544C  5005               	movf	memset@n^0,w,c
  5819  00544E  1006               	iorwf	(memset@n+1)^0,w,c
  5820  005450  B4D8               	btfsc	status,2,c
  5821  005452  0012               	return	
  5822  005454  D7F0               	goto	i2l5309
  5823  005456                     __end_of_memset:
  5824                           	opt callstack 0
  5825                           
  5826 ;; *************** function _MQ_Read *****************
  5827 ;; Defined at:
  5828 ;;		line 47 in file "setting_hardaware/adc.c"
  5829 ;; Parameters:    Size  Location     Type
  5830 ;;  values          2  105[BANK0 ] PTR 
  5831 ;;		 -> value(12), 
  5832 ;; Auto vars:     Size  Location     Type
  5833 ;;  res             4  111[BANK0 ] PTR 
  5834 ;;  digital         2  109[BANK0 ] int 
  5835 ;; Return value:  Size  Location     Type
  5836 ;;                  1    wreg      void 
  5837 ;; Registers used:
  5838 ;;		wreg, fsr2l, fsr2h, status,2, status,0, tblptrl, tblptrh, tblptru, prodl, prodh, cstack
  5839 ;; Tracked objects:
  5840 ;;		On entry : 0/0
  5841 ;;		On exit  : 0/0
  5842 ;;		Unchanged: 0/0
  5843 ;; Data sizes:     COMRAM   BANK0   BANK1   BANK2   BANK3   BANK4   BANK5
  5844 ;;      Params:         0       2       0       0       0       0       0
  5845 ;;      Locals:         0      10       0       0       0       0       0
  5846 ;;      Temps:          0       2       0       0       0       0       0
  5847 ;;      Totals:         0      14       0       0       0       0       0
  5848 ;;Total ram usage:       14 bytes
  5849 ;; Hardware stack levels used:    1
  5850 ;; Hardware stack levels required when called:    5
  5851 ;; This function calls:
  5852 ;;		_MQGetGasPercentage
  5853 ;;		___fldiv
  5854 ;;		___flge
  5855 ;;		___flmul
  5856 ;;		___xxtofl
  5857 ;; This function is called by:
  5858 ;;		_Hi_ISR
  5859 ;; This function uses a non-reentrant model
  5860 ;;
  5861                           
  5862                           	psect	text38
  5863  003FC2                     __ptext38:
  5864                           	opt callstack 0
  5865  003FC2                     _MQ_Read:
  5866                           	opt callstack 17
  5867                           
  5868                           ;setting_hardaware/adc.c: 48:     int digital;;setting_hardaware/adc.c: 51:     ADCON0bi
      +                          ts.CHS = 1 ;
  5869                           
  5870                           ;incstack = 0
  5871  003FC2  50C2               	movf	194,w,c	;volatile
  5872  003FC4  0BC3               	andlw	-61
  5873  003FC6  0904               	iorlw	4
  5874  003FC8  6EC2               	movwf	194,c	;volatile
  5875                           
  5876                           ;setting_hardaware/adc.c: 52:     ADCON0bits.ADON = 1;
  5877  003FCA  80C2               	bsf	194,0,c	;volatile
  5878                           
  5879                           ;setting_hardaware/adc.c: 53:     ADCON0bits.GO = 1;
  5880  003FCC  82C2               	bsf	194,1,c	;volatile
  5881  003FCE                     i2l161:
  5882  003FCE  B2C2               	btfsc	194,1,c	;volatile
  5883  003FD0  D7FE               	goto	i2l161
  5884                           
  5885                           ;setting_hardaware/adc.c: 55:     digital = ADRES;
  5886  003FD2  CFC3 F0ED          	movff	4035,MQ_Read@digital	;volatile
  5887  003FD6  CFC4 F0EE          	movff	4036,MQ_Read@digital+1	;volatile
  5888                           
  5889                           ;setting_hardaware/adc.c: 56:     double res=5.00*(1023-digital)/(double)digital;
  5890  003FDA  0E00               	movlw	0
  5891  003FDC  6E15               	movwf	___flmul@a^0,c
  5892  003FDE  0E00               	movlw	0
  5893  003FE0  6E16               	movwf	(___flmul@a+1)^0,c
  5894  003FE2  0EA0               	movlw	160
  5895  003FE4  6E17               	movwf	(___flmul@a+2)^0,c
  5896  003FE6  0E40               	movlw	64
  5897  003FE8  6E18               	movwf	(___flmul@a+3)^0,c
  5898  003FEA  0EFF               	movlw	255
  5899  003FEC  0100               	movlb	0	; () banked
  5900  003FEE  6FEB               	movwf	??_MQ_Read& (0+255),b
  5901  003FF0  0E03               	movlw	3
  5902  003FF2  6FEC               	movwf	(??_MQ_Read+1)& (0+255),b
  5903  003FF4  51ED               	movf	MQ_Read@digital& (0+255),w,b
  5904  003FF6  5FEB               	subwf	??_MQ_Read& (0+255),f,b
  5905  003FF8  51EE               	movf	(MQ_Read@digital+1)& (0+255),w,b
  5906  003FFA  5BEC               	subwfb	(??_MQ_Read+1)& (0+255),f,b
  5907  003FFC  C0EB  F001         	movff	??_MQ_Read,___xxtofl@val
  5908  004000  C0EC  F002         	movff	??_MQ_Read+1,___xxtofl@val+1
  5909  004004  0E00               	movlw	0
  5910  004006  BE02               	btfsc	(___xxtofl@val+1)^0,7,c
  5911  004008  0EFF               	movlw	-1
  5912  00400A  6E03               	movwf	(___xxtofl@val+2)^0,c
  5913  00400C  6E04               	movwf	(___xxtofl@val+3)^0,c
  5914  00400E  0E01               	movlw	1
  5915  004010  ECF2  F028         	call	___xxtofl
  5916  004014  C001  F011         	movff	?___xxtofl,___flmul@b
  5917  004018  C002  F012         	movff	?___xxtofl+1,___flmul@b+1
  5918  00401C  C003  F013         	movff	?___xxtofl+2,___flmul@b+2
  5919  004020  C004  F014         	movff	?___xxtofl+3,___flmul@b+3
  5920  004024  ECB2  F01C         	call	___flmul	;wreg free
  5921  004028  C011  F032         	movff	?___flmul,___fldiv@b
  5922  00402C  C012  F033         	movff	?___flmul+1,___fldiv@b+1
  5923  004030  C013  F034         	movff	?___flmul+2,___fldiv@b+2
  5924  004034  C014  F035         	movff	?___flmul+3,___fldiv@b+3
  5925  004038  C0ED  F001         	movff	MQ_Read@digital,___xxtofl@val
  5926  00403C  C0EE  F002         	movff	MQ_Read@digital+1,___xxtofl@val+1
  5927  004040  0E00               	movlw	0
  5928  004042  BE02               	btfsc	(___xxtofl@val+1)^0,7,c
  5929  004044  0EFF               	movlw	-1
  5930  004046  6E03               	movwf	(___xxtofl@val+2)^0,c
  5931  004048  6E04               	movwf	(___xxtofl@val+3)^0,c
  5932  00404A  0E01               	movlw	1
  5933  00404C  ECF2  F028         	call	___xxtofl
  5934  004050  C001  F036         	movff	?___xxtofl,___fldiv@a
  5935  004054  C002  F037         	movff	?___xxtofl+1,___fldiv@a+1
  5936  004058  C003  F038         	movff	?___xxtofl+2,___fldiv@a+2
  5937  00405C  C004  F039         	movff	?___xxtofl+3,___fldiv@a+3
  5938  004060  EC4B  F021         	call	___fldiv	;wreg free
  5939  004064  C032  F0EF         	movff	?___fldiv,MQ_Read@res
  5940  004068  C033  F0F0         	movff	?___fldiv+1,MQ_Read@res+1
  5941  00406C  C034  F0F1         	movff	?___fldiv+2,MQ_Read@res+2
  5942  004070  C035  F0F2         	movff	?___fldiv+3,MQ_Read@res+3
  5943                           
  5944                           ;setting_hardaware/adc.c: 57:     lpg = MQGetGasPercentage(res/Ro,GAS_LPG);
  5945  004074  C0EF  F032         	movff	MQ_Read@res,___fldiv@b
  5946  004078  C0F0  F033         	movff	MQ_Read@res+1,___fldiv@b+1
  5947  00407C  C0F1  F034         	movff	MQ_Read@res+2,___fldiv@b+2
  5948  004080  C0F2  F035         	movff	MQ_Read@res+3,___fldiv@b+3
  5949  004084  C1F1  F036         	movff	_Ro,___fldiv@a
  5950  004088  C1F2  F037         	movff	_Ro+1,___fldiv@a+1
  5951  00408C  C1F3  F038         	movff	_Ro+2,___fldiv@a+2
  5952  004090  C1F4  F039         	movff	_Ro+3,___fldiv@a+3
  5953  004094  EC4B  F021         	call	___fldiv	;wreg free
  5954  004098  C032  F0F3         	movff	?___fldiv,_MQ_Read$2129
  5955  00409C  C033  F0F4         	movff	?___fldiv+1,_MQ_Read$2129+1
  5956  0040A0  C034  F0F5         	movff	?___fldiv+2,_MQ_Read$2129+2
  5957  0040A4  C035  F0F6         	movff	?___fldiv+3,_MQ_Read$2129+3
  5958                           
  5959                           ;setting_hardaware/adc.c: 57:     lpg = MQGetGasPercentage(res/Ro,GAS_LPG);
  5960  0040A8  C0F3  F0DF         	movff	_MQ_Read$2129,MQGetGasPercentage@rs_ro_ratio
  5961  0040AC  C0F4  F0E0         	movff	_MQ_Read$2129+1,MQGetGasPercentage@rs_ro_ratio+1
  5962  0040B0  C0F5  F0E1         	movff	_MQ_Read$2129+2,MQGetGasPercentage@rs_ro_ratio+2
  5963  0040B4  C0F6  F0E2         	movff	_MQ_Read$2129+3,MQGetGasPercentage@rs_ro_ratio+3
  5964  0040B8  C1E1  F0E3         	movff	_GAS_LPG,MQGetGasPercentage@gas_id
  5965  0040BC  C1E2  F0E4         	movff	_GAS_LPG+1,MQGetGasPercentage@gas_id+1
  5966  0040C0  EC00  F027         	call	_MQGetGasPercentage	;wreg free
  5967  0040C4  C0DF  F1D7         	movff	?_MQGetGasPercentage,_lpg
  5968  0040C8  C0E0  F1D8         	movff	?_MQGetGasPercentage+1,_lpg+1
  5969  0040CC  C0E1  F1D9         	movff	?_MQGetGasPercentage+2,_lpg+2
  5970  0040D0  C0E2  F1DA         	movff	?_MQGetGasPercentage+3,_lpg+3
  5971                           
  5972                           ;setting_hardaware/adc.c: 58:     if(lpg>=10000){
  5973  0040D4  C1D7  F032         	movff	_lpg,___flge@ff1
  5974  0040D8  C1D8  F033         	movff	_lpg+1,___flge@ff1+1
  5975  0040DC  C1D9  F034         	movff	_lpg+2,___flge@ff1+2
  5976  0040E0  C1DA  F035         	movff	_lpg+3,___flge@ff1+3
  5977  0040E4  0E00               	movlw	0
  5978  0040E6  6E36               	movwf	___flge@ff2^0,c
  5979  0040E8  0E40               	movlw	64
  5980  0040EA  6E37               	movwf	(___flge@ff2+1)^0,c
  5981  0040EC  0E1C               	movlw	28
  5982  0040EE  6E38               	movwf	(___flge@ff2+2)^0,c
  5983  0040F0  0E46               	movlw	70
  5984  0040F2  6E39               	movwf	(___flge@ff2+3)^0,c
  5985  0040F4  EC47  F02B         	call	___flge	;wreg free
  5986  0040F8  A0D8               	btfss	status,0,c
  5987  0040FA  D009               	goto	i2l5261
  5988                           
  5989                           ;setting_hardaware/adc.c: 59:         lpg=10000;
  5990  0040FC  0E00               	movlw	0
  5991  0040FE  0101               	movlb	1	; () banked
  5992  004100  6FD7               	movwf	_lpg& (0+255),b
  5993  004102  0E40               	movlw	64
  5994  004104  6FD8               	movwf	(_lpg+1)& (0+255),b
  5995  004106  0E1C               	movlw	28
  5996  004108  6FD9               	movwf	(_lpg+2)& (0+255),b
  5997  00410A  0E46               	movlw	70
  5998  00410C  6FDA               	movwf	(_lpg+3)& (0+255),b
  5999  00410E                     i2l5261:
  6000                           
  6001                           ;setting_hardaware/adc.c: 61:     co = MQGetGasPercentage(res/Ro,GAS_CO);
  6002  00410E  C0EF  F032         	movff	MQ_Read@res,___fldiv@b
  6003  004112  C0F0  F033         	movff	MQ_Read@res+1,___fldiv@b+1
  6004  004116  C0F1  F034         	movff	MQ_Read@res+2,___fldiv@b+2
  6005  00411A  C0F2  F035         	movff	MQ_Read@res+3,___fldiv@b+3
  6006  00411E  C1F1  F036         	movff	_Ro,___fldiv@a
  6007  004122  C1F2  F037         	movff	_Ro+1,___fldiv@a+1
  6008  004126  C1F3  F038         	movff	_Ro+2,___fldiv@a+2
  6009  00412A  C1F4  F039         	movff	_Ro+3,___fldiv@a+3
  6010  00412E  EC4B  F021         	call	___fldiv	;wreg free
  6011  004132  C032  F0F3         	movff	?___fldiv,_MQ_Read$2129
  6012  004136  C033  F0F4         	movff	?___fldiv+1,_MQ_Read$2129+1
  6013  00413A  C034  F0F5         	movff	?___fldiv+2,_MQ_Read$2129+2
  6014  00413E  C035  F0F6         	movff	?___fldiv+3,_MQ_Read$2129+3
  6015                           
  6016                           ;setting_hardaware/adc.c: 61:     co = MQGetGasPercentage(res/Ro,GAS_CO);
  6017  004142  C0F3  F0DF         	movff	_MQ_Read$2129,MQGetGasPercentage@rs_ro_ratio
  6018  004146  C0F4  F0E0         	movff	_MQ_Read$2129+1,MQGetGasPercentage@rs_ro_ratio+1
  6019  00414A  C0F5  F0E1         	movff	_MQ_Read$2129+2,MQGetGasPercentage@rs_ro_ratio+2
  6020  00414E  C0F6  F0E2         	movff	_MQ_Read$2129+3,MQGetGasPercentage@rs_ro_ratio+3
  6021  004152  C1F9  F0E3         	movff	_GAS_CO,MQGetGasPercentage@gas_id
  6022  004156  C1FA  F0E4         	movff	_GAS_CO+1,MQGetGasPercentage@gas_id+1
  6023  00415A  EC00  F027         	call	_MQGetGasPercentage	;wreg free
  6024  00415E  C0DF  F1D3         	movff	?_MQGetGasPercentage,_co
  6025  004162  C0E0  F1D4         	movff	?_MQGetGasPercentage+1,_co+1
  6026  004166  C0E1  F1D5         	movff	?_MQGetGasPercentage+2,_co+2
  6027  00416A  C0E2  F1D6         	movff	?_MQGetGasPercentage+3,_co+3
  6028                           
  6029                           ;setting_hardaware/adc.c: 62:     if(co>=10000){
  6030  00416E  C1D3  F032         	movff	_co,___flge@ff1
  6031  004172  C1D4  F033         	movff	_co+1,___flge@ff1+1
  6032  004176  C1D5  F034         	movff	_co+2,___flge@ff1+2
  6033  00417A  C1D6  F035         	movff	_co+3,___flge@ff1+3
  6034  00417E  0E00               	movlw	0
  6035  004180  6E36               	movwf	___flge@ff2^0,c
  6036  004182  0E40               	movlw	64
  6037  004184  6E37               	movwf	(___flge@ff2+1)^0,c
  6038  004186  0E1C               	movlw	28
  6039  004188  6E38               	movwf	(___flge@ff2+2)^0,c
  6040  00418A  0E46               	movlw	70
  6041  00418C  6E39               	movwf	(___flge@ff2+3)^0,c
  6042  00418E  EC47  F02B         	call	___flge	;wreg free
  6043  004192  A0D8               	btfss	status,0,c
  6044  004194  D009               	goto	i2l5269
  6045                           
  6046                           ;setting_hardaware/adc.c: 63:         co=10000;
  6047  004196  0E00               	movlw	0
  6048  004198  0101               	movlb	1	; () banked
  6049  00419A  6FD3               	movwf	_co& (0+255),b
  6050  00419C  0E40               	movlw	64
  6051  00419E  6FD4               	movwf	(_co+1)& (0+255),b
  6052  0041A0  0E1C               	movlw	28
  6053  0041A2  6FD5               	movwf	(_co+2)& (0+255),b
  6054  0041A4  0E46               	movlw	70
  6055  0041A6  6FD6               	movwf	(_co+3)& (0+255),b
  6056  0041A8                     i2l5269:
  6057                           
  6058                           ;setting_hardaware/adc.c: 65:     smoke = MQGetGasPercentage(res/Ro,GAS_SMOKE);
  6059  0041A8  C0EF  F032         	movff	MQ_Read@res,___fldiv@b
  6060  0041AC  C0F0  F033         	movff	MQ_Read@res+1,___fldiv@b+1
  6061  0041B0  C0F1  F034         	movff	MQ_Read@res+2,___fldiv@b+2
  6062  0041B4  C0F2  F035         	movff	MQ_Read@res+3,___fldiv@b+3
  6063  0041B8  C1F1  F036         	movff	_Ro,___fldiv@a
  6064  0041BC  C1F2  F037         	movff	_Ro+1,___fldiv@a+1
  6065  0041C0  C1F3  F038         	movff	_Ro+2,___fldiv@a+2
  6066  0041C4  C1F4  F039         	movff	_Ro+3,___fldiv@a+3
  6067  0041C8  EC4B  F021         	call	___fldiv	;wreg free
  6068  0041CC  C032  F0F3         	movff	?___fldiv,_MQ_Read$2129
  6069  0041D0  C033  F0F4         	movff	?___fldiv+1,_MQ_Read$2129+1
  6070  0041D4  C034  F0F5         	movff	?___fldiv+2,_MQ_Read$2129+2
  6071  0041D8  C035  F0F6         	movff	?___fldiv+3,_MQ_Read$2129+3
  6072                           
  6073                           ;setting_hardaware/adc.c: 65:     smoke = MQGetGasPercentage(res/Ro,GAS_SMOKE);
  6074  0041DC  C0F3  F0DF         	movff	_MQ_Read$2129,MQGetGasPercentage@rs_ro_ratio
  6075  0041E0  C0F4  F0E0         	movff	_MQ_Read$2129+1,MQGetGasPercentage@rs_ro_ratio+1
  6076  0041E4  C0F5  F0E1         	movff	_MQ_Read$2129+2,MQGetGasPercentage@rs_ro_ratio+2
  6077  0041E8  C0F6  F0E2         	movff	_MQ_Read$2129+3,MQGetGasPercentage@rs_ro_ratio+3
  6078  0041EC  C1F7  F0E3         	movff	_GAS_SMOKE,MQGetGasPercentage@gas_id
  6079  0041F0  C1F8  F0E4         	movff	_GAS_SMOKE+1,MQGetGasPercentage@gas_id+1
  6080  0041F4  EC00  F027         	call	_MQGetGasPercentage	;wreg free
  6081  0041F8  C0DF  F1CF         	movff	?_MQGetGasPercentage,_smoke
  6082  0041FC  C0E0  F1D0         	movff	?_MQGetGasPercentage+1,_smoke+1
  6083  004200  C0E1  F1D1         	movff	?_MQGetGasPercentage+2,_smoke+2
  6084  004204  C0E2  F1D2         	movff	?_MQGetGasPercentage+3,_smoke+3
  6085                           
  6086                           ;setting_hardaware/adc.c: 66:     if(smoke>=10000){
  6087  004208  C1CF  F032         	movff	_smoke,___flge@ff1
  6088  00420C  C1D0  F033         	movff	_smoke+1,___flge@ff1+1
  6089  004210  C1D1  F034         	movff	_smoke+2,___flge@ff1+2
  6090  004214  C1D2  F035         	movff	_smoke+3,___flge@ff1+3
  6091  004218  0E00               	movlw	0
  6092  00421A  6E36               	movwf	___flge@ff2^0,c
  6093  00421C  0E40               	movlw	64
  6094  00421E  6E37               	movwf	(___flge@ff2+1)^0,c
  6095  004220  0E1C               	movlw	28
  6096  004222  6E38               	movwf	(___flge@ff2+2)^0,c
  6097  004224  0E46               	movlw	70
  6098  004226  6E39               	movwf	(___flge@ff2+3)^0,c
  6099  004228  EC47  F02B         	call	___flge	;wreg free
  6100  00422C  A0D8               	btfss	status,0,c
  6101  00422E  D009               	goto	i2l5277
  6102                           
  6103                           ;setting_hardaware/adc.c: 67:         smoke=10000;
  6104  004230  0E00               	movlw	0
  6105  004232  0101               	movlb	1	; () banked
  6106  004234  6FCF               	movwf	_smoke& (0+255),b
  6107  004236  0E40               	movlw	64
  6108  004238  6FD0               	movwf	(_smoke+1)& (0+255),b
  6109  00423A  0E1C               	movlw	28
  6110  00423C  6FD1               	movwf	(_smoke+2)& (0+255),b
  6111  00423E  0E46               	movlw	70
  6112  004240  6FD2               	movwf	(_smoke+3)& (0+255),b
  6113  004242                     i2l5277:
  6114                           
  6115                           ;setting_hardaware/adc.c: 71:     values[0]=lpg;
  6116  004242  C0E9  FFD9         	movff	MQ_Read@values,fsr2l
  6117  004246  C0EA  FFDA         	movff	MQ_Read@values+1,fsr2h
  6118  00424A  C1D7  FFDE         	movff	_lpg,postinc2
  6119  00424E  C1D8  FFDE         	movff	_lpg+1,postinc2
  6120  004252  C1D9  FFDE         	movff	_lpg+2,postinc2
  6121  004256  C1DA  FFDE         	movff	_lpg+3,postinc2
  6122                           
  6123                           ;setting_hardaware/adc.c: 72:     values[1]=co;
  6124  00425A  0100               	movlb	0	; () banked
  6125  00425C  EE20 F004          	lfsr	2,4
  6126  004260  51E9               	movf	MQ_Read@values& (0+255),w,b
  6127  004262  26D9               	addwf	fsr2l,f,c
  6128  004264  51EA               	movf	(MQ_Read@values+1)& (0+255),w,b
  6129  004266  22DA               	addwfc	fsr2h,f,c
  6130  004268  C1D3  FFDE         	movff	_co,postinc2
  6131  00426C  C1D4  FFDE         	movff	_co+1,postinc2
  6132  004270  C1D5  FFDE         	movff	_co+2,postinc2
  6133  004274  C1D6  FFDE         	movff	_co+3,postinc2
  6134                           
  6135                           ; BSR set to: 0
  6136                           ;setting_hardaware/adc.c: 73:     values[2]=smoke;
  6137  004278  EE20 F008          	lfsr	2,8
  6138  00427C  51E9               	movf	MQ_Read@values& (0+255),w,b
  6139  00427E  26D9               	addwf	fsr2l,f,c
  6140  004280  51EA               	movf	(MQ_Read@values+1)& (0+255),w,b
  6141  004282  22DA               	addwfc	fsr2h,f,c
  6142  004284  C1CF  FFDE         	movff	_smoke,postinc2
  6143  004288  C1D0  FFDE         	movff	_smoke+1,postinc2
  6144  00428C  C1D1  FFDE         	movff	_smoke+2,postinc2
  6145  004290  C1D2  FFDE         	movff	_smoke+3,postinc2
  6146                           
  6147                           ; BSR set to: 0
  6148  004294  0012               	return		;funcret
  6149  004296                     __end_of_MQ_Read:
  6150                           	opt callstack 0
  6151                           
  6152 ;; *************** function _MQGetGasPercentage *****************
  6153 ;; Defined at:
  6154 ;;		line 28 in file "setting_hardaware/adc.c"
  6155 ;; Parameters:    Size  Location     Type
  6156 ;;  rs_ro_ratio     4   95[BANK0 ] void 
  6157 ;;  gas_id          2   99[BANK0 ] int 
  6158 ;; Auto vars:     Size  Location     Type
  6159 ;;		None
  6160 ;; Return value:  Size  Location     Type
  6161 ;;                  4   95[BANK0 ] int 
  6162 ;; Registers used:
  6163 ;;		wreg, fsr2l, fsr2h, status,2, status,0, tblptrl, tblptrh, tblptru, prodl, prodh, cstack
  6164 ;; Tracked objects:
  6165 ;;		On entry : 0/0
  6166 ;;		On exit  : 0/0
  6167 ;;		Unchanged: 0/0
  6168 ;; Data sizes:     COMRAM   BANK0   BANK1   BANK2   BANK3   BANK4   BANK5
  6169 ;;      Params:         0       6       0       0       0       0       0
  6170 ;;      Locals:         0       4       0       0       0       0       0
  6171 ;;      Temps:          0       0       0       0       0       0       0
  6172 ;;      Totals:         0      10       0       0       0       0       0
  6173 ;;Total ram usage:       10 bytes
  6174 ;; Hardware stack levels used:    1
  6175 ;; Hardware stack levels required when called:    4
  6176 ;; This function calls:
  6177 ;;		_MQGetPercentage
  6178 ;;		___xxtofl
  6179 ;; This function is called by:
  6180 ;;		_MQ_Read
  6181 ;; This function uses a non-reentrant model
  6182 ;;
  6183                           
  6184                           	psect	text39
  6185  004E00                     __ptext39:
  6186                           	opt callstack 0
  6187  004E00                     _MQGetGasPercentage:
  6188                           	opt callstack 17
  6189                           
  6190                           ;setting_hardaware/adc.c: 29:   if ( gas_id == GAS_LPG ) {
  6191                           
  6192                           ; BSR set to: 0
  6193                           ;incstack = 0
  6194  004E00  0101               	movlb	1	; () banked
  6195  004E02  51E1               	movf	_GAS_LPG& (0+255),w,b
  6196  004E04  0100               	movlb	0	; () banked
  6197  004E06  19E3               	xorwf	MQGetGasPercentage@gas_id& (0+255),w,b
  6198  004E08  E132               	bnz	i2l5139
  6199  004E0A  0101               	movlb	1	; () banked
  6200  004E0C  51E2               	movf	(_GAS_LPG+1)& (0+255),w,b
  6201  004E0E  0100               	movlb	0	; () banked
  6202  004E10  19E4               	xorwf	(MQGetGasPercentage@gas_id+1)& (0+255),w,b
  6203  004E12  A4D8               	btfss	status,2,c
  6204  004E14  D02C               	goto	i2l5139
  6205                           
  6206                           ; BSR set to: 0
  6207                           ;setting_hardaware/adc.c: 30:      return MQGetPercentage(rs_ro_ratio,LPGCurve);
  6208  004E16  0EA8               	movlw	low _LPGCurve
  6209  004E18  6FD1               	movwf	MQGetPercentage@pcurve& (0+255),b
  6210  004E1A  0E02               	movlw	high _LPGCurve
  6211  004E1C  6FD2               	movwf	(MQGetPercentage@pcurve+1)& (0+255),b
  6212  004E1E  C0DF  F0CD         	movff	MQGetGasPercentage@rs_ro_ratio,MQGetPercentage@rs_ro_ratio
  6213  004E22  C0E0  F0CE         	movff	MQGetGasPercentage@rs_ro_ratio+1,MQGetPercentage@rs_ro_ratio+1
  6214  004E26  C0E1  F0CF         	movff	MQGetGasPercentage@rs_ro_ratio+2,MQGetPercentage@rs_ro_ratio+2
  6215  004E2A  C0E2  F0D0         	movff	MQGetGasPercentage@rs_ro_ratio+3,MQGetPercentage@rs_ro_ratio+3
  6216  004E2E  ECBD  F02A         	call	_MQGetPercentage	;wreg free
  6217  004E32  0100               	movlb	0	; () banked
  6218  004E34  C0CD  F0E5         	movff	?_MQGetPercentage,_MQGetGasPercentage$2128
  6219  004E38  C0CE  F0E6         	movff	?_MQGetPercentage+1,_MQGetGasPercentage$2128+1
  6220  004E3C  0E00               	movlw	0
  6221  004E3E  BFE6               	btfsc	(_MQGetGasPercentage$2128+1)& (0+255),7,b
  6222  004E40  0EFF               	movlw	-1
  6223  004E42  6FE7               	movwf	(_MQGetGasPercentage$2128+2)& (0+255),b
  6224  004E44  6FE8               	movwf	(_MQGetGasPercentage$2128+3)& (0+255),b
  6225                           
  6226                           ; BSR set to: 0
  6227                           ;setting_hardaware/adc.c: 30:      return MQGetPercentage(rs_ro_ratio,LPGCurve);
  6228  004E46  C0E5  F001         	movff	_MQGetGasPercentage$2128,___xxtofl@val
  6229  004E4A  C0E6  F002         	movff	_MQGetGasPercentage$2128+1,___xxtofl@val+1
  6230  004E4E  C0E7  F003         	movff	_MQGetGasPercentage$2128+2,___xxtofl@val+2
  6231  004E52  C0E8  F004         	movff	_MQGetGasPercentage$2128+3,___xxtofl@val+3
  6232  004E56  0E01               	movlw	1
  6233  004E58  ECF2  F028         	call	___xxtofl
  6234  004E5C  C001  F0DF         	movff	?___xxtofl,?_MQGetGasPercentage
  6235  004E60  C002  F0E0         	movff	?___xxtofl+1,?_MQGetGasPercentage+1
  6236  004E64  C003  F0E1         	movff	?___xxtofl+2,?_MQGetGasPercentage+2
  6237  004E68  C004  F0E2         	movff	?___xxtofl+3,?_MQGetGasPercentage+3
  6238  004E6C  0012               	return	
  6239  004E6E                     i2l5139:
  6240                           
  6241                           ; BSR set to: 0
  6242  004E6E  0101               	movlb	1	; () banked
  6243  004E70  51F9               	movf	_GAS_CO& (0+255),w,b
  6244  004E72  0100               	movlb	0	; () banked
  6245  004E74  19E3               	xorwf	MQGetGasPercentage@gas_id& (0+255),w,b
  6246  004E76  E132               	bnz	i2l5149
  6247  004E78  0101               	movlb	1	; () banked
  6248  004E7A  51FA               	movf	(_GAS_CO+1)& (0+255),w,b
  6249  004E7C  0100               	movlb	0	; () banked
  6250  004E7E  19E4               	xorwf	(MQGetGasPercentage@gas_id+1)& (0+255),w,b
  6251  004E80  A4D8               	btfss	status,2,c
  6252  004E82  D02C               	goto	i2l5149
  6253                           
  6254                           ; BSR set to: 0
  6255                           ;setting_hardaware/adc.c: 32:      return MQGetPercentage(rs_ro_ratio,COCurve);
  6256  004E84  0E9C               	movlw	low _COCurve
  6257  004E86  6FD1               	movwf	MQGetPercentage@pcurve& (0+255),b
  6258  004E88  0E02               	movlw	high _COCurve
  6259  004E8A  6FD2               	movwf	(MQGetPercentage@pcurve+1)& (0+255),b
  6260  004E8C  C0DF  F0CD         	movff	MQGetGasPercentage@rs_ro_ratio,MQGetPercentage@rs_ro_ratio
  6261  004E90  C0E0  F0CE         	movff	MQGetGasPercentage@rs_ro_ratio+1,MQGetPercentage@rs_ro_ratio+1
  6262  004E94  C0E1  F0CF         	movff	MQGetGasPercentage@rs_ro_ratio+2,MQGetPercentage@rs_ro_ratio+2
  6263  004E98  C0E2  F0D0         	movff	MQGetGasPercentage@rs_ro_ratio+3,MQGetPercentage@rs_ro_ratio+3
  6264  004E9C  ECBD  F02A         	call	_MQGetPercentage	;wreg free
  6265  004EA0  0100               	movlb	0	; () banked
  6266  004EA2  C0CD  F0E5         	movff	?_MQGetPercentage,_MQGetGasPercentage$2128
  6267  004EA6  C0CE  F0E6         	movff	?_MQGetPercentage+1,_MQGetGasPercentage$2128+1
  6268  004EAA  0E00               	movlw	0
  6269  004EAC  BFE6               	btfsc	(_MQGetGasPercentage$2128+1)& (0+255),7,b
  6270  004EAE  0EFF               	movlw	-1
  6271  004EB0  6FE7               	movwf	(_MQGetGasPercentage$2128+2)& (0+255),b
  6272  004EB2  6FE8               	movwf	(_MQGetGasPercentage$2128+3)& (0+255),b
  6273                           
  6274                           ; BSR set to: 0
  6275                           ;setting_hardaware/adc.c: 32:      return MQGetPercentage(rs_ro_ratio,COCurve);
  6276  004EB4  C0E5  F001         	movff	_MQGetGasPercentage$2128,___xxtofl@val
  6277  004EB8  C0E6  F002         	movff	_MQGetGasPercentage$2128+1,___xxtofl@val+1
  6278  004EBC  C0E7  F003         	movff	_MQGetGasPercentage$2128+2,___xxtofl@val+2
  6279  004EC0  C0E8  F004         	movff	_MQGetGasPercentage$2128+3,___xxtofl@val+3
  6280  004EC4  0E01               	movlw	1
  6281  004EC6  ECF2  F028         	call	___xxtofl
  6282  004ECA  C001  F0DF         	movff	?___xxtofl,?_MQGetGasPercentage
  6283  004ECE  C002  F0E0         	movff	?___xxtofl+1,?_MQGetGasPercentage+1
  6284  004ED2  C003  F0E1         	movff	?___xxtofl+2,?_MQGetGasPercentage+2
  6285  004ED6  C004  F0E2         	movff	?___xxtofl+3,?_MQGetGasPercentage+3
  6286  004EDA  0012               	return	
  6287  004EDC                     i2l5149:
  6288                           
  6289                           ; BSR set to: 0
  6290  004EDC  0101               	movlb	1	; () banked
  6291  004EDE  51F7               	movf	_GAS_SMOKE& (0+255),w,b
  6292  004EE0  0100               	movlb	0	; () banked
  6293  004EE2  19E3               	xorwf	MQGetGasPercentage@gas_id& (0+255),w,b
  6294  004EE4  E132               	bnz	i2l5157
  6295  004EE6  0101               	movlb	1	; () banked
  6296  004EE8  51F8               	movf	(_GAS_SMOKE+1)& (0+255),w,b
  6297  004EEA  0100               	movlb	0	; () banked
  6298  004EEC  19E4               	xorwf	(MQGetGasPercentage@gas_id+1)& (0+255),w,b
  6299  004EEE  A4D8               	btfss	status,2,c
  6300  004EF0  D02C               	goto	i2l5157
  6301                           
  6302                           ; BSR set to: 0
  6303                           ;setting_hardaware/adc.c: 34:      return MQGetPercentage(rs_ro_ratio,SmokeCurve);
  6304  004EF2  0E90               	movlw	low _SmokeCurve
  6305  004EF4  6FD1               	movwf	MQGetPercentage@pcurve& (0+255),b
  6306  004EF6  0E02               	movlw	high _SmokeCurve
  6307  004EF8  6FD2               	movwf	(MQGetPercentage@pcurve+1)& (0+255),b
  6308  004EFA  C0DF  F0CD         	movff	MQGetGasPercentage@rs_ro_ratio,MQGetPercentage@rs_ro_ratio
  6309  004EFE  C0E0  F0CE         	movff	MQGetGasPercentage@rs_ro_ratio+1,MQGetPercentage@rs_ro_ratio+1
  6310  004F02  C0E1  F0CF         	movff	MQGetGasPercentage@rs_ro_ratio+2,MQGetPercentage@rs_ro_ratio+2
  6311  004F06  C0E2  F0D0         	movff	MQGetGasPercentage@rs_ro_ratio+3,MQGetPercentage@rs_ro_ratio+3
  6312  004F0A  ECBD  F02A         	call	_MQGetPercentage	;wreg free
  6313  004F0E  0100               	movlb	0	; () banked
  6314  004F10  C0CD  F0E5         	movff	?_MQGetPercentage,_MQGetGasPercentage$2128
  6315  004F14  C0CE  F0E6         	movff	?_MQGetPercentage+1,_MQGetGasPercentage$2128+1
  6316  004F18  0E00               	movlw	0
  6317  004F1A  BFE6               	btfsc	(_MQGetGasPercentage$2128+1)& (0+255),7,b
  6318  004F1C  0EFF               	movlw	-1
  6319  004F1E  6FE7               	movwf	(_MQGetGasPercentage$2128+2)& (0+255),b
  6320  004F20  6FE8               	movwf	(_MQGetGasPercentage$2128+3)& (0+255),b
  6321                           
  6322                           ; BSR set to: 0
  6323                           ;setting_hardaware/adc.c: 34:      return MQGetPercentage(rs_ro_ratio,SmokeCurve);
  6324  004F22  C0E5  F001         	movff	_MQGetGasPercentage$2128,___xxtofl@val
  6325  004F26  C0E6  F002         	movff	_MQGetGasPercentage$2128+1,___xxtofl@val+1
  6326  004F2A  C0E7  F003         	movff	_MQGetGasPercentage$2128+2,___xxtofl@val+2
  6327  004F2E  C0E8  F004         	movff	_MQGetGasPercentage$2128+3,___xxtofl@val+3
  6328  004F32  0E01               	movlw	1
  6329  004F34  ECF2  F028         	call	___xxtofl
  6330  004F38  C001  F0DF         	movff	?___xxtofl,?_MQGetGasPercentage
  6331  004F3C  C002  F0E0         	movff	?___xxtofl+1,?_MQGetGasPercentage+1
  6332  004F40  C003  F0E1         	movff	?___xxtofl+2,?_MQGetGasPercentage+2
  6333  004F44  C004  F0E2         	movff	?___xxtofl+3,?_MQGetGasPercentage+3
  6334  004F48  0012               	return	
  6335  004F4A                     i2l5157:
  6336                           
  6337                           ; BSR set to: 0
  6338                           ;setting_hardaware/adc.c: 36:   return 0;
  6339  004F4A  0E00               	movlw	0
  6340  004F4C  6FDF               	movwf	?_MQGetGasPercentage& (0+255),b
  6341  004F4E  0E00               	movlw	0
  6342  004F50  6FE0               	movwf	(?_MQGetGasPercentage+1)& (0+255),b
  6343  004F52  0E00               	movlw	0
  6344  004F54  6FE1               	movwf	(?_MQGetGasPercentage+2)& (0+255),b
  6345  004F56  0E00               	movlw	0
  6346  004F58  6FE2               	movwf	(?_MQGetGasPercentage+3)& (0+255),b
  6347  004F5A  0012               	return		;funcret
  6348  004F5C                     __end_of_MQGetGasPercentage:
  6349                           	opt callstack 0
  6350                           
  6351 ;; *************** function _MQGetPercentage *****************
  6352 ;; Defined at:
  6353 ;;		line 24 in file "setting_hardaware/adc.c"
  6354 ;; Parameters:    Size  Location     Type
  6355 ;;  rs_ro_ratio     4   77[BANK0 ] int 
  6356 ;;  pcurve          2   81[BANK0 ] PTR 
  6357 ;;		 -> SmokeCurve(12), COCurve(12), LPGCurve(12), 
  6358 ;; Auto vars:     Size  Location     Type
  6359 ;;		None
  6360 ;; Return value:  Size  Location     Type
  6361 ;;                  2   77[BANK0 ] int 
  6362 ;; Registers used:
  6363 ;;		wreg, fsr2l, fsr2h, status,2, status,0, tblptrl, tblptrh, tblptru, prodl, prodh, cstack
  6364 ;; Tracked objects:
  6365 ;;		On entry : 0/0
  6366 ;;		On exit  : 0/0
  6367 ;;		Unchanged: 0/0
  6368 ;; Data sizes:     COMRAM   BANK0   BANK1   BANK2   BANK3   BANK4   BANK5
  6369 ;;      Params:         0       6       0       0       0       0       0
  6370 ;;      Locals:         0      12       0       0       0       0       0
  6371 ;;      Temps:          0       0       0       0       0       0       0
  6372 ;;      Totals:         0      18       0       0       0       0       0
  6373 ;;Total ram usage:       18 bytes
  6374 ;; Hardware stack levels used:    1
  6375 ;; Hardware stack levels required when called:    3
  6376 ;; This function calls:
  6377 ;;		___fladd
  6378 ;;		___fldiv
  6379 ;;		___flsub
  6380 ;;		___fltol
  6381 ;;		_logf
  6382 ;;		_powf
  6383 ;; This function is called by:
  6384 ;;		_MQGetGasPercentage
  6385 ;; This function uses a non-reentrant model
  6386 ;;
  6387                           
  6388                           	psect	text40
  6389  00557A                     __ptext40:
  6390                           	opt callstack 0
  6391  00557A                     _MQGetPercentage:
  6392                           	opt callstack 17
  6393                           
  6394                           ;setting_hardaware/adc.c: 25:   return (powf(10,(((logf(rs_ro_ratio)-pcurve[1])/pcurve[2
      +                          ]) + pcurve[0])));
  6395                           
  6396                           ;incstack = 0
  6397  00557A  C0CD  F04B         	movff	MQGetPercentage@rs_ro_ratio,logf@x
  6398  00557E  C0CE  F04C         	movff	MQGetPercentage@rs_ro_ratio+1,logf@x+1
  6399  005582  C0CF  F04D         	movff	MQGetPercentage@rs_ro_ratio+2,logf@x+2
  6400  005586  C0D0  F04E         	movff	MQGetPercentage@rs_ro_ratio+3,logf@x+3
  6401  00558A  EC26  F017         	call	_logf	;wreg free
  6402  00558E  C04B  F0D3         	movff	?_logf,_MQGetPercentage$2125
  6403  005592  C04C  F0D4         	movff	?_logf+1,_MQGetPercentage$2125+1
  6404  005596  C04D  F0D5         	movff	?_logf+2,_MQGetPercentage$2125+2
  6405  00559A  C04E  F0D6         	movff	?_logf+3,_MQGetPercentage$2125+3
  6406                           
  6407                           ;setting_hardaware/adc.c: 25:   return (powf(10,(((logf(rs_ro_ratio)-pcurve[1])/pcurve[2
      +                          ]) + pcurve[0])));
  6408  00559E  0100               	movlb	0	; () banked
  6409  0055A0  EE20 F008          	lfsr	2,8
  6410  0055A4  51D1               	movf	MQGetPercentage@pcurve& (0+255),w,b
  6411  0055A6  26D9               	addwf	fsr2l,f,c
  6412  0055A8  51D2               	movf	(MQGetPercentage@pcurve+1)& (0+255),w,b
  6413  0055AA  22DA               	addwfc	fsr2h,f,c
  6414  0055AC  CFDE F036          	movff	postinc2,___fldiv@a
  6415  0055B0  CFDE F037          	movff	postinc2,___fldiv@a+1
  6416  0055B4  CFDE F038          	movff	postinc2,___fldiv@a+2
  6417  0055B8  CFDE F039          	movff	postinc2,___fldiv@a+3
  6418  0055BC  EE20 F004          	lfsr	2,4
  6419  0055C0  51D1               	movf	MQGetPercentage@pcurve& (0+255),w,b
  6420  0055C2  26D9               	addwf	fsr2l,f,c
  6421  0055C4  51D2               	movf	(MQGetPercentage@pcurve+1)& (0+255),w,b
  6422  0055C6  22DA               	addwfc	fsr2h,f,c
  6423  0055C8  CFDE F02E          	movff	postinc2,___flsub@a
  6424  0055CC  CFDE F02F          	movff	postinc2,___flsub@a+1
  6425  0055D0  CFDE F030          	movff	postinc2,___flsub@a+2
  6426  0055D4  CFDE F031          	movff	postinc2,___flsub@a+3
  6427  0055D8  C0D3  F02A         	movff	_MQGetPercentage$2125,___flsub@b
  6428  0055DC  C0D4  F02B         	movff	_MQGetPercentage$2125+1,___flsub@b+1
  6429  0055E0  C0D5  F02C         	movff	_MQGetPercentage$2125+2,___flsub@b+2
  6430  0055E4  C0D6  F02D         	movff	_MQGetPercentage$2125+3,___flsub@b+3
  6431  0055E8  EC3C  F02E         	call	___flsub	;wreg free
  6432  0055EC  C02A  F032         	movff	?___flsub,___fldiv@b
  6433  0055F0  C02B  F033         	movff	?___flsub+1,___fldiv@b+1
  6434  0055F4  C02C  F034         	movff	?___flsub+2,___fldiv@b+2
  6435  0055F8  C02D  F035         	movff	?___flsub+3,___fldiv@b+3
  6436  0055FC  EC4B  F021         	call	___fldiv	;wreg free
  6437  005600  C032  F0D7         	movff	?___fldiv,_MQGetPercentage$2126
  6438  005604  C033  F0D8         	movff	?___fldiv+1,_MQGetPercentage$2126+1
  6439  005608  C034  F0D9         	movff	?___fldiv+2,_MQGetPercentage$2126+2
  6440  00560C  C035  F0DA         	movff	?___fldiv+3,_MQGetPercentage$2126+3
  6441                           
  6442                           ;setting_hardaware/adc.c: 25:   return (powf(10,(((logf(rs_ro_ratio)-pcurve[1])/pcurve[2
      +                          ]) + pcurve[0])));
  6443  005610  C0D1  FFD9         	movff	MQGetPercentage@pcurve,fsr2l
  6444  005614  C0D2  FFDA         	movff	MQGetPercentage@pcurve+1,fsr2h
  6445  005618  CFDE F005          	movff	postinc2,___fladd@a
  6446  00561C  CFDE F006          	movff	postinc2,___fladd@a+1
  6447  005620  CFDE F007          	movff	postinc2,___fladd@a+2
  6448  005624  CFDE F008          	movff	postinc2,___fladd@a+3
  6449  005628  C0D7  F001         	movff	_MQGetPercentage$2126,___fladd@b
  6450  00562C  C0D8  F002         	movff	_MQGetPercentage$2126+1,___fladd@b+1
  6451  005630  C0D9  F003         	movff	_MQGetPercentage$2126+2,___fladd@b+2
  6452  005634  C0DA  F004         	movff	_MQGetPercentage$2126+3,___fladd@b+3
  6453  005638  EC5B  F01E         	call	___fladd	;wreg free
  6454  00563C  C001  F0DB         	movff	?___fladd,_MQGetPercentage$2127
  6455  005640  C002  F0DC         	movff	?___fladd+1,_MQGetPercentage$2127+1
  6456  005644  C003  F0DD         	movff	?___fladd+2,_MQGetPercentage$2127+2
  6457  005648  C004  F0DE         	movff	?___fladd+3,_MQGetPercentage$2127+3
  6458                           
  6459                           ;setting_hardaware/adc.c: 25:   return (powf(10,(((logf(rs_ro_ratio)-pcurve[1])/pcurve[2
      +                          ]) + pcurve[0])));
  6460  00564C  C0DB  F073         	movff	_MQGetPercentage$2127,powf@y
  6461  005650  C0DC  F074         	movff	_MQGetPercentage$2127+1,powf@y+1
  6462  005654  C0DD  F075         	movff	_MQGetPercentage$2127+2,powf@y+2
  6463  005658  C0DE  F076         	movff	_MQGetPercentage$2127+3,powf@y+3
  6464  00565C  0E00               	movlw	0
  6465  00565E  6E6F               	movwf	powf@x^0,c
  6466  005660  0E00               	movlw	0
  6467  005662  6E70               	movwf	(powf@x+1)^0,c
  6468  005664  0E20               	movlw	32
  6469  005666  6E71               	movwf	(powf@x+2)^0,c
  6470  005668  0E41               	movlw	65
  6471  00566A  6E72               	movwf	(powf@x+3)^0,c
  6472  00566C  EC60  F003         	call	_powf	;wreg free
  6473  005670  C06F  F077         	movff	?_powf,___fltol@f1
  6474  005674  C070  F078         	movff	?_powf+1,___fltol@f1+1
  6475  005678  C071  F079         	movff	?_powf+2,___fltol@f1+2
  6476  00567C  C072  F07A         	movff	?_powf+3,___fltol@f1+3
  6477  005680  ECAF  F02B         	call	___fltol	;wreg free
  6478  005684  C077  F0CD         	movff	?___fltol,?_MQGetPercentage
  6479  005688  C078  F0CE         	movff	?___fltol+1,?_MQGetPercentage+1
  6480  00568C  0012               	return		;funcret
  6481  00568E                     __end_of_MQGetPercentage:
  6482                           	opt callstack 0
  6483                           
  6484 ;; *************** function _powf *****************
  6485 ;; Defined at:
  6486 ;;		line 52 in file "C:\Program Files (x86)\Microchip\xc8\v2.10\pic\sources\c99\common\powf.c"
  6487 ;; Parameters:    Size  Location     Type
  6488 ;;  x               4  110[COMRAM] float 
  6489 ;;  y               4  114[COMRAM] float 
  6490 ;; Auto vars:     Size  Location     Type
  6491 ;;  s2              4  140[BANK1 ] float 
  6492 ;;  s_h             4  108[BANK1 ] float 
  6493 ;;  t_h             4  104[BANK1 ] float 
  6494 ;;  t_l             4   52[BANK1 ] float 
  6495 ;;  s_l             4   48[BANK1 ] float 
  6496 ;;  __xc8_float_    4  184[BANK1 ] struct .
  6497 ;;  z               4  180[BANK1 ] float 
  6498 ;;  t               4  176[BANK1 ] float 
  6499 ;;  j               4  172[BANK1 ] long 
  6500 ;;  ix              4  168[BANK1 ] long 
  6501 ;;  k               4  160[BANK1 ] long 
  6502 ;;  p_h             4  156[BANK1 ] float 
  6503 ;;  iy              4  152[BANK1 ] long 
  6504 ;;  is              4  144[BANK1 ] long 
  6505 ;;  sn              4  136[BANK1 ] float 
  6506 ;;  hy              4  132[BANK1 ] long 
  6507 ;;  t1              4  128[BANK1 ] float 
  6508 ;;  n               4  124[BANK1 ] long 
  6509 ;;  v               4  120[BANK1 ] float 
  6510 ;;  u               4  116[BANK1 ] float 
  6511 ;;  ax              4  112[BANK1 ] float 
  6512 ;;  p_l             4  100[BANK1 ] float 
  6513 ;;  hx              4   96[BANK1 ] long 
  6514 ;;  s               4   92[BANK1 ] float 
  6515 ;;  yisint          4   80[BANK1 ] long 
  6516 ;;  r               4   76[BANK1 ] float 
  6517 ;;  w               4   68[BANK1 ] float 
  6518 ;;  i               4   44[BANK1 ] long 
  6519 ;;  y1              4   40[BANK1 ] float 
  6520 ;;  z_l             4   36[BANK1 ] float 
  6521 ;;  z_h             4   32[BANK1 ] float 
  6522 ;;  t2              4   28[BANK1 ] float 
  6523 ;; Return value:  Size  Location     Type
  6524 ;;                  4  110[COMRAM] float 
  6525 ;; Registers used:
  6526 ;;		wreg, status,2, status,0, tblptrl, tblptrh, tblptru, prodl, prodh, cstack
  6527 ;; Tracked objects:
  6528 ;;		On entry : 0/0
  6529 ;;		On exit  : 0/0
  6530 ;;		Unchanged: 0/0
  6531 ;; Data sizes:     COMRAM   BANK0   BANK1   BANK2   BANK3   BANK4   BANK5
  6532 ;;      Params:         8       0       0       0       0       0       0
  6533 ;;      Locals:         0       0     188       0       0       0       0
  6534 ;;      Temps:          0       9       0       0       0       0       0
  6535 ;;      Totals:         8       9     188       0       0       0       0
  6536 ;;Total ram usage:      205 bytes
  6537 ;; Hardware stack levels used:    1
  6538 ;; Hardware stack levels required when called:    2
  6539 ;; This function calls:
  6540 ;;		___fladd
  6541 ;;		___fldiv
  6542 ;;		___flge
  6543 ;;		___flmul
  6544 ;;		___flneg
  6545 ;;		___flsub
  6546 ;;		___xxtofl
  6547 ;;		_fabsf
  6548 ;;		_scalbnf
  6549 ;;		_sqrtf
  6550 ;; This function is called by:
  6551 ;;		_MQGetPercentage
  6552 ;; This function uses a non-reentrant model
  6553 ;;
  6554                           
  6555                           	psect	text41
  6556  0006C0                     __ptext41:
  6557                           	opt callstack 0
  6558  0006C0                     _powf:
  6559                           	opt callstack 17
  6560                           
  6561                           ;incstack = 0
  6562  0006C0  C06F  F1B8         	movff	powf@x,powf@__xc8_float_word
  6563  0006C4  C070  F1B9         	movff	powf@x+1,powf@__xc8_float_word+1
  6564  0006C8  C071  F1BA         	movff	powf@x+2,powf@__xc8_float_word+2
  6565  0006CC  C072  F1BB         	movff	powf@x+3,powf@__xc8_float_word+3
  6566  0006D0  C1B8  F160         	movff	powf@__xc8_float_word,powf@hx
  6567  0006D4  C1B9  F161         	movff	powf@__xc8_float_word+1,powf@hx+1
  6568  0006D8  C1BA  F162         	movff	powf@__xc8_float_word+2,powf@hx+2
  6569  0006DC  C1BB  F163         	movff	powf@__xc8_float_word+3,powf@hx+3
  6570  0006E0  C073  F1B8         	movff	powf@y,powf@__xc8_float_word
  6571  0006E4  C074  F1B9         	movff	powf@y+1,powf@__xc8_float_word+1
  6572  0006E8  C075  F1BA         	movff	powf@y+2,powf@__xc8_float_word+2
  6573  0006EC  C076  F1BB         	movff	powf@y+3,powf@__xc8_float_word+3
  6574  0006F0  C1B8  F184         	movff	powf@__xc8_float_word,powf@hy
  6575  0006F4  C1B9  F185         	movff	powf@__xc8_float_word+1,powf@hy+1
  6576  0006F8  C1BA  F186         	movff	powf@__xc8_float_word+2,powf@hy+2
  6577  0006FC  C1BB  F187         	movff	powf@__xc8_float_word+3,powf@hy+3
  6578  000700  0EFF               	movlw	255
  6579  000702  0101               	movlb	1	; () banked
  6580  000704  1560               	andwf	powf@hx& (0+255),w,b
  6581  000706  6FA8               	movwf	powf@ix& (0+255),b
  6582  000708  0EFF               	movlw	255
  6583  00070A  1561               	andwf	(powf@hx+1)& (0+255),w,b
  6584  00070C  6FA9               	movwf	(powf@ix+1)& (0+255),b
  6585  00070E  0EFF               	movlw	255
  6586  000710  1562               	andwf	(powf@hx+2)& (0+255),w,b
  6587  000712  6FAA               	movwf	(powf@ix+2)& (0+255),b
  6588  000714  0E7F               	movlw	127
  6589  000716  1563               	andwf	(powf@hx+3)& (0+255),w,b
  6590  000718  6FAB               	movwf	(powf@ix+3)& (0+255),b
  6591  00071A  0EFF               	movlw	255
  6592  00071C  1584               	andwf	powf@hy& (0+255),w,b
  6593  00071E  6F98               	movwf	powf@iy& (0+255),b
  6594  000720  0EFF               	movlw	255
  6595  000722  1585               	andwf	(powf@hy+1)& (0+255),w,b
  6596  000724  6F99               	movwf	(powf@iy+1)& (0+255),b
  6597  000726  0EFF               	movlw	255
  6598  000728  1586               	andwf	(powf@hy+2)& (0+255),w,b
  6599  00072A  6F9A               	movwf	(powf@iy+2)& (0+255),b
  6600  00072C  0E7F               	movlw	127
  6601  00072E  1587               	andwf	(powf@hy+3)& (0+255),w,b
  6602  000730  6F9B               	movwf	(powf@iy+3)& (0+255),b
  6603  000732  5198               	movf	powf@iy& (0+255),w,b
  6604  000734  1199               	iorwf	(powf@iy+1)& (0+255),w,b
  6605  000736  119A               	iorwf	(powf@iy+2)& (0+255),w,b
  6606  000738  119B               	iorwf	(powf@iy+3)& (0+255),w,b
  6607  00073A  A4D8               	btfss	status,2,c
  6608  00073C  D009               	goto	i2l4397
  6609                           
  6610                           ; BSR set to: 1
  6611  00073E  0E00               	movlw	0
  6612  000740  6E6F               	movwf	?_powf^0,c
  6613  000742  0E00               	movlw	0
  6614  000744  6E70               	movwf	(?_powf+1)^0,c
  6615  000746  0E80               	movlw	128
  6616  000748  6E71               	movwf	(?_powf+2)^0,c
  6617  00074A  0E3F               	movlw	63
  6618  00074C  6E72               	movwf	(?_powf+3)^0,c
  6619  00074E  0012               	return	
  6620  000750                     i2l4397:
  6621                           
  6622                           ; BSR set to: 1
  6623  000750  0E80               	movlw	128
  6624  000752  1962               	xorwf	(powf@hx+2)& (0+255),w,b
  6625  000754  E10F               	bnz	i2l4403
  6626  000756  0E3F               	movlw	63
  6627  000758  1963               	xorwf	(powf@hx+3)& (0+255),w,b
  6628  00075A  1160               	iorwf	powf@hx& (0+255),w,b
  6629  00075C  1161               	iorwf	(powf@hx+1)& (0+255),w,b
  6630  00075E  A4D8               	btfss	status,2,c
  6631  000760  D009               	goto	i2l4403
  6632                           
  6633                           ; BSR set to: 1
  6634  000762  0E00               	movlw	0
  6635  000764  6E6F               	movwf	?_powf^0,c
  6636  000766  0E00               	movlw	0
  6637  000768  6E70               	movwf	(?_powf+1)^0,c
  6638  00076A  0E80               	movlw	128
  6639  00076C  6E71               	movwf	(?_powf+2)^0,c
  6640  00076E  0E3F               	movlw	63
  6641  000770  6E72               	movwf	(?_powf+3)^0,c
  6642  000772  0012               	return	
  6643  000774                     i2l4403:
  6644                           
  6645                           ; BSR set to: 1
  6646  000774  BFAB               	btfsc	(powf@ix+3)& (0+255),7,b
  6647  000776  D009               	goto	i2u453_40
  6648  000778  05A8               	decf	powf@ix& (0+255),w,b
  6649  00077A  0E00               	movlw	0
  6650  00077C  59A9               	subwfb	(powf@ix+1)& (0+255),w,b
  6651  00077E  0E80               	movlw	128
  6652  000780  59AA               	subwfb	(powf@ix+2)& (0+255),w,b
  6653  000782  0E7F               	movlw	127
  6654  000784  59AB               	subwfb	(powf@ix+3)& (0+255),w,b
  6655  000786  B0D8               	btfsc	status,0,c
  6656  000788  D00B               	goto	i2u454_40
  6657  00078A                     i2u453_40:
  6658                           
  6659                           ; BSR set to: 1
  6660  00078A  BF9B               	btfsc	(powf@iy+3)& (0+255),7,b
  6661  00078C  D024               	goto	i2l4411
  6662  00078E  0598               	decf	powf@iy& (0+255),w,b
  6663  000790  0E00               	movlw	0
  6664  000792  5999               	subwfb	(powf@iy+1)& (0+255),w,b
  6665  000794  0E80               	movlw	128
  6666  000796  599A               	subwfb	(powf@iy+2)& (0+255),w,b
  6667  000798  0E7F               	movlw	127
  6668  00079A  599B               	subwfb	(powf@iy+3)& (0+255),w,b
  6669  00079C  A0D8               	btfss	status,0,c
  6670  00079E  D01B               	goto	i2l4411
  6671  0007A0                     i2u454_40:
  6672                           
  6673                           ; BSR set to: 1
  6674  0007A0  C06F  F001         	movff	powf@x,___fladd@b
  6675  0007A4  C070  F002         	movff	powf@x+1,___fladd@b+1
  6676  0007A8  C071  F003         	movff	powf@x+2,___fladd@b+2
  6677  0007AC  C072  F004         	movff	powf@x+3,___fladd@b+3
  6678  0007B0  C073  F005         	movff	powf@y,___fladd@a
  6679  0007B4  C074  F006         	movff	powf@y+1,___fladd@a+1
  6680  0007B8  C075  F007         	movff	powf@y+2,___fladd@a+2
  6681  0007BC  C076  F008         	movff	powf@y+3,___fladd@a+3
  6682  0007C0  EC5B  F01E         	call	___fladd	;wreg free
  6683  0007C4  C001  F06F         	movff	?___fladd,?_powf
  6684  0007C8  C002  F070         	movff	?___fladd+1,?_powf+1
  6685  0007CC  C003  F071         	movff	?___fladd+2,?_powf+2
  6686  0007D0  C004  F072         	movff	?___fladd+3,?_powf+3
  6687  0007D4  0012               	return	
  6688  0007D6                     i2l4411:
  6689                           
  6690                           ; BSR set to: 1
  6691  0007D6  0E00               	movlw	0
  6692  0007D8  6F50               	movwf	powf@yisint& (0+255),b
  6693  0007DA  0E00               	movlw	0
  6694  0007DC  6F51               	movwf	(powf@yisint+1)& (0+255),b
  6695  0007DE  0E00               	movlw	0
  6696  0007E0  6F52               	movwf	(powf@yisint+2)& (0+255),b
  6697  0007E2  0E00               	movlw	0
  6698  0007E4  6F53               	movwf	(powf@yisint+3)& (0+255),b
  6699                           
  6700                           ; BSR set to: 1
  6701  0007E6  AF63               	btfss	(powf@hx+3)& (0+255),7,b
  6702  0007E8  D0B1               	goto	i2l1264
  6703                           
  6704                           ; BSR set to: 1
  6705  0007EA  BF9B               	btfsc	(powf@iy+3)& (0+255),7,b
  6706  0007EC  D00E               	goto	i2l4419
  6707  0007EE  0E80               	movlw	128
  6708  0007F0  5D9A               	subwf	(powf@iy+2)& (0+255),w,b
  6709  0007F2  0E4B               	movlw	75
  6710  0007F4  599B               	subwfb	(powf@iy+3)& (0+255),w,b
  6711  0007F6  A0D8               	btfss	status,0,c
  6712  0007F8  D008               	goto	i2l4419
  6713                           
  6714                           ; BSR set to: 1
  6715  0007FA  0E02               	movlw	2
  6716  0007FC  6F50               	movwf	powf@yisint& (0+255),b
  6717  0007FE  0E00               	movlw	0
  6718  000800  6F51               	movwf	(powf@yisint+1)& (0+255),b
  6719  000802  0E00               	movlw	0
  6720  000804  6F52               	movwf	(powf@yisint+2)& (0+255),b
  6721  000806  0E00               	movlw	0
  6722  000808  D0A0               	goto	L3
  6723  00080A                     i2l4419:
  6724                           
  6725                           ; BSR set to: 1
  6726  00080A  BF9B               	btfsc	(powf@iy+3)& (0+255),7,b
  6727  00080C  D09F               	goto	i2l1264
  6728  00080E  0E80               	movlw	128
  6729  000810  5D9A               	subwf	(powf@iy+2)& (0+255),w,b
  6730  000812  0E3F               	movlw	63
  6731  000814  599B               	subwfb	(powf@iy+3)& (0+255),w,b
  6732  000816  A0D8               	btfss	status,0,c
  6733  000818  D099               	goto	i2l1264
  6734                           
  6735                           ; BSR set to: 1
  6736  00081A  0E17               	movlw	23
  6737  00081C  0100               	movlb	0	; () banked
  6738  00081E  6FC2               	movwf	??_powf& (0+255),b
  6739  000820  C198  F0C3         	movff	powf@iy,??_powf+1
  6740  000824  C199  F0C4         	movff	powf@iy+1,??_powf+2
  6741  000828  C19A  F0C5         	movff	powf@iy+2,??_powf+3
  6742  00082C  C19B  F0C6         	movff	powf@iy+3,??_powf+4
  6743  000830                     i2u458_45:
  6744  000830  67C2               	tstfsz	??_powf& (0+255),b
  6745  000832  D001               	goto	i2u458_46
  6746  000834  D007               	goto	i2u458_47
  6747  000836                     i2u458_46:
  6748  000836  35C6               	rlcf	(??_powf+4)& (0+255),w,b
  6749  000838  33C6               	rrcf	(??_powf+4)& (0+255),f,b
  6750  00083A  33C5               	rrcf	(??_powf+3)& (0+255),f,b
  6751  00083C  33C4               	rrcf	(??_powf+2)& (0+255),f,b
  6752  00083E  33C3               	rrcf	(??_powf+1)& (0+255),f,b
  6753  000840  2FC2               	decfsz	??_powf& (0+255),f,b
  6754  000842  D7F6               	goto	i2u458_45
  6755  000844                     i2u458_47:
  6756  000844  0E81               	movlw	129
  6757  000846  0100               	movlb	0	; () banked
  6758  000848  25C3               	addwf	(??_powf+1)& (0+255),w,b
  6759  00084A  0101               	movlb	1	; () banked
  6760  00084C  6FA0               	movwf	powf@k& (0+255),b
  6761  00084E  0EFF               	movlw	255
  6762  000850  0100               	movlb	0	; () banked
  6763  000852  21C4               	addwfc	(??_powf+2)& (0+255),w,b
  6764  000854  0101               	movlb	1	; () banked
  6765  000856  6FA1               	movwf	(powf@k+1)& (0+255),b
  6766  000858  0EFF               	movlw	255
  6767  00085A  0100               	movlb	0	; () banked
  6768  00085C  21C5               	addwfc	(??_powf+3)& (0+255),w,b
  6769  00085E  0101               	movlb	1	; () banked
  6770  000860  6FA2               	movwf	(powf@k+2)& (0+255),b
  6771  000862  0EFF               	movlw	255
  6772  000864  0100               	movlb	0	; () banked
  6773  000866  21C6               	addwfc	(??_powf+4)& (0+255),w,b
  6774  000868  0101               	movlb	1	; () banked
  6775  00086A  6FA3               	movwf	(powf@k+3)& (0+255),b
  6776  00086C  51A0               	movf	powf@k& (0+255),w,b
  6777  00086E  0817               	sublw	23
  6778  000870  0100               	movlb	0	; () banked
  6779  000872  6FC2               	movwf	??_powf& (0+255),b
  6780  000874  C198  F0C3         	movff	powf@iy,??_powf+1
  6781  000878  C199  F0C4         	movff	powf@iy+1,??_powf+2
  6782  00087C  C19A  F0C5         	movff	powf@iy+2,??_powf+3
  6783  000880  C19B  F0C6         	movff	powf@iy+3,??_powf+4
  6784  000884                     i2u459_45:
  6785  000884  67C2               	tstfsz	??_powf& (0+255),b
  6786  000886  D001               	goto	i2u459_46
  6787  000888  D007               	goto	i2u459_47
  6788  00088A                     i2u459_46:
  6789  00088A  35C6               	rlcf	(??_powf+4)& (0+255),w,b
  6790  00088C  33C6               	rrcf	(??_powf+4)& (0+255),f,b
  6791  00088E  33C5               	rrcf	(??_powf+3)& (0+255),f,b
  6792  000890  33C4               	rrcf	(??_powf+2)& (0+255),f,b
  6793  000892  33C3               	rrcf	(??_powf+1)& (0+255),f,b
  6794  000894  2FC2               	decfsz	??_powf& (0+255),f,b
  6795  000896  D7F6               	goto	i2u459_45
  6796  000898                     i2u459_47:
  6797  000898  C0C3  F1AC         	movff	??_powf+1,powf@j
  6798  00089C  C0C4  F1AD         	movff	??_powf+2,powf@j+1
  6799  0008A0  C0C5  F1AE         	movff	??_powf+3,powf@j+2
  6800  0008A4  C0C6  F1AF         	movff	??_powf+4,powf@j+3
  6801  0008A8  0101               	movlb	1	; () banked
  6802  0008AA  51A0               	movf	powf@k& (0+255),w,b
  6803  0008AC  0817               	sublw	23
  6804  0008AE  0100               	movlb	0	; () banked
  6805  0008B0  6FC2               	movwf	??_powf& (0+255),b
  6806  0008B2  C1AC  F0C3         	movff	powf@j,??_powf+1
  6807  0008B6  C1AD  F0C4         	movff	powf@j+1,??_powf+2
  6808  0008BA  C1AE  F0C5         	movff	powf@j+2,??_powf+3
  6809  0008BE  C1AF  F0C6         	movff	powf@j+3,??_powf+4
  6810  0008C2  2BC2               	incf	??_powf& (0+255),f,b
  6811  0008C4  D005               	goto	i2u460_40
  6812  0008C6                     i2u460_45:
  6813  0008C6  90D8               	bcf	status,0,c
  6814  0008C8  37C3               	rlcf	(??_powf+1)& (0+255),f,b
  6815  0008CA  37C4               	rlcf	(??_powf+2)& (0+255),f,b
  6816  0008CC  37C5               	rlcf	(??_powf+3)& (0+255),f,b
  6817  0008CE  37C6               	rlcf	(??_powf+4)& (0+255),f,b
  6818  0008D0                     i2u460_40:
  6819  0008D0  2FC2               	decfsz	??_powf& (0+255),f,b
  6820  0008D2  D7F9               	goto	i2u460_45
  6821  0008D4  0101               	movlb	1	; () banked
  6822  0008D6  5198               	movf	powf@iy& (0+255),w,b
  6823  0008D8  0100               	movlb	0	; () banked
  6824  0008DA  19C3               	xorwf	(??_powf+1)& (0+255),w,b
  6825  0008DC  E137               	bnz	i2l1264
  6826  0008DE  0101               	movlb	1	; () banked
  6827  0008E0  5199               	movf	(powf@iy+1)& (0+255),w,b
  6828  0008E2  0100               	movlb	0	; () banked
  6829  0008E4  19C4               	xorwf	(??_powf+2)& (0+255),w,b
  6830  0008E6  E132               	bnz	i2l1264
  6831  0008E8  0101               	movlb	1	; () banked
  6832  0008EA  519A               	movf	(powf@iy+2)& (0+255),w,b
  6833  0008EC  0100               	movlb	0	; () banked
  6834  0008EE  19C5               	xorwf	(??_powf+3)& (0+255),w,b
  6835  0008F0  E12D               	bnz	i2l1264
  6836  0008F2  0101               	movlb	1	; () banked
  6837  0008F4  519B               	movf	(powf@iy+3)& (0+255),w,b
  6838  0008F6  0100               	movlb	0	; () banked
  6839  0008F8  19C6               	xorwf	(??_powf+4)& (0+255),w,b
  6840  0008FA  A4D8               	btfss	status,2,c
  6841  0008FC  D027               	goto	i2l1264
  6842                           
  6843                           ; BSR set to: 0
  6844  0008FE  0E01               	movlw	1
  6845  000900  0101               	movlb	1	; () banked
  6846  000902  15AC               	andwf	powf@j& (0+255),w,b
  6847  000904  0100               	movlb	0	; () banked
  6848  000906  6FC2               	movwf	??_powf& (0+255),b
  6849  000908  0E00               	movlw	0
  6850  00090A  0101               	movlb	1	; () banked
  6851  00090C  15AD               	andwf	(powf@j+1)& (0+255),w,b
  6852  00090E  0100               	movlb	0	; () banked
  6853  000910  6FC3               	movwf	(??_powf+1)& (0+255),b
  6854  000912  0E00               	movlw	0
  6855  000914  0101               	movlb	1	; () banked
  6856  000916  15AE               	andwf	(powf@j+2)& (0+255),w,b
  6857  000918  0100               	movlb	0	; () banked
  6858  00091A  6FC4               	movwf	(??_powf+2)& (0+255),b
  6859  00091C  0E00               	movlw	0
  6860  00091E  0101               	movlb	1	; () banked
  6861  000920  15AF               	andwf	(powf@j+3)& (0+255),w,b
  6862  000922  0100               	movlb	0	; () banked
  6863  000924  6FC5               	movwf	(??_powf+3)& (0+255),b
  6864  000926  51C2               	movf	??_powf& (0+255),w,b
  6865  000928  0802               	sublw	2
  6866  00092A  0101               	movlb	1	; () banked
  6867  00092C  6F50               	movwf	powf@yisint& (0+255),b
  6868  00092E  0E00               	movlw	0
  6869  000930  0100               	movlb	0	; () banked
  6870  000932  55C3               	subfwb	(??_powf+1)& (0+255),w,b
  6871  000934  0101               	movlb	1	; () banked
  6872  000936  6F51               	movwf	(powf@yisint+1)& (0+255),b
  6873  000938  0E00               	movlw	0
  6874  00093A  0100               	movlb	0	; () banked
  6875  00093C  55C4               	subfwb	(??_powf+2)& (0+255),w,b
  6876  00093E  0101               	movlb	1	; () banked
  6877  000940  6F52               	movwf	(powf@yisint+2)& (0+255),b
  6878  000942  0E00               	movlw	0
  6879  000944  0100               	movlb	0	; () banked
  6880  000946  55C5               	subfwb	(??_powf+3)& (0+255),w,b
  6881  000948  0101               	movlb	1	; () banked
  6882  00094A                     L3:
  6883  00094A  6F53               	movwf	(powf@yisint+3)& (0+255),b
  6884  00094C                     i2l1264:
  6885  00094C  0E80               	movlw	128
  6886  00094E  0101               	movlb	1	; () banked
  6887  000950  199A               	xorwf	(powf@iy+2)& (0+255),w,b
  6888  000952  E155               	bnz	i2l4449
  6889  000954  0E7F               	movlw	127
  6890  000956  199B               	xorwf	(powf@iy+3)& (0+255),w,b
  6891  000958  1198               	iorwf	powf@iy& (0+255),w,b
  6892  00095A  1199               	iorwf	(powf@iy+1)& (0+255),w,b
  6893  00095C  A4D8               	btfss	status,2,c
  6894  00095E  D04F               	goto	i2l4449
  6895                           
  6896                           ; BSR set to: 1
  6897  000960  0E80               	movlw	128
  6898  000962  19AA               	xorwf	(powf@ix+2)& (0+255),w,b
  6899  000964  E10F               	bnz	i2l4433
  6900  000966  0E3F               	movlw	63
  6901  000968  19AB               	xorwf	(powf@ix+3)& (0+255),w,b
  6902  00096A  11A8               	iorwf	powf@ix& (0+255),w,b
  6903  00096C  11A9               	iorwf	(powf@ix+1)& (0+255),w,b
  6904  00096E  A4D8               	btfss	status,2,c
  6905  000970  D009               	goto	i2l4433
  6906                           
  6907                           ; BSR set to: 1
  6908  000972  0E00               	movlw	0
  6909  000974  6E6F               	movwf	?_powf^0,c
  6910  000976  0E00               	movlw	0
  6911  000978  6E70               	movwf	(?_powf+1)^0,c
  6912  00097A  0E80               	movlw	128
  6913  00097C  6E71               	movwf	(?_powf+2)^0,c
  6914  00097E  0E3F               	movlw	63
  6915  000980  6E72               	movwf	(?_powf+3)^0,c
  6916  000982  0012               	return	
  6917  000984                     i2l4433:
  6918                           
  6919                           ; BSR set to: 1
  6920  000984  BFAB               	btfsc	(powf@ix+3)& (0+255),7,b
  6921  000986  D01D               	goto	i2l4441
  6922  000988  05A8               	decf	powf@ix& (0+255),w,b
  6923  00098A  0E00               	movlw	0
  6924  00098C  59A9               	subwfb	(powf@ix+1)& (0+255),w,b
  6925  00098E  0E80               	movlw	128
  6926  000990  59AA               	subwfb	(powf@ix+2)& (0+255),w,b
  6927  000992  0E3F               	movlw	63
  6928  000994  59AB               	subwfb	(powf@ix+3)& (0+255),w,b
  6929  000996  A0D8               	btfss	status,0,c
  6930  000998  D014               	goto	i2l4441
  6931                           
  6932                           ; BSR set to: 1
  6933  00099A  AF87               	btfss	(powf@hy+3)& (0+255),7,b
  6934  00099C  D009               	goto	i2l1274
  6935                           
  6936                           ; BSR set to: 1
  6937  00099E  0E00               	movlw	0
  6938  0009A0  6E6F               	movwf	?_powf^0,c
  6939  0009A2  0E00               	movlw	0
  6940  0009A4  6E70               	movwf	(?_powf+1)^0,c
  6941  0009A6  0E00               	movlw	0
  6942  0009A8  6E71               	movwf	(?_powf+2)^0,c
  6943  0009AA  0E00               	movlw	0
  6944  0009AC  6E72               	movwf	(?_powf+3)^0,c
  6945  0009AE  0012               	return	
  6946  0009B0                     i2l1274:
  6947                           
  6948                           ; BSR set to: 1
  6949  0009B0  C073  F06F         	movff	powf@y,?_powf
  6950  0009B4  C074  F070         	movff	powf@y+1,?_powf+1
  6951  0009B8  C075  F071         	movff	powf@y+2,?_powf+2
  6952  0009BC  C076  F072         	movff	powf@y+3,?_powf+3
  6953  0009C0  0012               	return	
  6954  0009C2                     i2l4441:
  6955                           
  6956                           ; BSR set to: 1
  6957  0009C2  AF87               	btfss	(powf@hy+3)& (0+255),7,b
  6958  0009C4  D013               	goto	i2l4445
  6959                           
  6960                           ; BSR set to: 1
  6961  0009C6  C073  F001         	movff	powf@y,___flneg@f1
  6962  0009CA  C074  F002         	movff	powf@y+1,___flneg@f1+1
  6963  0009CE  C075  F003         	movff	powf@y+2,___flneg@f1+2
  6964  0009D2  C076  F004         	movff	powf@y+3,___flneg@f1+3
  6965  0009D6  EC45  F02F         	call	___flneg	;wreg free
  6966  0009DA  C001  F06F         	movff	?___flneg,?_powf
  6967  0009DE  C002  F070         	movff	?___flneg+1,?_powf+1
  6968  0009E2  C003  F071         	movff	?___flneg+2,?_powf+2
  6969  0009E6  C004  F072         	movff	?___flneg+3,?_powf+3
  6970  0009EA  0012               	return	
  6971  0009EC                     i2l4445:
  6972                           
  6973                           ; BSR set to: 1
  6974  0009EC  0E00               	movlw	0
  6975  0009EE  6E6F               	movwf	?_powf^0,c
  6976  0009F0  0E00               	movlw	0
  6977  0009F2  6E70               	movwf	(?_powf+1)^0,c
  6978  0009F4  0E00               	movlw	0
  6979  0009F6  6E71               	movwf	(?_powf+2)^0,c
  6980  0009F8  0E00               	movlw	0
  6981  0009FA  6E72               	movwf	(?_powf+3)^0,c
  6982  0009FC  0012               	return	
  6983  0009FE                     i2l4449:
  6984                           
  6985                           ; BSR set to: 1
  6986  0009FE  0E80               	movlw	128
  6987  000A00  199A               	xorwf	(powf@iy+2)& (0+255),w,b
  6988  000A02  E12C               	bnz	i2l4455
  6989  000A04  0E3F               	movlw	63
  6990  000A06  199B               	xorwf	(powf@iy+3)& (0+255),w,b
  6991  000A08  1198               	iorwf	powf@iy& (0+255),w,b
  6992  000A0A  1199               	iorwf	(powf@iy+1)& (0+255),w,b
  6993  000A0C  A4D8               	btfss	status,2,c
  6994  000A0E  D026               	goto	i2l4455
  6995                           
  6996                           ; BSR set to: 1
  6997  000A10  AF87               	btfss	(powf@hy+3)& (0+255),7,b
  6998  000A12  D01B               	goto	i2l1284
  6999                           
  7000                           ; BSR set to: 1
  7001  000A14  0E00               	movlw	0
  7002  000A16  6E32               	movwf	___fldiv@b^0,c
  7003  000A18  0E00               	movlw	0
  7004  000A1A  6E33               	movwf	(___fldiv@b+1)^0,c
  7005  000A1C  0E80               	movlw	128
  7006  000A1E  6E34               	movwf	(___fldiv@b+2)^0,c
  7007  000A20  0E3F               	movlw	63
  7008  000A22  6E35               	movwf	(___fldiv@b+3)^0,c
  7009  000A24  C06F  F036         	movff	powf@x,___fldiv@a
  7010  000A28  C070  F037         	movff	powf@x+1,___fldiv@a+1
  7011  000A2C  C071  F038         	movff	powf@x+2,___fldiv@a+2
  7012  000A30  C072  F039         	movff	powf@x+3,___fldiv@a+3
  7013  000A34  EC4B  F021         	call	___fldiv	;wreg free
  7014  000A38  C032  F06F         	movff	?___fldiv,?_powf
  7015  000A3C  C033  F070         	movff	?___fldiv+1,?_powf+1
  7016  000A40  C034  F071         	movff	?___fldiv+2,?_powf+2
  7017  000A44  C035  F072         	movff	?___fldiv+3,?_powf+3
  7018  000A48  0012               	return	
  7019  000A4A                     i2l1284:
  7020                           
  7021                           ; BSR set to: 1
  7022  000A4A  C06F  F06F         	movff	powf@x,?_powf
  7023  000A4E  C070  F070         	movff	powf@x+1,?_powf+1
  7024  000A52  C071  F071         	movff	powf@x+2,?_powf+2
  7025  000A56  C072  F072         	movff	powf@x+3,?_powf+3
  7026  000A5A  0012               	return	
  7027  000A5C                     i2l4455:
  7028                           
  7029                           ; BSR set to: 1
  7030  000A5C  0E40               	movlw	64
  7031  000A5E  1987               	xorwf	(powf@hy+3)& (0+255),w,b
  7032  000A60  1184               	iorwf	powf@hy& (0+255),w,b
  7033  000A62  1185               	iorwf	(powf@hy+1)& (0+255),w,b
  7034  000A64  1186               	iorwf	(powf@hy+2)& (0+255),w,b
  7035  000A66  A4D8               	btfss	status,2,c
  7036  000A68  D01B               	goto	i2l4461
  7037                           
  7038                           ; BSR set to: 1
  7039  000A6A  C06F  F011         	movff	powf@x,___flmul@b
  7040  000A6E  C070  F012         	movff	powf@x+1,___flmul@b+1
  7041  000A72  C071  F013         	movff	powf@x+2,___flmul@b+2
  7042  000A76  C072  F014         	movff	powf@x+3,___flmul@b+3
  7043  000A7A  C06F  F015         	movff	powf@x,___flmul@a
  7044  000A7E  C070  F016         	movff	powf@x+1,___flmul@a+1
  7045  000A82  C071  F017         	movff	powf@x+2,___flmul@a+2
  7046  000A86  C072  F018         	movff	powf@x+3,___flmul@a+3
  7047  000A8A  ECB2  F01C         	call	___flmul	;wreg free
  7048  000A8E  C011  F06F         	movff	?___flmul,?_powf
  7049  000A92  C012  F070         	movff	?___flmul+1,?_powf+1
  7050  000A96  C013  F071         	movff	?___flmul+2,?_powf+2
  7051  000A9A  C014  F072         	movff	?___flmul+3,?_powf+3
  7052  000A9E  0012               	return	
  7053  000AA0                     i2l4461:
  7054                           
  7055                           ; BSR set to: 1
  7056  000AA0  0E3F               	movlw	63
  7057  000AA2  1987               	xorwf	(powf@hy+3)& (0+255),w,b
  7058  000AA4  1184               	iorwf	powf@hy& (0+255),w,b
  7059  000AA6  1185               	iorwf	(powf@hy+1)& (0+255),w,b
  7060  000AA8  1186               	iorwf	(powf@hy+2)& (0+255),w,b
  7061  000AAA  B4D8               	btfsc	status,2,c
  7062                           
  7063                           ; BSR set to: 1
  7064  000AAC  BF63               	btfsc	(powf@hx+3)& (0+255),7,b
  7065  000AAE  D013               	goto	i2l4469
  7066                           
  7067                           ; BSR set to: 1
  7068  000AB0  C06F  F03E         	movff	powf@x,sqrtf@x
  7069  000AB4  C070  F03F         	movff	powf@x+1,sqrtf@x+1
  7070  000AB8  C071  F040         	movff	powf@x+2,sqrtf@x+2
  7071  000ABC  C072  F041         	movff	powf@x+3,sqrtf@x+3
  7072  000AC0  EC9F  F01A         	call	_sqrtf	;wreg free
  7073  000AC4  C03E  F06F         	movff	?_sqrtf,?_powf
  7074  000AC8  C03F  F070         	movff	?_sqrtf+1,?_powf+1
  7075  000ACC  C040  F071         	movff	?_sqrtf+2,?_powf+2
  7076  000AD0  C041  F072         	movff	?_sqrtf+3,?_powf+3
  7077  000AD4  0012               	return	
  7078  000AD6                     i2l4469:
  7079                           
  7080                           ; BSR set to: 1
  7081  000AD6  C06F  F001         	movff	powf@x,fabsf@x
  7082  000ADA  C070  F002         	movff	powf@x+1,fabsf@x+1
  7083  000ADE  C071  F003         	movff	powf@x+2,fabsf@x+2
  7084  000AE2  C072  F004         	movff	powf@x+3,fabsf@x+3
  7085  000AE6  EC9A  F02E         	call	_fabsf	;wreg free
  7086  000AEA  C001  F170         	movff	?_fabsf,powf@ax
  7087  000AEE  C002  F171         	movff	?_fabsf+1,powf@ax+1
  7088  000AF2  C003  F172         	movff	?_fabsf+2,powf@ax+2
  7089  000AF6  C004  F173         	movff	?_fabsf+3,powf@ax+3
  7090  000AFA  0E80               	movlw	128
  7091  000AFC  0101               	movlb	1	; () banked
  7092  000AFE  19AA               	xorwf	(powf@ix+2)& (0+255),w,b
  7093  000B00  E106               	bnz	i2u472_40
  7094  000B02  0E7F               	movlw	127
  7095  000B04  19AB               	xorwf	(powf@ix+3)& (0+255),w,b
  7096  000B06  11A8               	iorwf	powf@ix& (0+255),w,b
  7097  000B08  11A9               	iorwf	(powf@ix+1)& (0+255),w,b
  7098  000B0A  B4D8               	btfsc	status,2,c
  7099  000B0C  D00F               	goto	i2u474_40
  7100  000B0E                     i2u472_40:
  7101                           
  7102                           ; BSR set to: 1
  7103  000B0E  51A8               	movf	powf@ix& (0+255),w,b
  7104  000B10  11A9               	iorwf	(powf@ix+1)& (0+255),w,b
  7105  000B12  11AA               	iorwf	(powf@ix+2)& (0+255),w,b
  7106  000B14  11AB               	iorwf	(powf@ix+3)& (0+255),w,b
  7107  000B16  B4D8               	btfsc	status,2,c
  7108  000B18  D009               	goto	i2u474_40
  7109                           
  7110                           ; BSR set to: 1
  7111  000B1A  0E80               	movlw	128
  7112  000B1C  19AA               	xorwf	(powf@ix+2)& (0+255),w,b
  7113  000B1E  E105               	bnz	i2u474_41
  7114  000B20  0E3F               	movlw	63
  7115  000B22  19AB               	xorwf	(powf@ix+3)& (0+255),w,b
  7116  000B24  11A8               	iorwf	powf@ix& (0+255),w,b
  7117  000B26  11A9               	iorwf	(powf@ix+1)& (0+255),w,b
  7118  000B28  A4D8               	btfss	status,2,c
  7119  000B2A                     i2u474_41:
  7120  000B2A  D0B5               	goto	i2l4495
  7121  000B2C                     i2u474_40:
  7122                           
  7123                           ; BSR set to: 1
  7124  000B2C  C170  F1B4         	movff	powf@ax,powf@z
  7125  000B30  C171  F1B5         	movff	powf@ax+1,powf@z+1
  7126  000B34  C172  F1B6         	movff	powf@ax+2,powf@z+2
  7127  000B38  C173  F1B7         	movff	powf@ax+3,powf@z+3
  7128                           
  7129                           ; BSR set to: 1
  7130  000B3C  AF87               	btfss	(powf@hy+3)& (0+255),7,b
  7131  000B3E  D01A               	goto	i2l4481
  7132                           
  7133                           ; BSR set to: 1
  7134  000B40  0E00               	movlw	0
  7135  000B42  6E32               	movwf	___fldiv@b^0,c
  7136  000B44  0E00               	movlw	0
  7137  000B46  6E33               	movwf	(___fldiv@b+1)^0,c
  7138  000B48  0E80               	movlw	128
  7139  000B4A  6E34               	movwf	(___fldiv@b+2)^0,c
  7140  000B4C  0E3F               	movlw	63
  7141  000B4E  6E35               	movwf	(___fldiv@b+3)^0,c
  7142  000B50  C1B4  F036         	movff	powf@z,___fldiv@a
  7143  000B54  C1B5  F037         	movff	powf@z+1,___fldiv@a+1
  7144  000B58  C1B6  F038         	movff	powf@z+2,___fldiv@a+2
  7145  000B5C  C1B7  F039         	movff	powf@z+3,___fldiv@a+3
  7146  000B60  EC4B  F021         	call	___fldiv	;wreg free
  7147  000B64  C032  F1B4         	movff	?___fldiv,powf@z
  7148  000B68  C033  F1B5         	movff	?___fldiv+1,powf@z+1
  7149  000B6C  C034  F1B6         	movff	?___fldiv+2,powf@z+2
  7150  000B70  C035  F1B7         	movff	?___fldiv+3,powf@z+3
  7151  000B74                     i2l4481:
  7152  000B74  0101               	movlb	1	; () banked
  7153  000B76  AF63               	btfss	(powf@hx+3)& (0+255),7,b
  7154  000B78  D085               	goto	i2l4491
  7155                           
  7156                           ; BSR set to: 1
  7157  000B7A  0E00               	movlw	0
  7158  000B7C  25A8               	addwf	powf@ix& (0+255),w,b
  7159  000B7E  0100               	movlb	0	; () banked
  7160  000B80  6FC2               	movwf	??_powf& (0+255),b
  7161  000B82  0E00               	movlw	0
  7162  000B84  0101               	movlb	1	; () banked
  7163  000B86  21A9               	addwfc	(powf@ix+1)& (0+255),w,b
  7164  000B88  0100               	movlb	0	; () banked
  7165  000B8A  6FC3               	movwf	(??_powf+1)& (0+255),b
  7166  000B8C  0E80               	movlw	128
  7167  000B8E  0101               	movlb	1	; () banked
  7168  000B90  21AA               	addwfc	(powf@ix+2)& (0+255),w,b
  7169  000B92  0100               	movlb	0	; () banked
  7170  000B94  6FC4               	movwf	(??_powf+2)& (0+255),b
  7171  000B96  0EC0               	movlw	192
  7172  000B98  0101               	movlb	1	; () banked
  7173  000B9A  21AB               	addwfc	(powf@ix+3)& (0+255),w,b
  7174  000B9C  0100               	movlb	0	; () banked
  7175  000B9E  6FC5               	movwf	(??_powf+3)& (0+255),b
  7176  000BA0  0101               	movlb	1	; () banked
  7177  000BA2  5150               	movf	powf@yisint& (0+255),w,b
  7178  000BA4  0100               	movlb	0	; () banked
  7179  000BA6  11C2               	iorwf	??_powf& (0+255),w,b
  7180  000BA8  6FC6               	movwf	(??_powf+4)& (0+255),b
  7181  000BAA  0101               	movlb	1	; () banked
  7182  000BAC  5151               	movf	(powf@yisint+1)& (0+255),w,b
  7183  000BAE  0100               	movlb	0	; () banked
  7184  000BB0  11C3               	iorwf	(??_powf+1)& (0+255),w,b
  7185  000BB2  6FC7               	movwf	(??_powf+5)& (0+255),b
  7186  000BB4  0101               	movlb	1	; () banked
  7187  000BB6  5152               	movf	(powf@yisint+2)& (0+255),w,b
  7188  000BB8  0100               	movlb	0	; () banked
  7189  000BBA  11C4               	iorwf	(??_powf+2)& (0+255),w,b
  7190  000BBC  6FC8               	movwf	(??_powf+6)& (0+255),b
  7191  000BBE  0101               	movlb	1	; () banked
  7192  000BC0  5153               	movf	(powf@yisint+3)& (0+255),w,b
  7193  000BC2  0100               	movlb	0	; () banked
  7194  000BC4  11C5               	iorwf	(??_powf+3)& (0+255),w,b
  7195  000BC6  6FC9               	movwf	(??_powf+7)& (0+255),b
  7196  000BC8  51C6               	movf	(??_powf+4)& (0+255),w,b
  7197  000BCA  11C7               	iorwf	(??_powf+5)& (0+255),w,b
  7198  000BCC  11C8               	iorwf	(??_powf+6)& (0+255),w,b
  7199  000BCE  11C9               	iorwf	(??_powf+7)& (0+255),w,b
  7200  000BD0  A4D8               	btfss	status,2,c
  7201  000BD2  D03F               	goto	i2l4487
  7202                           
  7203                           ; BSR set to: 0
  7204  000BD4  C1B4  F02E         	movff	powf@z,___flsub@a
  7205  000BD8  C1B5  F02F         	movff	powf@z+1,___flsub@a+1
  7206  000BDC  C1B6  F030         	movff	powf@z+2,___flsub@a+2
  7207  000BE0  C1B7  F031         	movff	powf@z+3,___flsub@a+3
  7208  000BE4  C1B4  F02A         	movff	powf@z,___flsub@b
  7209  000BE8  C1B5  F02B         	movff	powf@z+1,___flsub@b+1
  7210  000BEC  C1B6  F02C         	movff	powf@z+2,___flsub@b+2
  7211  000BF0  C1B7  F02D         	movff	powf@z+3,___flsub@b+3
  7212  000BF4  EC3C  F02E         	call	___flsub	;wreg free
  7213  000BF8  C02A  F032         	movff	?___flsub,___fldiv@b
  7214  000BFC  C02B  F033         	movff	?___flsub+1,___fldiv@b+1
  7215  000C00  C02C  F034         	movff	?___flsub+2,___fldiv@b+2
  7216  000C04  C02D  F035         	movff	?___flsub+3,___fldiv@b+3
  7217  000C08  C1B4  F02E         	movff	powf@z,___flsub@a
  7218  000C0C  C1B5  F02F         	movff	powf@z+1,___flsub@a+1
  7219  000C10  C1B6  F030         	movff	powf@z+2,___flsub@a+2
  7220  000C14  C1B7  F031         	movff	powf@z+3,___flsub@a+3
  7221  000C18  C1B4  F02A         	movff	powf@z,___flsub@b
  7222  000C1C  C1B5  F02B         	movff	powf@z+1,___flsub@b+1
  7223  000C20  C1B6  F02C         	movff	powf@z+2,___flsub@b+2
  7224  000C24  C1B7  F02D         	movff	powf@z+3,___flsub@b+3
  7225  000C28  EC3C  F02E         	call	___flsub	;wreg free
  7226  000C2C  C02A  F036         	movff	?___flsub,___fldiv@a
  7227  000C30  C02B  F037         	movff	?___flsub+1,___fldiv@a+1
  7228  000C34  C02C  F038         	movff	?___flsub+2,___fldiv@a+2
  7229  000C38  C02D  F039         	movff	?___flsub+3,___fldiv@a+3
  7230  000C3C  EC4B  F021         	call	___fldiv	;wreg free
  7231  000C40  C032  F1B4         	movff	?___fldiv,powf@z
  7232  000C44  C033  F1B5         	movff	?___fldiv+1,powf@z+1
  7233  000C48  C034  F1B6         	movff	?___fldiv+2,powf@z+2
  7234  000C4C  C035  F1B7         	movff	?___fldiv+3,powf@z+3
  7235  000C50  D019               	goto	i2l4491
  7236  000C52                     i2l4487:
  7237                           
  7238                           ; BSR set to: 0
  7239  000C52  0101               	movlb	1	; () banked
  7240  000C54  0550               	decf	powf@yisint& (0+255),w,b
  7241  000C56  1151               	iorwf	(powf@yisint+1)& (0+255),w,b
  7242  000C58  1152               	iorwf	(powf@yisint+2)& (0+255),w,b
  7243  000C5A  1153               	iorwf	(powf@yisint+3)& (0+255),w,b
  7244  000C5C  A4D8               	btfss	status,2,c
  7245  000C5E  D012               	goto	i2l4491
  7246                           
  7247                           ; BSR set to: 1
  7248  000C60  C1B4  F001         	movff	powf@z,___flneg@f1
  7249  000C64  C1B5  F002         	movff	powf@z+1,___flneg@f1+1
  7250  000C68  C1B6  F003         	movff	powf@z+2,___flneg@f1+2
  7251  000C6C  C1B7  F004         	movff	powf@z+3,___flneg@f1+3
  7252  000C70  EC45  F02F         	call	___flneg	;wreg free
  7253  000C74  C001  F1B4         	movff	?___flneg,powf@z
  7254  000C78  C002  F1B5         	movff	?___flneg+1,powf@z+1
  7255  000C7C  C003  F1B6         	movff	?___flneg+2,powf@z+2
  7256  000C80  C004  F1B7         	movff	?___flneg+3,powf@z+3
  7257  000C84                     i2l4491:
  7258  000C84  C1B4  F06F         	movff	powf@z,?_powf
  7259  000C88  C1B5  F070         	movff	powf@z+1,?_powf+1
  7260  000C8C  C1B6  F071         	movff	powf@z+2,?_powf+2
  7261  000C90  C1B7  F072         	movff	powf@z+3,?_powf+3
  7262  000C94  0012               	return	
  7263  000C96                     i2l4495:
  7264                           
  7265                           ; BSR set to: 1
  7266  000C96  0E00               	movlw	0
  7267  000C98  6F88               	movwf	powf@sn& (0+255),b
  7268  000C9A  0E00               	movlw	0
  7269  000C9C  6F89               	movwf	(powf@sn+1)& (0+255),b
  7270  000C9E  0E80               	movlw	128
  7271  000CA0  6F8A               	movwf	(powf@sn+2)& (0+255),b
  7272  000CA2  0E3F               	movlw	63
  7273  000CA4  6F8B               	movwf	(powf@sn+3)& (0+255),b
  7274                           
  7275                           ; BSR set to: 1
  7276  000CA6  AF63               	btfss	(powf@hx+3)& (0+255),7,b
  7277  000CA8  D053               	goto	i2l4509
  7278                           
  7279                           ; BSR set to: 1
  7280  000CAA  5150               	movf	powf@yisint& (0+255),w,b
  7281  000CAC  1151               	iorwf	(powf@yisint+1)& (0+255),w,b
  7282  000CAE  1152               	iorwf	(powf@yisint+2)& (0+255),w,b
  7283  000CB0  1153               	iorwf	(powf@yisint+3)& (0+255),w,b
  7284  000CB2  A4D8               	btfss	status,2,c
  7285  000CB4  D03F               	goto	i2l4505
  7286                           
  7287                           ; BSR set to: 1
  7288  000CB6  C06F  F02E         	movff	powf@x,___flsub@a
  7289  000CBA  C070  F02F         	movff	powf@x+1,___flsub@a+1
  7290  000CBE  C071  F030         	movff	powf@x+2,___flsub@a+2
  7291  000CC2  C072  F031         	movff	powf@x+3,___flsub@a+3
  7292  000CC6  C06F  F02A         	movff	powf@x,___flsub@b
  7293  000CCA  C070  F02B         	movff	powf@x+1,___flsub@b+1
  7294  000CCE  C071  F02C         	movff	powf@x+2,___flsub@b+2
  7295  000CD2  C072  F02D         	movff	powf@x+3,___flsub@b+3
  7296  000CD6  EC3C  F02E         	call	___flsub	;wreg free
  7297  000CDA  C02A  F032         	movff	?___flsub,___fldiv@b
  7298  000CDE  C02B  F033         	movff	?___flsub+1,___fldiv@b+1
  7299  000CE2  C02C  F034         	movff	?___flsub+2,___fldiv@b+2
  7300  000CE6  C02D  F035         	movff	?___flsub+3,___fldiv@b+3
  7301  000CEA  C06F  F02E         	movff	powf@x,___flsub@a
  7302  000CEE  C070  F02F         	movff	powf@x+1,___flsub@a+1
  7303  000CF2  C071  F030         	movff	powf@x+2,___flsub@a+2
  7304  000CF6  C072  F031         	movff	powf@x+3,___flsub@a+3
  7305  000CFA  C06F  F02A         	movff	powf@x,___flsub@b
  7306  000CFE  C070  F02B         	movff	powf@x+1,___flsub@b+1
  7307  000D02  C071  F02C         	movff	powf@x+2,___flsub@b+2
  7308  000D06  C072  F02D         	movff	powf@x+3,___flsub@b+3
  7309  000D0A  EC3C  F02E         	call	___flsub	;wreg free
  7310  000D0E  C02A  F036         	movff	?___flsub,___fldiv@a
  7311  000D12  C02B  F037         	movff	?___flsub+1,___fldiv@a+1
  7312  000D16  C02C  F038         	movff	?___flsub+2,___fldiv@a+2
  7313  000D1A  C02D  F039         	movff	?___flsub+3,___fldiv@a+3
  7314  000D1E  EC4B  F021         	call	___fldiv	;wreg free
  7315  000D22  C032  F06F         	movff	?___fldiv,?_powf
  7316  000D26  C033  F070         	movff	?___fldiv+1,?_powf+1
  7317  000D2A  C034  F071         	movff	?___fldiv+2,?_powf+2
  7318  000D2E  C035  F072         	movff	?___fldiv+3,?_powf+3
  7319  000D32  0012               	return	
  7320  000D34                     i2l4505:
  7321                           
  7322                           ; BSR set to: 1
  7323  000D34  0550               	decf	powf@yisint& (0+255),w,b
  7324  000D36  1151               	iorwf	(powf@yisint+1)& (0+255),w,b
  7325  000D38  1152               	iorwf	(powf@yisint+2)& (0+255),w,b
  7326  000D3A  1153               	iorwf	(powf@yisint+3)& (0+255),w,b
  7327  000D3C  A4D8               	btfss	status,2,c
  7328  000D3E  D008               	goto	i2l4509
  7329                           
  7330                           ; BSR set to: 1
  7331  000D40  0E00               	movlw	0
  7332  000D42  6F88               	movwf	powf@sn& (0+255),b
  7333  000D44  0E00               	movlw	0
  7334  000D46  6F89               	movwf	(powf@sn+1)& (0+255),b
  7335  000D48  0E80               	movlw	128
  7336  000D4A  6F8A               	movwf	(powf@sn+2)& (0+255),b
  7337  000D4C  0EBF               	movlw	191
  7338  000D4E  6F8B               	movwf	(powf@sn+3)& (0+255),b
  7339  000D50                     i2l4509:
  7340                           
  7341                           ; BSR set to: 1
  7342  000D50  BF9B               	btfsc	(powf@iy+3)& (0+255),7,b
  7343  000D52  D26B               	goto	i2l4557
  7344  000D54  0598               	decf	powf@iy& (0+255),w,b
  7345  000D56  0E00               	movlw	0
  7346  000D58  5999               	subwfb	(powf@iy+1)& (0+255),w,b
  7347  000D5A  0E00               	movlw	0
  7348  000D5C  599A               	subwfb	(powf@iy+2)& (0+255),w,b
  7349  000D5E  0E4D               	movlw	77
  7350  000D60  599B               	subwfb	(powf@iy+3)& (0+255),w,b
  7351  000D62  A0D8               	btfss	status,0,c
  7352  000D64  D262               	goto	i2l4557
  7353                           
  7354                           ; BSR set to: 1
  7355  000D66  BFAB               	btfsc	(powf@ix+3)& (0+255),7,b
  7356  000D68  D00A               	goto	i2u483_40
  7357  000D6A  0EF8               	movlw	248
  7358  000D6C  5DA8               	subwf	powf@ix& (0+255),w,b
  7359  000D6E  0EFF               	movlw	255
  7360  000D70  59A9               	subwfb	(powf@ix+1)& (0+255),w,b
  7361  000D72  0E7F               	movlw	127
  7362  000D74  59AA               	subwfb	(powf@ix+2)& (0+255),w,b
  7363  000D76  0E3F               	movlw	63
  7364  000D78  59AB               	subwfb	(powf@ix+3)& (0+255),w,b
  7365  000D7A  B0D8               	btfsc	status,0,c
  7366  000D7C  D06C               	goto	i2l4521
  7367  000D7E                     i2u483_40:
  7368                           
  7369                           ; BSR set to: 1
  7370  000D7E  BF87               	btfsc	(powf@hy+3)& (0+255),7,b
  7371  000D80  D035               	goto	i2l4517
  7372                           
  7373                           ; BSR set to: 1
  7374  000D82  0E60               	movlw	96
  7375  000D84  6E15               	movwf	___flmul@a^0,c
  7376  000D86  0E42               	movlw	66
  7377  000D88  6E16               	movwf	(___flmul@a+1)^0,c
  7378  000D8A  0EA2               	movlw	162
  7379  000D8C  6E17               	movwf	(___flmul@a+2)^0,c
  7380  000D8E  0E0D               	movlw	13
  7381  000D90  6E18               	movwf	(___flmul@a+3)^0,c
  7382  000D92  C188  F011         	movff	powf@sn,___flmul@b
  7383  000D96  C189  F012         	movff	powf@sn+1,___flmul@b+1
  7384  000D9A  C18A  F013         	movff	powf@sn+2,___flmul@b+2
  7385  000D9E  C18B  F014         	movff	powf@sn+3,___flmul@b+3
  7386  000DA2  ECB2  F01C         	call	___flmul	;wreg free
  7387  000DA6  C011  F1A4         	movff	?___flmul,_powf$2135
  7388  000DAA  C012  F1A5         	movff	?___flmul+1,_powf$2135+1
  7389  000DAE  C013  F1A6         	movff	?___flmul+2,_powf$2135+2
  7390  000DB2  C014  F1A7         	movff	?___flmul+3,_powf$2135+3
  7391  000DB6  C1A4  F011         	movff	_powf$2135,___flmul@b
  7392  000DBA  C1A5  F012         	movff	_powf$2135+1,___flmul@b+1
  7393  000DBE  C1A6  F013         	movff	_powf$2135+2,___flmul@b+2
  7394  000DC2  C1A7  F014         	movff	_powf$2135+3,___flmul@b+3
  7395  000DC6  0E60               	movlw	96
  7396  000DC8  6E15               	movwf	___flmul@a^0,c
  7397  000DCA  0E42               	movlw	66
  7398  000DCC  6E16               	movwf	(___flmul@a+1)^0,c
  7399  000DCE  0EA2               	movlw	162
  7400  000DD0  6E17               	movwf	(___flmul@a+2)^0,c
  7401  000DD2  0E0D               	movlw	13
  7402  000DD4  6E18               	movwf	(___flmul@a+3)^0,c
  7403  000DD6  ECB2  F01C         	call	___flmul	;wreg free
  7404  000DDA  C011  F06F         	movff	?___flmul,?_powf
  7405  000DDE  C012  F070         	movff	?___flmul+1,?_powf+1
  7406  000DE2  C013  F071         	movff	?___flmul+2,?_powf+2
  7407  000DE6  C014  F072         	movff	?___flmul+3,?_powf+3
  7408  000DEA  0012               	return	
  7409  000DEC                     i2l4517:
  7410                           
  7411                           ; BSR set to: 1
  7412  000DEC  0ECA               	movlw	202
  7413  000DEE  6E15               	movwf	___flmul@a^0,c
  7414  000DF0  0EF2               	movlw	242
  7415  000DF2  6E16               	movwf	(___flmul@a+1)^0,c
  7416  000DF4  0E49               	movlw	73
  7417  000DF6  6E17               	movwf	(___flmul@a+2)^0,c
  7418  000DF8  0E71               	movlw	113
  7419  000DFA  6E18               	movwf	(___flmul@a+3)^0,c
  7420  000DFC  C188  F011         	movff	powf@sn,___flmul@b
  7421  000E00  C189  F012         	movff	powf@sn+1,___flmul@b+1
  7422  000E04  C18A  F013         	movff	powf@sn+2,___flmul@b+2
  7423  000E08  C18B  F014         	movff	powf@sn+3,___flmul@b+3
  7424  000E0C  ECB2  F01C         	call	___flmul	;wreg free
  7425  000E10  C011  F1A4         	movff	?___flmul,_powf$2135
  7426  000E14  C012  F1A5         	movff	?___flmul+1,_powf$2135+1
  7427  000E18  C013  F1A6         	movff	?___flmul+2,_powf$2135+2
  7428  000E1C  C014  F1A7         	movff	?___flmul+3,_powf$2135+3
  7429  000E20  C1A4  F011         	movff	_powf$2135,___flmul@b
  7430  000E24  C1A5  F012         	movff	_powf$2135+1,___flmul@b+1
  7431  000E28  C1A6  F013         	movff	_powf$2135+2,___flmul@b+2
  7432  000E2C  C1A7  F014         	movff	_powf$2135+3,___flmul@b+3
  7433  000E30  0ECA               	movlw	202
  7434  000E32  6E15               	movwf	___flmul@a^0,c
  7435  000E34  0EF2               	movlw	242
  7436  000E36  6E16               	movwf	(___flmul@a+1)^0,c
  7437  000E38  0E49               	movlw	73
  7438  000E3A  6E17               	movwf	(___flmul@a+2)^0,c
  7439  000E3C  0E71               	movlw	113
  7440  000E3E  6E18               	movwf	(___flmul@a+3)^0,c
  7441  000E40  ECB2  F01C         	call	___flmul	;wreg free
  7442  000E44  C011  F06F         	movff	?___flmul,?_powf
  7443  000E48  C012  F070         	movff	?___flmul+1,?_powf+1
  7444  000E4C  C013  F071         	movff	?___flmul+2,?_powf+2
  7445  000E50  C014  F072         	movff	?___flmul+3,?_powf+3
  7446  000E54  0012               	return	
  7447  000E56                     i2l4521:
  7448                           
  7449                           ; BSR set to: 1
  7450  000E56  BFAB               	btfsc	(powf@ix+3)& (0+255),7,b
  7451  000E58  D07D               	goto	i2l4531
  7452  000E5A  0E08               	movlw	8
  7453  000E5C  5DA8               	subwf	powf@ix& (0+255),w,b
  7454  000E5E  0E00               	movlw	0
  7455  000E60  59A9               	subwfb	(powf@ix+1)& (0+255),w,b
  7456  000E62  0E80               	movlw	128
  7457  000E64  59AA               	subwfb	(powf@ix+2)& (0+255),w,b
  7458  000E66  0E3F               	movlw	63
  7459  000E68  59AB               	subwfb	(powf@ix+3)& (0+255),w,b
  7460  000E6A  A0D8               	btfss	status,0,c
  7461  000E6C  D073               	goto	i2l4531
  7462                           
  7463                           ; BSR set to: 1
  7464  000E6E  BF87               	btfsc	(powf@hy+3)& (0+255),7,b
  7465  000E70  D007               	goto	i2u486_40
  7466  000E72  5187               	movf	(powf@hy+3)& (0+255),w,b
  7467  000E74  1186               	iorwf	(powf@hy+2)& (0+255),w,b
  7468  000E76  1185               	iorwf	(powf@hy+1)& (0+255),w,b
  7469  000E78  E138               	bnz	i2l4527
  7470  000E7A  0584               	decf	powf@hy& (0+255),w,b
  7471  000E7C  B0D8               	btfsc	status,0,c
  7472  000E7E  D035               	goto	i2l4527
  7473  000E80                     i2u486_40:
  7474                           
  7475                           ; BSR set to: 1
  7476  000E80  0E60               	movlw	96
  7477  000E82  6E15               	movwf	___flmul@a^0,c
  7478  000E84  0E42               	movlw	66
  7479  000E86  6E16               	movwf	(___flmul@a+1)^0,c
  7480  000E88  0EA2               	movlw	162
  7481  000E8A  6E17               	movwf	(___flmul@a+2)^0,c
  7482  000E8C  0E0D               	movlw	13
  7483  000E8E  6E18               	movwf	(___flmul@a+3)^0,c
  7484  000E90  C188  F011         	movff	powf@sn,___flmul@b
  7485  000E94  C189  F012         	movff	powf@sn+1,___flmul@b+1
  7486  000E98  C18A  F013         	movff	powf@sn+2,___flmul@b+2
  7487  000E9C  C18B  F014         	movff	powf@sn+3,___flmul@b+3
  7488  000EA0  ECB2  F01C         	call	___flmul	;wreg free
  7489  000EA4  C011  F1A4         	movff	?___flmul,_powf$2135
  7490  000EA8  C012  F1A5         	movff	?___flmul+1,_powf$2135+1
  7491  000EAC  C013  F1A6         	movff	?___flmul+2,_powf$2135+2
  7492  000EB0  C014  F1A7         	movff	?___flmul+3,_powf$2135+3
  7493  000EB4  C1A4  F011         	movff	_powf$2135,___flmul@b
  7494  000EB8  C1A5  F012         	movff	_powf$2135+1,___flmul@b+1
  7495  000EBC  C1A6  F013         	movff	_powf$2135+2,___flmul@b+2
  7496  000EC0  C1A7  F014         	movff	_powf$2135+3,___flmul@b+3
  7497  000EC4  0E60               	movlw	96
  7498  000EC6  6E15               	movwf	___flmul@a^0,c
  7499  000EC8  0E42               	movlw	66
  7500  000ECA  6E16               	movwf	(___flmul@a+1)^0,c
  7501  000ECC  0EA2               	movlw	162
  7502  000ECE  6E17               	movwf	(___flmul@a+2)^0,c
  7503  000ED0  0E0D               	movlw	13
  7504  000ED2  6E18               	movwf	(___flmul@a+3)^0,c
  7505  000ED4  ECB2  F01C         	call	___flmul	;wreg free
  7506  000ED8  C011  F06F         	movff	?___flmul,?_powf
  7507  000EDC  C012  F070         	movff	?___flmul+1,?_powf+1
  7508  000EE0  C013  F071         	movff	?___flmul+2,?_powf+2
  7509  000EE4  C014  F072         	movff	?___flmul+3,?_powf+3
  7510  000EE8  0012               	return	
  7511  000EEA                     i2l4527:
  7512                           
  7513                           ; BSR set to: 1
  7514  000EEA  0ECA               	movlw	202
  7515  000EEC  6E15               	movwf	___flmul@a^0,c
  7516  000EEE  0EF2               	movlw	242
  7517  000EF0  6E16               	movwf	(___flmul@a+1)^0,c
  7518  000EF2  0E49               	movlw	73
  7519  000EF4  6E17               	movwf	(___flmul@a+2)^0,c
  7520  000EF6  0E71               	movlw	113
  7521  000EF8  6E18               	movwf	(___flmul@a+3)^0,c
  7522  000EFA  C188  F011         	movff	powf@sn,___flmul@b
  7523  000EFE  C189  F012         	movff	powf@sn+1,___flmul@b+1
  7524  000F02  C18A  F013         	movff	powf@sn+2,___flmul@b+2
  7525  000F06  C18B  F014         	movff	powf@sn+3,___flmul@b+3
  7526  000F0A  ECB2  F01C         	call	___flmul	;wreg free
  7527  000F0E  C011  F1A4         	movff	?___flmul,_powf$2135
  7528  000F12  C012  F1A5         	movff	?___flmul+1,_powf$2135+1
  7529  000F16  C013  F1A6         	movff	?___flmul+2,_powf$2135+2
  7530  000F1A  C014  F1A7         	movff	?___flmul+3,_powf$2135+3
  7531  000F1E  C1A4  F011         	movff	_powf$2135,___flmul@b
  7532  000F22  C1A5  F012         	movff	_powf$2135+1,___flmul@b+1
  7533  000F26  C1A6  F013         	movff	_powf$2135+2,___flmul@b+2
  7534  000F2A  C1A7  F014         	movff	_powf$2135+3,___flmul@b+3
  7535  000F2E  0ECA               	movlw	202
  7536  000F30  6E15               	movwf	___flmul@a^0,c
  7537  000F32  0EF2               	movlw	242
  7538  000F34  6E16               	movwf	(___flmul@a+1)^0,c
  7539  000F36  0E49               	movlw	73
  7540  000F38  6E17               	movwf	(___flmul@a+2)^0,c
  7541  000F3A  0E71               	movlw	113
  7542  000F3C  6E18               	movwf	(___flmul@a+3)^0,c
  7543  000F3E  ECB2  F01C         	call	___flmul	;wreg free
  7544  000F42  C011  F06F         	movff	?___flmul,?_powf
  7545  000F46  C012  F070         	movff	?___flmul+1,?_powf+1
  7546  000F4A  C013  F071         	movff	?___flmul+2,?_powf+2
  7547  000F4E  C014  F072         	movff	?___flmul+3,?_powf+3
  7548  000F52  0012               	return	
  7549  000F54                     i2l4531:
  7550                           
  7551                           ; BSR set to: 1
  7552  000F54  C170  F001         	movff	powf@ax,___fladd@b
  7553  000F58  C171  F002         	movff	powf@ax+1,___fladd@b+1
  7554  000F5C  C172  F003         	movff	powf@ax+2,___fladd@b+2
  7555  000F60  C173  F004         	movff	powf@ax+3,___fladd@b+3
  7556  000F64  0E00               	movlw	0
  7557  000F66  6E05               	movwf	___fladd@a^0,c
  7558  000F68  0E00               	movlw	0
  7559  000F6A  6E06               	movwf	(___fladd@a+1)^0,c
  7560  000F6C  0E80               	movlw	128
  7561  000F6E  6E07               	movwf	(___fladd@a+2)^0,c
  7562  000F70  0EBF               	movlw	191
  7563  000F72  6E08               	movwf	(___fladd@a+3)^0,c
  7564  000F74  EC5B  F01E         	call	___fladd	;wreg free
  7565  000F78  C001  F1B0         	movff	?___fladd,powf@t
  7566  000F7C  C002  F1B1         	movff	?___fladd+1,powf@t+1
  7567  000F80  C003  F1B2         	movff	?___fladd+2,powf@t+2
  7568  000F84  C004  F1B3         	movff	?___fladd+3,powf@t+3
  7569  000F88  0E00               	movlw	0
  7570  000F8A  6E15               	movwf	___flmul@a^0,c
  7571  000F8C  0E00               	movlw	0
  7572  000F8E  6E16               	movwf	(___flmul@a+1)^0,c
  7573  000F90  0E80               	movlw	128
  7574  000F92  6E17               	movwf	(___flmul@a+2)^0,c
  7575  000F94  0E3E               	movlw	62
  7576  000F96  6E18               	movwf	(___flmul@a+3)^0,c
  7577  000F98  C1B0  F011         	movff	powf@t,___flmul@b
  7578  000F9C  C1B1  F012         	movff	powf@t+1,___flmul@b+1
  7579  000FA0  C1B2  F013         	movff	powf@t+2,___flmul@b+2
  7580  000FA4  C1B3  F014         	movff	powf@t+3,___flmul@b+3
  7581  000FA8  ECB2  F01C         	call	___flmul	;wreg free
  7582  000FAC  C011  F02E         	movff	?___flmul,___flsub@a
  7583  000FB0  C012  F02F         	movff	?___flmul+1,___flsub@a+1
  7584  000FB4  C013  F030         	movff	?___flmul+2,___flsub@a+2
  7585  000FB8  C014  F031         	movff	?___flmul+3,___flsub@a+3
  7586  000FBC  0EAB               	movlw	171
  7587  000FBE  6E2A               	movwf	___flsub@b^0,c
  7588  000FC0  0EAA               	movlw	170
  7589  000FC2  6E2B               	movwf	(___flsub@b+1)^0,c
  7590  000FC4  0EAA               	movlw	170
  7591  000FC6  6E2C               	movwf	(___flsub@b+2)^0,c
  7592  000FC8  0E3E               	movlw	62
  7593  000FCA  6E2D               	movwf	(___flsub@b+3)^0,c
  7594  000FCC  EC3C  F02E         	call	___flsub	;wreg free
  7595  000FD0  C02A  F1A4         	movff	?___flsub,_powf$2135
  7596  000FD4  C02B  F1A5         	movff	?___flsub+1,_powf$2135+1
  7597  000FD8  C02C  F1A6         	movff	?___flsub+2,_powf$2135+2
  7598  000FDC  C02D  F1A7         	movff	?___flsub+3,_powf$2135+3
  7599  000FE0  C1B0  F015         	movff	powf@t,___flmul@a
  7600  000FE4  C1B1  F016         	movff	powf@t+1,___flmul@a+1
  7601  000FE8  C1B2  F017         	movff	powf@t+2,___flmul@a+2
  7602  000FEC  C1B3  F018         	movff	powf@t+3,___flmul@a+3
  7603  000FF0  C1B0  F011         	movff	powf@t,___flmul@b
  7604  000FF4  C1B1  F012         	movff	powf@t+1,___flmul@b+1
  7605  000FF8  C1B2  F013         	movff	powf@t+2,___flmul@b+2
  7606  000FFC  C1B3  F014         	movff	powf@t+3,___flmul@b+3
  7607  001000  ECB2  F01C         	call	___flmul	;wreg free
  7608  001004  C011  F154         	movff	?___flmul,_powf$2136
  7609  001008  C012  F155         	movff	?___flmul+1,_powf$2136+1
  7610  00100C  C013  F156         	movff	?___flmul+2,_powf$2136+2
  7611  001010  C014  F157         	movff	?___flmul+3,_powf$2136+3
  7612  001014  C1B0  F015         	movff	powf@t,___flmul@a
  7613  001018  C1B1  F016         	movff	powf@t+1,___flmul@a+1
  7614  00101C  C1B2  F017         	movff	powf@t+2,___flmul@a+2
  7615  001020  C1B3  F018         	movff	powf@t+3,___flmul@a+3
  7616  001024  C1A4  F011         	movff	_powf$2135,___flmul@b
  7617  001028  C1A5  F012         	movff	_powf$2135+1,___flmul@b+1
  7618  00102C  C1A6  F013         	movff	_powf$2135+2,___flmul@b+2
  7619  001030  C1A7  F014         	movff	_powf$2135+3,___flmul@b+3
  7620  001034  ECB2  F01C         	call	___flmul	;wreg free
  7621  001038  C011  F02E         	movff	?___flmul,___flsub@a
  7622  00103C  C012  F02F         	movff	?___flmul+1,___flsub@a+1
  7623  001040  C013  F030         	movff	?___flmul+2,___flsub@a+2
  7624  001044  C014  F031         	movff	?___flmul+3,___flsub@a+3
  7625  001048  0E00               	movlw	0
  7626  00104A  6E2A               	movwf	___flsub@b^0,c
  7627  00104C  0E00               	movlw	0
  7628  00104E  6E2B               	movwf	(___flsub@b+1)^0,c
  7629  001050  0E00               	movlw	0
  7630  001052  6E2C               	movwf	(___flsub@b+2)^0,c
  7631  001054  0E3F               	movlw	63
  7632  001056  6E2D               	movwf	(___flsub@b+3)^0,c
  7633  001058  EC3C  F02E         	call	___flsub	;wreg free
  7634  00105C  C02A  F148         	movff	?___flsub,_powf$2137
  7635  001060  C02B  F149         	movff	?___flsub+1,_powf$2137+1
  7636  001064  C02C  F14A         	movff	?___flsub+2,_powf$2137+2
  7637  001068  C02D  F14B         	movff	?___flsub+3,_powf$2137+3
  7638  00106C  C154  F011         	movff	_powf$2136,___flmul@b
  7639  001070  C155  F012         	movff	_powf$2136+1,___flmul@b+1
  7640  001074  C156  F013         	movff	_powf$2136+2,___flmul@b+2
  7641  001078  C157  F014         	movff	_powf$2136+3,___flmul@b+3
  7642  00107C  C148  F015         	movff	_powf$2137,___flmul@a
  7643  001080  C149  F016         	movff	_powf$2137+1,___flmul@a+1
  7644  001084  C14A  F017         	movff	_powf$2137+2,___flmul@a+2
  7645  001088  C14B  F018         	movff	_powf$2137+3,___flmul@a+3
  7646  00108C  ECB2  F01C         	call	___flmul	;wreg free
  7647  001090  C011  F144         	movff	?___flmul,powf@w
  7648  001094  C012  F145         	movff	?___flmul+1,powf@w+1
  7649  001098  C013  F146         	movff	?___flmul+2,powf@w+2
  7650  00109C  C014  F147         	movff	?___flmul+3,powf@w+3
  7651  0010A0  C1B0  F011         	movff	powf@t,___flmul@b
  7652  0010A4  C1B1  F012         	movff	powf@t+1,___flmul@b+1
  7653  0010A8  C1B2  F013         	movff	powf@t+2,___flmul@b+2
  7654  0010AC  C1B3  F014         	movff	powf@t+3,___flmul@b+3
  7655  0010B0  0E00               	movlw	0
  7656  0010B2  6E15               	movwf	___flmul@a^0,c
  7657  0010B4  0EAA               	movlw	170
  7658  0010B6  6E16               	movwf	(___flmul@a+1)^0,c
  7659  0010B8  0EB8               	movlw	184
  7660  0010BA  6E17               	movwf	(___flmul@a+2)^0,c
  7661  0010BC  0E3F               	movlw	63
  7662  0010BE  6E18               	movwf	(___flmul@a+3)^0,c
  7663  0010C0  ECB2  F01C         	call	___flmul	;wreg free
  7664  0010C4  C011  F174         	movff	?___flmul,powf@u
  7665  0010C8  C012  F175         	movff	?___flmul+1,powf@u+1
  7666  0010CC  C013  F176         	movff	?___flmul+2,powf@u+2
  7667  0010D0  C014  F177         	movff	?___flmul+3,powf@u+3
  7668  0010D4  0E70               	movlw	112
  7669  0010D6  6E15               	movwf	___flmul@a^0,c
  7670  0010D8  0EA5               	movlw	165
  7671  0010DA  6E16               	movwf	(___flmul@a+1)^0,c
  7672  0010DC  0EEC               	movlw	236
  7673  0010DE  6E17               	movwf	(___flmul@a+2)^0,c
  7674  0010E0  0E36               	movlw	54
  7675  0010E2  6E18               	movwf	(___flmul@a+3)^0,c
  7676  0010E4  C1B0  F011         	movff	powf@t,___flmul@b
  7677  0010E8  C1B1  F012         	movff	powf@t+1,___flmul@b+1
  7678  0010EC  C1B2  F013         	movff	powf@t+2,___flmul@b+2
  7679  0010F0  C1B3  F014         	movff	powf@t+3,___flmul@b+3
  7680  0010F4  ECB2  F01C         	call	___flmul	;wreg free
  7681  0010F8  C011  F02A         	movff	?___flmul,___flsub@b
  7682  0010FC  C012  F02B         	movff	?___flmul+1,___flsub@b+1
  7683  001100  C013  F02C         	movff	?___flmul+2,___flsub@b+2
  7684  001104  C014  F02D         	movff	?___flmul+3,___flsub@b+3
  7685  001108  0E3B               	movlw	59
  7686  00110A  6E15               	movwf	___flmul@a^0,c
  7687  00110C  0EAA               	movlw	170
  7688  00110E  6E16               	movwf	(___flmul@a+1)^0,c
  7689  001110  0EB8               	movlw	184
  7690  001112  6E17               	movwf	(___flmul@a+2)^0,c
  7691  001114  0E3F               	movlw	63
  7692  001116  6E18               	movwf	(___flmul@a+3)^0,c
  7693  001118  C144  F011         	movff	powf@w,___flmul@b
  7694  00111C  C145  F012         	movff	powf@w+1,___flmul@b+1
  7695  001120  C146  F013         	movff	powf@w+2,___flmul@b+2
  7696  001124  C147  F014         	movff	powf@w+3,___flmul@b+3
  7697  001128  ECB2  F01C         	call	___flmul	;wreg free
  7698  00112C  C011  F02E         	movff	?___flmul,___flsub@a
  7699  001130  C012  F02F         	movff	?___flmul+1,___flsub@a+1
  7700  001134  C013  F030         	movff	?___flmul+2,___flsub@a+2
  7701  001138  C014  F031         	movff	?___flmul+3,___flsub@a+3
  7702  00113C  EC3C  F02E         	call	___flsub	;wreg free
  7703  001140  C02A  F178         	movff	?___flsub,powf@v
  7704  001144  C02B  F179         	movff	?___flsub+1,powf@v+1
  7705  001148  C02C  F17A         	movff	?___flsub+2,powf@v+2
  7706  00114C  C02D  F17B         	movff	?___flsub+3,powf@v+3
  7707  001150  C174  F001         	movff	powf@u,___fladd@b
  7708  001154  C175  F002         	movff	powf@u+1,___fladd@b+1
  7709  001158  C176  F003         	movff	powf@u+2,___fladd@b+2
  7710  00115C  C177  F004         	movff	powf@u+3,___fladd@b+3
  7711  001160  C178  F005         	movff	powf@v,___fladd@a
  7712  001164  C179  F006         	movff	powf@v+1,___fladd@a+1
  7713  001168  C17A  F007         	movff	powf@v+2,___fladd@a+2
  7714  00116C  C17B  F008         	movff	powf@v+3,___fladd@a+3
  7715  001170  EC5B  F01E         	call	___fladd	;wreg free
  7716  001174  C001  F180         	movff	?___fladd,powf@t1
  7717  001178  C002  F181         	movff	?___fladd+1,powf@t1+1
  7718  00117C  C003  F182         	movff	?___fladd+2,powf@t1+2
  7719  001180  C004  F183         	movff	?___fladd+3,powf@t1+3
  7720  001184  C180  F1B8         	movff	powf@t1,powf@__xc8_float_word
  7721  001188  C181  F1B9         	movff	powf@t1+1,powf@__xc8_float_word+1
  7722  00118C  C182  F1BA         	movff	powf@t1+2,powf@__xc8_float_word+2
  7723  001190  C183  F1BB         	movff	powf@t1+3,powf@__xc8_float_word+3
  7724  001194  C1B8  F190         	movff	powf@__xc8_float_word,powf@is
  7725  001198  C1B9  F191         	movff	powf@__xc8_float_word+1,powf@is+1
  7726  00119C  C1BA  F192         	movff	powf@__xc8_float_word+2,powf@is+2
  7727  0011A0  C1BB  F193         	movff	powf@__xc8_float_word+3,powf@is+3
  7728  0011A4  0E00               	movlw	0
  7729  0011A6  0101               	movlb	1	; () banked
  7730  0011A8  1590               	andwf	powf@is& (0+255),w,b
  7731  0011AA  6FB8               	movwf	powf@__xc8_float_word& (0+255),b
  7732  0011AC  0EF0               	movlw	240
  7733  0011AE  1591               	andwf	(powf@is+1)& (0+255),w,b
  7734  0011B0  6FB9               	movwf	(powf@__xc8_float_word+1)& (0+255),b
  7735  0011B2  0EFF               	movlw	255
  7736  0011B4  1592               	andwf	(powf@is+2)& (0+255),w,b
  7737  0011B6  6FBA               	movwf	(powf@__xc8_float_word+2)& (0+255),b
  7738  0011B8  0EFF               	movlw	255
  7739  0011BA  1593               	andwf	(powf@is+3)& (0+255),w,b
  7740  0011BC  6FBB               	movwf	(powf@__xc8_float_word+3)& (0+255),b
  7741                           
  7742                           ; BSR set to: 1
  7743  0011BE  C1B8  F180         	movff	powf@__xc8_float_word,powf@t1
  7744  0011C2  C1B9  F181         	movff	powf@__xc8_float_word+1,powf@t1+1
  7745  0011C6  C1BA  F182         	movff	powf@__xc8_float_word+2,powf@t1+2
  7746  0011CA  C1BB  F183         	movff	powf@__xc8_float_word+3,powf@t1+3
  7747                           
  7748                           ; BSR set to: 1
  7749  0011CE  C174  F02E         	movff	powf@u,___flsub@a
  7750  0011D2  C175  F02F         	movff	powf@u+1,___flsub@a+1
  7751  0011D6  C176  F030         	movff	powf@u+2,___flsub@a+2
  7752  0011DA  C177  F031         	movff	powf@u+3,___flsub@a+3
  7753  0011DE  C180  F02A         	movff	powf@t1,___flsub@b
  7754  0011E2  C181  F02B         	movff	powf@t1+1,___flsub@b+1
  7755  0011E6  C182  F02C         	movff	powf@t1+2,___flsub@b+2
  7756  0011EA  C183  F02D         	movff	powf@t1+3,___flsub@b+3
  7757  0011EE  EC3C  F02E         	call	___flsub	;wreg free
  7758  0011F2  C02A  F194         	movff	?___flsub,_powf$2138
  7759  0011F6  C02B  F195         	movff	?___flsub+1,_powf$2138+1
  7760  0011FA  C02C  F196         	movff	?___flsub+2,_powf$2138+2
  7761  0011FE  C02D  F197         	movff	?___flsub+3,_powf$2138+3
  7762  001202  C178  F02A         	movff	powf@v,___flsub@b
  7763  001206  C179  F02B         	movff	powf@v+1,___flsub@b+1
  7764  00120A  C17A  F02C         	movff	powf@v+2,___flsub@b+2
  7765  00120E  C17B  F02D         	movff	powf@v+3,___flsub@b+3
  7766  001212  C194  F02E         	movff	_powf$2138,___flsub@a
  7767  001216  C195  F02F         	movff	_powf$2138+1,___flsub@a+1
  7768  00121A  C196  F030         	movff	_powf$2138+2,___flsub@a+2
  7769  00121E  C197  F031         	movff	_powf$2138+3,___flsub@a+3
  7770  001222  EC3C  F02E         	call	___flsub	;wreg free
  7771  001226  EF5C  F010         	goto	L4
  7772  00122A                     i2l4557:
  7773                           
  7774                           ; BSR set to: 1
  7775  00122A  0E00               	movlw	0
  7776  00122C  6F7C               	movwf	powf@n& (0+255),b
  7777  00122E  0E00               	movlw	0
  7778  001230  6F7D               	movwf	(powf@n+1)& (0+255),b
  7779  001232  0E00               	movlw	0
  7780  001234  6F7E               	movwf	(powf@n+2)& (0+255),b
  7781  001236  0E00               	movlw	0
  7782  001238  6F7F               	movwf	(powf@n+3)& (0+255),b
  7783                           
  7784                           ; BSR set to: 1
  7785  00123A  BFAB               	btfsc	(powf@ix+3)& (0+255),7,b
  7786  00123C  D006               	goto	i2u487_40
  7787  00123E  51AB               	movf	(powf@ix+3)& (0+255),w,b
  7788  001240  E137               	bnz	i2l4569
  7789  001242  0E80               	movlw	128
  7790  001244  5DAA               	subwf	(powf@ix+2)& (0+255),w,b
  7791  001246  B0D8               	btfsc	status,0,c
  7792  001248  D033               	goto	i2l4569
  7793  00124A                     i2u487_40:
  7794                           
  7795                           ; BSR set to: 1
  7796  00124A  C170  F011         	movff	powf@ax,___flmul@b
  7797  00124E  C171  F012         	movff	powf@ax+1,___flmul@b+1
  7798  001252  C172  F013         	movff	powf@ax+2,___flmul@b+2
  7799  001256  C173  F014         	movff	powf@ax+3,___flmul@b+3
  7800  00125A  0E00               	movlw	0
  7801  00125C  6E15               	movwf	___flmul@a^0,c
  7802  00125E  0E00               	movlw	0
  7803  001260  6E16               	movwf	(___flmul@a+1)^0,c
  7804  001262  0E80               	movlw	128
  7805  001264  6E17               	movwf	(___flmul@a+2)^0,c
  7806  001266  0E4B               	movlw	75
  7807  001268  6E18               	movwf	(___flmul@a+3)^0,c
  7808  00126A  ECB2  F01C         	call	___flmul	;wreg free
  7809  00126E  C011  F170         	movff	?___flmul,powf@ax
  7810  001272  C012  F171         	movff	?___flmul+1,powf@ax+1
  7811  001276  C013  F172         	movff	?___flmul+2,powf@ax+2
  7812  00127A  C014  F173         	movff	?___flmul+3,powf@ax+3
  7813  00127E  0EE8               	movlw	232
  7814  001280  0101               	movlb	1	; () banked
  7815  001282  277C               	addwf	powf@n& (0+255),f,b
  7816  001284  0EFF               	movlw	255
  7817  001286  237D               	addwfc	(powf@n+1)& (0+255),f,b
  7818  001288  0EFF               	movlw	255
  7819  00128A  237E               	addwfc	(powf@n+2)& (0+255),f,b
  7820  00128C  0EFF               	movlw	255
  7821  00128E  237F               	addwfc	(powf@n+3)& (0+255),f,b
  7822                           
  7823                           ; BSR set to: 1
  7824  001290  C170  F1B8         	movff	powf@ax,powf@__xc8_float_word
  7825  001294  C171  F1B9         	movff	powf@ax+1,powf@__xc8_float_word+1
  7826  001298  C172  F1BA         	movff	powf@ax+2,powf@__xc8_float_word+2
  7827  00129C  C173  F1BB         	movff	powf@ax+3,powf@__xc8_float_word+3
  7828                           
  7829                           ; BSR set to: 1
  7830  0012A0  C1B8  F1A8         	movff	powf@__xc8_float_word,powf@ix
  7831  0012A4  C1B9  F1A9         	movff	powf@__xc8_float_word+1,powf@ix+1
  7832  0012A8  C1BA  F1AA         	movff	powf@__xc8_float_word+2,powf@ix+2
  7833  0012AC  C1BB  F1AB         	movff	powf@__xc8_float_word+3,powf@ix+3
  7834  0012B0                     i2l4569:
  7835                           
  7836                           ; BSR set to: 1
  7837  0012B0  0E17               	movlw	23
  7838  0012B2  0100               	movlb	0	; () banked
  7839  0012B4  6FC2               	movwf	??_powf& (0+255),b
  7840  0012B6  C1A8  F0C3         	movff	powf@ix,??_powf+1
  7841  0012BA  C1A9  F0C4         	movff	powf@ix+1,??_powf+2
  7842  0012BE  C1AA  F0C5         	movff	powf@ix+2,??_powf+3
  7843  0012C2  C1AB  F0C6         	movff	powf@ix+3,??_powf+4
  7844  0012C6                     i2u488_45:
  7845  0012C6  67C2               	tstfsz	??_powf& (0+255),b
  7846  0012C8  D001               	goto	i2u488_46
  7847  0012CA  D007               	goto	i2u488_47
  7848  0012CC                     i2u488_46:
  7849  0012CC  35C6               	rlcf	(??_powf+4)& (0+255),w,b
  7850  0012CE  33C6               	rrcf	(??_powf+4)& (0+255),f,b
  7851  0012D0  33C5               	rrcf	(??_powf+3)& (0+255),f,b
  7852  0012D2  33C4               	rrcf	(??_powf+2)& (0+255),f,b
  7853  0012D4  33C3               	rrcf	(??_powf+1)& (0+255),f,b
  7854  0012D6  2FC2               	decfsz	??_powf& (0+255),f,b
  7855  0012D8  D7F6               	goto	i2u488_45
  7856  0012DA                     i2u488_47:
  7857  0012DA  0E81               	movlw	129
  7858  0012DC  0100               	movlb	0	; () banked
  7859  0012DE  25C3               	addwf	(??_powf+1)& (0+255),w,b
  7860  0012E0  6FC7               	movwf	(??_powf+5)& (0+255),b
  7861  0012E2  0EFF               	movlw	255
  7862  0012E4  21C4               	addwfc	(??_powf+2)& (0+255),w,b
  7863  0012E6  6FC8               	movwf	(??_powf+6)& (0+255),b
  7864  0012E8  0EFF               	movlw	255
  7865  0012EA  21C5               	addwfc	(??_powf+3)& (0+255),w,b
  7866  0012EC  6FC9               	movwf	(??_powf+7)& (0+255),b
  7867  0012EE  0EFF               	movlw	255
  7868  0012F0  21C6               	addwfc	(??_powf+4)& (0+255),w,b
  7869  0012F2  6FCA               	movwf	(??_powf+8)& (0+255),b
  7870  0012F4  51C7               	movf	(??_powf+5)& (0+255),w,b
  7871  0012F6  0101               	movlb	1	; () banked
  7872  0012F8  277C               	addwf	powf@n& (0+255),f,b
  7873  0012FA  0100               	movlb	0	; () banked
  7874  0012FC  51C8               	movf	(??_powf+6)& (0+255),w,b
  7875  0012FE  0101               	movlb	1	; () banked
  7876  001300  237D               	addwfc	(powf@n+1)& (0+255),f,b
  7877  001302  0100               	movlb	0	; () banked
  7878  001304  51C9               	movf	(??_powf+7)& (0+255),w,b
  7879  001306  0101               	movlb	1	; () banked
  7880  001308  237E               	addwfc	(powf@n+2)& (0+255),f,b
  7881  00130A  0100               	movlb	0	; () banked
  7882  00130C  51CA               	movf	(??_powf+8)& (0+255),w,b
  7883  00130E  0101               	movlb	1	; () banked
  7884  001310  237F               	addwfc	(powf@n+3)& (0+255),f,b
  7885                           
  7886                           ; BSR set to: 1
  7887  001312  0EFF               	movlw	255
  7888  001314  15A8               	andwf	powf@ix& (0+255),w,b
  7889  001316  6FAC               	movwf	powf@j& (0+255),b
  7890  001318  0EFF               	movlw	255
  7891  00131A  15A9               	andwf	(powf@ix+1)& (0+255),w,b
  7892  00131C  6FAD               	movwf	(powf@j+1)& (0+255),b
  7893  00131E  0E7F               	movlw	127
  7894  001320  15AA               	andwf	(powf@ix+2)& (0+255),w,b
  7895  001322  6FAE               	movwf	(powf@j+2)& (0+255),b
  7896  001324  0E00               	movlw	0
  7897  001326  15AB               	andwf	(powf@ix+3)& (0+255),w,b
  7898  001328  6FAF               	movwf	(powf@j+3)& (0+255),b
  7899                           
  7900                           ; BSR set to: 1
  7901  00132A  0E00               	movlw	0
  7902  00132C  11AC               	iorwf	powf@j& (0+255),w,b
  7903  00132E  6FA8               	movwf	powf@ix& (0+255),b
  7904  001330  0E00               	movlw	0
  7905  001332  11AD               	iorwf	(powf@j+1)& (0+255),w,b
  7906  001334  6FA9               	movwf	(powf@ix+1)& (0+255),b
  7907  001336  0E80               	movlw	128
  7908  001338  11AE               	iorwf	(powf@j+2)& (0+255),w,b
  7909  00133A  6FAA               	movwf	(powf@ix+2)& (0+255),b
  7910  00133C  0E3F               	movlw	63
  7911  00133E  11AF               	iorwf	(powf@j+3)& (0+255),w,b
  7912  001340  6FAB               	movwf	(powf@ix+3)& (0+255),b
  7913                           
  7914                           ; BSR set to: 1
  7915  001342  BFAF               	btfsc	(powf@j+3)& (0+255),7,b
  7916  001344  D00A               	goto	i2u489_40
  7917  001346  51AF               	movf	(powf@j+3)& (0+255),w,b
  7918  001348  E10A               	bnz	i2l4579
  7919  00134A  0E72               	movlw	114
  7920  00134C  5DAC               	subwf	powf@j& (0+255),w,b
  7921  00134E  0EC4               	movlw	196
  7922  001350  59AD               	subwfb	(powf@j+1)& (0+255),w,b
  7923  001352  0E1C               	movlw	28
  7924  001354  59AE               	subwfb	(powf@j+2)& (0+255),w,b
  7925  001356  B0D8               	btfsc	status,0,c
  7926  001358  D002               	goto	i2l4579
  7927  00135A                     i2u489_40:
  7928                           
  7929                           ; BSR set to: 1
  7930  00135A  0E00               	movlw	0
  7931  00135C  D00D               	goto	L5
  7932  00135E                     i2l4579:
  7933                           
  7934                           ; BSR set to: 1
  7935  00135E  BFAF               	btfsc	(powf@j+3)& (0+255),7,b
  7936  001360  D00A               	goto	i2u490_40
  7937  001362  51AF               	movf	(powf@j+3)& (0+255),w,b
  7938  001364  E111               	bnz	i2l4583
  7939  001366  0ED7               	movlw	215
  7940  001368  5DAC               	subwf	powf@j& (0+255),w,b
  7941  00136A  0EB3               	movlw	179
  7942  00136C  59AD               	subwfb	(powf@j+1)& (0+255),w,b
  7943  00136E  0E5D               	movlw	93
  7944  001370  59AE               	subwfb	(powf@j+2)& (0+255),w,b
  7945  001372  B0D8               	btfsc	status,0,c
  7946  001374  D009               	goto	i2l4583
  7947  001376                     i2u490_40:
  7948                           
  7949                           ; BSR set to: 1
  7950  001376  0E01               	movlw	1
  7951  001378                     L5:
  7952  001378  6FA0               	movwf	powf@k& (0+255),b
  7953  00137A  0E00               	movlw	0
  7954  00137C  6FA1               	movwf	(powf@k+1)& (0+255),b
  7955  00137E  0E00               	movlw	0
  7956  001380  6FA2               	movwf	(powf@k+2)& (0+255),b
  7957  001382  0E00               	movlw	0
  7958  001384  6FA3               	movwf	(powf@k+3)& (0+255),b
  7959  001386  D016               	goto	i2l4589
  7960  001388                     i2l4583:
  7961                           
  7962                           ; BSR set to: 1
  7963  001388  0E00               	movlw	0
  7964  00138A  6FA0               	movwf	powf@k& (0+255),b
  7965  00138C  0E00               	movlw	0
  7966  00138E  6FA1               	movwf	(powf@k+1)& (0+255),b
  7967  001390  0E00               	movlw	0
  7968  001392  6FA2               	movwf	(powf@k+2)& (0+255),b
  7969  001394  0E00               	movlw	0
  7970  001396  6FA3               	movwf	(powf@k+3)& (0+255),b
  7971                           
  7972                           ; BSR set to: 1
  7973  001398  0E01               	movlw	1
  7974  00139A  277C               	addwf	powf@n& (0+255),f,b
  7975  00139C  0E00               	movlw	0
  7976  00139E  237D               	addwfc	(powf@n+1)& (0+255),f,b
  7977  0013A0  237E               	addwfc	(powf@n+2)& (0+255),f,b
  7978  0013A2  237F               	addwfc	(powf@n+3)& (0+255),f,b
  7979                           
  7980                           ; BSR set to: 1
  7981  0013A4  0E00               	movlw	0
  7982  0013A6  27A8               	addwf	powf@ix& (0+255),f,b
  7983  0013A8  0E00               	movlw	0
  7984  0013AA  23A9               	addwfc	(powf@ix+1)& (0+255),f,b
  7985  0013AC  0E80               	movlw	128
  7986  0013AE  23AA               	addwfc	(powf@ix+2)& (0+255),f,b
  7987  0013B0  0EFF               	movlw	255
  7988  0013B2  23AB               	addwfc	(powf@ix+3)& (0+255),f,b
  7989  0013B4                     i2l4589:
  7990                           
  7991                           ; BSR set to: 1
  7992  0013B4  C1A8  F1B8         	movff	powf@ix,powf@__xc8_float_word
  7993  0013B8  C1A9  F1B9         	movff	powf@ix+1,powf@__xc8_float_word+1
  7994  0013BC  C1AA  F1BA         	movff	powf@ix+2,powf@__xc8_float_word+2
  7995  0013C0  C1AB  F1BB         	movff	powf@ix+3,powf@__xc8_float_word+3
  7996                           
  7997                           ; BSR set to: 1
  7998  0013C4  C1B8  F170         	movff	powf@__xc8_float_word,powf@ax
  7999  0013C8  C1B9  F171         	movff	powf@__xc8_float_word+1,powf@ax+1
  8000  0013CC  C1BA  F172         	movff	powf@__xc8_float_word+2,powf@ax+2
  8001  0013D0  C1BB  F173         	movff	powf@__xc8_float_word+3,powf@ax+3
  8002                           
  8003                           ; BSR set to: 1
  8004  0013D4  C170  F02A         	movff	powf@ax,___flsub@b
  8005  0013D8  C171  F02B         	movff	powf@ax+1,___flsub@b+1
  8006  0013DC  C172  F02C         	movff	powf@ax+2,___flsub@b+2
  8007  0013E0  C173  F02D         	movff	powf@ax+3,___flsub@b+3
  8008  0013E4  C1A0  F0C2         	movff	powf@k,??_powf
  8009  0013E8  C1A1  F0C3         	movff	powf@k+1,??_powf+1
  8010  0013EC  0100               	movlb	0	; () banked
  8011  0013EE  90D8               	bcf	status,0,c
  8012  0013F0  37C2               	rlcf	??_powf& (0+255),f,b
  8013  0013F2  37C3               	rlcf	(??_powf+1)& (0+255),f,b
  8014  0013F4  90D8               	bcf	status,0,c
  8015  0013F6  37C2               	rlcf	??_powf& (0+255),f,b
  8016  0013F8  37C3               	rlcf	(??_powf+1)& (0+255),f,b
  8017  0013FA  0E81               	movlw	low _bp
  8018  0013FC  25C2               	addwf	??_powf& (0+255),w,b
  8019  0013FE  6EF6               	movwf	tblptrl,c
  8020  001400  0E06               	movlw	high _bp
  8021  001402  21C3               	addwfc	(??_powf+1)& (0+255),w,b
  8022  001404  6EF7               	movwf	tblptrh,c
  8023  001406                     	if	0	;There are less than 3 active tblptr bytes
  8024  001406                     	endif
  8025  001406  0009               	tblrd		*+
  8026  001408  CFF5 F02E          	movff	tablat,___flsub@a
  8027  00140C  0009               	tblrd		*+
  8028  00140E  CFF5 F02F          	movff	tablat,___flsub@a+1
  8029  001412  0009               	tblrd		*+
  8030  001414  CFF5 F030          	movff	tablat,___flsub@a+2
  8031  001418  000A               	tblrd		*-
  8032  00141A  CFF5 F031          	movff	tablat,___flsub@a+3
  8033  00141E  EC3C  F02E         	call	___flsub	;wreg free
  8034  001422  C02A  F174         	movff	?___flsub,powf@u
  8035  001426  C02B  F175         	movff	?___flsub+1,powf@u+1
  8036  00142A  C02C  F176         	movff	?___flsub+2,powf@u+2
  8037  00142E  C02D  F177         	movff	?___flsub+3,powf@u+3
  8038  001432  0E00               	movlw	0
  8039  001434  6E32               	movwf	___fldiv@b^0,c
  8040  001436  0E00               	movlw	0
  8041  001438  6E33               	movwf	(___fldiv@b+1)^0,c
  8042  00143A  0E80               	movlw	128
  8043  00143C  6E34               	movwf	(___fldiv@b+2)^0,c
  8044  00143E  0E3F               	movlw	63
  8045  001440  6E35               	movwf	(___fldiv@b+3)^0,c
  8046  001442  C170  F005         	movff	powf@ax,___fladd@a
  8047  001446  C171  F006         	movff	powf@ax+1,___fladd@a+1
  8048  00144A  C172  F007         	movff	powf@ax+2,___fladd@a+2
  8049  00144E  C173  F008         	movff	powf@ax+3,___fladd@a+3
  8050  001452  C1A0  F0C2         	movff	powf@k,??_powf
  8051  001456  C1A1  F0C3         	movff	powf@k+1,??_powf+1
  8052  00145A  0100               	movlb	0	; () banked
  8053  00145C  90D8               	bcf	status,0,c
  8054  00145E  37C2               	rlcf	??_powf& (0+255),f,b
  8055  001460  37C3               	rlcf	(??_powf+1)& (0+255),f,b
  8056  001462  90D8               	bcf	status,0,c
  8057  001464  37C2               	rlcf	??_powf& (0+255),f,b
  8058  001466  37C3               	rlcf	(??_powf+1)& (0+255),f,b
  8059  001468  0E81               	movlw	low _bp
  8060  00146A  25C2               	addwf	??_powf& (0+255),w,b
  8061  00146C  6EF6               	movwf	tblptrl,c
  8062  00146E  0E06               	movlw	high _bp
  8063  001470  21C3               	addwfc	(??_powf+1)& (0+255),w,b
  8064  001472  6EF7               	movwf	tblptrh,c
  8065  001474                     	if	0	;There are less than 3 active tblptr bytes
  8066  001474                     	endif
  8067  001474  0009               	tblrd		*+
  8068  001476  CFF5 F001          	movff	tablat,___fladd@b
  8069  00147A  0009               	tblrd		*+
  8070  00147C  CFF5 F002          	movff	tablat,___fladd@b+1
  8071  001480  0009               	tblrd		*+
  8072  001482  CFF5 F003          	movff	tablat,___fladd@b+2
  8073  001486  000A               	tblrd		*-
  8074  001488  CFF5 F004          	movff	tablat,___fladd@b+3
  8075  00148C  EC5B  F01E         	call	___fladd	;wreg free
  8076  001490  C001  F036         	movff	?___fladd,___fldiv@a
  8077  001494  C002  F037         	movff	?___fladd+1,___fldiv@a+1
  8078  001498  C003  F038         	movff	?___fladd+2,___fldiv@a+2
  8079  00149C  C004  F039         	movff	?___fladd+3,___fldiv@a+3
  8080  0014A0  EC4B  F021         	call	___fldiv	;wreg free
  8081  0014A4  C032  F178         	movff	?___fldiv,powf@v
  8082  0014A8  C033  F179         	movff	?___fldiv+1,powf@v+1
  8083  0014AC  C034  F17A         	movff	?___fldiv+2,powf@v+2
  8084  0014B0  C035  F17B         	movff	?___fldiv+3,powf@v+3
  8085  0014B4  C174  F011         	movff	powf@u,___flmul@b
  8086  0014B8  C175  F012         	movff	powf@u+1,___flmul@b+1
  8087  0014BC  C176  F013         	movff	powf@u+2,___flmul@b+2
  8088  0014C0  C177  F014         	movff	powf@u+3,___flmul@b+3
  8089  0014C4  C178  F015         	movff	powf@v,___flmul@a
  8090  0014C8  C179  F016         	movff	powf@v+1,___flmul@a+1
  8091  0014CC  C17A  F017         	movff	powf@v+2,___flmul@a+2
  8092  0014D0  C17B  F018         	movff	powf@v+3,___flmul@a+3
  8093  0014D4  ECB2  F01C         	call	___flmul	;wreg free
  8094  0014D8  C011  F15C         	movff	?___flmul,powf@s
  8095  0014DC  C012  F15D         	movff	?___flmul+1,powf@s+1
  8096  0014E0  C013  F15E         	movff	?___flmul+2,powf@s+2
  8097  0014E4  C014  F15F         	movff	?___flmul+3,powf@s+3
  8098  0014E8  C15C  F16C         	movff	powf@s,powf@s_h
  8099  0014EC  C15D  F16D         	movff	powf@s+1,powf@s_h+1
  8100  0014F0  C15E  F16E         	movff	powf@s+2,powf@s_h+2
  8101  0014F4  C15F  F16F         	movff	powf@s+3,powf@s_h+3
  8102  0014F8  C16C  F1B8         	movff	powf@s_h,powf@__xc8_float_word
  8103  0014FC  C16D  F1B9         	movff	powf@s_h+1,powf@__xc8_float_word+1
  8104  001500  C16E  F1BA         	movff	powf@s_h+2,powf@__xc8_float_word+2
  8105  001504  C16F  F1BB         	movff	powf@s_h+3,powf@__xc8_float_word+3
  8106  001508  C1B8  F190         	movff	powf@__xc8_float_word,powf@is
  8107  00150C  C1B9  F191         	movff	powf@__xc8_float_word+1,powf@is+1
  8108  001510  C1BA  F192         	movff	powf@__xc8_float_word+2,powf@is+2
  8109  001514  C1BB  F193         	movff	powf@__xc8_float_word+3,powf@is+3
  8110  001518  0E00               	movlw	0
  8111  00151A  0101               	movlb	1	; () banked
  8112  00151C  1590               	andwf	powf@is& (0+255),w,b
  8113  00151E  6FB8               	movwf	powf@__xc8_float_word& (0+255),b
  8114  001520  0EF0               	movlw	240
  8115  001522  1591               	andwf	(powf@is+1)& (0+255),w,b
  8116  001524  6FB9               	movwf	(powf@__xc8_float_word+1)& (0+255),b
  8117  001526  0EFF               	movlw	255
  8118  001528  1592               	andwf	(powf@is+2)& (0+255),w,b
  8119  00152A  6FBA               	movwf	(powf@__xc8_float_word+2)& (0+255),b
  8120  00152C  0EFF               	movlw	255
  8121  00152E  1593               	andwf	(powf@is+3)& (0+255),w,b
  8122  001530  6FBB               	movwf	(powf@__xc8_float_word+3)& (0+255),b
  8123                           
  8124                           ; BSR set to: 1
  8125  001532  C1B8  F16C         	movff	powf@__xc8_float_word,powf@s_h
  8126  001536  C1B9  F16D         	movff	powf@__xc8_float_word+1,powf@s_h+1
  8127  00153A  C1BA  F16E         	movff	powf@__xc8_float_word+2,powf@s_h+2
  8128  00153E  C1BB  F16F         	movff	powf@__xc8_float_word+3,powf@s_h+3
  8129                           
  8130                           ; BSR set to: 1
  8131  001542  C1A8  F0C2         	movff	powf@ix,??_powf
  8132  001546  C1A9  F0C3         	movff	powf@ix+1,??_powf+1
  8133  00154A  C1AA  F0C4         	movff	powf@ix+2,??_powf+2
  8134  00154E  C1AB  F0C5         	movff	powf@ix+3,??_powf+3
  8135  001552  0100               	movlb	0	; () banked
  8136  001554  35C5               	rlcf	(??_powf+3)& (0+255),w,b
  8137  001556  33C5               	rrcf	(??_powf+3)& (0+255),f,b
  8138  001558  33C4               	rrcf	(??_powf+2)& (0+255),f,b
  8139  00155A  33C3               	rrcf	(??_powf+1)& (0+255),f,b
  8140  00155C  33C2               	rrcf	??_powf& (0+255),f,b
  8141  00155E  0E00               	movlw	0
  8142  001560  15C2               	andwf	??_powf& (0+255),w,b
  8143  001562  6FC6               	movwf	(??_powf+4)& (0+255),b
  8144  001564  0EF0               	movlw	240
  8145  001566  15C3               	andwf	(??_powf+1)& (0+255),w,b
  8146  001568  6FC7               	movwf	(??_powf+5)& (0+255),b
  8147  00156A  0EFF               	movlw	255
  8148  00156C  15C4               	andwf	(??_powf+2)& (0+255),w,b
  8149  00156E  6FC8               	movwf	(??_powf+6)& (0+255),b
  8150  001570  0EFF               	movlw	255
  8151  001572  15C5               	andwf	(??_powf+3)& (0+255),w,b
  8152  001574  6FC9               	movwf	(??_powf+7)& (0+255),b
  8153  001576  0E00               	movlw	0
  8154  001578  11C6               	iorwf	(??_powf+4)& (0+255),w,b
  8155  00157A  0101               	movlb	1	; () banked
  8156  00157C  6F90               	movwf	powf@is& (0+255),b
  8157  00157E  0E00               	movlw	0
  8158  001580  0100               	movlb	0	; () banked
  8159  001582  11C7               	iorwf	(??_powf+5)& (0+255),w,b
  8160  001584  0101               	movlb	1	; () banked
  8161  001586  6F91               	movwf	(powf@is+1)& (0+255),b
  8162  001588  0E00               	movlw	0
  8163  00158A  0100               	movlb	0	; () banked
  8164  00158C  11C8               	iorwf	(??_powf+6)& (0+255),w,b
  8165  00158E  0101               	movlb	1	; () banked
  8166  001590  6F92               	movwf	(powf@is+2)& (0+255),b
  8167  001592  0E20               	movlw	32
  8168  001594  0100               	movlb	0	; () banked
  8169  001596  11C9               	iorwf	(??_powf+7)& (0+255),w,b
  8170  001598  0101               	movlb	1	; () banked
  8171  00159A  6F93               	movwf	(powf@is+3)& (0+255),b
  8172                           
  8173                           ; BSR set to: 1
  8174  00159C  C1A0  F0C2         	movff	powf@k,??_powf
  8175  0015A0  C1A1  F0C3         	movff	powf@k+1,??_powf+1
  8176  0015A4  C1A2  F0C4         	movff	powf@k+2,??_powf+2
  8177  0015A8  C1A3  F0C5         	movff	powf@k+3,??_powf+3
  8178  0015AC  0E15               	movlw	21
  8179  0015AE                     i2u491_45:
  8180  0015AE  90D8               	bcf	status,0,c
  8181  0015B0  0100               	movlb	0	; () banked
  8182  0015B2  37C2               	rlcf	??_powf& (0+255),f,b
  8183  0015B4  37C3               	rlcf	(??_powf+1)& (0+255),f,b
  8184  0015B6  37C4               	rlcf	(??_powf+2)& (0+255),f,b
  8185  0015B8  37C5               	rlcf	(??_powf+3)& (0+255),f,b
  8186  0015BA  2EE8               	decfsz	wreg,f,c
  8187  0015BC  D7F8               	goto	i2u491_45
  8188  0015BE  0101               	movlb	1	; () banked
  8189  0015C0  5190               	movf	powf@is& (0+255),w,b
  8190  0015C2  0100               	movlb	0	; () banked
  8191  0015C4  25C2               	addwf	??_powf& (0+255),w,b
  8192  0015C6  6FC6               	movwf	(??_powf+4)& (0+255),b
  8193  0015C8  0101               	movlb	1	; () banked
  8194  0015CA  5191               	movf	(powf@is+1)& (0+255),w,b
  8195  0015CC  0100               	movlb	0	; () banked
  8196  0015CE  21C3               	addwfc	(??_powf+1)& (0+255),w,b
  8197  0015D0  6FC7               	movwf	(??_powf+5)& (0+255),b
  8198  0015D2  0101               	movlb	1	; () banked
  8199  0015D4  5192               	movf	(powf@is+2)& (0+255),w,b
  8200  0015D6  0100               	movlb	0	; () banked
  8201  0015D8  21C4               	addwfc	(??_powf+2)& (0+255),w,b
  8202  0015DA  6FC8               	movwf	(??_powf+6)& (0+255),b
  8203  0015DC  0101               	movlb	1	; () banked
  8204  0015DE  5193               	movf	(powf@is+3)& (0+255),w,b
  8205  0015E0  0100               	movlb	0	; () banked
  8206  0015E2  21C5               	addwfc	(??_powf+3)& (0+255),w,b
  8207  0015E4  6FC9               	movwf	(??_powf+7)& (0+255),b
  8208  0015E6  0E00               	movlw	0
  8209  0015E8  25C6               	addwf	(??_powf+4)& (0+255),w,b
  8210  0015EA  0101               	movlb	1	; () banked
  8211  0015EC  6FB8               	movwf	powf@__xc8_float_word& (0+255),b
  8212  0015EE  0E00               	movlw	0
  8213  0015F0  0100               	movlb	0	; () banked
  8214  0015F2  21C7               	addwfc	(??_powf+5)& (0+255),w,b
  8215  0015F4  0101               	movlb	1	; () banked
  8216  0015F6  6FB9               	movwf	(powf@__xc8_float_word+1)& (0+255),b
  8217  0015F8  0E40               	movlw	64
  8218  0015FA  0100               	movlb	0	; () banked
  8219  0015FC  21C8               	addwfc	(??_powf+6)& (0+255),w,b
  8220  0015FE  0101               	movlb	1	; () banked
  8221  001600  6FBA               	movwf	(powf@__xc8_float_word+2)& (0+255),b
  8222  001602  0E00               	movlw	0
  8223  001604  0100               	movlb	0	; () banked
  8224  001606  21C9               	addwfc	(??_powf+7)& (0+255),w,b
  8225  001608  0101               	movlb	1	; () banked
  8226  00160A  6FBB               	movwf	(powf@__xc8_float_word+3)& (0+255),b
  8227                           
  8228                           ; BSR set to: 1
  8229  00160C  C1B8  F168         	movff	powf@__xc8_float_word,powf@t_h
  8230  001610  C1B9  F169         	movff	powf@__xc8_float_word+1,powf@t_h+1
  8231  001614  C1BA  F16A         	movff	powf@__xc8_float_word+2,powf@t_h+2
  8232  001618  C1BB  F16B         	movff	powf@__xc8_float_word+3,powf@t_h+3
  8233                           
  8234                           ; BSR set to: 1
  8235  00161C  C1A0  F0C2         	movff	powf@k,??_powf
  8236  001620  C1A1  F0C3         	movff	powf@k+1,??_powf+1
  8237  001624  0100               	movlb	0	; () banked
  8238  001626  90D8               	bcf	status,0,c
  8239  001628  37C2               	rlcf	??_powf& (0+255),f,b
  8240  00162A  37C3               	rlcf	(??_powf+1)& (0+255),f,b
  8241  00162C  90D8               	bcf	status,0,c
  8242  00162E  37C2               	rlcf	??_powf& (0+255),f,b
  8243  001630  37C3               	rlcf	(??_powf+1)& (0+255),f,b
  8244  001632  0E81               	movlw	low _bp
  8245  001634  25C2               	addwf	??_powf& (0+255),w,b
  8246  001636  6EF6               	movwf	tblptrl,c
  8247  001638  0E06               	movlw	high _bp
  8248  00163A  21C3               	addwfc	(??_powf+1)& (0+255),w,b
  8249  00163C  6EF7               	movwf	tblptrh,c
  8250  00163E                     	if	0	;There are less than 3 active tblptr bytes
  8251  00163E                     	endif
  8252  00163E  0009               	tblrd		*+
  8253  001640  CFF5 F02E          	movff	tablat,___flsub@a
  8254  001644  0009               	tblrd		*+
  8255  001646  CFF5 F02F          	movff	tablat,___flsub@a+1
  8256  00164A  0009               	tblrd		*+
  8257  00164C  CFF5 F030          	movff	tablat,___flsub@a+2
  8258  001650  000A               	tblrd		*-
  8259  001652  CFF5 F031          	movff	tablat,___flsub@a+3
  8260  001656  C168  F02A         	movff	powf@t_h,___flsub@b
  8261  00165A  C169  F02B         	movff	powf@t_h+1,___flsub@b+1
  8262  00165E  C16A  F02C         	movff	powf@t_h+2,___flsub@b+2
  8263  001662  C16B  F02D         	movff	powf@t_h+3,___flsub@b+3
  8264  001666  EC3C  F02E         	call	___flsub	;wreg free
  8265  00166A  C02A  F194         	movff	?___flsub,_powf$2138
  8266  00166E  C02B  F195         	movff	?___flsub+1,_powf$2138+1
  8267  001672  C02C  F196         	movff	?___flsub+2,_powf$2138+2
  8268  001676  C02D  F197         	movff	?___flsub+3,_powf$2138+3
  8269  00167A  C170  F02A         	movff	powf@ax,___flsub@b
  8270  00167E  C171  F02B         	movff	powf@ax+1,___flsub@b+1
  8271  001682  C172  F02C         	movff	powf@ax+2,___flsub@b+2
  8272  001686  C173  F02D         	movff	powf@ax+3,___flsub@b+3
  8273  00168A  C194  F02E         	movff	_powf$2138,___flsub@a
  8274  00168E  C195  F02F         	movff	_powf$2138+1,___flsub@a+1
  8275  001692  C196  F030         	movff	_powf$2138+2,___flsub@a+2
  8276  001696  C197  F031         	movff	_powf$2138+3,___flsub@a+3
  8277  00169A  EC3C  F02E         	call	___flsub	;wreg free
  8278  00169E  C02A  F134         	movff	?___flsub,powf@t_l
  8279  0016A2  C02B  F135         	movff	?___flsub+1,powf@t_l+1
  8280  0016A6  C02C  F136         	movff	?___flsub+2,powf@t_l+2
  8281  0016AA  C02D  F137         	movff	?___flsub+3,powf@t_l+3
  8282  0016AE  C168  F015         	movff	powf@t_h,___flmul@a
  8283  0016B2  C169  F016         	movff	powf@t_h+1,___flmul@a+1
  8284  0016B6  C16A  F017         	movff	powf@t_h+2,___flmul@a+2
  8285  0016BA  C16B  F018         	movff	powf@t_h+3,___flmul@a+3
  8286  0016BE  C16C  F011         	movff	powf@s_h,___flmul@b
  8287  0016C2  C16D  F012         	movff	powf@s_h+1,___flmul@b+1
  8288  0016C6  C16E  F013         	movff	powf@s_h+2,___flmul@b+2
  8289  0016CA  C16F  F014         	movff	powf@s_h+3,___flmul@b+3
  8290  0016CE  ECB2  F01C         	call	___flmul	;wreg free
  8291  0016D2  C011  F02E         	movff	?___flmul,___flsub@a
  8292  0016D6  C012  F02F         	movff	?___flmul+1,___flsub@a+1
  8293  0016DA  C013  F030         	movff	?___flmul+2,___flsub@a+2
  8294  0016DE  C014  F031         	movff	?___flmul+3,___flsub@a+3
  8295  0016E2  C174  F02A         	movff	powf@u,___flsub@b
  8296  0016E6  C175  F02B         	movff	powf@u+1,___flsub@b+1
  8297  0016EA  C176  F02C         	movff	powf@u+2,___flsub@b+2
  8298  0016EE  C177  F02D         	movff	powf@u+3,___flsub@b+3
  8299  0016F2  EC3C  F02E         	call	___flsub	;wreg free
  8300  0016F6  C02A  F194         	movff	?___flsub,_powf$2138
  8301  0016FA  C02B  F195         	movff	?___flsub+1,_powf$2138+1
  8302  0016FE  C02C  F196         	movff	?___flsub+2,_powf$2138+2
  8303  001702  C02D  F197         	movff	?___flsub+3,_powf$2138+3
  8304  001706  C134  F015         	movff	powf@t_l,___flmul@a
  8305  00170A  C135  F016         	movff	powf@t_l+1,___flmul@a+1
  8306  00170E  C136  F017         	movff	powf@t_l+2,___flmul@a+2
  8307  001712  C137  F018         	movff	powf@t_l+3,___flmul@a+3
  8308  001716  C16C  F011         	movff	powf@s_h,___flmul@b
  8309  00171A  C16D  F012         	movff	powf@s_h+1,___flmul@b+1
  8310  00171E  C16E  F013         	movff	powf@s_h+2,___flmul@b+2
  8311  001722  C16F  F014         	movff	powf@s_h+3,___flmul@b+3
  8312  001726  ECB2  F01C         	call	___flmul	;wreg free
  8313  00172A  C011  F02E         	movff	?___flmul,___flsub@a
  8314  00172E  C012  F02F         	movff	?___flmul+1,___flsub@a+1
  8315  001732  C013  F030         	movff	?___flmul+2,___flsub@a+2
  8316  001736  C014  F031         	movff	?___flmul+3,___flsub@a+3
  8317  00173A  C194  F02A         	movff	_powf$2138,___flsub@b
  8318  00173E  C195  F02B         	movff	_powf$2138+1,___flsub@b+1
  8319  001742  C196  F02C         	movff	_powf$2138+2,___flsub@b+2
  8320  001746  C197  F02D         	movff	_powf$2138+3,___flsub@b+3
  8321  00174A  EC3C  F02E         	call	___flsub	;wreg free
  8322  00174E  C02A  F154         	movff	?___flsub,_powf$2136
  8323  001752  C02B  F155         	movff	?___flsub+1,_powf$2136+1
  8324  001756  C02C  F156         	movff	?___flsub+2,_powf$2136+2
  8325  00175A  C02D  F157         	movff	?___flsub+3,_powf$2136+3
  8326  00175E  C154  F011         	movff	_powf$2136,___flmul@b
  8327  001762  C155  F012         	movff	_powf$2136+1,___flmul@b+1
  8328  001766  C156  F013         	movff	_powf$2136+2,___flmul@b+2
  8329  00176A  C157  F014         	movff	_powf$2136+3,___flmul@b+3
  8330  00176E  C178  F015         	movff	powf@v,___flmul@a
  8331  001772  C179  F016         	movff	powf@v+1,___flmul@a+1
  8332  001776  C17A  F017         	movff	powf@v+2,___flmul@a+2
  8333  00177A  C17B  F018         	movff	powf@v+3,___flmul@a+3
  8334  00177E  ECB2  F01C         	call	___flmul	;wreg free
  8335  001782  C011  F130         	movff	?___flmul,powf@s_l
  8336  001786  C012  F131         	movff	?___flmul+1,powf@s_l+1
  8337  00178A  C013  F132         	movff	?___flmul+2,powf@s_l+2
  8338  00178E  C014  F133         	movff	?___flmul+3,powf@s_l+3
  8339  001792  C15C  F011         	movff	powf@s,___flmul@b
  8340  001796  C15D  F012         	movff	powf@s+1,___flmul@b+1
  8341  00179A  C15E  F013         	movff	powf@s+2,___flmul@b+2
  8342  00179E  C15F  F014         	movff	powf@s+3,___flmul@b+3
  8343  0017A2  C15C  F015         	movff	powf@s,___flmul@a
  8344  0017A6  C15D  F016         	movff	powf@s+1,___flmul@a+1
  8345  0017AA  C15E  F017         	movff	powf@s+2,___flmul@a+2
  8346  0017AE  C15F  F018         	movff	powf@s+3,___flmul@a+3
  8347  0017B2  ECB2  F01C         	call	___flmul	;wreg free
  8348  0017B6  C011  F18C         	movff	?___flmul,powf@s2
  8349  0017BA  C012  F18D         	movff	?___flmul+1,powf@s2+1
  8350  0017BE  C013  F18E         	movff	?___flmul+2,powf@s2+2
  8351  0017C2  C014  F18F         	movff	?___flmul+3,powf@s2+3
  8352  0017C6  0E55               	movlw	85
  8353  0017C8  6E05               	movwf	___fladd@a^0,c
  8354  0017CA  0E32               	movlw	50
  8355  0017CC  6E06               	movwf	(___fladd@a+1)^0,c
  8356  0017CE  0E6C               	movlw	108
  8357  0017D0  6E07               	movwf	(___fladd@a+2)^0,c
  8358  0017D2  0E3E               	movlw	62
  8359  0017D4  6E08               	movwf	(___fladd@a+3)^0,c
  8360  0017D6  0E42               	movlw	66
  8361  0017D8  6E15               	movwf	___flmul@a^0,c
  8362  0017DA  0EF1               	movlw	241
  8363  0017DC  6E16               	movwf	(___flmul@a+1)^0,c
  8364  0017DE  0E53               	movlw	83
  8365  0017E0  6E17               	movwf	(___flmul@a+2)^0,c
  8366  0017E2  0E3E               	movlw	62
  8367  0017E4  6E18               	movwf	(___flmul@a+3)^0,c
  8368  0017E6  C18C  F011         	movff	powf@s2,___flmul@b
  8369  0017EA  C18D  F012         	movff	powf@s2+1,___flmul@b+1
  8370  0017EE  C18E  F013         	movff	powf@s2+2,___flmul@b+2
  8371  0017F2  C18F  F014         	movff	powf@s2+3,___flmul@b+3
  8372  0017F6  ECB2  F01C         	call	___flmul	;wreg free
  8373  0017FA  C011  F001         	movff	?___flmul,___fladd@b
  8374  0017FE  C012  F002         	movff	?___flmul+1,___fladd@b+1
  8375  001802  C013  F003         	movff	?___flmul+2,___fladd@b+2
  8376  001806  C014  F004         	movff	?___flmul+3,___fladd@b+3
  8377  00180A  EC5B  F01E         	call	___fladd	;wreg free
  8378  00180E  C001  F1A4         	movff	?___fladd,_powf$2135
  8379  001812  C002  F1A5         	movff	?___fladd+1,_powf$2135+1
  8380  001816  C003  F1A6         	movff	?___fladd+2,_powf$2135+2
  8381  00181A  C004  F1A7         	movff	?___fladd+3,_powf$2135+3
  8382  00181E  0E05               	movlw	5
  8383  001820  6E05               	movwf	___fladd@a^0,c
  8384  001822  0EA3               	movlw	163
  8385  001824  6E06               	movwf	(___fladd@a+1)^0,c
  8386  001826  0E8B               	movlw	139
  8387  001828  6E07               	movwf	(___fladd@a+2)^0,c
  8388  00182A  0E3E               	movlw	62
  8389  00182C  6E08               	movwf	(___fladd@a+3)^0,c
  8390  00182E  C18C  F015         	movff	powf@s2,___flmul@a
  8391  001832  C18D  F016         	movff	powf@s2+1,___flmul@a+1
  8392  001836  C18E  F017         	movff	powf@s2+2,___flmul@a+2
  8393  00183A  C18F  F018         	movff	powf@s2+3,___flmul@a+3
  8394  00183E  C1A4  F011         	movff	_powf$2135,___flmul@b
  8395  001842  C1A5  F012         	movff	_powf$2135+1,___flmul@b+1
  8396  001846  C1A6  F013         	movff	_powf$2135+2,___flmul@b+2
  8397  00184A  C1A7  F014         	movff	_powf$2135+3,___flmul@b+3
  8398  00184E  ECB2  F01C         	call	___flmul	;wreg free
  8399  001852  C011  F001         	movff	?___flmul,___fladd@b
  8400  001856  C012  F002         	movff	?___flmul+1,___fladd@b+1
  8401  00185A  C013  F003         	movff	?___flmul+2,___fladd@b+2
  8402  00185E  C014  F004         	movff	?___flmul+3,___fladd@b+3
  8403  001862  EC5B  F01E         	call	___fladd	;wreg free
  8404  001866  C001  F154         	movff	?___fladd,_powf$2136
  8405  00186A  C002  F155         	movff	?___fladd+1,_powf$2136+1
  8406  00186E  C003  F156         	movff	?___fladd+2,_powf$2136+2
  8407  001872  C004  F157         	movff	?___fladd+3,_powf$2136+3
  8408  001876  0EAB               	movlw	171
  8409  001878  6E05               	movwf	___fladd@a^0,c
  8410  00187A  0EAA               	movlw	170
  8411  00187C  6E06               	movwf	(___fladd@a+1)^0,c
  8412  00187E  0EAA               	movlw	170
  8413  001880  6E07               	movwf	(___fladd@a+2)^0,c
  8414  001882  0E3E               	movlw	62
  8415  001884  6E08               	movwf	(___fladd@a+3)^0,c
  8416  001886  C18C  F015         	movff	powf@s2,___flmul@a
  8417  00188A  C18D  F016         	movff	powf@s2+1,___flmul@a+1
  8418  00188E  C18E  F017         	movff	powf@s2+2,___flmul@a+2
  8419  001892  C18F  F018         	movff	powf@s2+3,___flmul@a+3
  8420  001896  C154  F011         	movff	_powf$2136,___flmul@b
  8421  00189A  C155  F012         	movff	_powf$2136+1,___flmul@b+1
  8422  00189E  C156  F013         	movff	_powf$2136+2,___flmul@b+2
  8423  0018A2  C157  F014         	movff	_powf$2136+3,___flmul@b+3
  8424  0018A6  ECB2  F01C         	call	___flmul	;wreg free
  8425  0018AA  C011  F001         	movff	?___flmul,___fladd@b
  8426  0018AE  C012  F002         	movff	?___flmul+1,___fladd@b+1
  8427  0018B2  C013  F003         	movff	?___flmul+2,___fladd@b+2
  8428  0018B6  C014  F004         	movff	?___flmul+3,___fladd@b+3
  8429  0018BA  EC5B  F01E         	call	___fladd	;wreg free
  8430  0018BE  C001  F148         	movff	?___fladd,_powf$2137
  8431  0018C2  C002  F149         	movff	?___fladd+1,_powf$2137+1
  8432  0018C6  C003  F14A         	movff	?___fladd+2,_powf$2137+2
  8433  0018CA  C004  F14B         	movff	?___fladd+3,_powf$2137+3
  8434  0018CE  0EB7               	movlw	183
  8435  0018D0  6E05               	movwf	___fladd@a^0,c
  8436  0018D2  0E6D               	movlw	109
  8437  0018D4  6E06               	movwf	(___fladd@a+1)^0,c
  8438  0018D6  0EDB               	movlw	219
  8439  0018D8  6E07               	movwf	(___fladd@a+2)^0,c
  8440  0018DA  0E3E               	movlw	62
  8441  0018DC  6E08               	movwf	(___fladd@a+3)^0,c
  8442  0018DE  C18C  F015         	movff	powf@s2,___flmul@a
  8443  0018E2  C18D  F016         	movff	powf@s2+1,___flmul@a+1
  8444  0018E6  C18E  F017         	movff	powf@s2+2,___flmul@a+2
  8445  0018EA  C18F  F018         	movff	powf@s2+3,___flmul@a+3
  8446  0018EE  C148  F011         	movff	_powf$2137,___flmul@b
  8447  0018F2  C149  F012         	movff	_powf$2137+1,___flmul@b+1
  8448  0018F6  C14A  F013         	movff	_powf$2137+2,___flmul@b+2
  8449  0018FA  C14B  F014         	movff	_powf$2137+3,___flmul@b+3
  8450  0018FE  ECB2  F01C         	call	___flmul	;wreg free
  8451  001902  C011  F001         	movff	?___flmul,___fladd@b
  8452  001906  C012  F002         	movff	?___flmul+1,___fladd@b+1
  8453  00190A  C013  F003         	movff	?___flmul+2,___fladd@b+2
  8454  00190E  C014  F004         	movff	?___flmul+3,___fladd@b+3
  8455  001912  EC5B  F01E         	call	___fladd	;wreg free
  8456  001916  C001  F138         	movff	?___fladd,_powf$2139
  8457  00191A  C002  F139         	movff	?___fladd+1,_powf$2139+1
  8458  00191E  C003  F13A         	movff	?___fladd+2,_powf$2139+2
  8459  001922  C004  F13B         	movff	?___fladd+3,_powf$2139+3
  8460  001926  0E9A               	movlw	154
  8461  001928  6E05               	movwf	___fladd@a^0,c
  8462  00192A  0E99               	movlw	153
  8463  00192C  6E06               	movwf	(___fladd@a+1)^0,c
  8464  00192E  0E19               	movlw	25
  8465  001930  6E07               	movwf	(___fladd@a+2)^0,c
  8466  001932  0E3F               	movlw	63
  8467  001934  6E08               	movwf	(___fladd@a+3)^0,c
  8468  001936  C18C  F015         	movff	powf@s2,___flmul@a
  8469  00193A  C18D  F016         	movff	powf@s2+1,___flmul@a+1
  8470  00193E  C18E  F017         	movff	powf@s2+2,___flmul@a+2
  8471  001942  C18F  F018         	movff	powf@s2+3,___flmul@a+3
  8472  001946  C138  F011         	movff	_powf$2139,___flmul@b
  8473  00194A  C139  F012         	movff	_powf$2139+1,___flmul@b+1
  8474  00194E  C13A  F013         	movff	_powf$2139+2,___flmul@b+2
  8475  001952  C13B  F014         	movff	_powf$2139+3,___flmul@b+3
  8476  001956  ECB2  F01C         	call	___flmul	;wreg free
  8477  00195A  C011  F001         	movff	?___flmul,___fladd@b
  8478  00195E  C012  F002         	movff	?___flmul+1,___fladd@b+1
  8479  001962  C013  F003         	movff	?___flmul+2,___fladd@b+2
  8480  001966  C014  F004         	movff	?___flmul+3,___fladd@b+3
  8481  00196A  EC5B  F01E         	call	___fladd	;wreg free
  8482  00196E  C001  F100         	movff	?___fladd,_powf$2140
  8483  001972  C002  F101         	movff	?___fladd+1,_powf$2140+1
  8484  001976  C003  F102         	movff	?___fladd+2,_powf$2140+2
  8485  00197A  C004  F103         	movff	?___fladd+3,_powf$2140+3
  8486  00197E  C18C  F015         	movff	powf@s2,___flmul@a
  8487  001982  C18D  F016         	movff	powf@s2+1,___flmul@a+1
  8488  001986  C18E  F017         	movff	powf@s2+2,___flmul@a+2
  8489  00198A  C18F  F018         	movff	powf@s2+3,___flmul@a+3
  8490  00198E  C18C  F011         	movff	powf@s2,___flmul@b
  8491  001992  C18D  F012         	movff	powf@s2+1,___flmul@b+1
  8492  001996  C18E  F013         	movff	powf@s2+2,___flmul@b+2
  8493  00199A  C18F  F014         	movff	powf@s2+3,___flmul@b+3
  8494  00199E  ECB2  F01C         	call	___flmul	;wreg free
  8495  0019A2  C011  F104         	movff	?___flmul,_powf$2141
  8496  0019A6  C012  F105         	movff	?___flmul+1,_powf$2141+1
  8497  0019AA  C013  F106         	movff	?___flmul+2,_powf$2141+2
  8498  0019AE  C014  F107         	movff	?___flmul+3,_powf$2141+3
  8499  0019B2  C100  F011         	movff	_powf$2140,___flmul@b
  8500  0019B6  C101  F012         	movff	_powf$2140+1,___flmul@b+1
  8501  0019BA  C102  F013         	movff	_powf$2140+2,___flmul@b+2
  8502  0019BE  C103  F014         	movff	_powf$2140+3,___flmul@b+3
  8503  0019C2  C104  F015         	movff	_powf$2141,___flmul@a
  8504  0019C6  C105  F016         	movff	_powf$2141+1,___flmul@a+1
  8505  0019CA  C106  F017         	movff	_powf$2141+2,___flmul@a+2
  8506  0019CE  C107  F018         	movff	_powf$2141+3,___flmul@a+3
  8507  0019D2  ECB2  F01C         	call	___flmul	;wreg free
  8508  0019D6  C011  F14C         	movff	?___flmul,powf@r
  8509  0019DA  C012  F14D         	movff	?___flmul+1,powf@r+1
  8510  0019DE  C013  F14E         	movff	?___flmul+2,powf@r+2
  8511  0019E2  C014  F14F         	movff	?___flmul+3,powf@r+3
  8512  0019E6  C130  F015         	movff	powf@s_l,___flmul@a
  8513  0019EA  C131  F016         	movff	powf@s_l+1,___flmul@a+1
  8514  0019EE  C132  F017         	movff	powf@s_l+2,___flmul@a+2
  8515  0019F2  C133  F018         	movff	powf@s_l+3,___flmul@a+3
  8516  0019F6  C15C  F005         	movff	powf@s,___fladd@a
  8517  0019FA  C15D  F006         	movff	powf@s+1,___fladd@a+1
  8518  0019FE  C15E  F007         	movff	powf@s+2,___fladd@a+2
  8519  001A02  C15F  F008         	movff	powf@s+3,___fladd@a+3
  8520  001A06  C16C  F001         	movff	powf@s_h,___fladd@b
  8521  001A0A  C16D  F002         	movff	powf@s_h+1,___fladd@b+1
  8522  001A0E  C16E  F003         	movff	powf@s_h+2,___fladd@b+2
  8523  001A12  C16F  F004         	movff	powf@s_h+3,___fladd@b+3
  8524  001A16  EC5B  F01E         	call	___fladd	;wreg free
  8525  001A1A  C001  F011         	movff	?___fladd,___flmul@b
  8526  001A1E  C002  F012         	movff	?___fladd+1,___flmul@b+1
  8527  001A22  C003  F013         	movff	?___fladd+2,___flmul@b+2
  8528  001A26  C004  F014         	movff	?___fladd+3,___flmul@b+3
  8529  001A2A  ECB2  F01C         	call	___flmul	;wreg free
  8530  001A2E  C011  F158         	movff	?___flmul,_powf$2142
  8531  001A32  C012  F159         	movff	?___flmul+1,_powf$2142+1
  8532  001A36  C013  F15A         	movff	?___flmul+2,_powf$2142+2
  8533  001A3A  C014  F15B         	movff	?___flmul+3,_powf$2142+3
  8534  001A3E  C14C  F001         	movff	powf@r,___fladd@b
  8535  001A42  C14D  F002         	movff	powf@r+1,___fladd@b+1
  8536  001A46  C14E  F003         	movff	powf@r+2,___fladd@b+2
  8537  001A4A  C14F  F004         	movff	powf@r+3,___fladd@b+3
  8538  001A4E  C158  F005         	movff	_powf$2142,___fladd@a
  8539  001A52  C159  F006         	movff	_powf$2142+1,___fladd@a+1
  8540  001A56  C15A  F007         	movff	_powf$2142+2,___fladd@a+2
  8541  001A5A  C15B  F008         	movff	_powf$2142+3,___fladd@a+3
  8542  001A5E  EC5B  F01E         	call	___fladd	;wreg free
  8543  001A62  C001  F14C         	movff	?___fladd,powf@r
  8544  001A66  C002  F14D         	movff	?___fladd+1,powf@r+1
  8545  001A6A  C003  F14E         	movff	?___fladd+2,powf@r+2
  8546  001A6E  C004  F14F         	movff	?___fladd+3,powf@r+3
  8547  001A72  C16C  F011         	movff	powf@s_h,___flmul@b
  8548  001A76  C16D  F012         	movff	powf@s_h+1,___flmul@b+1
  8549  001A7A  C16E  F013         	movff	powf@s_h+2,___flmul@b+2
  8550  001A7E  C16F  F014         	movff	powf@s_h+3,___flmul@b+3
  8551  001A82  C16C  F015         	movff	powf@s_h,___flmul@a
  8552  001A86  C16D  F016         	movff	powf@s_h+1,___flmul@a+1
  8553  001A8A  C16E  F017         	movff	powf@s_h+2,___flmul@a+2
  8554  001A8E  C16F  F018         	movff	powf@s_h+3,___flmul@a+3
  8555  001A92  ECB2  F01C         	call	___flmul	;wreg free
  8556  001A96  C011  F18C         	movff	?___flmul,powf@s2
  8557  001A9A  C012  F18D         	movff	?___flmul+1,powf@s2+1
  8558  001A9E  C013  F18E         	movff	?___flmul+2,powf@s2+2
  8559  001AA2  C014  F18F         	movff	?___flmul+3,powf@s2+3
  8560  001AA6  0E00               	movlw	0
  8561  001AA8  6E05               	movwf	___fladd@a^0,c
  8562  001AAA  0E00               	movlw	0
  8563  001AAC  6E06               	movwf	(___fladd@a+1)^0,c
  8564  001AAE  0E40               	movlw	64
  8565  001AB0  6E07               	movwf	(___fladd@a+2)^0,c
  8566  001AB2  0E40               	movlw	64
  8567  001AB4  6E08               	movwf	(___fladd@a+3)^0,c
  8568  001AB6  C18C  F001         	movff	powf@s2,___fladd@b
  8569  001ABA  C18D  F002         	movff	powf@s2+1,___fladd@b+1
  8570  001ABE  C18E  F003         	movff	powf@s2+2,___fladd@b+2
  8571  001AC2  C18F  F004         	movff	powf@s2+3,___fladd@b+3
  8572  001AC6  EC5B  F01E         	call	___fladd	;wreg free
  8573  001ACA  C001  F158         	movff	?___fladd,_powf$2142
  8574  001ACE  C002  F159         	movff	?___fladd+1,_powf$2142+1
  8575  001AD2  C003  F15A         	movff	?___fladd+2,_powf$2142+2
  8576  001AD6  C004  F15B         	movff	?___fladd+3,_powf$2142+3
  8577  001ADA  C158  F001         	movff	_powf$2142,___fladd@b
  8578  001ADE  C159  F002         	movff	_powf$2142+1,___fladd@b+1
  8579  001AE2  C15A  F003         	movff	_powf$2142+2,___fladd@b+2
  8580  001AE6  C15B  F004         	movff	_powf$2142+3,___fladd@b+3
  8581  001AEA  C14C  F005         	movff	powf@r,___fladd@a
  8582  001AEE  C14D  F006         	movff	powf@r+1,___fladd@a+1
  8583  001AF2  C14E  F007         	movff	powf@r+2,___fladd@a+2
  8584  001AF6  C14F  F008         	movff	powf@r+3,___fladd@a+3
  8585  001AFA  EC5B  F01E         	call	___fladd	;wreg free
  8586  001AFE  C001  F168         	movff	?___fladd,powf@t_h
  8587  001B02  C002  F169         	movff	?___fladd+1,powf@t_h+1
  8588  001B06  C003  F16A         	movff	?___fladd+2,powf@t_h+2
  8589  001B0A  C004  F16B         	movff	?___fladd+3,powf@t_h+3
  8590  001B0E  C168  F1B8         	movff	powf@t_h,powf@__xc8_float_word
  8591  001B12  C169  F1B9         	movff	powf@t_h+1,powf@__xc8_float_word+1
  8592  001B16  C16A  F1BA         	movff	powf@t_h+2,powf@__xc8_float_word+2
  8593  001B1A  C16B  F1BB         	movff	powf@t_h+3,powf@__xc8_float_word+3
  8594  001B1E  C1B8  F190         	movff	powf@__xc8_float_word,powf@is
  8595  001B22  C1B9  F191         	movff	powf@__xc8_float_word+1,powf@is+1
  8596  001B26  C1BA  F192         	movff	powf@__xc8_float_word+2,powf@is+2
  8597  001B2A  C1BB  F193         	movff	powf@__xc8_float_word+3,powf@is+3
  8598  001B2E  0E00               	movlw	0
  8599  001B30  0101               	movlb	1	; () banked
  8600  001B32  1590               	andwf	powf@is& (0+255),w,b
  8601  001B34  6FB8               	movwf	powf@__xc8_float_word& (0+255),b
  8602  001B36  0EF0               	movlw	240
  8603  001B38  1591               	andwf	(powf@is+1)& (0+255),w,b
  8604  001B3A  6FB9               	movwf	(powf@__xc8_float_word+1)& (0+255),b
  8605  001B3C  0EFF               	movlw	255
  8606  001B3E  1592               	andwf	(powf@is+2)& (0+255),w,b
  8607  001B40  6FBA               	movwf	(powf@__xc8_float_word+2)& (0+255),b
  8608  001B42  0EFF               	movlw	255
  8609  001B44  1593               	andwf	(powf@is+3)& (0+255),w,b
  8610  001B46  6FBB               	movwf	(powf@__xc8_float_word+3)& (0+255),b
  8611                           
  8612                           ; BSR set to: 1
  8613  001B48  C1B8  F168         	movff	powf@__xc8_float_word,powf@t_h
  8614  001B4C  C1B9  F169         	movff	powf@__xc8_float_word+1,powf@t_h+1
  8615  001B50  C1BA  F16A         	movff	powf@__xc8_float_word+2,powf@t_h+2
  8616  001B54  C1BB  F16B         	movff	powf@__xc8_float_word+3,powf@t_h+3
  8617                           
  8618                           ; BSR set to: 1
  8619  001B58  0E00               	movlw	0
  8620  001B5A  6E05               	movwf	___fladd@a^0,c
  8621  001B5C  0E00               	movlw	0
  8622  001B5E  6E06               	movwf	(___fladd@a+1)^0,c
  8623  001B60  0E40               	movlw	64
  8624  001B62  6E07               	movwf	(___fladd@a+2)^0,c
  8625  001B64  0EC0               	movlw	192
  8626  001B66  6E08               	movwf	(___fladd@a+3)^0,c
  8627  001B68  C168  F001         	movff	powf@t_h,___fladd@b
  8628  001B6C  C169  F002         	movff	powf@t_h+1,___fladd@b+1
  8629  001B70  C16A  F003         	movff	powf@t_h+2,___fladd@b+2
  8630  001B74  C16B  F004         	movff	powf@t_h+3,___fladd@b+3
  8631  001B78  EC5B  F01E         	call	___fladd	;wreg free
  8632  001B7C  C001  F13C         	movff	?___fladd,_powf$2143
  8633  001B80  C002  F13D         	movff	?___fladd+1,_powf$2143+1
  8634  001B84  C003  F13E         	movff	?___fladd+2,_powf$2143+2
  8635  001B88  C004  F13F         	movff	?___fladd+3,_powf$2143+3
  8636  001B8C  C18C  F02E         	movff	powf@s2,___flsub@a
  8637  001B90  C18D  F02F         	movff	powf@s2+1,___flsub@a+1
  8638  001B94  C18E  F030         	movff	powf@s2+2,___flsub@a+2
  8639  001B98  C18F  F031         	movff	powf@s2+3,___flsub@a+3
  8640  001B9C  C13C  F02A         	movff	_powf$2143,___flsub@b
  8641  001BA0  C13D  F02B         	movff	_powf$2143+1,___flsub@b+1
  8642  001BA4  C13E  F02C         	movff	_powf$2143+2,___flsub@b+2
  8643  001BA8  C13F  F02D         	movff	_powf$2143+3,___flsub@b+3
  8644  001BAC  EC3C  F02E         	call	___flsub	;wreg free
  8645  001BB0  C02A  F140         	movff	?___flsub,_powf$2144
  8646  001BB4  C02B  F141         	movff	?___flsub+1,_powf$2144+1
  8647  001BB8  C02C  F142         	movff	?___flsub+2,_powf$2144+2
  8648  001BBC  C02D  F143         	movff	?___flsub+3,_powf$2144+3
  8649  001BC0  C14C  F02A         	movff	powf@r,___flsub@b
  8650  001BC4  C14D  F02B         	movff	powf@r+1,___flsub@b+1
  8651  001BC8  C14E  F02C         	movff	powf@r+2,___flsub@b+2
  8652  001BCC  C14F  F02D         	movff	powf@r+3,___flsub@b+3
  8653  001BD0  C140  F02E         	movff	_powf$2144,___flsub@a
  8654  001BD4  C141  F02F         	movff	_powf$2144+1,___flsub@a+1
  8655  001BD8  C142  F030         	movff	_powf$2144+2,___flsub@a+2
  8656  001BDC  C143  F031         	movff	_powf$2144+3,___flsub@a+3
  8657  001BE0  EC3C  F02E         	call	___flsub	;wreg free
  8658  001BE4  C02A  F134         	movff	?___flsub,powf@t_l
  8659  001BE8  C02B  F135         	movff	?___flsub+1,powf@t_l+1
  8660  001BEC  C02C  F136         	movff	?___flsub+2,powf@t_l+2
  8661  001BF0  C02D  F137         	movff	?___flsub+3,powf@t_l+3
  8662  001BF4  C16C  F011         	movff	powf@s_h,___flmul@b
  8663  001BF8  C16D  F012         	movff	powf@s_h+1,___flmul@b+1
  8664  001BFC  C16E  F013         	movff	powf@s_h+2,___flmul@b+2
  8665  001C00  C16F  F014         	movff	powf@s_h+3,___flmul@b+3
  8666  001C04  C168  F015         	movff	powf@t_h,___flmul@a
  8667  001C08  C169  F016         	movff	powf@t_h+1,___flmul@a+1
  8668  001C0C  C16A  F017         	movff	powf@t_h+2,___flmul@a+2
  8669  001C10  C16B  F018         	movff	powf@t_h+3,___flmul@a+3
  8670  001C14  ECB2  F01C         	call	___flmul	;wreg free
  8671  001C18  C011  F174         	movff	?___flmul,powf@u
  8672  001C1C  C012  F175         	movff	?___flmul+1,powf@u+1
  8673  001C20  C013  F176         	movff	?___flmul+2,powf@u+2
  8674  001C24  C014  F177         	movff	?___flmul+3,powf@u+3
  8675  001C28  C168  F015         	movff	powf@t_h,___flmul@a
  8676  001C2C  C169  F016         	movff	powf@t_h+1,___flmul@a+1
  8677  001C30  C16A  F017         	movff	powf@t_h+2,___flmul@a+2
  8678  001C34  C16B  F018         	movff	powf@t_h+3,___flmul@a+3
  8679  001C38  C130  F011         	movff	powf@s_l,___flmul@b
  8680  001C3C  C131  F012         	movff	powf@s_l+1,___flmul@b+1
  8681  001C40  C132  F013         	movff	powf@s_l+2,___flmul@b+2
  8682  001C44  C133  F014         	movff	powf@s_l+3,___flmul@b+3
  8683  001C48  ECB2  F01C         	call	___flmul	;wreg free
  8684  001C4C  C011  F001         	movff	?___flmul,___fladd@b
  8685  001C50  C012  F002         	movff	?___flmul+1,___fladd@b+1
  8686  001C54  C013  F003         	movff	?___flmul+2,___fladd@b+2
  8687  001C58  C014  F004         	movff	?___flmul+3,___fladd@b+3
  8688  001C5C  C15C  F015         	movff	powf@s,___flmul@a
  8689  001C60  C15D  F016         	movff	powf@s+1,___flmul@a+1
  8690  001C64  C15E  F017         	movff	powf@s+2,___flmul@a+2
  8691  001C68  C15F  F018         	movff	powf@s+3,___flmul@a+3
  8692  001C6C  C134  F011         	movff	powf@t_l,___flmul@b
  8693  001C70  C135  F012         	movff	powf@t_l+1,___flmul@b+1
  8694  001C74  C136  F013         	movff	powf@t_l+2,___flmul@b+2
  8695  001C78  C137  F014         	movff	powf@t_l+3,___flmul@b+3
  8696  001C7C  ECB2  F01C         	call	___flmul	;wreg free
  8697  001C80  C011  F005         	movff	?___flmul,___fladd@a
  8698  001C84  C012  F006         	movff	?___flmul+1,___fladd@a+1
  8699  001C88  C013  F007         	movff	?___flmul+2,___fladd@a+2
  8700  001C8C  C014  F008         	movff	?___flmul+3,___fladd@a+3
  8701  001C90  EC5B  F01E         	call	___fladd	;wreg free
  8702  001C94  C001  F178         	movff	?___fladd,powf@v
  8703  001C98  C002  F179         	movff	?___fladd+1,powf@v+1
  8704  001C9C  C003  F17A         	movff	?___fladd+2,powf@v+2
  8705  001CA0  C004  F17B         	movff	?___fladd+3,powf@v+3
  8706  001CA4  C174  F001         	movff	powf@u,___fladd@b
  8707  001CA8  C175  F002         	movff	powf@u+1,___fladd@b+1
  8708  001CAC  C176  F003         	movff	powf@u+2,___fladd@b+2
  8709  001CB0  C177  F004         	movff	powf@u+3,___fladd@b+3
  8710  001CB4  C178  F005         	movff	powf@v,___fladd@a
  8711  001CB8  C179  F006         	movff	powf@v+1,___fladd@a+1
  8712  001CBC  C17A  F007         	movff	powf@v+2,___fladd@a+2
  8713  001CC0  C17B  F008         	movff	powf@v+3,___fladd@a+3
  8714  001CC4  EC5B  F01E         	call	___fladd	;wreg free
  8715  001CC8  C001  F19C         	movff	?___fladd,powf@p_h
  8716  001CCC  C002  F19D         	movff	?___fladd+1,powf@p_h+1
  8717  001CD0  C003  F19E         	movff	?___fladd+2,powf@p_h+2
  8718  001CD4  C004  F19F         	movff	?___fladd+3,powf@p_h+3
  8719  001CD8  C19C  F1B8         	movff	powf@p_h,powf@__xc8_float_word
  8720  001CDC  C19D  F1B9         	movff	powf@p_h+1,powf@__xc8_float_word+1
  8721  001CE0  C19E  F1BA         	movff	powf@p_h+2,powf@__xc8_float_word+2
  8722  001CE4  C19F  F1BB         	movff	powf@p_h+3,powf@__xc8_float_word+3
  8723  001CE8  C1B8  F190         	movff	powf@__xc8_float_word,powf@is
  8724  001CEC  C1B9  F191         	movff	powf@__xc8_float_word+1,powf@is+1
  8725  001CF0  C1BA  F192         	movff	powf@__xc8_float_word+2,powf@is+2
  8726  001CF4  C1BB  F193         	movff	powf@__xc8_float_word+3,powf@is+3
  8727  001CF8  0E00               	movlw	0
  8728  001CFA  0101               	movlb	1	; () banked
  8729  001CFC  1590               	andwf	powf@is& (0+255),w,b
  8730  001CFE  6FB8               	movwf	powf@__xc8_float_word& (0+255),b
  8731  001D00  0EF0               	movlw	240
  8732  001D02  1591               	andwf	(powf@is+1)& (0+255),w,b
  8733  001D04  6FB9               	movwf	(powf@__xc8_float_word+1)& (0+255),b
  8734  001D06  0EFF               	movlw	255
  8735  001D08  1592               	andwf	(powf@is+2)& (0+255),w,b
  8736  001D0A  6FBA               	movwf	(powf@__xc8_float_word+2)& (0+255),b
  8737  001D0C  0EFF               	movlw	255
  8738  001D0E  1593               	andwf	(powf@is+3)& (0+255),w,b
  8739  001D10  6FBB               	movwf	(powf@__xc8_float_word+3)& (0+255),b
  8740                           
  8741                           ; BSR set to: 1
  8742  001D12  C1B8  F19C         	movff	powf@__xc8_float_word,powf@p_h
  8743  001D16  C1B9  F19D         	movff	powf@__xc8_float_word+1,powf@p_h+1
  8744  001D1A  C1BA  F19E         	movff	powf@__xc8_float_word+2,powf@p_h+2
  8745  001D1E  C1BB  F19F         	movff	powf@__xc8_float_word+3,powf@p_h+3
  8746                           
  8747                           ; BSR set to: 1
  8748  001D22  C174  F02E         	movff	powf@u,___flsub@a
  8749  001D26  C175  F02F         	movff	powf@u+1,___flsub@a+1
  8750  001D2A  C176  F030         	movff	powf@u+2,___flsub@a+2
  8751  001D2E  C177  F031         	movff	powf@u+3,___flsub@a+3
  8752  001D32  C19C  F02A         	movff	powf@p_h,___flsub@b
  8753  001D36  C19D  F02B         	movff	powf@p_h+1,___flsub@b+1
  8754  001D3A  C19E  F02C         	movff	powf@p_h+2,___flsub@b+2
  8755  001D3E  C19F  F02D         	movff	powf@p_h+3,___flsub@b+3
  8756  001D42  EC3C  F02E         	call	___flsub	;wreg free
  8757  001D46  C02A  F194         	movff	?___flsub,_powf$2138
  8758  001D4A  C02B  F195         	movff	?___flsub+1,_powf$2138+1
  8759  001D4E  C02C  F196         	movff	?___flsub+2,_powf$2138+2
  8760  001D52  C02D  F197         	movff	?___flsub+3,_powf$2138+3
  8761  001D56  C178  F02A         	movff	powf@v,___flsub@b
  8762  001D5A  C179  F02B         	movff	powf@v+1,___flsub@b+1
  8763  001D5E  C17A  F02C         	movff	powf@v+2,___flsub@b+2
  8764  001D62  C17B  F02D         	movff	powf@v+3,___flsub@b+3
  8765  001D66  C194  F02E         	movff	_powf$2138,___flsub@a
  8766  001D6A  C195  F02F         	movff	_powf$2138+1,___flsub@a+1
  8767  001D6E  C196  F030         	movff	_powf$2138+2,___flsub@a+2
  8768  001D72  C197  F031         	movff	_powf$2138+3,___flsub@a+3
  8769  001D76  EC3C  F02E         	call	___flsub	;wreg free
  8770  001D7A  C02A  F164         	movff	?___flsub,powf@p_l
  8771  001D7E  C02B  F165         	movff	?___flsub+1,powf@p_l+1
  8772  001D82  C02C  F166         	movff	?___flsub+2,powf@p_l+2
  8773  001D86  C02D  F167         	movff	?___flsub+3,powf@p_l+3
  8774  001D8A  C19C  F011         	movff	powf@p_h,___flmul@b
  8775  001D8E  C19D  F012         	movff	powf@p_h+1,___flmul@b+1
  8776  001D92  C19E  F013         	movff	powf@p_h+2,___flmul@b+2
  8777  001D96  C19F  F014         	movff	powf@p_h+3,___flmul@b+3
  8778  001D9A  0E00               	movlw	0
  8779  001D9C  6E15               	movwf	___flmul@a^0,c
  8780  001D9E  0E40               	movlw	64
  8781  001DA0  6E16               	movwf	(___flmul@a+1)^0,c
  8782  001DA2  0E76               	movlw	118
  8783  001DA4  6E17               	movwf	(___flmul@a+2)^0,c
  8784  001DA6  0E3F               	movlw	63
  8785  001DA8  6E18               	movwf	(___flmul@a+3)^0,c
  8786  001DAA  ECB2  F01C         	call	___flmul	;wreg free
  8787  001DAE  C011  F120         	movff	?___flmul,powf@z_h
  8788  001DB2  C012  F121         	movff	?___flmul+1,powf@z_h+1
  8789  001DB6  C013  F122         	movff	?___flmul+2,powf@z_h+2
  8790  001DBA  C014  F123         	movff	?___flmul+3,powf@z_h+3
  8791  001DBE  0E4F               	movlw	79
  8792  001DC0  6E15               	movwf	___flmul@a^0,c
  8793  001DC2  0E38               	movlw	56
  8794  001DC4  6E16               	movwf	(___flmul@a+1)^0,c
  8795  001DC6  0E76               	movlw	118
  8796  001DC8  6E17               	movwf	(___flmul@a+2)^0,c
  8797  001DCA  0E3F               	movlw	63
  8798  001DCC  6E18               	movwf	(___flmul@a+3)^0,c
  8799  001DCE  C164  F011         	movff	powf@p_l,___flmul@b
  8800  001DD2  C165  F012         	movff	powf@p_l+1,___flmul@b+1
  8801  001DD6  C166  F013         	movff	powf@p_l+2,___flmul@b+2
  8802  001DDA  C167  F014         	movff	powf@p_l+3,___flmul@b+3
  8803  001DDE  ECB2  F01C         	call	___flmul	;wreg free
  8804  001DE2  C011  F005         	movff	?___flmul,___fladd@a
  8805  001DE6  C012  F006         	movff	?___flmul+1,___fladd@a+1
  8806  001DEA  C013  F007         	movff	?___flmul+2,___fladd@a+2
  8807  001DEE  C014  F008         	movff	?___flmul+3,___fladd@a+3
  8808  001DF2  0EC6               	movlw	198
  8809  001DF4  6E15               	movwf	___flmul@a^0,c
  8810  001DF6  0E23               	movlw	35
  8811  001DF8  6E16               	movwf	(___flmul@a+1)^0,c
  8812  001DFA  0EF6               	movlw	246
  8813  001DFC  6E17               	movwf	(___flmul@a+2)^0,c
  8814  001DFE  0EB8               	movlw	184
  8815  001E00  6E18               	movwf	(___flmul@a+3)^0,c
  8816  001E02  C19C  F011         	movff	powf@p_h,___flmul@b
  8817  001E06  C19D  F012         	movff	powf@p_h+1,___flmul@b+1
  8818  001E0A  C19E  F013         	movff	powf@p_h+2,___flmul@b+2
  8819  001E0E  C19F  F014         	movff	powf@p_h+3,___flmul@b+3
  8820  001E12  ECB2  F01C         	call	___flmul	;wreg free
  8821  001E16  C011  F001         	movff	?___flmul,___fladd@b
  8822  001E1A  C012  F002         	movff	?___flmul+1,___fladd@b+1
  8823  001E1E  C013  F003         	movff	?___flmul+2,___fladd@b+2
  8824  001E22  C014  F004         	movff	?___flmul+3,___fladd@b+3
  8825  001E26  EC5B  F01E         	call	___fladd	;wreg free
  8826  001E2A  C001  F158         	movff	?___fladd,_powf$2142
  8827  001E2E  C002  F159         	movff	?___fladd+1,_powf$2142+1
  8828  001E32  C003  F15A         	movff	?___fladd+2,_powf$2142+2
  8829  001E36  C004  F15B         	movff	?___fladd+3,_powf$2142+3
  8830  001E3A  C158  F001         	movff	_powf$2142,___fladd@b
  8831  001E3E  C159  F002         	movff	_powf$2142+1,___fladd@b+1
  8832  001E42  C15A  F003         	movff	_powf$2142+2,___fladd@b+2
  8833  001E46  C15B  F004         	movff	_powf$2142+3,___fladd@b+3
  8834  001E4A  C1A0  F0C2         	movff	powf@k,??_powf
  8835  001E4E  C1A1  F0C3         	movff	powf@k+1,??_powf+1
  8836  001E52  0100               	movlb	0	; () banked
  8837  001E54  90D8               	bcf	status,0,c
  8838  001E56  37C2               	rlcf	??_powf& (0+255),f,b
  8839  001E58  37C3               	rlcf	(??_powf+1)& (0+255),f,b
  8840  001E5A  90D8               	bcf	status,0,c
  8841  001E5C  37C2               	rlcf	??_powf& (0+255),f,b
  8842  001E5E  37C3               	rlcf	(??_powf+1)& (0+255),f,b
  8843  001E60  0E01               	movlw	low _dp_l
  8844  001E62  25C2               	addwf	??_powf& (0+255),w,b
  8845  001E64  6EF6               	movwf	tblptrl,c
  8846  001E66  0E06               	movlw	high _dp_l
  8847  001E68  21C3               	addwfc	(??_powf+1)& (0+255),w,b
  8848  001E6A  6EF7               	movwf	tblptrh,c
  8849  001E6C                     	if	0	;There are less than 3 active tblptr bytes
  8850  001E6C                     	endif
  8851  001E6C  0009               	tblrd		*+
  8852  001E6E  CFF5 F005          	movff	tablat,___fladd@a
  8853  001E72  0009               	tblrd		*+
  8854  001E74  CFF5 F006          	movff	tablat,___fladd@a+1
  8855  001E78  0009               	tblrd		*+
  8856  001E7A  CFF5 F007          	movff	tablat,___fladd@a+2
  8857  001E7E  000A               	tblrd		*-
  8858  001E80  CFF5 F008          	movff	tablat,___fladd@a+3
  8859  001E84  EC5B  F01E         	call	___fladd	;wreg free
  8860  001E88  C001  F124         	movff	?___fladd,powf@z_l
  8861  001E8C  C002  F125         	movff	?___fladd+1,powf@z_l+1
  8862  001E90  C003  F126         	movff	?___fladd+2,powf@z_l+2
  8863  001E94  C004  F127         	movff	?___fladd+3,powf@z_l+3
  8864  001E98  C17C  F001         	movff	powf@n,___xxtofl@val
  8865  001E9C  C17D  F002         	movff	powf@n+1,___xxtofl@val+1
  8866  001EA0  C17E  F003         	movff	powf@n+2,___xxtofl@val+2
  8867  001EA4  C17F  F004         	movff	powf@n+3,___xxtofl@val+3
  8868  001EA8  0E01               	movlw	1
  8869  001EAA  ECF2  F028         	call	___xxtofl
  8870  001EAE  C001  F1B0         	movff	?___xxtofl,powf@t
  8871  001EB2  C002  F1B1         	movff	?___xxtofl+1,powf@t+1
  8872  001EB6  C003  F1B2         	movff	?___xxtofl+2,powf@t+2
  8873  001EBA  C004  F1B3         	movff	?___xxtofl+3,powf@t+3
  8874  001EBE  C124  F005         	movff	powf@z_l,___fladd@a
  8875  001EC2  C125  F006         	movff	powf@z_l+1,___fladd@a+1
  8876  001EC6  C126  F007         	movff	powf@z_l+2,___fladd@a+2
  8877  001ECA  C127  F008         	movff	powf@z_l+3,___fladd@a+3
  8878  001ECE  C120  F001         	movff	powf@z_h,___fladd@b
  8879  001ED2  C121  F002         	movff	powf@z_h+1,___fladd@b+1
  8880  001ED6  C122  F003         	movff	powf@z_h+2,___fladd@b+2
  8881  001EDA  C123  F004         	movff	powf@z_h+3,___fladd@b+3
  8882  001EDE  EC5B  F01E         	call	___fladd	;wreg free
  8883  001EE2  C001  F158         	movff	?___fladd,_powf$2142
  8884  001EE6  C002  F159         	movff	?___fladd+1,_powf$2142+1
  8885  001EEA  C003  F15A         	movff	?___fladd+2,_powf$2142+2
  8886  001EEE  C004  F15B         	movff	?___fladd+3,_powf$2142+3
  8887  001EF2  C1A0  F0C2         	movff	powf@k,??_powf
  8888  001EF6  C1A1  F0C3         	movff	powf@k+1,??_powf+1
  8889  001EFA  0100               	movlb	0	; () banked
  8890  001EFC  90D8               	bcf	status,0,c
  8891  001EFE  37C2               	rlcf	??_powf& (0+255),f,b
  8892  001F00  37C3               	rlcf	(??_powf+1)& (0+255),f,b
  8893  001F02  90D8               	bcf	status,0,c
  8894  001F04  37C2               	rlcf	??_powf& (0+255),f,b
  8895  001F06  37C3               	rlcf	(??_powf+1)& (0+255),f,b
  8896  001F08  0E09               	movlw	low _dp_h
  8897  001F0A  25C2               	addwf	??_powf& (0+255),w,b
  8898  001F0C  6EF6               	movwf	tblptrl,c
  8899  001F0E  0E06               	movlw	high _dp_h
  8900  001F10  21C3               	addwfc	(??_powf+1)& (0+255),w,b
  8901  001F12  6EF7               	movwf	tblptrh,c
  8902  001F14                     	if	0	;There are less than 3 active tblptr bytes
  8903  001F14                     	endif
  8904  001F14  0009               	tblrd		*+
  8905  001F16  CFF5 F005          	movff	tablat,___fladd@a
  8906  001F1A  0009               	tblrd		*+
  8907  001F1C  CFF5 F006          	movff	tablat,___fladd@a+1
  8908  001F20  0009               	tblrd		*+
  8909  001F22  CFF5 F007          	movff	tablat,___fladd@a+2
  8910  001F26  000A               	tblrd		*-
  8911  001F28  CFF5 F008          	movff	tablat,___fladd@a+3
  8912  001F2C  C158  F001         	movff	_powf$2142,___fladd@b
  8913  001F30  C159  F002         	movff	_powf$2142+1,___fladd@b+1
  8914  001F34  C15A  F003         	movff	_powf$2142+2,___fladd@b+2
  8915  001F38  C15B  F004         	movff	_powf$2142+3,___fladd@b+3
  8916  001F3C  EC5B  F01E         	call	___fladd	;wreg free
  8917  001F40  C001  F108         	movff	?___fladd,_powf$2145
  8918  001F44  C002  F109         	movff	?___fladd+1,_powf$2145+1
  8919  001F48  C003  F10A         	movff	?___fladd+2,_powf$2145+2
  8920  001F4C  C004  F10B         	movff	?___fladd+3,_powf$2145+3
  8921  001F50  C108  F001         	movff	_powf$2145,___fladd@b
  8922  001F54  C109  F002         	movff	_powf$2145+1,___fladd@b+1
  8923  001F58  C10A  F003         	movff	_powf$2145+2,___fladd@b+2
  8924  001F5C  C10B  F004         	movff	_powf$2145+3,___fladd@b+3
  8925  001F60  C1B0  F005         	movff	powf@t,___fladd@a
  8926  001F64  C1B1  F006         	movff	powf@t+1,___fladd@a+1
  8927  001F68  C1B2  F007         	movff	powf@t+2,___fladd@a+2
  8928  001F6C  C1B3  F008         	movff	powf@t+3,___fladd@a+3
  8929  001F70  EC5B  F01E         	call	___fladd	;wreg free
  8930  001F74  C001  F180         	movff	?___fladd,powf@t1
  8931  001F78  C002  F181         	movff	?___fladd+1,powf@t1+1
  8932  001F7C  C003  F182         	movff	?___fladd+2,powf@t1+2
  8933  001F80  C004  F183         	movff	?___fladd+3,powf@t1+3
  8934  001F84  C180  F1B8         	movff	powf@t1,powf@__xc8_float_word
  8935  001F88  C181  F1B9         	movff	powf@t1+1,powf@__xc8_float_word+1
  8936  001F8C  C182  F1BA         	movff	powf@t1+2,powf@__xc8_float_word+2
  8937  001F90  C183  F1BB         	movff	powf@t1+3,powf@__xc8_float_word+3
  8938  001F94  C1B8  F190         	movff	powf@__xc8_float_word,powf@is
  8939  001F98  C1B9  F191         	movff	powf@__xc8_float_word+1,powf@is+1
  8940  001F9C  C1BA  F192         	movff	powf@__xc8_float_word+2,powf@is+2
  8941  001FA0  C1BB  F193         	movff	powf@__xc8_float_word+3,powf@is+3
  8942  001FA4  0E00               	movlw	0
  8943  001FA6  0101               	movlb	1	; () banked
  8944  001FA8  1590               	andwf	powf@is& (0+255),w,b
  8945  001FAA  6FB8               	movwf	powf@__xc8_float_word& (0+255),b
  8946  001FAC  0EF0               	movlw	240
  8947  001FAE  1591               	andwf	(powf@is+1)& (0+255),w,b
  8948  001FB0  6FB9               	movwf	(powf@__xc8_float_word+1)& (0+255),b
  8949  001FB2  0EFF               	movlw	255
  8950  001FB4  1592               	andwf	(powf@is+2)& (0+255),w,b
  8951  001FB6  6FBA               	movwf	(powf@__xc8_float_word+2)& (0+255),b
  8952  001FB8  0EFF               	movlw	255
  8953  001FBA  1593               	andwf	(powf@is+3)& (0+255),w,b
  8954  001FBC  6FBB               	movwf	(powf@__xc8_float_word+3)& (0+255),b
  8955                           
  8956                           ; BSR set to: 1
  8957  001FBE  C1B8  F180         	movff	powf@__xc8_float_word,powf@t1
  8958  001FC2  C1B9  F181         	movff	powf@__xc8_float_word+1,powf@t1+1
  8959  001FC6  C1BA  F182         	movff	powf@__xc8_float_word+2,powf@t1+2
  8960  001FCA  C1BB  F183         	movff	powf@__xc8_float_word+3,powf@t1+3
  8961                           
  8962                           ; BSR set to: 1
  8963  001FCE  C1B0  F02E         	movff	powf@t,___flsub@a
  8964  001FD2  C1B1  F02F         	movff	powf@t+1,___flsub@a+1
  8965  001FD6  C1B2  F030         	movff	powf@t+2,___flsub@a+2
  8966  001FDA  C1B3  F031         	movff	powf@t+3,___flsub@a+3
  8967  001FDE  C180  F02A         	movff	powf@t1,___flsub@b
  8968  001FE2  C181  F02B         	movff	powf@t1+1,___flsub@b+1
  8969  001FE6  C182  F02C         	movff	powf@t1+2,___flsub@b+2
  8970  001FEA  C183  F02D         	movff	powf@t1+3,___flsub@b+3
  8971  001FEE  EC3C  F02E         	call	___flsub	;wreg free
  8972  001FF2  C02A  F194         	movff	?___flsub,_powf$2138
  8973  001FF6  C02B  F195         	movff	?___flsub+1,_powf$2138+1
  8974  001FFA  C02C  F196         	movff	?___flsub+2,_powf$2138+2
  8975  001FFE  C02D  F197         	movff	?___flsub+3,_powf$2138+3
  8976  002002  C1A0  F0C2         	movff	powf@k,??_powf
  8977  002006  C1A1  F0C3         	movff	powf@k+1,??_powf+1
  8978  00200A  0100               	movlb	0	; () banked
  8979  00200C  90D8               	bcf	status,0,c
  8980  00200E  37C2               	rlcf	??_powf& (0+255),f,b
  8981  002010  37C3               	rlcf	(??_powf+1)& (0+255),f,b
  8982  002012  90D8               	bcf	status,0,c
  8983  002014  37C2               	rlcf	??_powf& (0+255),f,b
  8984  002016  37C3               	rlcf	(??_powf+1)& (0+255),f,b
  8985  002018  0E09               	movlw	low _dp_h
  8986  00201A  25C2               	addwf	??_powf& (0+255),w,b
  8987  00201C  6EF6               	movwf	tblptrl,c
  8988  00201E  0E06               	movlw	high _dp_h
  8989  002020  21C3               	addwfc	(??_powf+1)& (0+255),w,b
  8990  002022  6EF7               	movwf	tblptrh,c
  8991  002024                     	if	0	;There are less than 3 active tblptr bytes
  8992  002024                     	endif
  8993  002024  0009               	tblrd		*+
  8994  002026  CFF5 F02E          	movff	tablat,___flsub@a
  8995  00202A  0009               	tblrd		*+
  8996  00202C  CFF5 F02F          	movff	tablat,___flsub@a+1
  8997  002030  0009               	tblrd		*+
  8998  002032  CFF5 F030          	movff	tablat,___flsub@a+2
  8999  002036  000A               	tblrd		*-
  9000  002038  CFF5 F031          	movff	tablat,___flsub@a+3
  9001  00203C  C194  F02A         	movff	_powf$2138,___flsub@b
  9002  002040  C195  F02B         	movff	_powf$2138+1,___flsub@b+1
  9003  002044  C196  F02C         	movff	_powf$2138+2,___flsub@b+2
  9004  002048  C197  F02D         	movff	_powf$2138+3,___flsub@b+3
  9005  00204C  EC3C  F02E         	call	___flsub	;wreg free
  9006  002050  C02A  F140         	movff	?___flsub,_powf$2144
  9007  002054  C02B  F141         	movff	?___flsub+1,_powf$2144+1
  9008  002058  C02C  F142         	movff	?___flsub+2,_powf$2144+2
  9009  00205C  C02D  F143         	movff	?___flsub+3,_powf$2144+3
  9010  002060  C120  F02E         	movff	powf@z_h,___flsub@a
  9011  002064  C121  F02F         	movff	powf@z_h+1,___flsub@a+1
  9012  002068  C122  F030         	movff	powf@z_h+2,___flsub@a+2
  9013  00206C  C123  F031         	movff	powf@z_h+3,___flsub@a+3
  9014  002070  C140  F02A         	movff	_powf$2144,___flsub@b
  9015  002074  C141  F02B         	movff	_powf$2144+1,___flsub@b+1
  9016  002078  C142  F02C         	movff	_powf$2144+2,___flsub@b+2
  9017  00207C  C143  F02D         	movff	_powf$2144+3,___flsub@b+3
  9018  002080  EC3C  F02E         	call	___flsub	;wreg free
  9019  002084  C02A  F10C         	movff	?___flsub,_powf$2146
  9020  002088  C02B  F10D         	movff	?___flsub+1,_powf$2146+1
  9021  00208C  C02C  F10E         	movff	?___flsub+2,_powf$2146+2
  9022  002090  C02D  F10F         	movff	?___flsub+3,_powf$2146+3
  9023  002094  C124  F02A         	movff	powf@z_l,___flsub@b
  9024  002098  C125  F02B         	movff	powf@z_l+1,___flsub@b+1
  9025  00209C  C126  F02C         	movff	powf@z_l+2,___flsub@b+2
  9026  0020A0  C127  F02D         	movff	powf@z_l+3,___flsub@b+3
  9027  0020A4  C10C  F02E         	movff	_powf$2146,___flsub@a
  9028  0020A8  C10D  F02F         	movff	_powf$2146+1,___flsub@a+1
  9029  0020AC  C10E  F030         	movff	_powf$2146+2,___flsub@a+2
  9030  0020B0  C10F  F031         	movff	_powf$2146+3,___flsub@a+3
  9031  0020B4  EC3C  F02E         	call	___flsub	;wreg free
  9032  0020B8                     L4:
  9033  0020B8  C02A  F11C         	movff	?___flsub,powf@t2
  9034  0020BC  C02B  F11D         	movff	?___flsub+1,powf@t2+1
  9035  0020C0  C02C  F11E         	movff	?___flsub+2,powf@t2+2
  9036  0020C4  C02D  F11F         	movff	?___flsub+3,powf@t2+3
  9037  0020C8  C073  F1B8         	movff	powf@y,powf@__xc8_float_word
  9038  0020CC  C074  F1B9         	movff	powf@y+1,powf@__xc8_float_word+1
  9039  0020D0  C075  F1BA         	movff	powf@y+2,powf@__xc8_float_word+2
  9040  0020D4  C076  F1BB         	movff	powf@y+3,powf@__xc8_float_word+3
  9041  0020D8  C1B8  F190         	movff	powf@__xc8_float_word,powf@is
  9042  0020DC  C1B9  F191         	movff	powf@__xc8_float_word+1,powf@is+1
  9043  0020E0  C1BA  F192         	movff	powf@__xc8_float_word+2,powf@is+2
  9044  0020E4  C1BB  F193         	movff	powf@__xc8_float_word+3,powf@is+3
  9045  0020E8  0E00               	movlw	0
  9046  0020EA  0101               	movlb	1	; () banked
  9047  0020EC  1590               	andwf	powf@is& (0+255),w,b
  9048  0020EE  6FB8               	movwf	powf@__xc8_float_word& (0+255),b
  9049  0020F0  0EF0               	movlw	240
  9050  0020F2  1591               	andwf	(powf@is+1)& (0+255),w,b
  9051  0020F4  6FB9               	movwf	(powf@__xc8_float_word+1)& (0+255),b
  9052  0020F6  0EFF               	movlw	255
  9053  0020F8  1592               	andwf	(powf@is+2)& (0+255),w,b
  9054  0020FA  6FBA               	movwf	(powf@__xc8_float_word+2)& (0+255),b
  9055  0020FC  0EFF               	movlw	255
  9056  0020FE  1593               	andwf	(powf@is+3)& (0+255),w,b
  9057  002100  6FBB               	movwf	(powf@__xc8_float_word+3)& (0+255),b
  9058                           
  9059                           ; BSR set to: 1
  9060  002102  C1B8  F128         	movff	powf@__xc8_float_word,powf@y1
  9061  002106  C1B9  F129         	movff	powf@__xc8_float_word+1,powf@y1+1
  9062  00210A  C1BA  F12A         	movff	powf@__xc8_float_word+2,powf@y1+2
  9063  00210E  C1BB  F12B         	movff	powf@__xc8_float_word+3,powf@y1+3
  9064                           
  9065                           ; BSR set to: 1
  9066  002112  C180  F015         	movff	powf@t1,___flmul@a
  9067  002116  C181  F016         	movff	powf@t1+1,___flmul@a+1
  9068  00211A  C182  F017         	movff	powf@t1+2,___flmul@a+2
  9069  00211E  C183  F018         	movff	powf@t1+3,___flmul@a+3
  9070  002122  C128  F02E         	movff	powf@y1,___flsub@a
  9071  002126  C129  F02F         	movff	powf@y1+1,___flsub@a+1
  9072  00212A  C12A  F030         	movff	powf@y1+2,___flsub@a+2
  9073  00212E  C12B  F031         	movff	powf@y1+3,___flsub@a+3
  9074  002132  C073  F02A         	movff	powf@y,___flsub@b
  9075  002136  C074  F02B         	movff	powf@y+1,___flsub@b+1
  9076  00213A  C075  F02C         	movff	powf@y+2,___flsub@b+2
  9077  00213E  C076  F02D         	movff	powf@y+3,___flsub@b+3
  9078  002142  EC3C  F02E         	call	___flsub	;wreg free
  9079  002146  C02A  F011         	movff	?___flsub,___flmul@b
  9080  00214A  C02B  F012         	movff	?___flsub+1,___flmul@b+1
  9081  00214E  C02C  F013         	movff	?___flsub+2,___flmul@b+2
  9082  002152  C02D  F014         	movff	?___flsub+3,___flmul@b+3
  9083  002156  ECB2  F01C         	call	___flmul	;wreg free
  9084  00215A  C011  F110         	movff	?___flmul,_powf$2147
  9085  00215E  C012  F111         	movff	?___flmul+1,_powf$2147+1
  9086  002162  C013  F112         	movff	?___flmul+2,_powf$2147+2
  9087  002166  C014  F113         	movff	?___flmul+3,_powf$2147+3
  9088  00216A  C110  F001         	movff	_powf$2147,___fladd@b
  9089  00216E  C111  F002         	movff	_powf$2147+1,___fladd@b+1
  9090  002172  C112  F003         	movff	_powf$2147+2,___fladd@b+2
  9091  002176  C113  F004         	movff	_powf$2147+3,___fladd@b+3
  9092  00217A  C11C  F015         	movff	powf@t2,___flmul@a
  9093  00217E  C11D  F016         	movff	powf@t2+1,___flmul@a+1
  9094  002182  C11E  F017         	movff	powf@t2+2,___flmul@a+2
  9095  002186  C11F  F018         	movff	powf@t2+3,___flmul@a+3
  9096  00218A  C073  F011         	movff	powf@y,___flmul@b
  9097  00218E  C074  F012         	movff	powf@y+1,___flmul@b+1
  9098  002192  C075  F013         	movff	powf@y+2,___flmul@b+2
  9099  002196  C076  F014         	movff	powf@y+3,___flmul@b+3
  9100  00219A  ECB2  F01C         	call	___flmul	;wreg free
  9101  00219E  C011  F005         	movff	?___flmul,___fladd@a
  9102  0021A2  C012  F006         	movff	?___flmul+1,___fladd@a+1
  9103  0021A6  C013  F007         	movff	?___flmul+2,___fladd@a+2
  9104  0021AA  C014  F008         	movff	?___flmul+3,___fladd@a+3
  9105  0021AE  EC5B  F01E         	call	___fladd	;wreg free
  9106  0021B2  C001  F164         	movff	?___fladd,powf@p_l
  9107  0021B6  C002  F165         	movff	?___fladd+1,powf@p_l+1
  9108  0021BA  C003  F166         	movff	?___fladd+2,powf@p_l+2
  9109  0021BE  C004  F167         	movff	?___fladd+3,powf@p_l+3
  9110  0021C2  C128  F011         	movff	powf@y1,___flmul@b
  9111  0021C6  C129  F012         	movff	powf@y1+1,___flmul@b+1
  9112  0021CA  C12A  F013         	movff	powf@y1+2,___flmul@b+2
  9113  0021CE  C12B  F014         	movff	powf@y1+3,___flmul@b+3
  9114  0021D2  C180  F015         	movff	powf@t1,___flmul@a
  9115  0021D6  C181  F016         	movff	powf@t1+1,___flmul@a+1
  9116  0021DA  C182  F017         	movff	powf@t1+2,___flmul@a+2
  9117  0021DE  C183  F018         	movff	powf@t1+3,___flmul@a+3
  9118  0021E2  ECB2  F01C         	call	___flmul	;wreg free
  9119  0021E6  C011  F19C         	movff	?___flmul,powf@p_h
  9120  0021EA  C012  F19D         	movff	?___flmul+1,powf@p_h+1
  9121  0021EE  C013  F19E         	movff	?___flmul+2,powf@p_h+2
  9122  0021F2  C014  F19F         	movff	?___flmul+3,powf@p_h+3
  9123  0021F6  C164  F001         	movff	powf@p_l,___fladd@b
  9124  0021FA  C165  F002         	movff	powf@p_l+1,___fladd@b+1
  9125  0021FE  C166  F003         	movff	powf@p_l+2,___fladd@b+2
  9126  002202  C167  F004         	movff	powf@p_l+3,___fladd@b+3
  9127  002206  C19C  F005         	movff	powf@p_h,___fladd@a
  9128  00220A  C19D  F006         	movff	powf@p_h+1,___fladd@a+1
  9129  00220E  C19E  F007         	movff	powf@p_h+2,___fladd@a+2
  9130  002212  C19F  F008         	movff	powf@p_h+3,___fladd@a+3
  9131  002216  EC5B  F01E         	call	___fladd	;wreg free
  9132  00221A  C001  F1B4         	movff	?___fladd,powf@z
  9133  00221E  C002  F1B5         	movff	?___fladd+1,powf@z+1
  9134  002222  C003  F1B6         	movff	?___fladd+2,powf@z+2
  9135  002226  C004  F1B7         	movff	?___fladd+3,powf@z+3
  9136  00222A  C1B4  F1B8         	movff	powf@z,powf@__xc8_float_word
  9137  00222E  C1B5  F1B9         	movff	powf@z+1,powf@__xc8_float_word+1
  9138  002232  C1B6  F1BA         	movff	powf@z+2,powf@__xc8_float_word+2
  9139  002236  C1B7  F1BB         	movff	powf@z+3,powf@__xc8_float_word+3
  9140  00223A  C1B8  F1AC         	movff	powf@__xc8_float_word,powf@j
  9141  00223E  C1B9  F1AD         	movff	powf@__xc8_float_word+1,powf@j+1
  9142  002242  C1BA  F1AE         	movff	powf@__xc8_float_word+2,powf@j+2
  9143  002246  C1BB  F1AF         	movff	powf@__xc8_float_word+3,powf@j+3
  9144  00224A  0101               	movlb	1	; () banked
  9145  00224C  BFAF               	btfsc	(powf@j+3)& (0+255),7,b
  9146  00224E  D03E               	goto	i2l4741
  9147  002250  05AC               	decf	powf@j& (0+255),w,b
  9148  002252  0E00               	movlw	0
  9149  002254  59AD               	subwfb	(powf@j+1)& (0+255),w,b
  9150  002256  0E00               	movlw	0
  9151  002258  59AE               	subwfb	(powf@j+2)& (0+255),w,b
  9152  00225A  0E43               	movlw	67
  9153  00225C  59AF               	subwfb	(powf@j+3)& (0+255),w,b
  9154  00225E  A0D8               	btfss	status,0,c
  9155  002260  D035               	goto	i2l4741
  9156                           
  9157                           ; BSR set to: 1
  9158  002262  0ECA               	movlw	202
  9159  002264  6E15               	movwf	___flmul@a^0,c
  9160  002266  0EF2               	movlw	242
  9161  002268  6E16               	movwf	(___flmul@a+1)^0,c
  9162  00226A  0E49               	movlw	73
  9163  00226C  6E17               	movwf	(___flmul@a+2)^0,c
  9164  00226E  0E71               	movlw	113
  9165  002270  6E18               	movwf	(___flmul@a+3)^0,c
  9166  002272  C188  F011         	movff	powf@sn,___flmul@b
  9167  002276  C189  F012         	movff	powf@sn+1,___flmul@b+1
  9168  00227A  C18A  F013         	movff	powf@sn+2,___flmul@b+2
  9169  00227E  C18B  F014         	movff	powf@sn+3,___flmul@b+3
  9170  002282  ECB2  F01C         	call	___flmul	;wreg free
  9171  002286  C011  F1A4         	movff	?___flmul,_powf$2135
  9172  00228A  C012  F1A5         	movff	?___flmul+1,_powf$2135+1
  9173  00228E  C013  F1A6         	movff	?___flmul+2,_powf$2135+2
  9174  002292  C014  F1A7         	movff	?___flmul+3,_powf$2135+3
  9175  002296  C1A4  F011         	movff	_powf$2135,___flmul@b
  9176  00229A  C1A5  F012         	movff	_powf$2135+1,___flmul@b+1
  9177  00229E  C1A6  F013         	movff	_powf$2135+2,___flmul@b+2
  9178  0022A2  C1A7  F014         	movff	_powf$2135+3,___flmul@b+3
  9179  0022A6  0ECA               	movlw	202
  9180  0022A8  6E15               	movwf	___flmul@a^0,c
  9181  0022AA  0EF2               	movlw	242
  9182  0022AC  6E16               	movwf	(___flmul@a+1)^0,c
  9183  0022AE  0E49               	movlw	73
  9184  0022B0  6E17               	movwf	(___flmul@a+2)^0,c
  9185  0022B2  0E71               	movlw	113
  9186  0022B4  6E18               	movwf	(___flmul@a+3)^0,c
  9187  0022B6  ECB2  F01C         	call	___flmul	;wreg free
  9188  0022BA  C011  F06F         	movff	?___flmul,?_powf
  9189  0022BE  C012  F070         	movff	?___flmul+1,?_powf+1
  9190  0022C2  C013  F071         	movff	?___flmul+2,?_powf+2
  9191  0022C6  C014  F072         	movff	?___flmul+3,?_powf+3
  9192  0022CA  0012               	return	
  9193  0022CC                     i2l4741:
  9194                           
  9195                           ; BSR set to: 1
  9196  0022CC  0E43               	movlw	67
  9197  0022CE  19AF               	xorwf	(powf@j+3)& (0+255),w,b
  9198  0022D0  11AC               	iorwf	powf@j& (0+255),w,b
  9199  0022D2  11AD               	iorwf	(powf@j+1)& (0+255),w,b
  9200  0022D4  11AE               	iorwf	(powf@j+2)& (0+255),w,b
  9201  0022D6  A4D8               	btfss	status,2,c
  9202  0022D8  D06D               	goto	i2l4749
  9203                           
  9204                           ; BSR set to: 1
  9205  0022DA  C19C  F02E         	movff	powf@p_h,___flsub@a
  9206  0022DE  C19D  F02F         	movff	powf@p_h+1,___flsub@a+1
  9207  0022E2  C19E  F030         	movff	powf@p_h+2,___flsub@a+2
  9208  0022E6  C19F  F031         	movff	powf@p_h+3,___flsub@a+3
  9209  0022EA  C1B4  F02A         	movff	powf@z,___flsub@b
  9210  0022EE  C1B5  F02B         	movff	powf@z+1,___flsub@b+1
  9211  0022F2  C1B6  F02C         	movff	powf@z+2,___flsub@b+2
  9212  0022F6  C1B7  F02D         	movff	powf@z+3,___flsub@b+3
  9213  0022FA  EC3C  F02E         	call	___flsub	;wreg free
  9214  0022FE  C02A  F032         	movff	?___flsub,___flge@ff1
  9215  002302  C02B  F033         	movff	?___flsub+1,___flge@ff1+1
  9216  002306  C02C  F034         	movff	?___flsub+2,___flge@ff1+2
  9217  00230A  C02D  F035         	movff	?___flsub+3,___flge@ff1+3
  9218  00230E  0E3C               	movlw	60
  9219  002310  6E05               	movwf	___fladd@a^0,c
  9220  002312  0EAA               	movlw	170
  9221  002314  6E06               	movwf	(___fladd@a+1)^0,c
  9222  002316  0E38               	movlw	56
  9223  002318  6E07               	movwf	(___fladd@a+2)^0,c
  9224  00231A  0E33               	movlw	51
  9225  00231C  6E08               	movwf	(___fladd@a+3)^0,c
  9226  00231E  C164  F001         	movff	powf@p_l,___fladd@b
  9227  002322  C165  F002         	movff	powf@p_l+1,___fladd@b+1
  9228  002326  C166  F003         	movff	powf@p_l+2,___fladd@b+2
  9229  00232A  C167  F004         	movff	powf@p_l+3,___fladd@b+3
  9230  00232E  EC5B  F01E         	call	___fladd	;wreg free
  9231  002332  C001  F036         	movff	?___fladd,___flge@ff2
  9232  002336  C002  F037         	movff	?___fladd+1,___flge@ff2+1
  9233  00233A  C003  F038         	movff	?___fladd+2,___flge@ff2+2
  9234  00233E  C004  F039         	movff	?___fladd+3,___flge@ff2+3
  9235  002342  EC47  F02B         	call	___flge	;wreg free
  9236  002346  B0D8               	btfsc	status,0,c
  9237  002348  D0ED               	goto	i2l4765
  9238  00234A  0ECA               	movlw	202
  9239  00234C  6E15               	movwf	___flmul@a^0,c
  9240  00234E  0EF2               	movlw	242
  9241  002350  6E16               	movwf	(___flmul@a+1)^0,c
  9242  002352  0E49               	movlw	73
  9243  002354  6E17               	movwf	(___flmul@a+2)^0,c
  9244  002356  0E71               	movlw	113
  9245  002358  6E18               	movwf	(___flmul@a+3)^0,c
  9246  00235A  C188  F011         	movff	powf@sn,___flmul@b
  9247  00235E  C189  F012         	movff	powf@sn+1,___flmul@b+1
  9248  002362  C18A  F013         	movff	powf@sn+2,___flmul@b+2
  9249  002366  C18B  F014         	movff	powf@sn+3,___flmul@b+3
  9250  00236A  ECB2  F01C         	call	___flmul	;wreg free
  9251  00236E  C011  F1A4         	movff	?___flmul,_powf$2135
  9252  002372  C012  F1A5         	movff	?___flmul+1,_powf$2135+1
  9253  002376  C013  F1A6         	movff	?___flmul+2,_powf$2135+2
  9254  00237A  C014  F1A7         	movff	?___flmul+3,_powf$2135+3
  9255  00237E  C1A4  F011         	movff	_powf$2135,___flmul@b
  9256  002382  C1A5  F012         	movff	_powf$2135+1,___flmul@b+1
  9257  002386  C1A6  F013         	movff	_powf$2135+2,___flmul@b+2
  9258  00238A  C1A7  F014         	movff	_powf$2135+3,___flmul@b+3
  9259  00238E  0ECA               	movlw	202
  9260  002390  6E15               	movwf	___flmul@a^0,c
  9261  002392  0EF2               	movlw	242
  9262  002394  6E16               	movwf	(___flmul@a+1)^0,c
  9263  002396  0E49               	movlw	73
  9264  002398  6E17               	movwf	(___flmul@a+2)^0,c
  9265  00239A  0E71               	movlw	113
  9266  00239C  6E18               	movwf	(___flmul@a+3)^0,c
  9267  00239E  ECB2  F01C         	call	___flmul	;wreg free
  9268  0023A2  C011  F06F         	movff	?___flmul,?_powf
  9269  0023A6  C012  F070         	movff	?___flmul+1,?_powf+1
  9270  0023AA  C013  F071         	movff	?___flmul+2,?_powf+2
  9271  0023AE  C014  F072         	movff	?___flmul+3,?_powf+3
  9272  0023B2  0012               	return	
  9273  0023B4                     i2l4749:
  9274                           
  9275                           ; BSR set to: 1
  9276  0023B4  0EFF               	movlw	255
  9277  0023B6  15AC               	andwf	powf@j& (0+255),w,b
  9278  0023B8  0100               	movlb	0	; () banked
  9279  0023BA  6FC2               	movwf	??_powf& (0+255),b
  9280  0023BC  0EFF               	movlw	255
  9281  0023BE  0101               	movlb	1	; () banked
  9282  0023C0  15AD               	andwf	(powf@j+1)& (0+255),w,b
  9283  0023C2  0100               	movlb	0	; () banked
  9284  0023C4  6FC3               	movwf	(??_powf+1)& (0+255),b
  9285  0023C6  0EFF               	movlw	255
  9286  0023C8  0101               	movlb	1	; () banked
  9287  0023CA  15AE               	andwf	(powf@j+2)& (0+255),w,b
  9288  0023CC  0100               	movlb	0	; () banked
  9289  0023CE  6FC4               	movwf	(??_powf+2)& (0+255),b
  9290  0023D0  0E7F               	movlw	127
  9291  0023D2  0101               	movlb	1	; () banked
  9292  0023D4  15AF               	andwf	(powf@j+3)& (0+255),w,b
  9293  0023D6  0100               	movlb	0	; () banked
  9294  0023D8  6FC5               	movwf	(??_powf+3)& (0+255),b
  9295  0023DA  BFC5               	btfsc	(??_powf+3)& (0+255),7,b
  9296  0023DC  D03E               	goto	i2l4757
  9297  0023DE  05C2               	decf	??_powf& (0+255),w,b
  9298  0023E0  0E00               	movlw	0
  9299  0023E2  59C3               	subwfb	(??_powf+1)& (0+255),w,b
  9300  0023E4  0E16               	movlw	22
  9301  0023E6  59C4               	subwfb	(??_powf+2)& (0+255),w,b
  9302  0023E8  0E43               	movlw	67
  9303  0023EA  59C5               	subwfb	(??_powf+3)& (0+255),w,b
  9304  0023EC  A0D8               	btfss	status,0,c
  9305  0023EE  D035               	goto	i2l4757
  9306                           
  9307                           ; BSR set to: 0
  9308  0023F0  0E60               	movlw	96
  9309  0023F2  6E15               	movwf	___flmul@a^0,c
  9310  0023F4  0E42               	movlw	66
  9311  0023F6  6E16               	movwf	(___flmul@a+1)^0,c
  9312  0023F8  0EA2               	movlw	162
  9313  0023FA  6E17               	movwf	(___flmul@a+2)^0,c
  9314  0023FC  0E0D               	movlw	13
  9315  0023FE  6E18               	movwf	(___flmul@a+3)^0,c
  9316  002400  C188  F011         	movff	powf@sn,___flmul@b
  9317  002404  C189  F012         	movff	powf@sn+1,___flmul@b+1
  9318  002408  C18A  F013         	movff	powf@sn+2,___flmul@b+2
  9319  00240C  C18B  F014         	movff	powf@sn+3,___flmul@b+3
  9320  002410  ECB2  F01C         	call	___flmul	;wreg free
  9321  002414  C011  F1A4         	movff	?___flmul,_powf$2135
  9322  002418  C012  F1A5         	movff	?___flmul+1,_powf$2135+1
  9323  00241C  C013  F1A6         	movff	?___flmul+2,_powf$2135+2
  9324  002420  C014  F1A7         	movff	?___flmul+3,_powf$2135+3
  9325  002424  C1A4  F011         	movff	_powf$2135,___flmul@b
  9326  002428  C1A5  F012         	movff	_powf$2135+1,___flmul@b+1
  9327  00242C  C1A6  F013         	movff	_powf$2135+2,___flmul@b+2
  9328  002430  C1A7  F014         	movff	_powf$2135+3,___flmul@b+3
  9329  002434  0E60               	movlw	96
  9330  002436  6E15               	movwf	___flmul@a^0,c
  9331  002438  0E42               	movlw	66
  9332  00243A  6E16               	movwf	(___flmul@a+1)^0,c
  9333  00243C  0EA2               	movlw	162
  9334  00243E  6E17               	movwf	(___flmul@a+2)^0,c
  9335  002440  0E0D               	movlw	13
  9336  002442  6E18               	movwf	(___flmul@a+3)^0,c
  9337  002444  ECB2  F01C         	call	___flmul	;wreg free
  9338  002448  C011  F06F         	movff	?___flmul,?_powf
  9339  00244C  C012  F070         	movff	?___flmul+1,?_powf+1
  9340  002450  C013  F071         	movff	?___flmul+2,?_powf+2
  9341  002454  C014  F072         	movff	?___flmul+3,?_powf+3
  9342  002458  0012               	return	
  9343  00245A                     i2l4757:
  9344                           
  9345                           ; BSR set to: 0
  9346  00245A  0E16               	movlw	22
  9347  00245C  0101               	movlb	1	; () banked
  9348  00245E  19AE               	xorwf	(powf@j+2)& (0+255),w,b
  9349  002460  E161               	bnz	i2l4765
  9350  002462  0EC3               	movlw	195
  9351  002464  19AF               	xorwf	(powf@j+3)& (0+255),w,b
  9352  002466  11AC               	iorwf	powf@j& (0+255),w,b
  9353  002468  11AD               	iorwf	(powf@j+1)& (0+255),w,b
  9354  00246A  A4D8               	btfss	status,2,c
  9355  00246C  D05B               	goto	i2l4765
  9356                           
  9357                           ; BSR set to: 1
  9358  00246E  C19C  F02E         	movff	powf@p_h,___flsub@a
  9359  002472  C19D  F02F         	movff	powf@p_h+1,___flsub@a+1
  9360  002476  C19E  F030         	movff	powf@p_h+2,___flsub@a+2
  9361  00247A  C19F  F031         	movff	powf@p_h+3,___flsub@a+3
  9362  00247E  C1B4  F02A         	movff	powf@z,___flsub@b
  9363  002482  C1B5  F02B         	movff	powf@z+1,___flsub@b+1
  9364  002486  C1B6  F02C         	movff	powf@z+2,___flsub@b+2
  9365  00248A  C1B7  F02D         	movff	powf@z+3,___flsub@b+3
  9366  00248E  EC3C  F02E         	call	___flsub	;wreg free
  9367  002492  C02A  F032         	movff	?___flsub,___flge@ff1
  9368  002496  C02B  F033         	movff	?___flsub+1,___flge@ff1+1
  9369  00249A  C02C  F034         	movff	?___flsub+2,___flge@ff1+2
  9370  00249E  C02D  F035         	movff	?___flsub+3,___flge@ff1+3
  9371  0024A2  C164  F036         	movff	powf@p_l,___flge@ff2
  9372  0024A6  C165  F037         	movff	powf@p_l+1,___flge@ff2+1
  9373  0024AA  C166  F038         	movff	powf@p_l+2,___flge@ff2+2
  9374  0024AE  C167  F039         	movff	powf@p_l+3,___flge@ff2+3
  9375  0024B2  EC47  F02B         	call	___flge	;wreg free
  9376  0024B6  A0D8               	btfss	status,0,c
  9377  0024B8  D035               	goto	i2l4765
  9378  0024BA  0E60               	movlw	96
  9379  0024BC  6E15               	movwf	___flmul@a^0,c
  9380  0024BE  0E42               	movlw	66
  9381  0024C0  6E16               	movwf	(___flmul@a+1)^0,c
  9382  0024C2  0EA2               	movlw	162
  9383  0024C4  6E17               	movwf	(___flmul@a+2)^0,c
  9384  0024C6  0E0D               	movlw	13
  9385  0024C8  6E18               	movwf	(___flmul@a+3)^0,c
  9386  0024CA  C188  F011         	movff	powf@sn,___flmul@b
  9387  0024CE  C189  F012         	movff	powf@sn+1,___flmul@b+1
  9388  0024D2  C18A  F013         	movff	powf@sn+2,___flmul@b+2
  9389  0024D6  C18B  F014         	movff	powf@sn+3,___flmul@b+3
  9390  0024DA  ECB2  F01C         	call	___flmul	;wreg free
  9391  0024DE  C011  F1A4         	movff	?___flmul,_powf$2135
  9392  0024E2  C012  F1A5         	movff	?___flmul+1,_powf$2135+1
  9393  0024E6  C013  F1A6         	movff	?___flmul+2,_powf$2135+2
  9394  0024EA  C014  F1A7         	movff	?___flmul+3,_powf$2135+3
  9395  0024EE  C1A4  F011         	movff	_powf$2135,___flmul@b
  9396  0024F2  C1A5  F012         	movff	_powf$2135+1,___flmul@b+1
  9397  0024F6  C1A6  F013         	movff	_powf$2135+2,___flmul@b+2
  9398  0024FA  C1A7  F014         	movff	_powf$2135+3,___flmul@b+3
  9399  0024FE  0E60               	movlw	96
  9400  002500  6E15               	movwf	___flmul@a^0,c
  9401  002502  0E42               	movlw	66
  9402  002504  6E16               	movwf	(___flmul@a+1)^0,c
  9403  002506  0EA2               	movlw	162
  9404  002508  6E17               	movwf	(___flmul@a+2)^0,c
  9405  00250A  0E0D               	movlw	13
  9406  00250C  6E18               	movwf	(___flmul@a+3)^0,c
  9407  00250E  ECB2  F01C         	call	___flmul	;wreg free
  9408  002512  C011  F06F         	movff	?___flmul,?_powf
  9409  002516  C012  F070         	movff	?___flmul+1,?_powf+1
  9410  00251A  C013  F071         	movff	?___flmul+2,?_powf+2
  9411  00251E  C014  F072         	movff	?___flmul+3,?_powf+3
  9412  002522  0012               	return	
  9413  002524                     i2l4765:
  9414  002524  0EFF               	movlw	255
  9415  002526  0101               	movlb	1	; () banked
  9416  002528  15AC               	andwf	powf@j& (0+255),w,b
  9417  00252A  6F2C               	movwf	powf@i& (0+255),b
  9418  00252C  0EFF               	movlw	255
  9419  00252E  15AD               	andwf	(powf@j+1)& (0+255),w,b
  9420  002530  6F2D               	movwf	(powf@i+1)& (0+255),b
  9421  002532  0EFF               	movlw	255
  9422  002534  15AE               	andwf	(powf@j+2)& (0+255),w,b
  9423  002536  6F2E               	movwf	(powf@i+2)& (0+255),b
  9424  002538  0E7F               	movlw	127
  9425  00253A  15AF               	andwf	(powf@j+3)& (0+255),w,b
  9426  00253C  6F2F               	movwf	(powf@i+3)& (0+255),b
  9427  00253E  0E17               	movlw	23
  9428  002540  0100               	movlb	0	; () banked
  9429  002542  6FC2               	movwf	??_powf& (0+255),b
  9430  002544  C12C  F0C3         	movff	powf@i,??_powf+1
  9431  002548  C12D  F0C4         	movff	powf@i+1,??_powf+2
  9432  00254C  C12E  F0C5         	movff	powf@i+2,??_powf+3
  9433  002550  C12F  F0C6         	movff	powf@i+3,??_powf+4
  9434  002554                     i2u498_45:
  9435  002554  67C2               	tstfsz	??_powf& (0+255),b
  9436  002556  D001               	goto	i2u498_46
  9437  002558  D007               	goto	i2u498_47
  9438  00255A                     i2u498_46:
  9439  00255A  35C6               	rlcf	(??_powf+4)& (0+255),w,b
  9440  00255C  33C6               	rrcf	(??_powf+4)& (0+255),f,b
  9441  00255E  33C5               	rrcf	(??_powf+3)& (0+255),f,b
  9442  002560  33C4               	rrcf	(??_powf+2)& (0+255),f,b
  9443  002562  33C3               	rrcf	(??_powf+1)& (0+255),f,b
  9444  002564  2FC2               	decfsz	??_powf& (0+255),f,b
  9445  002566  D7F6               	goto	i2u498_45
  9446  002568                     i2u498_47:
  9447  002568  0E81               	movlw	129
  9448  00256A  0100               	movlb	0	; () banked
  9449  00256C  25C3               	addwf	(??_powf+1)& (0+255),w,b
  9450  00256E  0101               	movlb	1	; () banked
  9451  002570  6FA0               	movwf	powf@k& (0+255),b
  9452  002572  0EFF               	movlw	255
  9453  002574  0100               	movlb	0	; () banked
  9454  002576  21C4               	addwfc	(??_powf+2)& (0+255),w,b
  9455  002578  0101               	movlb	1	; () banked
  9456  00257A  6FA1               	movwf	(powf@k+1)& (0+255),b
  9457  00257C  0EFF               	movlw	255
  9458  00257E  0100               	movlb	0	; () banked
  9459  002580  21C5               	addwfc	(??_powf+3)& (0+255),w,b
  9460  002582  0101               	movlb	1	; () banked
  9461  002584  6FA2               	movwf	(powf@k+2)& (0+255),b
  9462  002586  0EFF               	movlw	255
  9463  002588  0100               	movlb	0	; () banked
  9464  00258A  21C6               	addwfc	(??_powf+4)& (0+255),w,b
  9465  00258C  0101               	movlb	1	; () banked
  9466  00258E  6FA3               	movwf	(powf@k+3)& (0+255),b
  9467                           
  9468                           ; BSR set to: 1
  9469  002590  0E00               	movlw	0
  9470  002592  6F7C               	movwf	powf@n& (0+255),b
  9471  002594  0E00               	movlw	0
  9472  002596  6F7D               	movwf	(powf@n+1)& (0+255),b
  9473  002598  0E00               	movlw	0
  9474  00259A  6F7E               	movwf	(powf@n+2)& (0+255),b
  9475  00259C  0E00               	movlw	0
  9476  00259E  6F7F               	movwf	(powf@n+3)& (0+255),b
  9477                           
  9478                           ; BSR set to: 1
  9479  0025A0  BF2F               	btfsc	(powf@i+3)& (0+255),7,b
  9480  0025A2  D0FC               	goto	i2l4779
  9481  0025A4  052C               	decf	powf@i& (0+255),w,b
  9482  0025A6  0E00               	movlw	0
  9483  0025A8  592D               	subwfb	(powf@i+1)& (0+255),w,b
  9484  0025AA  0E00               	movlw	0
  9485  0025AC  592E               	subwfb	(powf@i+2)& (0+255),w,b
  9486  0025AE  0E3F               	movlw	63
  9487  0025B0  592F               	subwfb	(powf@i+3)& (0+255),w,b
  9488  0025B2  A0D8               	btfss	status,0,c
  9489  0025B4  D0F3               	goto	i2l4779
  9490                           
  9491                           ; BSR set to: 1
  9492  0025B6  C1A0  F0C2         	movff	powf@k,??_powf
  9493  0025BA  0E01               	movlw	1
  9494  0025BC  0100               	movlb	0	; () banked
  9495  0025BE  27C2               	addwf	??_powf& (0+255),f,b
  9496  0025C0  0E00               	movlw	0
  9497  0025C2  6FC3               	movwf	(??_powf+1)& (0+255),b
  9498  0025C4  0E00               	movlw	0
  9499  0025C6  6FC4               	movwf	(??_powf+2)& (0+255),b
  9500  0025C8  0E80               	movlw	128
  9501  0025CA  6FC5               	movwf	(??_powf+3)& (0+255),b
  9502  0025CC  0E00               	movlw	0
  9503  0025CE  6FC6               	movwf	(??_powf+4)& (0+255),b
  9504  0025D0                     i2u500_45:
  9505  0025D0  67C2               	tstfsz	??_powf& (0+255),b
  9506  0025D2  D001               	goto	i2u500_46
  9507  0025D4  D007               	goto	i2u500_47
  9508  0025D6                     i2u500_46:
  9509  0025D6  35C6               	rlcf	(??_powf+4)& (0+255),w,b
  9510  0025D8  33C6               	rrcf	(??_powf+4)& (0+255),f,b
  9511  0025DA  33C5               	rrcf	(??_powf+3)& (0+255),f,b
  9512  0025DC  33C4               	rrcf	(??_powf+2)& (0+255),f,b
  9513  0025DE  33C3               	rrcf	(??_powf+1)& (0+255),f,b
  9514  0025E0  2FC2               	decfsz	??_powf& (0+255),f,b
  9515  0025E2  D7F6               	goto	i2u500_45
  9516  0025E4                     i2u500_47:
  9517  0025E4  0101               	movlb	1	; () banked
  9518  0025E6  51AC               	movf	powf@j& (0+255),w,b
  9519  0025E8  0100               	movlb	0	; () banked
  9520  0025EA  25C3               	addwf	(??_powf+1)& (0+255),w,b
  9521  0025EC  0101               	movlb	1	; () banked
  9522  0025EE  6F7C               	movwf	powf@n& (0+255),b
  9523  0025F0  51AD               	movf	(powf@j+1)& (0+255),w,b
  9524  0025F2  0100               	movlb	0	; () banked
  9525  0025F4  21C4               	addwfc	(??_powf+2)& (0+255),w,b
  9526  0025F6  0101               	movlb	1	; () banked
  9527  0025F8  6F7D               	movwf	(powf@n+1)& (0+255),b
  9528  0025FA  51AE               	movf	(powf@j+2)& (0+255),w,b
  9529  0025FC  0100               	movlb	0	; () banked
  9530  0025FE  21C5               	addwfc	(??_powf+3)& (0+255),w,b
  9531  002600  0101               	movlb	1	; () banked
  9532  002602  6F7E               	movwf	(powf@n+2)& (0+255),b
  9533  002604  51AF               	movf	(powf@j+3)& (0+255),w,b
  9534  002606  0100               	movlb	0	; () banked
  9535  002608  21C6               	addwfc	(??_powf+4)& (0+255),w,b
  9536  00260A  0101               	movlb	1	; () banked
  9537  00260C  6F7F               	movwf	(powf@n+3)& (0+255),b
  9538  00260E  0E81               	movlw	129
  9539  002610  0100               	movlb	0	; () banked
  9540  002612  6FC2               	movwf	??_powf& (0+255),b
  9541  002614  0EFF               	movlw	255
  9542  002616  6FC3               	movwf	(??_powf+1)& (0+255),b
  9543  002618  0EFF               	movlw	255
  9544  00261A  6FC4               	movwf	(??_powf+2)& (0+255),b
  9545  00261C  0EFF               	movlw	255
  9546  00261E  6FC5               	movwf	(??_powf+3)& (0+255),b
  9547  002620  0E17               	movlw	23
  9548  002622  6FC6               	movwf	(??_powf+4)& (0+255),b
  9549  002624  C17C  F0C7         	movff	powf@n,??_powf+5
  9550  002628  C17D  F0C8         	movff	powf@n+1,??_powf+6
  9551  00262C  C17E  F0C9         	movff	powf@n+2,??_powf+7
  9552  002630  C17F  F0CA         	movff	powf@n+3,??_powf+8
  9553  002634                     i2u501_45:
  9554  002634  67C6               	tstfsz	(??_powf+4)& (0+255),b
  9555  002636  D001               	goto	i2u501_46
  9556  002638  D007               	goto	i2u501_47
  9557  00263A                     i2u501_46:
  9558  00263A  35CA               	rlcf	(??_powf+8)& (0+255),w,b
  9559  00263C  33CA               	rrcf	(??_powf+8)& (0+255),f,b
  9560  00263E  33C9               	rrcf	(??_powf+7)& (0+255),f,b
  9561  002640  33C8               	rrcf	(??_powf+6)& (0+255),f,b
  9562  002642  33C7               	rrcf	(??_powf+5)& (0+255),f,b
  9563  002644  2FC6               	decfsz	(??_powf+4)& (0+255),f,b
  9564  002646  D7F6               	goto	i2u501_45
  9565  002648                     i2u501_47:
  9566  002648  0100               	movlb	0	; () banked
  9567  00264A  51C7               	movf	(??_powf+5)& (0+255),w,b
  9568  00264C  25C2               	addwf	??_powf& (0+255),w,b
  9569  00264E  0101               	movlb	1	; () banked
  9570  002650  6FA0               	movwf	powf@k& (0+255),b
  9571  002652  0E00               	movlw	0
  9572  002654  0100               	movlb	0	; () banked
  9573  002656  21C3               	addwfc	(??_powf+1)& (0+255),w,b
  9574  002658  0101               	movlb	1	; () banked
  9575  00265A  6FA1               	movwf	(powf@k+1)& (0+255),b
  9576  00265C  0E00               	movlw	0
  9577  00265E  0100               	movlb	0	; () banked
  9578  002660  21C4               	addwfc	(??_powf+2)& (0+255),w,b
  9579  002662  0101               	movlb	1	; () banked
  9580  002664  6FA2               	movwf	(powf@k+2)& (0+255),b
  9581  002666  0E00               	movlw	0
  9582  002668  0100               	movlb	0	; () banked
  9583  00266A  21C5               	addwfc	(??_powf+3)& (0+255),w,b
  9584  00266C  0101               	movlb	1	; () banked
  9585  00266E  6FA3               	movwf	(powf@k+3)& (0+255),b
  9586                           
  9587                           ; BSR set to: 1
  9588  002670  C1A0  F0C2         	movff	powf@k,??_powf
  9589  002674  0EFF               	movlw	255
  9590  002676  0100               	movlb	0	; () banked
  9591  002678  6FC3               	movwf	(??_powf+1)& (0+255),b
  9592  00267A  0EFF               	movlw	255
  9593  00267C  6FC4               	movwf	(??_powf+2)& (0+255),b
  9594  00267E  0E7F               	movlw	127
  9595  002680  6FC5               	movwf	(??_powf+3)& (0+255),b
  9596  002682  0E00               	movlw	0
  9597  002684  6FC6               	movwf	(??_powf+4)& (0+255),b
  9598  002686                     i2u502_45:
  9599  002686  67C2               	tstfsz	??_powf& (0+255),b
  9600  002688  D001               	goto	i2u502_46
  9601  00268A  D007               	goto	i2u502_47
  9602  00268C                     i2u502_46:
  9603  00268C  35C6               	rlcf	(??_powf+4)& (0+255),w,b
  9604  00268E  33C6               	rrcf	(??_powf+4)& (0+255),f,b
  9605  002690  33C5               	rrcf	(??_powf+3)& (0+255),f,b
  9606  002692  33C4               	rrcf	(??_powf+2)& (0+255),f,b
  9607  002694  33C3               	rrcf	(??_powf+1)& (0+255),f,b
  9608  002696  2FC2               	decfsz	??_powf& (0+255),f,b
  9609  002698  D7F6               	goto	i2u502_45
  9610  00269A                     i2u502_47:
  9611  00269A  0100               	movlb	0	; () banked
  9612  00269C  1DC3               	comf	(??_powf+1)& (0+255),w,b
  9613  00269E  6FC7               	movwf	(??_powf+5)& (0+255),b
  9614  0026A0  1DC4               	comf	(??_powf+2)& (0+255),w,b
  9615  0026A2  6FC8               	movwf	(??_powf+6)& (0+255),b
  9616  0026A4  1DC5               	comf	(??_powf+3)& (0+255),w,b
  9617  0026A6  6FC9               	movwf	(??_powf+7)& (0+255),b
  9618  0026A8  1DC6               	comf	(??_powf+4)& (0+255),w,b
  9619  0026AA  6FCA               	movwf	(??_powf+8)& (0+255),b
  9620  0026AC  0101               	movlb	1	; () banked
  9621  0026AE  517C               	movf	powf@n& (0+255),w,b
  9622  0026B0  0100               	movlb	0	; () banked
  9623  0026B2  15C7               	andwf	(??_powf+5)& (0+255),w,b
  9624  0026B4  0101               	movlb	1	; () banked
  9625  0026B6  6FB8               	movwf	powf@__xc8_float_word& (0+255),b
  9626  0026B8  517D               	movf	(powf@n+1)& (0+255),w,b
  9627  0026BA  0100               	movlb	0	; () banked
  9628  0026BC  15C8               	andwf	(??_powf+6)& (0+255),w,b
  9629  0026BE  0101               	movlb	1	; () banked
  9630  0026C0  6FB9               	movwf	(powf@__xc8_float_word+1)& (0+255),b
  9631  0026C2  517E               	movf	(powf@n+2)& (0+255),w,b
  9632  0026C4  0100               	movlb	0	; () banked
  9633  0026C6  15C9               	andwf	(??_powf+7)& (0+255),w,b
  9634  0026C8  0101               	movlb	1	; () banked
  9635  0026CA  6FBA               	movwf	(powf@__xc8_float_word+2)& (0+255),b
  9636  0026CC  517F               	movf	(powf@n+3)& (0+255),w,b
  9637  0026CE  0100               	movlb	0	; () banked
  9638  0026D0  15CA               	andwf	(??_powf+8)& (0+255),w,b
  9639  0026D2  0101               	movlb	1	; () banked
  9640  0026D4  6FBB               	movwf	(powf@__xc8_float_word+3)& (0+255),b
  9641                           
  9642                           ; BSR set to: 1
  9643  0026D6  C1B8  F1B0         	movff	powf@__xc8_float_word,powf@t
  9644  0026DA  C1B9  F1B1         	movff	powf@__xc8_float_word+1,powf@t+1
  9645  0026DE  C1BA  F1B2         	movff	powf@__xc8_float_word+2,powf@t+2
  9646  0026E2  C1BB  F1B3         	movff	powf@__xc8_float_word+3,powf@t+3
  9647                           
  9648                           ; BSR set to: 1
  9649  0026E6  51A0               	movf	powf@k& (0+255),w,b
  9650  0026E8  0817               	sublw	23
  9651  0026EA  0100               	movlb	0	; () banked
  9652  0026EC  6FC2               	movwf	??_powf& (0+255),b
  9653  0026EE  0EFF               	movlw	255
  9654  0026F0  0101               	movlb	1	; () banked
  9655  0026F2  157C               	andwf	powf@n& (0+255),w,b
  9656  0026F4  0100               	movlb	0	; () banked
  9657  0026F6  6FC3               	movwf	(??_powf+1)& (0+255),b
  9658  0026F8  0EFF               	movlw	255
  9659  0026FA  0101               	movlb	1	; () banked
  9660  0026FC  157D               	andwf	(powf@n+1)& (0+255),w,b
  9661  0026FE  0100               	movlb	0	; () banked
  9662  002700  6FC4               	movwf	(??_powf+2)& (0+255),b
  9663  002702  0E7F               	movlw	127
  9664  002704  0101               	movlb	1	; () banked
  9665  002706  157E               	andwf	(powf@n+2)& (0+255),w,b
  9666  002708  0100               	movlb	0	; () banked
  9667  00270A  6FC5               	movwf	(??_powf+3)& (0+255),b
  9668  00270C  0E00               	movlw	0
  9669  00270E  0101               	movlb	1	; () banked
  9670  002710  157F               	andwf	(powf@n+3)& (0+255),w,b
  9671  002712  0100               	movlb	0	; () banked
  9672  002714  6FC6               	movwf	(??_powf+4)& (0+255),b
  9673  002716  0E00               	movlw	0
  9674  002718  11C3               	iorwf	(??_powf+1)& (0+255),w,b
  9675  00271A  6FC7               	movwf	(??_powf+5)& (0+255),b
  9676  00271C  0E00               	movlw	0
  9677  00271E  11C4               	iorwf	(??_powf+2)& (0+255),w,b
  9678  002720  6FC8               	movwf	(??_powf+6)& (0+255),b
  9679  002722  0E80               	movlw	128
  9680  002724  11C5               	iorwf	(??_powf+3)& (0+255),w,b
  9681  002726  6FC9               	movwf	(??_powf+7)& (0+255),b
  9682  002728  0E00               	movlw	0
  9683  00272A  11C6               	iorwf	(??_powf+4)& (0+255),w,b
  9684  00272C  6FCA               	movwf	(??_powf+8)& (0+255),b
  9685  00272E                     i2u503_45:
  9686  00272E  67C2               	tstfsz	??_powf& (0+255),b
  9687  002730  D001               	goto	i2u503_46
  9688  002732  D007               	goto	i2u503_47
  9689  002734                     i2u503_46:
  9690  002734  35CA               	rlcf	(??_powf+8)& (0+255),w,b
  9691  002736  33CA               	rrcf	(??_powf+8)& (0+255),f,b
  9692  002738  33C9               	rrcf	(??_powf+7)& (0+255),f,b
  9693  00273A  33C8               	rrcf	(??_powf+6)& (0+255),f,b
  9694  00273C  33C7               	rrcf	(??_powf+5)& (0+255),f,b
  9695  00273E  2FC2               	decfsz	??_powf& (0+255),f,b
  9696  002740  D7F6               	goto	i2u503_45
  9697  002742                     i2u503_47:
  9698  002742  C0C7  F17C         	movff	??_powf+5,powf@n
  9699  002746  C0C8  F17D         	movff	??_powf+6,powf@n+1
  9700  00274A  C0C9  F17E         	movff	??_powf+7,powf@n+2
  9701  00274E  C0CA  F17F         	movff	??_powf+8,powf@n+3
  9702  002752  0101               	movlb	1	; () banked
  9703  002754  AFAF               	btfss	(powf@j+3)& (0+255),7,b
  9704  002756  D008               	goto	i2l4777
  9705                           
  9706                           ; BSR set to: 1
  9707  002758  1F7F               	comf	(powf@n+3)& (0+255),f,b
  9708  00275A  1F7E               	comf	(powf@n+2)& (0+255),f,b
  9709  00275C  1F7D               	comf	(powf@n+1)& (0+255),f,b
  9710  00275E  6D7C               	negf	powf@n& (0+255),b
  9711  002760  0E00               	movlw	0
  9712  002762  237D               	addwfc	(powf@n+1)& (0+255),f,b
  9713  002764  237E               	addwfc	(powf@n+2)& (0+255),f,b
  9714  002766  237F               	addwfc	(powf@n+3)& (0+255),f,b
  9715  002768                     i2l4777:
  9716                           
  9717                           ; BSR set to: 1
  9718  002768  C19C  F02A         	movff	powf@p_h,___flsub@b
  9719  00276C  C19D  F02B         	movff	powf@p_h+1,___flsub@b+1
  9720  002770  C19E  F02C         	movff	powf@p_h+2,___flsub@b+2
  9721  002774  C19F  F02D         	movff	powf@p_h+3,___flsub@b+3
  9722  002778  C1B0  F02E         	movff	powf@t,___flsub@a
  9723  00277C  C1B1  F02F         	movff	powf@t+1,___flsub@a+1
  9724  002780  C1B2  F030         	movff	powf@t+2,___flsub@a+2
  9725  002784  C1B3  F031         	movff	powf@t+3,___flsub@a+3
  9726  002788  EC3C  F02E         	call	___flsub	;wreg free
  9727  00278C  C02A  F19C         	movff	?___flsub,powf@p_h
  9728  002790  C02B  F19D         	movff	?___flsub+1,powf@p_h+1
  9729  002794  C02C  F19E         	movff	?___flsub+2,powf@p_h+2
  9730  002798  C02D  F19F         	movff	?___flsub+3,powf@p_h+3
  9731  00279C                     i2l4779:
  9732  00279C  C164  F001         	movff	powf@p_l,___fladd@b
  9733  0027A0  C165  F002         	movff	powf@p_l+1,___fladd@b+1
  9734  0027A4  C166  F003         	movff	powf@p_l+2,___fladd@b+2
  9735  0027A8  C167  F004         	movff	powf@p_l+3,___fladd@b+3
  9736  0027AC  C19C  F005         	movff	powf@p_h,___fladd@a
  9737  0027B0  C19D  F006         	movff	powf@p_h+1,___fladd@a+1
  9738  0027B4  C19E  F007         	movff	powf@p_h+2,___fladd@a+2
  9739  0027B8  C19F  F008         	movff	powf@p_h+3,___fladd@a+3
  9740  0027BC  EC5B  F01E         	call	___fladd	;wreg free
  9741  0027C0  C001  F1B0         	movff	?___fladd,powf@t
  9742  0027C4  C002  F1B1         	movff	?___fladd+1,powf@t+1
  9743  0027C8  C003  F1B2         	movff	?___fladd+2,powf@t+2
  9744  0027CC  C004  F1B3         	movff	?___fladd+3,powf@t+3
  9745  0027D0  C1B0  F1B8         	movff	powf@t,powf@__xc8_float_word
  9746  0027D4  C1B1  F1B9         	movff	powf@t+1,powf@__xc8_float_word+1
  9747  0027D8  C1B2  F1BA         	movff	powf@t+2,powf@__xc8_float_word+2
  9748  0027DC  C1B3  F1BB         	movff	powf@t+3,powf@__xc8_float_word+3
  9749  0027E0  C1B8  F190         	movff	powf@__xc8_float_word,powf@is
  9750  0027E4  C1B9  F191         	movff	powf@__xc8_float_word+1,powf@is+1
  9751  0027E8  C1BA  F192         	movff	powf@__xc8_float_word+2,powf@is+2
  9752  0027EC  C1BB  F193         	movff	powf@__xc8_float_word+3,powf@is+3
  9753  0027F0  0E00               	movlw	0
  9754  0027F2  0101               	movlb	1	; () banked
  9755  0027F4  1590               	andwf	powf@is& (0+255),w,b
  9756  0027F6  6FB8               	movwf	powf@__xc8_float_word& (0+255),b
  9757  0027F8  0E80               	movlw	128
  9758  0027FA  1591               	andwf	(powf@is+1)& (0+255),w,b
  9759  0027FC  6FB9               	movwf	(powf@__xc8_float_word+1)& (0+255),b
  9760  0027FE  0EFF               	movlw	255
  9761  002800  1592               	andwf	(powf@is+2)& (0+255),w,b
  9762  002802  6FBA               	movwf	(powf@__xc8_float_word+2)& (0+255),b
  9763  002804  0EFF               	movlw	255
  9764  002806  1593               	andwf	(powf@is+3)& (0+255),w,b
  9765  002808  6FBB               	movwf	(powf@__xc8_float_word+3)& (0+255),b
  9766                           
  9767                           ; BSR set to: 1
  9768  00280A  C1B8  F1B0         	movff	powf@__xc8_float_word,powf@t
  9769  00280E  C1B9  F1B1         	movff	powf@__xc8_float_word+1,powf@t+1
  9770  002812  C1BA  F1B2         	movff	powf@__xc8_float_word+2,powf@t+2
  9771  002816  C1BB  F1B3         	movff	powf@__xc8_float_word+3,powf@t+3
  9772                           
  9773                           ; BSR set to: 1
  9774  00281A  C1B0  F011         	movff	powf@t,___flmul@b
  9775  00281E  C1B1  F012         	movff	powf@t+1,___flmul@b+1
  9776  002822  C1B2  F013         	movff	powf@t+2,___flmul@b+2
  9777  002826  C1B3  F014         	movff	powf@t+3,___flmul@b+3
  9778  00282A  0E00               	movlw	0
  9779  00282C  6E15               	movwf	___flmul@a^0,c
  9780  00282E  0E72               	movlw	114
  9781  002830  6E16               	movwf	(___flmul@a+1)^0,c
  9782  002832  0E31               	movlw	49
  9783  002834  6E17               	movwf	(___flmul@a+2)^0,c
  9784  002836  0E3F               	movlw	63
  9785  002838  6E18               	movwf	(___flmul@a+3)^0,c
  9786  00283A  ECB2  F01C         	call	___flmul	;wreg free
  9787  00283E  C011  F174         	movff	?___flmul,powf@u
  9788  002842  C012  F175         	movff	?___flmul+1,powf@u+1
  9789  002846  C013  F176         	movff	?___flmul+2,powf@u+2
  9790  00284A  C014  F177         	movff	?___flmul+3,powf@u+3
  9791  00284E  C19C  F02E         	movff	powf@p_h,___flsub@a
  9792  002852  C19D  F02F         	movff	powf@p_h+1,___flsub@a+1
  9793  002856  C19E  F030         	movff	powf@p_h+2,___flsub@a+2
  9794  00285A  C19F  F031         	movff	powf@p_h+3,___flsub@a+3
  9795  00285E  C1B0  F02A         	movff	powf@t,___flsub@b
  9796  002862  C1B1  F02B         	movff	powf@t+1,___flsub@b+1
  9797  002866  C1B2  F02C         	movff	powf@t+2,___flsub@b+2
  9798  00286A  C1B3  F02D         	movff	powf@t+3,___flsub@b+3
  9799  00286E  EC3C  F02E         	call	___flsub	;wreg free
  9800  002872  C02A  F194         	movff	?___flsub,_powf$2138
  9801  002876  C02B  F195         	movff	?___flsub+1,_powf$2138+1
  9802  00287A  C02C  F196         	movff	?___flsub+2,_powf$2138+2
  9803  00287E  C02D  F197         	movff	?___flsub+3,_powf$2138+3
  9804  002882  0E18               	movlw	24
  9805  002884  6E15               	movwf	___flmul@a^0,c
  9806  002886  0E72               	movlw	114
  9807  002888  6E16               	movwf	(___flmul@a+1)^0,c
  9808  00288A  0E31               	movlw	49
  9809  00288C  6E17               	movwf	(___flmul@a+2)^0,c
  9810  00288E  0E3F               	movlw	63
  9811  002890  6E18               	movwf	(___flmul@a+3)^0,c
  9812  002892  C194  F02E         	movff	_powf$2138,___flsub@a
  9813  002896  C195  F02F         	movff	_powf$2138+1,___flsub@a+1
  9814  00289A  C196  F030         	movff	_powf$2138+2,___flsub@a+2
  9815  00289E  C197  F031         	movff	_powf$2138+3,___flsub@a+3
  9816  0028A2  C164  F02A         	movff	powf@p_l,___flsub@b
  9817  0028A6  C165  F02B         	movff	powf@p_l+1,___flsub@b+1
  9818  0028AA  C166  F02C         	movff	powf@p_l+2,___flsub@b+2
  9819  0028AE  C167  F02D         	movff	powf@p_l+3,___flsub@b+3
  9820  0028B2  EC3C  F02E         	call	___flsub	;wreg free
  9821  0028B6  C02A  F011         	movff	?___flsub,___flmul@b
  9822  0028BA  C02B  F012         	movff	?___flsub+1,___flmul@b+1
  9823  0028BE  C02C  F013         	movff	?___flsub+2,___flmul@b+2
  9824  0028C2  C02D  F014         	movff	?___flsub+3,___flmul@b+3
  9825  0028C6  ECB2  F01C         	call	___flmul	;wreg free
  9826  0028CA  C011  F114         	movff	?___flmul,_powf$2148
  9827  0028CE  C012  F115         	movff	?___flmul+1,_powf$2148+1
  9828  0028D2  C013  F116         	movff	?___flmul+2,_powf$2148+2
  9829  0028D6  C014  F117         	movff	?___flmul+3,_powf$2148+3
  9830  0028DA  C114  F001         	movff	_powf$2148,___fladd@b
  9831  0028DE  C115  F002         	movff	_powf$2148+1,___fladd@b+1
  9832  0028E2  C116  F003         	movff	_powf$2148+2,___fladd@b+2
  9833  0028E6  C117  F004         	movff	_powf$2148+3,___fladd@b+3
  9834  0028EA  0E8C               	movlw	140
  9835  0028EC  6E15               	movwf	___flmul@a^0,c
  9836  0028EE  0EBE               	movlw	190
  9837  0028F0  6E16               	movwf	(___flmul@a+1)^0,c
  9838  0028F2  0EBF               	movlw	191
  9839  0028F4  6E17               	movwf	(___flmul@a+2)^0,c
  9840  0028F6  0E35               	movlw	53
  9841  0028F8  6E18               	movwf	(___flmul@a+3)^0,c
  9842  0028FA  C1B0  F011         	movff	powf@t,___flmul@b
  9843  0028FE  C1B1  F012         	movff	powf@t+1,___flmul@b+1
  9844  002902  C1B2  F013         	movff	powf@t+2,___flmul@b+2
  9845  002906  C1B3  F014         	movff	powf@t+3,___flmul@b+3
  9846  00290A  ECB2  F01C         	call	___flmul	;wreg free
  9847  00290E  C011  F005         	movff	?___flmul,___fladd@a
  9848  002912  C012  F006         	movff	?___flmul+1,___fladd@a+1
  9849  002916  C013  F007         	movff	?___flmul+2,___fladd@a+2
  9850  00291A  C014  F008         	movff	?___flmul+3,___fladd@a+3
  9851  00291E  EC5B  F01E         	call	___fladd	;wreg free
  9852  002922  C001  F178         	movff	?___fladd,powf@v
  9853  002926  C002  F179         	movff	?___fladd+1,powf@v+1
  9854  00292A  C003  F17A         	movff	?___fladd+2,powf@v+2
  9855  00292E  C004  F17B         	movff	?___fladd+3,powf@v+3
  9856  002932  C174  F001         	movff	powf@u,___fladd@b
  9857  002936  C175  F002         	movff	powf@u+1,___fladd@b+1
  9858  00293A  C176  F003         	movff	powf@u+2,___fladd@b+2
  9859  00293E  C177  F004         	movff	powf@u+3,___fladd@b+3
  9860  002942  C178  F005         	movff	powf@v,___fladd@a
  9861  002946  C179  F006         	movff	powf@v+1,___fladd@a+1
  9862  00294A  C17A  F007         	movff	powf@v+2,___fladd@a+2
  9863  00294E  C17B  F008         	movff	powf@v+3,___fladd@a+3
  9864  002952  EC5B  F01E         	call	___fladd	;wreg free
  9865  002956  C001  F1B4         	movff	?___fladd,powf@z
  9866  00295A  C002  F1B5         	movff	?___fladd+1,powf@z+1
  9867  00295E  C003  F1B6         	movff	?___fladd+2,powf@z+2
  9868  002962  C004  F1B7         	movff	?___fladd+3,powf@z+3
  9869  002966  C174  F02E         	movff	powf@u,___flsub@a
  9870  00296A  C175  F02F         	movff	powf@u+1,___flsub@a+1
  9871  00296E  C176  F030         	movff	powf@u+2,___flsub@a+2
  9872  002972  C177  F031         	movff	powf@u+3,___flsub@a+3
  9873  002976  C1B4  F02A         	movff	powf@z,___flsub@b
  9874  00297A  C1B5  F02B         	movff	powf@z+1,___flsub@b+1
  9875  00297E  C1B6  F02C         	movff	powf@z+2,___flsub@b+2
  9876  002982  C1B7  F02D         	movff	powf@z+3,___flsub@b+3
  9877  002986  EC3C  F02E         	call	___flsub	;wreg free
  9878  00298A  C02A  F194         	movff	?___flsub,_powf$2138
  9879  00298E  C02B  F195         	movff	?___flsub+1,_powf$2138+1
  9880  002992  C02C  F196         	movff	?___flsub+2,_powf$2138+2
  9881  002996  C02D  F197         	movff	?___flsub+3,_powf$2138+3
  9882  00299A  C178  F02A         	movff	powf@v,___flsub@b
  9883  00299E  C179  F02B         	movff	powf@v+1,___flsub@b+1
  9884  0029A2  C17A  F02C         	movff	powf@v+2,___flsub@b+2
  9885  0029A6  C17B  F02D         	movff	powf@v+3,___flsub@b+3
  9886  0029AA  C194  F02E         	movff	_powf$2138,___flsub@a
  9887  0029AE  C195  F02F         	movff	_powf$2138+1,___flsub@a+1
  9888  0029B2  C196  F030         	movff	_powf$2138+2,___flsub@a+2
  9889  0029B6  C197  F031         	movff	_powf$2138+3,___flsub@a+3
  9890  0029BA  EC3C  F02E         	call	___flsub	;wreg free
  9891  0029BE  C02A  F144         	movff	?___flsub,powf@w
  9892  0029C2  C02B  F145         	movff	?___flsub+1,powf@w+1
  9893  0029C6  C02C  F146         	movff	?___flsub+2,powf@w+2
  9894  0029CA  C02D  F147         	movff	?___flsub+3,powf@w+3
  9895  0029CE  C1B4  F011         	movff	powf@z,___flmul@b
  9896  0029D2  C1B5  F012         	movff	powf@z+1,___flmul@b+1
  9897  0029D6  C1B6  F013         	movff	powf@z+2,___flmul@b+2
  9898  0029DA  C1B7  F014         	movff	powf@z+3,___flmul@b+3
  9899  0029DE  C1B4  F015         	movff	powf@z,___flmul@a
  9900  0029E2  C1B5  F016         	movff	powf@z+1,___flmul@a+1
  9901  0029E6  C1B6  F017         	movff	powf@z+2,___flmul@a+2
  9902  0029EA  C1B7  F018         	movff	powf@z+3,___flmul@a+3
  9903  0029EE  ECB2  F01C         	call	___flmul	;wreg free
  9904  0029F2  C011  F1B0         	movff	?___flmul,powf@t
  9905  0029F6  C012  F1B1         	movff	?___flmul+1,powf@t+1
  9906  0029FA  C013  F1B2         	movff	?___flmul+2,powf@t+2
  9907  0029FE  C014  F1B3         	movff	?___flmul+3,powf@t+3
  9908  002A02  0E0E               	movlw	14
  9909  002A04  6E05               	movwf	___fladd@a^0,c
  9910  002A06  0EEA               	movlw	234
  9911  002A08  6E06               	movwf	(___fladd@a+1)^0,c
  9912  002A0A  0EDD               	movlw	221
  9913  002A0C  6E07               	movwf	(___fladd@a+2)^0,c
  9914  002A0E  0EB5               	movlw	181
  9915  002A10  6E08               	movwf	(___fladd@a+3)^0,c
  9916  002A12  0E4C               	movlw	76
  9917  002A14  6E15               	movwf	___flmul@a^0,c
  9918  002A16  0EBB               	movlw	187
  9919  002A18  6E16               	movwf	(___flmul@a+1)^0,c
  9920  002A1A  0E31               	movlw	49
  9921  002A1C  6E17               	movwf	(___flmul@a+2)^0,c
  9922  002A1E  0E33               	movlw	51
  9923  002A20  6E18               	movwf	(___flmul@a+3)^0,c
  9924  002A22  C1B0  F011         	movff	powf@t,___flmul@b
  9925  002A26  C1B1  F012         	movff	powf@t+1,___flmul@b+1
  9926  002A2A  C1B2  F013         	movff	powf@t+2,___flmul@b+2
  9927  002A2E  C1B3  F014         	movff	powf@t+3,___flmul@b+3
  9928  002A32  ECB2  F01C         	call	___flmul	;wreg free
  9929  002A36  C011  F001         	movff	?___flmul,___fladd@b
  9930  002A3A  C012  F002         	movff	?___flmul+1,___fladd@b+1
  9931  002A3E  C013  F003         	movff	?___flmul+2,___fladd@b+2
  9932  002A42  C014  F004         	movff	?___flmul+3,___fladd@b+3
  9933  002A46  EC5B  F01E         	call	___fladd	;wreg free
  9934  002A4A  C001  F1A4         	movff	?___fladd,_powf$2135
  9935  002A4E  C002  F1A5         	movff	?___fladd+1,_powf$2135+1
  9936  002A52  C003  F1A6         	movff	?___fladd+2,_powf$2135+2
  9937  002A56  C004  F1A7         	movff	?___fladd+3,_powf$2135+3
  9938  002A5A  0E55               	movlw	85
  9939  002A5C  6E05               	movwf	___fladd@a^0,c
  9940  002A5E  0EB3               	movlw	179
  9941  002A60  6E06               	movwf	(___fladd@a+1)^0,c
  9942  002A62  0E8A               	movlw	138
  9943  002A64  6E07               	movwf	(___fladd@a+2)^0,c
  9944  002A66  0E38               	movlw	56
  9945  002A68  6E08               	movwf	(___fladd@a+3)^0,c
  9946  002A6A  C1B0  F015         	movff	powf@t,___flmul@a
  9947  002A6E  C1B1  F016         	movff	powf@t+1,___flmul@a+1
  9948  002A72  C1B2  F017         	movff	powf@t+2,___flmul@a+2
  9949  002A76  C1B3  F018         	movff	powf@t+3,___flmul@a+3
  9950  002A7A  C1A4  F011         	movff	_powf$2135,___flmul@b
  9951  002A7E  C1A5  F012         	movff	_powf$2135+1,___flmul@b+1
  9952  002A82  C1A6  F013         	movff	_powf$2135+2,___flmul@b+2
  9953  002A86  C1A7  F014         	movff	_powf$2135+3,___flmul@b+3
  9954  002A8A  ECB2  F01C         	call	___flmul	;wreg free
  9955  002A8E  C011  F001         	movff	?___flmul,___fladd@b
  9956  002A92  C012  F002         	movff	?___flmul+1,___fladd@b+1
  9957  002A96  C013  F003         	movff	?___flmul+2,___fladd@b+2
  9958  002A9A  C014  F004         	movff	?___flmul+3,___fladd@b+3
  9959  002A9E  EC5B  F01E         	call	___fladd	;wreg free
  9960  002AA2  C001  F154         	movff	?___fladd,_powf$2136
  9961  002AA6  C002  F155         	movff	?___fladd+1,_powf$2136+1
  9962  002AAA  C003  F156         	movff	?___fladd+2,_powf$2136+2
  9963  002AAE  C004  F157         	movff	?___fladd+3,_powf$2136+3
  9964  002AB2  0E61               	movlw	97
  9965  002AB4  6E05               	movwf	___fladd@a^0,c
  9966  002AB6  0E0B               	movlw	11
  9967  002AB8  6E06               	movwf	(___fladd@a+1)^0,c
  9968  002ABA  0E36               	movlw	54
  9969  002ABC  6E07               	movwf	(___fladd@a+2)^0,c
  9970  002ABE  0EBB               	movlw	187
  9971  002AC0  6E08               	movwf	(___fladd@a+3)^0,c
  9972  002AC2  C1B0  F015         	movff	powf@t,___flmul@a
  9973  002AC6  C1B1  F016         	movff	powf@t+1,___flmul@a+1
  9974  002ACA  C1B2  F017         	movff	powf@t+2,___flmul@a+2
  9975  002ACE  C1B3  F018         	movff	powf@t+3,___flmul@a+3
  9976  002AD2  C154  F011         	movff	_powf$2136,___flmul@b
  9977  002AD6  C155  F012         	movff	_powf$2136+1,___flmul@b+1
  9978  002ADA  C156  F013         	movff	_powf$2136+2,___flmul@b+2
  9979  002ADE  C157  F014         	movff	_powf$2136+3,___flmul@b+3
  9980  002AE2  ECB2  F01C         	call	___flmul	;wreg free
  9981  002AE6  C011  F001         	movff	?___flmul,___fladd@b
  9982  002AEA  C012  F002         	movff	?___flmul+1,___fladd@b+1
  9983  002AEE  C013  F003         	movff	?___flmul+2,___fladd@b+2
  9984  002AF2  C014  F004         	movff	?___flmul+3,___fladd@b+3
  9985  002AF6  EC5B  F01E         	call	___fladd	;wreg free
  9986  002AFA  C001  F148         	movff	?___fladd,_powf$2137
  9987  002AFE  C002  F149         	movff	?___fladd+1,_powf$2137+1
  9988  002B02  C003  F14A         	movff	?___fladd+2,_powf$2137+2
  9989  002B06  C004  F14B         	movff	?___fladd+3,_powf$2137+3
  9990  002B0A  0EAB               	movlw	171
  9991  002B0C  6E05               	movwf	___fladd@a^0,c
  9992  002B0E  0EAA               	movlw	170
  9993  002B10  6E06               	movwf	(___fladd@a+1)^0,c
  9994  002B12  0E2A               	movlw	42
  9995  002B14  6E07               	movwf	(___fladd@a+2)^0,c
  9996  002B16  0E3E               	movlw	62
  9997  002B18  6E08               	movwf	(___fladd@a+3)^0,c
  9998  002B1A  C1B0  F015         	movff	powf@t,___flmul@a
  9999  002B1E  C1B1  F016         	movff	powf@t+1,___flmul@a+1
 10000  002B22  C1B2  F017         	movff	powf@t+2,___flmul@a+2
 10001  002B26  C1B3  F018         	movff	powf@t+3,___flmul@a+3
 10002  002B2A  C148  F011         	movff	_powf$2137,___flmul@b
 10003  002B2E  C149  F012         	movff	_powf$2137+1,___flmul@b+1
 10004  002B32  C14A  F013         	movff	_powf$2137+2,___flmul@b+2
 10005  002B36  C14B  F014         	movff	_powf$2137+3,___flmul@b+3
 10006  002B3A  ECB2  F01C         	call	___flmul	;wreg free
 10007  002B3E  C011  F001         	movff	?___flmul,___fladd@b
 10008  002B42  C012  F002         	movff	?___flmul+1,___fladd@b+1
 10009  002B46  C013  F003         	movff	?___flmul+2,___fladd@b+2
 10010  002B4A  C014  F004         	movff	?___flmul+3,___fladd@b+3
 10011  002B4E  EC5B  F01E         	call	___fladd	;wreg free
 10012  002B52  C001  F138         	movff	?___fladd,_powf$2139
 10013  002B56  C002  F139         	movff	?___fladd+1,_powf$2139+1
 10014  002B5A  C003  F13A         	movff	?___fladd+2,_powf$2139+2
 10015  002B5E  C004  F13B         	movff	?___fladd+3,_powf$2139+3
 10016  002B62  C1B4  F02A         	movff	powf@z,___flsub@b
 10017  002B66  C1B5  F02B         	movff	powf@z+1,___flsub@b+1
 10018  002B6A  C1B6  F02C         	movff	powf@z+2,___flsub@b+2
 10019  002B6E  C1B7  F02D         	movff	powf@z+3,___flsub@b+3
 10020  002B72  C1B0  F015         	movff	powf@t,___flmul@a
 10021  002B76  C1B1  F016         	movff	powf@t+1,___flmul@a+1
 10022  002B7A  C1B2  F017         	movff	powf@t+2,___flmul@a+2
 10023  002B7E  C1B3  F018         	movff	powf@t+3,___flmul@a+3
 10024  002B82  C138  F011         	movff	_powf$2139,___flmul@b
 10025  002B86  C139  F012         	movff	_powf$2139+1,___flmul@b+1
 10026  002B8A  C13A  F013         	movff	_powf$2139+2,___flmul@b+2
 10027  002B8E  C13B  F014         	movff	_powf$2139+3,___flmul@b+3
 10028  002B92  ECB2  F01C         	call	___flmul	;wreg free
 10029  002B96  C011  F02E         	movff	?___flmul,___flsub@a
 10030  002B9A  C012  F02F         	movff	?___flmul+1,___flsub@a+1
 10031  002B9E  C013  F030         	movff	?___flmul+2,___flsub@a+2
 10032  002BA2  C014  F031         	movff	?___flmul+3,___flsub@a+3
 10033  002BA6  EC3C  F02E         	call	___flsub	;wreg free
 10034  002BAA  C02A  F180         	movff	?___flsub,powf@t1
 10035  002BAE  C02B  F181         	movff	?___flsub+1,powf@t1+1
 10036  002BB2  C02C  F182         	movff	?___flsub+2,powf@t1+2
 10037  002BB6  C02D  F183         	movff	?___flsub+3,powf@t1+3
 10038  002BBA  0E00               	movlw	0
 10039  002BBC  6E05               	movwf	___fladd@a^0,c
 10040  002BBE  0E00               	movlw	0
 10041  002BC0  6E06               	movwf	(___fladd@a+1)^0,c
 10042  002BC2  0E00               	movlw	0
 10043  002BC4  6E07               	movwf	(___fladd@a+2)^0,c
 10044  002BC6  0EC0               	movlw	192
 10045  002BC8  6E08               	movwf	(___fladd@a+3)^0,c
 10046  002BCA  C180  F001         	movff	powf@t1,___fladd@b
 10047  002BCE  C181  F002         	movff	powf@t1+1,___fladd@b+1
 10048  002BD2  C182  F003         	movff	powf@t1+2,___fladd@b+2
 10049  002BD6  C183  F004         	movff	powf@t1+3,___fladd@b+3
 10050  002BDA  EC5B  F01E         	call	___fladd	;wreg free
 10051  002BDE  C001  F036         	movff	?___fladd,___fldiv@a
 10052  002BE2  C002  F037         	movff	?___fladd+1,___fldiv@a+1
 10053  002BE6  C003  F038         	movff	?___fladd+2,___fldiv@a+2
 10054  002BEA  C004  F039         	movff	?___fladd+3,___fldiv@a+3
 10055  002BEE  C180  F015         	movff	powf@t1,___flmul@a
 10056  002BF2  C181  F016         	movff	powf@t1+1,___flmul@a+1
 10057  002BF6  C182  F017         	movff	powf@t1+2,___flmul@a+2
 10058  002BFA  C183  F018         	movff	powf@t1+3,___flmul@a+3
 10059  002BFE  C1B4  F011         	movff	powf@z,___flmul@b
 10060  002C02  C1B5  F012         	movff	powf@z+1,___flmul@b+1
 10061  002C06  C1B6  F013         	movff	powf@z+2,___flmul@b+2
 10062  002C0A  C1B7  F014         	movff	powf@z+3,___flmul@b+3
 10063  002C0E  ECB2  F01C         	call	___flmul	;wreg free
 10064  002C12  C011  F032         	movff	?___flmul,___fldiv@b
 10065  002C16  C012  F033         	movff	?___flmul+1,___fldiv@b+1
 10066  002C1A  C013  F034         	movff	?___flmul+2,___fldiv@b+2
 10067  002C1E  C014  F035         	movff	?___flmul+3,___fldiv@b+3
 10068  002C22  EC4B  F021         	call	___fldiv	;wreg free
 10069  002C26  C032  F13C         	movff	?___fldiv,_powf$2143
 10070  002C2A  C033  F13D         	movff	?___fldiv+1,_powf$2143+1
 10071  002C2E  C034  F13E         	movff	?___fldiv+2,_powf$2143+2
 10072  002C32  C035  F13F         	movff	?___fldiv+3,_powf$2143+3
 10073  002C36  C144  F005         	movff	powf@w,___fladd@a
 10074  002C3A  C145  F006         	movff	powf@w+1,___fladd@a+1
 10075  002C3E  C146  F007         	movff	powf@w+2,___fladd@a+2
 10076  002C42  C147  F008         	movff	powf@w+3,___fladd@a+3
 10077  002C46  C144  F015         	movff	powf@w,___flmul@a
 10078  002C4A  C145  F016         	movff	powf@w+1,___flmul@a+1
 10079  002C4E  C146  F017         	movff	powf@w+2,___flmul@a+2
 10080  002C52  C147  F018         	movff	powf@w+3,___flmul@a+3
 10081  002C56  C1B4  F011         	movff	powf@z,___flmul@b
 10082  002C5A  C1B5  F012         	movff	powf@z+1,___flmul@b+1
 10083  002C5E  C1B6  F013         	movff	powf@z+2,___flmul@b+2
 10084  002C62  C1B7  F014         	movff	powf@z+3,___flmul@b+3
 10085  002C66  ECB2  F01C         	call	___flmul	;wreg free
 10086  002C6A  C011  F001         	movff	?___flmul,___fladd@b
 10087  002C6E  C012  F002         	movff	?___flmul+1,___fladd@b+1
 10088  002C72  C013  F003         	movff	?___flmul+2,___fladd@b+2
 10089  002C76  C014  F004         	movff	?___flmul+3,___fladd@b+3
 10090  002C7A  EC5B  F01E         	call	___fladd	;wreg free
 10091  002C7E  C001  F118         	movff	?___fladd,_powf$2149
 10092  002C82  C002  F119         	movff	?___fladd+1,_powf$2149+1
 10093  002C86  C003  F11A         	movff	?___fladd+2,_powf$2149+2
 10094  002C8A  C004  F11B         	movff	?___fladd+3,_powf$2149+3
 10095  002C8E  C13C  F02A         	movff	_powf$2143,___flsub@b
 10096  002C92  C13D  F02B         	movff	_powf$2143+1,___flsub@b+1
 10097  002C96  C13E  F02C         	movff	_powf$2143+2,___flsub@b+2
 10098  002C9A  C13F  F02D         	movff	_powf$2143+3,___flsub@b+3
 10099  002C9E  C118  F02E         	movff	_powf$2149,___flsub@a
 10100  002CA2  C119  F02F         	movff	_powf$2149+1,___flsub@a+1
 10101  002CA6  C11A  F030         	movff	_powf$2149+2,___flsub@a+2
 10102  002CAA  C11B  F031         	movff	_powf$2149+3,___flsub@a+3
 10103  002CAE  EC3C  F02E         	call	___flsub	;wreg free
 10104  002CB2  C02A  F14C         	movff	?___flsub,powf@r
 10105  002CB6  C02B  F14D         	movff	?___flsub+1,powf@r+1
 10106  002CBA  C02C  F14E         	movff	?___flsub+2,powf@r+2
 10107  002CBE  C02D  F14F         	movff	?___flsub+3,powf@r+3
 10108  002CC2  C1B4  F02E         	movff	powf@z,___flsub@a
 10109  002CC6  C1B5  F02F         	movff	powf@z+1,___flsub@a+1
 10110  002CCA  C1B6  F030         	movff	powf@z+2,___flsub@a+2
 10111  002CCE  C1B7  F031         	movff	powf@z+3,___flsub@a+3
 10112  002CD2  C14C  F02A         	movff	powf@r,___flsub@b
 10113  002CD6  C14D  F02B         	movff	powf@r+1,___flsub@b+1
 10114  002CDA  C14E  F02C         	movff	powf@r+2,___flsub@b+2
 10115  002CDE  C14F  F02D         	movff	powf@r+3,___flsub@b+3
 10116  002CE2  EC3C  F02E         	call	___flsub	;wreg free
 10117  002CE6  C02A  F194         	movff	?___flsub,_powf$2138
 10118  002CEA  C02B  F195         	movff	?___flsub+1,_powf$2138+1
 10119  002CEE  C02C  F196         	movff	?___flsub+2,_powf$2138+2
 10120  002CF2  C02D  F197         	movff	?___flsub+3,_powf$2138+3
 10121  002CF6  0E00               	movlw	0
 10122  002CF8  6E2A               	movwf	___flsub@b^0,c
 10123  002CFA  0E00               	movlw	0
 10124  002CFC  6E2B               	movwf	(___flsub@b+1)^0,c
 10125  002CFE  0E80               	movlw	128
 10126  002D00  6E2C               	movwf	(___flsub@b+2)^0,c
 10127  002D02  0E3F               	movlw	63
 10128  002D04  6E2D               	movwf	(___flsub@b+3)^0,c
 10129  002D06  C194  F02E         	movff	_powf$2138,___flsub@a
 10130  002D0A  C195  F02F         	movff	_powf$2138+1,___flsub@a+1
 10131  002D0E  C196  F030         	movff	_powf$2138+2,___flsub@a+2
 10132  002D12  C197  F031         	movff	_powf$2138+3,___flsub@a+3
 10133  002D16  EC3C  F02E         	call	___flsub	;wreg free
 10134  002D1A  C02A  F1B4         	movff	?___flsub,powf@z
 10135  002D1E  C02B  F1B5         	movff	?___flsub+1,powf@z+1
 10136  002D22  C02C  F1B6         	movff	?___flsub+2,powf@z+2
 10137  002D26  C02D  F1B7         	movff	?___flsub+3,powf@z+3
 10138  002D2A  C1B4  F1B8         	movff	powf@z,powf@__xc8_float_word
 10139  002D2E  C1B5  F1B9         	movff	powf@z+1,powf@__xc8_float_word+1
 10140  002D32  C1B6  F1BA         	movff	powf@z+2,powf@__xc8_float_word+2
 10141  002D36  C1B7  F1BB         	movff	powf@z+3,powf@__xc8_float_word+3
 10142  002D3A  C1B8  F1AC         	movff	powf@__xc8_float_word,powf@j
 10143  002D3E  C1B9  F1AD         	movff	powf@__xc8_float_word+1,powf@j+1
 10144  002D42  C1BA  F1AE         	movff	powf@__xc8_float_word+2,powf@j+2
 10145  002D46  C1BB  F1AF         	movff	powf@__xc8_float_word+3,powf@j+3
 10146  002D4A  C17C  F0C2         	movff	powf@n,??_powf
 10147  002D4E  C17D  F0C3         	movff	powf@n+1,??_powf+1
 10148  002D52  C17E  F0C4         	movff	powf@n+2,??_powf+2
 10149  002D56  C17F  F0C5         	movff	powf@n+3,??_powf+3
 10150  002D5A  0E17               	movlw	23
 10151  002D5C                     i2u505_45:
 10152  002D5C  90D8               	bcf	status,0,c
 10153  002D5E  0100               	movlb	0	; () banked
 10154  002D60  37C2               	rlcf	??_powf& (0+255),f,b
 10155  002D62  37C3               	rlcf	(??_powf+1)& (0+255),f,b
 10156  002D64  37C4               	rlcf	(??_powf+2)& (0+255),f,b
 10157  002D66  37C5               	rlcf	(??_powf+3)& (0+255),f,b
 10158  002D68  2EE8               	decfsz	wreg,f,c
 10159  002D6A  D7F8               	goto	i2u505_45
 10160  002D6C  51C2               	movf	??_powf& (0+255),w,b
 10161  002D6E  0101               	movlb	1	; () banked
 10162  002D70  27AC               	addwf	powf@j& (0+255),f,b
 10163  002D72  0100               	movlb	0	; () banked
 10164  002D74  51C3               	movf	(??_powf+1)& (0+255),w,b
 10165  002D76  0101               	movlb	1	; () banked
 10166  002D78  23AD               	addwfc	(powf@j+1)& (0+255),f,b
 10167  002D7A  0100               	movlb	0	; () banked
 10168  002D7C  51C4               	movf	(??_powf+2)& (0+255),w,b
 10169  002D7E  0101               	movlb	1	; () banked
 10170  002D80  23AE               	addwfc	(powf@j+2)& (0+255),f,b
 10171  002D82  0100               	movlb	0	; () banked
 10172  002D84  51C5               	movf	(??_powf+3)& (0+255),w,b
 10173  002D86  0101               	movlb	1	; () banked
 10174  002D88  23AF               	addwfc	(powf@j+3)& (0+255),f,b
 10175                           
 10176                           ; BSR set to: 1
 10177  002D8A  0E17               	movlw	23
 10178  002D8C  0100               	movlb	0	; () banked
 10179  002D8E  6FC2               	movwf	??_powf& (0+255),b
 10180  002D90  C1AC  F0C3         	movff	powf@j,??_powf+1
 10181  002D94  C1AD  F0C4         	movff	powf@j+1,??_powf+2
 10182  002D98  C1AE  F0C5         	movff	powf@j+2,??_powf+3
 10183  002D9C  C1AF  F0C6         	movff	powf@j+3,??_powf+4
 10184  002DA0                     i2u506_45:
 10185  002DA0  67C2               	tstfsz	??_powf& (0+255),b
 10186  002DA2  D001               	goto	i2u506_46
 10187  002DA4  D007               	goto	i2u506_47
 10188  002DA6                     i2u506_46:
 10189  002DA6  35C6               	rlcf	(??_powf+4)& (0+255),w,b
 10190  002DA8  33C6               	rrcf	(??_powf+4)& (0+255),f,b
 10191  002DAA  33C5               	rrcf	(??_powf+3)& (0+255),f,b
 10192  002DAC  33C4               	rrcf	(??_powf+2)& (0+255),f,b
 10193  002DAE  33C3               	rrcf	(??_powf+1)& (0+255),f,b
 10194  002DB0  2FC2               	decfsz	??_powf& (0+255),f,b
 10195  002DB2  D7F6               	goto	i2u506_45
 10196  002DB4                     i2u506_47:
 10197  002DB4  0100               	movlb	0	; () banked
 10198  002DB6  BFC6               	btfsc	(??_powf+4)& (0+255),7,b
 10199  002DB8  D007               	goto	i2u507_40
 10200  002DBA  51C6               	movf	(??_powf+4)& (0+255),w,b
 10201  002DBC  11C5               	iorwf	(??_powf+3)& (0+255),w,b
 10202  002DBE  11C4               	iorwf	(??_powf+2)& (0+255),w,b
 10203  002DC0  E11A               	bnz	i2l1371
 10204  002DC2  05C3               	decf	(??_powf+1)& (0+255),w,b
 10205  002DC4  B0D8               	btfsc	status,0,c
 10206  002DC6  D017               	goto	i2l1371
 10207  002DC8                     i2u507_40:
 10208                           
 10209                           ; BSR set to: 0
 10210  002DC8  C1B4  F02A         	movff	powf@z,scalbnf@x
 10211  002DCC  C1B5  F02B         	movff	powf@z+1,scalbnf@x+1
 10212  002DD0  C1B6  F02C         	movff	powf@z+2,scalbnf@x+2
 10213  002DD4  C1B7  F02D         	movff	powf@z+3,scalbnf@x+3
 10214  002DD8  C17C  F02E         	movff	powf@n,scalbnf@n
 10215  002DDC  C17D  F02F         	movff	powf@n+1,scalbnf@n+1
 10216  002DE0  EC0D  F026         	call	_scalbnf	;wreg free
 10217  002DE4  C02A  F1B4         	movff	?_scalbnf,powf@z
 10218  002DE8  C02B  F1B5         	movff	?_scalbnf+1,powf@z+1
 10219  002DEC  C02C  F1B6         	movff	?_scalbnf+2,powf@z+2
 10220  002DF0  C02D  F1B7         	movff	?_scalbnf+3,powf@z+3
 10221  002DF4  D010               	goto	i2l4835
 10222  002DF6                     i2l1371:
 10223                           
 10224                           ; BSR set to: 0
 10225  002DF6  C1AC  F1B8         	movff	powf@j,powf@__xc8_float_word
 10226  002DFA  C1AD  F1B9         	movff	powf@j+1,powf@__xc8_float_word+1
 10227  002DFE  C1AE  F1BA         	movff	powf@j+2,powf@__xc8_float_word+2
 10228  002E02  C1AF  F1BB         	movff	powf@j+3,powf@__xc8_float_word+3
 10229  002E06  C1B8  F1B4         	movff	powf@__xc8_float_word,powf@z
 10230  002E0A  C1B9  F1B5         	movff	powf@__xc8_float_word+1,powf@z+1
 10231  002E0E  C1BA  F1B6         	movff	powf@__xc8_float_word+2,powf@z+2
 10232  002E12  C1BB  F1B7         	movff	powf@__xc8_float_word+3,powf@z+3
 10233  002E16                     i2l4835:
 10234  002E16  C188  F011         	movff	powf@sn,___flmul@b
 10235  002E1A  C189  F012         	movff	powf@sn+1,___flmul@b+1
 10236  002E1E  C18A  F013         	movff	powf@sn+2,___flmul@b+2
 10237  002E22  C18B  F014         	movff	powf@sn+3,___flmul@b+3
 10238  002E26  C1B4  F015         	movff	powf@z,___flmul@a
 10239  002E2A  C1B5  F016         	movff	powf@z+1,___flmul@a+1
 10240  002E2E  C1B6  F017         	movff	powf@z+2,___flmul@a+2
 10241  002E32  C1B7  F018         	movff	powf@z+3,___flmul@a+3
 10242  002E36  ECB2  F01C         	call	___flmul	;wreg free
 10243  002E3A  C011  F06F         	movff	?___flmul,?_powf
 10244  002E3E  C012  F070         	movff	?___flmul+1,?_powf+1
 10245  002E42  C013  F071         	movff	?___flmul+2,?_powf+2
 10246  002E46  C014  F072         	movff	?___flmul+3,?_powf+3
 10247  002E4A  0012               	return		;funcret
 10248  002E4C                     __end_of_powf:
 10249                           	opt callstack 0
 10250                           
 10251 ;; *************** function _sqrtf *****************
 10252 ;; Defined at:
 10253 ;;		line 22 in file "C:\Program Files (x86)\Microchip\xc8\v2.10\pic\sources\c99\common\sqrtf.c"
 10254 ;; Parameters:    Size  Location     Type
 10255 ;;  x               4   61[COMRAM] float 
 10256 ;; Auto vars:     Size  Location     Type
 10257 ;;  ix              4  106[COMRAM] long 
 10258 ;;  r               4  102[COMRAM] unsigned long 
 10259 ;;  m               4   98[COMRAM] long 
 10260 ;;  z               4   94[COMRAM] float 
 10261 ;;  t               4   90[COMRAM] long 
 10262 ;;  q               4   86[COMRAM] long 
 10263 ;;  __xc8_float_    4   82[COMRAM] struct .
 10264 ;;  i               4   78[COMRAM] long 
 10265 ;;  s               4   74[COMRAM] long 
 10266 ;;  sign            4    0        long 
 10267 ;; Return value:  Size  Location     Type
 10268 ;;                  4   61[COMRAM] float 
 10269 ;; Registers used:
 10270 ;;		wreg, status,2, status,0, prodl, prodh, cstack
 10271 ;; Tracked objects:
 10272 ;;		On entry : 0/0
 10273 ;;		On exit  : 0/0
 10274 ;;		Unchanged: 0/0
 10275 ;; Data sizes:     COMRAM   BANK0   BANK1   BANK2   BANK3   BANK4   BANK5
 10276 ;;      Params:         4       0       0       0       0       0       0
 10277 ;;      Locals:        40       0       0       0       0       0       0
 10278 ;;      Temps:          5       0       0       0       0       0       0
 10279 ;;      Totals:        49       0       0       0       0       0       0
 10280 ;;Total ram usage:       49 bytes
 10281 ;; Hardware stack levels used:    1
 10282 ;; Hardware stack levels required when called:    1
 10283 ;; This function calls:
 10284 ;;		___fladd
 10285 ;;		___flge
 10286 ;;		___flmul
 10287 ;;		_nanf
 10288 ;; This function is called by:
 10289 ;;		_powf
 10290 ;; This function uses a non-reentrant model
 10291 ;;
 10292                           
 10293                           	psect	text42
 10294  00353E                     __ptext42:
 10295                           	opt callstack 0
 10296  00353E                     _sqrtf:
 10297                           	opt callstack 17
 10298                           
 10299                           ;incstack = 0
 10300  00353E  C03E  F053         	movff	sqrtf@x,sqrtf@__xc8_float_word
 10301  003542  C03F  F054         	movff	sqrtf@x+1,sqrtf@__xc8_float_word+1
 10302  003546  C040  F055         	movff	sqrtf@x+2,sqrtf@__xc8_float_word+2
 10303  00354A  C041  F056         	movff	sqrtf@x+3,sqrtf@__xc8_float_word+3
 10304  00354E  C053  F06B         	movff	sqrtf@__xc8_float_word,sqrtf@ix
 10305  003552  C054  F06C         	movff	sqrtf@__xc8_float_word+1,sqrtf@ix+1
 10306  003556  C055  F06D         	movff	sqrtf@__xc8_float_word+2,sqrtf@ix+2
 10307  00355A  C056  F06E         	movff	sqrtf@__xc8_float_word+3,sqrtf@ix+3
 10308  00355E  0E00               	movlw	0
 10309  003560  146B               	andwf	sqrtf@ix^0,w,c
 10310  003562  6E42               	movwf	??_sqrtf^0,c
 10311  003564  0E00               	movlw	0
 10312  003566  146C               	andwf	(sqrtf@ix+1)^0,w,c
 10313  003568  6E43               	movwf	(??_sqrtf+1)^0,c
 10314  00356A  0E80               	movlw	128
 10315  00356C  146D               	andwf	(sqrtf@ix+2)^0,w,c
 10316  00356E  6E44               	movwf	(??_sqrtf+2)^0,c
 10317  003570  0E7F               	movlw	127
 10318  003572  146E               	andwf	(sqrtf@ix+3)^0,w,c
 10319  003574  6E45               	movwf	(??_sqrtf+3)^0,c
 10320  003576  0E80               	movlw	128
 10321  003578  1844               	xorwf	(??_sqrtf+2)^0,w,c
 10322  00357A  E133               	bnz	i2l4195
 10323  00357C  0E7F               	movlw	127
 10324  00357E  1845               	xorwf	(??_sqrtf+3)^0,w,c
 10325  003580  1042               	iorwf	??_sqrtf^0,w,c
 10326  003582  1043               	iorwf	(??_sqrtf+1)^0,w,c
 10327  003584  A4D8               	btfss	status,2,c
 10328  003586  D02D               	goto	i2l4195
 10329  003588  C03E  F015         	movff	sqrtf@x,___flmul@a
 10330  00358C  C03F  F016         	movff	sqrtf@x+1,___flmul@a+1
 10331  003590  C040  F017         	movff	sqrtf@x+2,___flmul@a+2
 10332  003594  C041  F018         	movff	sqrtf@x+3,___flmul@a+3
 10333  003598  C03E  F011         	movff	sqrtf@x,___flmul@b
 10334  00359C  C03F  F012         	movff	sqrtf@x+1,___flmul@b+1
 10335  0035A0  C040  F013         	movff	sqrtf@x+2,___flmul@b+2
 10336  0035A4  C041  F014         	movff	sqrtf@x+3,___flmul@b+3
 10337  0035A8  ECB2  F01C         	call	___flmul	;wreg free
 10338  0035AC  C011  F001         	movff	?___flmul,___fladd@b
 10339  0035B0  C012  F002         	movff	?___flmul+1,___fladd@b+1
 10340  0035B4  C013  F003         	movff	?___flmul+2,___fladd@b+2
 10341  0035B8  C014  F004         	movff	?___flmul+3,___fladd@b+3
 10342  0035BC  C03E  F005         	movff	sqrtf@x,___fladd@a
 10343  0035C0  C03F  F006         	movff	sqrtf@x+1,___fladd@a+1
 10344  0035C4  C040  F007         	movff	sqrtf@x+2,___fladd@a+2
 10345  0035C8  C041  F008         	movff	sqrtf@x+3,___fladd@a+3
 10346  0035CC  EC5B  F01E         	call	___fladd	;wreg free
 10347  0035D0  C001  F03E         	movff	?___fladd,?_sqrtf
 10348  0035D4  C002  F03F         	movff	?___fladd+1,?_sqrtf+1
 10349  0035D8  C003  F040         	movff	?___fladd+2,?_sqrtf+2
 10350  0035DC  C004  F041         	movff	?___fladd+3,?_sqrtf+3
 10351  0035E0  0012               	return	
 10352  0035E2                     i2l4195:
 10353  0035E2  BE6E               	btfsc	(sqrtf@ix+3)^0,7,c
 10354  0035E4  D007               	goto	i2u422_40
 10355  0035E6  506E               	movf	(sqrtf@ix+3)^0,w,c
 10356  0035E8  106D               	iorwf	(sqrtf@ix+2)^0,w,c
 10357  0035EA  106C               	iorwf	(sqrtf@ix+1)^0,w,c
 10358  0035EC  E134               	bnz	i2l4209
 10359  0035EE  046B               	decf	sqrtf@ix^0,w,c
 10360  0035F0  B0D8               	btfsc	status,0,c
 10361  0035F2  D031               	goto	i2l4209
 10362  0035F4                     i2u422_40:
 10363  0035F4  0EFF               	movlw	255
 10364  0035F6  146B               	andwf	sqrtf@ix^0,w,c
 10365  0035F8  6E42               	movwf	??_sqrtf^0,c
 10366  0035FA  0EFF               	movlw	255
 10367  0035FC  146C               	andwf	(sqrtf@ix+1)^0,w,c
 10368  0035FE  6E43               	movwf	(??_sqrtf+1)^0,c
 10369  003600  0EFF               	movlw	255
 10370  003602  146D               	andwf	(sqrtf@ix+2)^0,w,c
 10371  003604  6E44               	movwf	(??_sqrtf+2)^0,c
 10372  003606  0E7F               	movlw	127
 10373  003608  146E               	andwf	(sqrtf@ix+3)^0,w,c
 10374  00360A  6E45               	movwf	(??_sqrtf+3)^0,c
 10375  00360C  5042               	movf	??_sqrtf^0,w,c
 10376  00360E  1043               	iorwf	(??_sqrtf+1)^0,w,c
 10377  003610  1044               	iorwf	(??_sqrtf+2)^0,w,c
 10378  003612  1045               	iorwf	(??_sqrtf+3)^0,w,c
 10379  003614  A4D8               	btfss	status,2,c
 10380  003616  D009               	goto	i2l4201
 10381  003618  C03E  F03E         	movff	sqrtf@x,?_sqrtf
 10382  00361C  C03F  F03F         	movff	sqrtf@x+1,?_sqrtf+1
 10383  003620  C040  F040         	movff	sqrtf@x+2,?_sqrtf+2
 10384  003624  C041  F041         	movff	sqrtf@x+3,?_sqrtf+3
 10385  003628  0012               	return	
 10386  00362A                     i2l4201:
 10387  00362A  AE6E               	btfss	(sqrtf@ix+3)^0,7,c
 10388  00362C  D014               	goto	i2l4209
 10389  00362E  0E00               	movlw	0
 10390  003630  0101               	movlb	1	; () banked
 10391  003632  6FDC               	movwf	(_errno+1)& (0+255),b
 10392  003634  0E21               	movlw	33
 10393  003636  6FDB               	movwf	_errno& (0+255),b
 10394                           
 10395                           ; BSR set to: 1
 10396  003638  0EA7               	movlw	low (STR_3+18)
 10397  00363A  6E01               	movwf	nanf@s^0,c
 10398  00363C  0E06               	movlw	high (STR_3+18)
 10399  00363E  6E02               	movwf	(nanf@s+1)^0,c
 10400  003640  ECAD  F02F         	call	_nanf	;wreg free
 10401  003644  C001  F03E         	movff	?_nanf,?_sqrtf
 10402  003648  C002  F03F         	movff	?_nanf+1,?_sqrtf+1
 10403  00364C  C003  F040         	movff	?_nanf+2,?_sqrtf+2
 10404  003650  C004  F041         	movff	?_nanf+3,?_sqrtf+3
 10405  003654  0012               	return	
 10406  003656                     i2l4209:
 10407  003656  0E17               	movlw	23
 10408  003658  6E42               	movwf	??_sqrtf^0,c
 10409  00365A  C06B  F043         	movff	sqrtf@ix,??_sqrtf+1
 10410  00365E  C06C  F044         	movff	sqrtf@ix+1,??_sqrtf+2
 10411  003662  C06D  F045         	movff	sqrtf@ix+2,??_sqrtf+3
 10412  003666  C06E  F046         	movff	sqrtf@ix+3,??_sqrtf+4
 10413  00366A                     i2u425_45:
 10414  00366A  6642               	tstfsz	??_sqrtf^0,c
 10415  00366C  D001               	goto	i2u425_46
 10416  00366E  D007               	goto	i2u425_47
 10417  003670                     i2u425_46:
 10418  003670  3446               	rlcf	(??_sqrtf+4)^0,w,c
 10419  003672  3246               	rrcf	(??_sqrtf+4)^0,f,c
 10420  003674  3245               	rrcf	(??_sqrtf+3)^0,f,c
 10421  003676  3244               	rrcf	(??_sqrtf+2)^0,f,c
 10422  003678  3243               	rrcf	(??_sqrtf+1)^0,f,c
 10423  00367A  2E42               	decfsz	??_sqrtf^0,f,c
 10424  00367C  D7F6               	goto	i2u425_45
 10425  00367E                     i2u425_47:
 10426  00367E  C043  F063         	movff	??_sqrtf+1,sqrtf@m
 10427  003682  C044  F064         	movff	??_sqrtf+2,sqrtf@m+1
 10428  003686  C045  F065         	movff	??_sqrtf+3,sqrtf@m+2
 10429  00368A  C046  F066         	movff	??_sqrtf+4,sqrtf@m+3
 10430  00368E  5063               	movf	sqrtf@m^0,w,c
 10431  003690  1064               	iorwf	(sqrtf@m+1)^0,w,c
 10432  003692  1065               	iorwf	(sqrtf@m+2)^0,w,c
 10433  003694  1066               	iorwf	(sqrtf@m+3)^0,w,c
 10434  003696  A4D8               	btfss	status,2,c
 10435  003698  D02A               	goto	i2l1401
 10436  00369A  0E00               	movlw	0
 10437  00369C  6E4F               	movwf	sqrtf@i^0,c
 10438  00369E  0E00               	movlw	0
 10439  0036A0  6E50               	movwf	(sqrtf@i+1)^0,c
 10440  0036A2  0E00               	movlw	0
 10441  0036A4  6E51               	movwf	(sqrtf@i+2)^0,c
 10442  0036A6  0E00               	movlw	0
 10443  0036A8  6E52               	movwf	(sqrtf@i+3)^0,c
 10444  0036AA  D00B               	goto	i2l4217
 10445  0036AC                     i2l4213:
 10446  0036AC  90D8               	bcf	status,0,c
 10447  0036AE  366B               	rlcf	sqrtf@ix^0,f,c
 10448  0036B0  366C               	rlcf	(sqrtf@ix+1)^0,f,c
 10449  0036B2  366D               	rlcf	(sqrtf@ix+2)^0,f,c
 10450  0036B4  366E               	rlcf	(sqrtf@ix+3)^0,f,c
 10451  0036B6  0E01               	movlw	1
 10452  0036B8  264F               	addwf	sqrtf@i^0,f,c
 10453  0036BA  0E00               	movlw	0
 10454  0036BC  2250               	addwfc	(sqrtf@i+1)^0,f,c
 10455  0036BE  2251               	addwfc	(sqrtf@i+2)^0,f,c
 10456  0036C0  2252               	addwfc	(sqrtf@i+3)^0,f,c
 10457  0036C2                     i2l4217:
 10458  0036C2  AE6D               	btfss	(sqrtf@ix+2)^0,7,c
 10459  0036C4  D7F3               	goto	i2l4213
 10460  0036C6  0EFF               	movlw	255
 10461  0036C8  244F               	addwf	sqrtf@i^0,w,c
 10462  0036CA  6E42               	movwf	??_sqrtf^0,c
 10463  0036CC  0EFF               	movlw	255
 10464  0036CE  2050               	addwfc	(sqrtf@i+1)^0,w,c
 10465  0036D0  6E43               	movwf	(??_sqrtf+1)^0,c
 10466  0036D2  0EFF               	movlw	255
 10467  0036D4  2051               	addwfc	(sqrtf@i+2)^0,w,c
 10468  0036D6  6E44               	movwf	(??_sqrtf+2)^0,c
 10469  0036D8  0EFF               	movlw	255
 10470  0036DA  2052               	addwfc	(sqrtf@i+3)^0,w,c
 10471  0036DC  6E45               	movwf	(??_sqrtf+3)^0,c
 10472  0036DE  5042               	movf	??_sqrtf^0,w,c
 10473  0036E0  5E63               	subwf	sqrtf@m^0,f,c
 10474  0036E2  5043               	movf	(??_sqrtf+1)^0,w,c
 10475  0036E4  5A64               	subwfb	(sqrtf@m+1)^0,f,c
 10476  0036E6  5044               	movf	(??_sqrtf+2)^0,w,c
 10477  0036E8  5A65               	subwfb	(sqrtf@m+2)^0,f,c
 10478  0036EA  5045               	movf	(??_sqrtf+3)^0,w,c
 10479  0036EC  5A66               	subwfb	(sqrtf@m+3)^0,f,c
 10480  0036EE                     i2l1401:
 10481  0036EE  0E81               	movlw	129
 10482  0036F0  2663               	addwf	sqrtf@m^0,f,c
 10483  0036F2  0EFF               	movlw	255
 10484  0036F4  2264               	addwfc	(sqrtf@m+1)^0,f,c
 10485  0036F6  0EFF               	movlw	255
 10486  0036F8  2265               	addwfc	(sqrtf@m+2)^0,f,c
 10487  0036FA  0EFF               	movlw	255
 10488  0036FC  2266               	addwfc	(sqrtf@m+3)^0,f,c
 10489  0036FE  0EFF               	movlw	255
 10490  003700  146B               	andwf	sqrtf@ix^0,w,c
 10491  003702  6E42               	movwf	??_sqrtf^0,c
 10492  003704  0EFF               	movlw	255
 10493  003706  146C               	andwf	(sqrtf@ix+1)^0,w,c
 10494  003708  6E43               	movwf	(??_sqrtf+1)^0,c
 10495  00370A  0E7F               	movlw	127
 10496  00370C  146D               	andwf	(sqrtf@ix+2)^0,w,c
 10497  00370E  6E44               	movwf	(??_sqrtf+2)^0,c
 10498  003710  0E00               	movlw	0
 10499  003712  146E               	andwf	(sqrtf@ix+3)^0,w,c
 10500  003714  6E45               	movwf	(??_sqrtf+3)^0,c
 10501  003716  0E00               	movlw	0
 10502  003718  1042               	iorwf	??_sqrtf^0,w,c
 10503  00371A  6E6B               	movwf	sqrtf@ix^0,c
 10504  00371C  0E00               	movlw	0
 10505  00371E  1043               	iorwf	(??_sqrtf+1)^0,w,c
 10506  003720  6E6C               	movwf	(sqrtf@ix+1)^0,c
 10507  003722  0E80               	movlw	128
 10508  003724  1044               	iorwf	(??_sqrtf+2)^0,w,c
 10509  003726  6E6D               	movwf	(sqrtf@ix+2)^0,c
 10510  003728  0E00               	movlw	0
 10511  00372A  1045               	iorwf	(??_sqrtf+3)^0,w,c
 10512  00372C  6E6E               	movwf	(sqrtf@ix+3)^0,c
 10513  00372E  A063               	btfss	sqrtf@m^0,0,c
 10514  003730  D008               	goto	i2l1405
 10515  003732  506B               	movf	sqrtf@ix^0,w,c
 10516  003734  266B               	addwf	sqrtf@ix^0,f,c
 10517  003736  506C               	movf	(sqrtf@ix+1)^0,w,c
 10518  003738  226C               	addwfc	(sqrtf@ix+1)^0,f,c
 10519  00373A  506D               	movf	(sqrtf@ix+2)^0,w,c
 10520  00373C  226D               	addwfc	(sqrtf@ix+2)^0,f,c
 10521  00373E  506E               	movf	(sqrtf@ix+3)^0,w,c
 10522  003740  226E               	addwfc	(sqrtf@ix+3)^0,f,c
 10523  003742                     i2l1405:
 10524  003742  3466               	rlcf	(sqrtf@m+3)^0,w,c
 10525  003744  3266               	rrcf	(sqrtf@m+3)^0,f,c
 10526  003746  3265               	rrcf	(sqrtf@m+2)^0,f,c
 10527  003748  3264               	rrcf	(sqrtf@m+1)^0,f,c
 10528  00374A  3263               	rrcf	sqrtf@m^0,f,c
 10529  00374C  506B               	movf	sqrtf@ix^0,w,c
 10530  00374E  266B               	addwf	sqrtf@ix^0,f,c
 10531  003750  506C               	movf	(sqrtf@ix+1)^0,w,c
 10532  003752  226C               	addwfc	(sqrtf@ix+1)^0,f,c
 10533  003754  506D               	movf	(sqrtf@ix+2)^0,w,c
 10534  003756  226D               	addwfc	(sqrtf@ix+2)^0,f,c
 10535  003758  506E               	movf	(sqrtf@ix+3)^0,w,c
 10536  00375A  226E               	addwfc	(sqrtf@ix+3)^0,f,c
 10537  00375C  0E00               	movlw	0
 10538  00375E  6E4B               	movwf	sqrtf@s^0,c
 10539  003760  0E00               	movlw	0
 10540  003762  6E4C               	movwf	(sqrtf@s+1)^0,c
 10541  003764  0E00               	movlw	0
 10542  003766  6E4D               	movwf	(sqrtf@s+2)^0,c
 10543  003768  0E00               	movlw	0
 10544  00376A  6E4E               	movwf	(sqrtf@s+3)^0,c
 10545  00376C  C04B  F057         	movff	sqrtf@s,sqrtf@q
 10546  003770  C04C  F058         	movff	sqrtf@s+1,sqrtf@q+1
 10547  003774  C04D  F059         	movff	sqrtf@s+2,sqrtf@q+2
 10548  003778  C04E  F05A         	movff	sqrtf@s+3,sqrtf@q+3
 10549  00377C  0E00               	movlw	0
 10550  00377E  6E67               	movwf	sqrtf@r^0,c
 10551  003780  0E00               	movlw	0
 10552  003782  6E68               	movwf	(sqrtf@r+1)^0,c
 10553  003784  0E00               	movlw	0
 10554  003786  6E69               	movwf	(sqrtf@r+2)^0,c
 10555  003788  0E01               	movlw	1
 10556  00378A  6E6A               	movwf	(sqrtf@r+3)^0,c
 10557  00378C  D043               	goto	i2l4235
 10558  00378E                     i2l4229:
 10559  00378E  5067               	movf	sqrtf@r^0,w,c
 10560  003790  244B               	addwf	sqrtf@s^0,w,c
 10561  003792  6E5B               	movwf	sqrtf@t^0,c
 10562  003794  5068               	movf	(sqrtf@r+1)^0,w,c
 10563  003796  204C               	addwfc	(sqrtf@s+1)^0,w,c
 10564  003798  6E5C               	movwf	(sqrtf@t+1)^0,c
 10565  00379A  5069               	movf	(sqrtf@r+2)^0,w,c
 10566  00379C  204D               	addwfc	(sqrtf@s+2)^0,w,c
 10567  00379E  6E5D               	movwf	(sqrtf@t+2)^0,c
 10568  0037A0  506A               	movf	(sqrtf@r+3)^0,w,c
 10569  0037A2  204E               	addwfc	(sqrtf@s+3)^0,w,c
 10570  0037A4  6E5E               	movwf	(sqrtf@t+3)^0,c
 10571  0037A6  505B               	movf	sqrtf@t^0,w,c
 10572  0037A8  5C6B               	subwf	sqrtf@ix^0,w,c
 10573  0037AA  505C               	movf	(sqrtf@t+1)^0,w,c
 10574  0037AC  586C               	subwfb	(sqrtf@ix+1)^0,w,c
 10575  0037AE  505D               	movf	(sqrtf@t+2)^0,w,c
 10576  0037B0  586D               	subwfb	(sqrtf@ix+2)^0,w,c
 10577  0037B2  506E               	movf	(sqrtf@ix+3)^0,w,c
 10578  0037B4  0A80               	xorlw	128
 10579  0037B6  6E42               	movwf	??_sqrtf^0,c
 10580  0037B8  505E               	movf	(sqrtf@t+3)^0,w,c
 10581  0037BA  0A80               	xorlw	128
 10582  0037BC  5842               	subwfb	??_sqrtf^0,w,c
 10583  0037BE  A0D8               	btfss	status,0,c
 10584  0037C0  D01C               	goto	i2l1408
 10585  0037C2  5067               	movf	sqrtf@r^0,w,c
 10586  0037C4  245B               	addwf	sqrtf@t^0,w,c
 10587  0037C6  6E4B               	movwf	sqrtf@s^0,c
 10588  0037C8  5068               	movf	(sqrtf@r+1)^0,w,c
 10589  0037CA  205C               	addwfc	(sqrtf@t+1)^0,w,c
 10590  0037CC  6E4C               	movwf	(sqrtf@s+1)^0,c
 10591  0037CE  5069               	movf	(sqrtf@r+2)^0,w,c
 10592  0037D0  205D               	addwfc	(sqrtf@t+2)^0,w,c
 10593  0037D2  6E4D               	movwf	(sqrtf@s+2)^0,c
 10594  0037D4  506A               	movf	(sqrtf@r+3)^0,w,c
 10595  0037D6  205E               	addwfc	(sqrtf@t+3)^0,w,c
 10596  0037D8  6E4E               	movwf	(sqrtf@s+3)^0,c
 10597  0037DA  505B               	movf	sqrtf@t^0,w,c
 10598  0037DC  5E6B               	subwf	sqrtf@ix^0,f,c
 10599  0037DE  505C               	movf	(sqrtf@t+1)^0,w,c
 10600  0037E0  5A6C               	subwfb	(sqrtf@ix+1)^0,f,c
 10601  0037E2  505D               	movf	(sqrtf@t+2)^0,w,c
 10602  0037E4  5A6D               	subwfb	(sqrtf@ix+2)^0,f,c
 10603  0037E6  505E               	movf	(sqrtf@t+3)^0,w,c
 10604  0037E8  5A6E               	subwfb	(sqrtf@ix+3)^0,f,c
 10605  0037EA  5067               	movf	sqrtf@r^0,w,c
 10606  0037EC  2657               	addwf	sqrtf@q^0,f,c
 10607  0037EE  5068               	movf	(sqrtf@r+1)^0,w,c
 10608  0037F0  2258               	addwfc	(sqrtf@q+1)^0,f,c
 10609  0037F2  5069               	movf	(sqrtf@r+2)^0,w,c
 10610  0037F4  2259               	addwfc	(sqrtf@q+2)^0,f,c
 10611  0037F6  506A               	movf	(sqrtf@r+3)^0,w,c
 10612  0037F8  225A               	addwfc	(sqrtf@q+3)^0,f,c
 10613  0037FA                     i2l1408:
 10614  0037FA  506B               	movf	sqrtf@ix^0,w,c
 10615  0037FC  266B               	addwf	sqrtf@ix^0,f,c
 10616  0037FE  506C               	movf	(sqrtf@ix+1)^0,w,c
 10617  003800  226C               	addwfc	(sqrtf@ix+1)^0,f,c
 10618  003802  506D               	movf	(sqrtf@ix+2)^0,w,c
 10619  003804  226D               	addwfc	(sqrtf@ix+2)^0,f,c
 10620  003806  506E               	movf	(sqrtf@ix+3)^0,w,c
 10621  003808  226E               	addwfc	(sqrtf@ix+3)^0,f,c
 10622  00380A  90D8               	bcf	status,0,c
 10623  00380C  326A               	rrcf	(sqrtf@r+3)^0,f,c
 10624  00380E  3269               	rrcf	(sqrtf@r+2)^0,f,c
 10625  003810  3268               	rrcf	(sqrtf@r+1)^0,f,c
 10626  003812  3267               	rrcf	sqrtf@r^0,f,c
 10627  003814                     i2l4235:
 10628  003814  5067               	movf	sqrtf@r^0,w,c
 10629  003816  1068               	iorwf	(sqrtf@r+1)^0,w,c
 10630  003818  1069               	iorwf	(sqrtf@r+2)^0,w,c
 10631  00381A  106A               	iorwf	(sqrtf@r+3)^0,w,c
 10632  00381C  A4D8               	btfss	status,2,c
 10633  00381E  D7B7               	goto	i2l4229
 10634  003820  506B               	movf	sqrtf@ix^0,w,c
 10635  003822  106C               	iorwf	(sqrtf@ix+1)^0,w,c
 10636  003824  106D               	iorwf	(sqrtf@ix+2)^0,w,c
 10637  003826  106E               	iorwf	(sqrtf@ix+3)^0,w,c
 10638  003828  B4D8               	btfsc	status,2,c
 10639  00382A  D052               	goto	i2l1410
 10640  00382C  0E00               	movlw	0
 10641  00382E  6E5F               	movwf	sqrtf@z^0,c
 10642  003830  0E00               	movlw	0
 10643  003832  6E60               	movwf	(sqrtf@z+1)^0,c
 10644  003834  0E80               	movlw	128
 10645  003836  6E61               	movwf	(sqrtf@z+2)^0,c
 10646  003838  0E3F               	movlw	63
 10647  00383A  6E62               	movwf	(sqrtf@z+3)^0,c
 10648  00383C  C05F  F032         	movff	sqrtf@z,___flge@ff1
 10649  003840  C060  F033         	movff	sqrtf@z+1,___flge@ff1+1
 10650  003844  C061  F034         	movff	sqrtf@z+2,___flge@ff1+2
 10651  003848  C062  F035         	movff	sqrtf@z+3,___flge@ff1+3
 10652  00384C  0E00               	movlw	0
 10653  00384E  6E36               	movwf	___flge@ff2^0,c
 10654  003850  0E00               	movlw	0
 10655  003852  6E37               	movwf	(___flge@ff2+1)^0,c
 10656  003854  0E80               	movlw	128
 10657  003856  6E38               	movwf	(___flge@ff2+2)^0,c
 10658  003858  0E3F               	movlw	63
 10659  00385A  6E39               	movwf	(___flge@ff2+3)^0,c
 10660  00385C  EC47  F02B         	call	___flge	;wreg free
 10661  003860  A0D8               	btfss	status,0,c
 10662  003862  D036               	goto	i2l1410
 10663  003864  0E00               	movlw	0
 10664  003866  6E5F               	movwf	sqrtf@z^0,c
 10665  003868  0E00               	movlw	0
 10666  00386A  6E60               	movwf	(sqrtf@z+1)^0,c
 10667  00386C  0E80               	movlw	128
 10668  00386E  6E61               	movwf	(sqrtf@z+2)^0,c
 10669  003870  0E3F               	movlw	63
 10670  003872  6E62               	movwf	(sqrtf@z+3)^0,c
 10671  003874  0E00               	movlw	0
 10672  003876  6E32               	movwf	___flge@ff1^0,c
 10673  003878  0E00               	movlw	0
 10674  00387A  6E33               	movwf	(___flge@ff1+1)^0,c
 10675  00387C  0E80               	movlw	128
 10676  00387E  6E34               	movwf	(___flge@ff1+2)^0,c
 10677  003880  0E3F               	movlw	63
 10678  003882  6E35               	movwf	(___flge@ff1+3)^0,c
 10679  003884  C05F  F036         	movff	sqrtf@z,___flge@ff2
 10680  003888  C060  F037         	movff	sqrtf@z+1,___flge@ff2+1
 10681  00388C  C061  F038         	movff	sqrtf@z+2,___flge@ff2+2
 10682  003890  C062  F039         	movff	sqrtf@z+3,___flge@ff2+3
 10683  003894  EC47  F02B         	call	___flge	;wreg free
 10684  003898  B0D8               	btfsc	status,0,c
 10685  00389A  D006               	goto	i2l4249
 10686  00389C  0E02               	movlw	2
 10687  00389E  2657               	addwf	sqrtf@q^0,f,c
 10688  0038A0  0E00               	movlw	0
 10689  0038A2  2258               	addwfc	(sqrtf@q+1)^0,f,c
 10690  0038A4  2259               	addwfc	(sqrtf@q+2)^0,f,c
 10691  0038A6  D013               	goto	L6
 10692  0038A8                     i2l4249:
 10693  0038A8  0E01               	movlw	1
 10694  0038AA  1457               	andwf	sqrtf@q^0,w,c
 10695  0038AC  6E42               	movwf	??_sqrtf^0,c
 10696  0038AE  0E00               	movlw	0
 10697  0038B0  1458               	andwf	(sqrtf@q+1)^0,w,c
 10698  0038B2  6E43               	movwf	(??_sqrtf+1)^0,c
 10699  0038B4  0E00               	movlw	0
 10700  0038B6  1459               	andwf	(sqrtf@q+2)^0,w,c
 10701  0038B8  6E44               	movwf	(??_sqrtf+2)^0,c
 10702  0038BA  0E00               	movlw	0
 10703  0038BC  145A               	andwf	(sqrtf@q+3)^0,w,c
 10704  0038BE  6E45               	movwf	(??_sqrtf+3)^0,c
 10705  0038C0  5042               	movf	??_sqrtf^0,w,c
 10706  0038C2  2657               	addwf	sqrtf@q^0,f,c
 10707  0038C4  5043               	movf	(??_sqrtf+1)^0,w,c
 10708  0038C6  2258               	addwfc	(sqrtf@q+1)^0,f,c
 10709  0038C8  5044               	movf	(??_sqrtf+2)^0,w,c
 10710  0038CA  2259               	addwfc	(sqrtf@q+2)^0,f,c
 10711  0038CC  5045               	movf	(??_sqrtf+3)^0,w,c
 10712  0038CE                     L6:
 10713  0038CE  225A               	addwfc	(sqrtf@q+3)^0,f,c
 10714  0038D0                     i2l1410:
 10715  0038D0  C057  F042         	movff	sqrtf@q,??_sqrtf
 10716  0038D4  C058  F043         	movff	sqrtf@q+1,??_sqrtf+1
 10717  0038D8  C059  F044         	movff	sqrtf@q+2,??_sqrtf+2
 10718  0038DC  C05A  F045         	movff	sqrtf@q+3,??_sqrtf+3
 10719  0038E0  3445               	rlcf	(??_sqrtf+3)^0,w,c
 10720  0038E2  3245               	rrcf	(??_sqrtf+3)^0,f,c
 10721  0038E4  3244               	rrcf	(??_sqrtf+2)^0,f,c
 10722  0038E6  3243               	rrcf	(??_sqrtf+1)^0,f,c
 10723  0038E8  3242               	rrcf	??_sqrtf^0,f,c
 10724  0038EA  0E00               	movlw	0
 10725  0038EC  2442               	addwf	??_sqrtf^0,w,c
 10726  0038EE  6E6B               	movwf	sqrtf@ix^0,c
 10727  0038F0  0E00               	movlw	0
 10728  0038F2  2043               	addwfc	(??_sqrtf+1)^0,w,c
 10729  0038F4  6E6C               	movwf	(sqrtf@ix+1)^0,c
 10730  0038F6  0E00               	movlw	0
 10731  0038F8  2044               	addwfc	(??_sqrtf+2)^0,w,c
 10732  0038FA  6E6D               	movwf	(sqrtf@ix+2)^0,c
 10733  0038FC  0E3F               	movlw	63
 10734  0038FE  2045               	addwfc	(??_sqrtf+3)^0,w,c
 10735  003900  6E6E               	movwf	(sqrtf@ix+3)^0,c
 10736  003902  C063  F042         	movff	sqrtf@m,??_sqrtf
 10737  003906  C064  F043         	movff	sqrtf@m+1,??_sqrtf+1
 10738  00390A  C065  F044         	movff	sqrtf@m+2,??_sqrtf+2
 10739  00390E  C066  F045         	movff	sqrtf@m+3,??_sqrtf+3
 10740  003912  0E17               	movlw	23
 10741  003914                     i2u434_45:
 10742  003914  90D8               	bcf	status,0,c
 10743  003916  3642               	rlcf	??_sqrtf^0,f,c
 10744  003918  3643               	rlcf	(??_sqrtf+1)^0,f,c
 10745  00391A  3644               	rlcf	(??_sqrtf+2)^0,f,c
 10746  00391C  3645               	rlcf	(??_sqrtf+3)^0,f,c
 10747  00391E  2EE8               	decfsz	wreg,f,c
 10748  003920  D7F9               	goto	i2u434_45
 10749  003922  5042               	movf	??_sqrtf^0,w,c
 10750  003924  266B               	addwf	sqrtf@ix^0,f,c
 10751  003926  5043               	movf	(??_sqrtf+1)^0,w,c
 10752  003928  226C               	addwfc	(sqrtf@ix+1)^0,f,c
 10753  00392A  5044               	movf	(??_sqrtf+2)^0,w,c
 10754  00392C  226D               	addwfc	(sqrtf@ix+2)^0,f,c
 10755  00392E  5045               	movf	(??_sqrtf+3)^0,w,c
 10756  003930  226E               	addwfc	(sqrtf@ix+3)^0,f,c
 10757  003932  C06B  F053         	movff	sqrtf@ix,sqrtf@__xc8_float_word
 10758  003936  C06C  F054         	movff	sqrtf@ix+1,sqrtf@__xc8_float_word+1
 10759  00393A  C06D  F055         	movff	sqrtf@ix+2,sqrtf@__xc8_float_word+2
 10760  00393E  C06E  F056         	movff	sqrtf@ix+3,sqrtf@__xc8_float_word+3
 10761  003942  C053  F05F         	movff	sqrtf@__xc8_float_word,sqrtf@z
 10762  003946  C054  F060         	movff	sqrtf@__xc8_float_word+1,sqrtf@z+1
 10763  00394A  C055  F061         	movff	sqrtf@__xc8_float_word+2,sqrtf@z+2
 10764  00394E  C056  F062         	movff	sqrtf@__xc8_float_word+3,sqrtf@z+3
 10765  003952  C05F  F03E         	movff	sqrtf@z,?_sqrtf
 10766  003956  C060  F03F         	movff	sqrtf@z+1,?_sqrtf+1
 10767  00395A  C061  F040         	movff	sqrtf@z+2,?_sqrtf+2
 10768  00395E  C062  F041         	movff	sqrtf@z+3,?_sqrtf+3
 10769  003962  0012               	return		;funcret
 10770  003964                     __end_of_sqrtf:
 10771                           	opt callstack 0
 10772                           
 10773 ;; *************** function _nanf *****************
 10774 ;; Defined at:
 10775 ;;		line 4 in file "C:\Program Files (x86)\Microchip\xc8\v2.10\pic\sources\c99\common\nanf.c"
 10776 ;; Parameters:    Size  Location     Type
 10777 ;;  s               2    0[COMRAM] PTR const unsigned char 
 10778 ;;		 -> STR_5(1), 
 10779 ;; Auto vars:     Size  Location     Type
 10780 ;;  u               4    4[COMRAM] struct .
 10781 ;; Return value:  Size  Location     Type
 10782 ;;                  4    0[COMRAM] float 
 10783 ;; Registers used:
 10784 ;;		wreg, status,2
 10785 ;; Tracked objects:
 10786 ;;		On entry : 0/0
 10787 ;;		On exit  : 0/0
 10788 ;;		Unchanged: 0/0
 10789 ;; Data sizes:     COMRAM   BANK0   BANK1   BANK2   BANK3   BANK4   BANK5
 10790 ;;      Params:         4       0       0       0       0       0       0
 10791 ;;      Locals:         4       0       0       0       0       0       0
 10792 ;;      Temps:          0       0       0       0       0       0       0
 10793 ;;      Totals:         8       0       0       0       0       0       0
 10794 ;;Total ram usage:        8 bytes
 10795 ;; Hardware stack levels used:    1
 10796 ;; This function calls:
 10797 ;;		Nothing
 10798 ;; This function is called by:
 10799 ;;		_sqrtf
 10800 ;; This function uses a non-reentrant model
 10801 ;;
 10802                           
 10803                           	psect	text43
 10804  005F5A                     __ptext43:
 10805                           	opt callstack 0
 10806  005F5A                     _nanf:
 10807                           	opt callstack 17
 10808                           
 10809                           ;incstack = 0
 10810  005F5A  0EFF               	movlw	255
 10811  005F5C  6E05               	movwf	nanf@u^0,c
 10812  005F5E  0EFF               	movlw	255
 10813  005F60  6E06               	movwf	(nanf@u+1)^0,c
 10814  005F62  0EFF               	movlw	255
 10815  005F64  6E07               	movwf	(nanf@u+2)^0,c
 10816  005F66  0E7F               	movlw	127
 10817  005F68  6E08               	movwf	(nanf@u+3)^0,c
 10818  005F6A  C005  F001         	movff	nanf@u,?_nanf
 10819  005F6E  C006  F002         	movff	nanf@u+1,?_nanf+1
 10820  005F72  C007  F003         	movff	nanf@u+2,?_nanf+2
 10821  005F76  C008  F004         	movff	nanf@u+3,?_nanf+3
 10822  005F7A  0012               	return		;funcret
 10823  005F7C                     __end_of_nanf:
 10824                           	opt callstack 0
 10825                           
 10826 ;; *************** function ___flge *****************
 10827 ;; Defined at:
 10828 ;;		line 4 in file "C:\Program Files (x86)\Microchip\xc8\v2.10\pic\sources\c99\common\flge.c"
 10829 ;; Parameters:    Size  Location     Type
 10830 ;;  ff1             4   49[COMRAM] float 
 10831 ;;  ff2             4   53[COMRAM] float 
 10832 ;; Auto vars:     Size  Location     Type
 10833 ;;		None
 10834 ;; Return value:  Size  Location     Type
 10835 ;;		None               void
 10836 ;; Registers used:
 10837 ;;		wreg, status,2, status,0
 10838 ;; Tracked objects:
 10839 ;;		On entry : 0/0
 10840 ;;		On exit  : 0/0
 10841 ;;		Unchanged: 0/0
 10842 ;; Data sizes:     COMRAM   BANK0   BANK1   BANK2   BANK3   BANK4   BANK5
 10843 ;;      Params:         8       0       0       0       0       0       0
 10844 ;;      Locals:         0       0       0       0       0       0       0
 10845 ;;      Temps:          4       0       0       0       0       0       0
 10846 ;;      Totals:        12       0       0       0       0       0       0
 10847 ;;Total ram usage:       12 bytes
 10848 ;; Hardware stack levels used:    1
 10849 ;; This function calls:
 10850 ;;		Nothing
 10851 ;; This function is called by:
 10852 ;;		_MQ_Read
 10853 ;;		_Hi_ISR
 10854 ;;		_powf
 10855 ;;		_sqrtf
 10856 ;; This function uses a non-reentrant model
 10857 ;;
 10858                           
 10859                           	psect	text44
 10860  00568E                     __ptext44:
 10861                           	opt callstack 0
 10862  00568E                     ___flge:
 10863                           	opt callstack 22
 10864                           
 10865                           ;incstack = 0
 10866  00568E  0E00               	movlw	0
 10867  005690  1432               	andwf	___flge@ff1^0,w,c
 10868  005692  6E3A               	movwf	??___flge^0,c
 10869  005694  0E00               	movlw	0
 10870  005696  1433               	andwf	(___flge@ff1+1)^0,w,c
 10871  005698  6E3B               	movwf	(??___flge+1)^0,c
 10872  00569A  0E80               	movlw	128
 10873  00569C  1434               	andwf	(___flge@ff1+2)^0,w,c
 10874  00569E  6E3C               	movwf	(??___flge+2)^0,c
 10875  0056A0  0E7F               	movlw	127
 10876  0056A2  1435               	andwf	(___flge@ff1+3)^0,w,c
 10877  0056A4  6E3D               	movwf	(??___flge+3)^0,c
 10878  0056A6  503A               	movf	??___flge^0,w,c
 10879  0056A8  103B               	iorwf	(??___flge+1)^0,w,c
 10880  0056AA  103C               	iorwf	(??___flge+2)^0,w,c
 10881  0056AC  103D               	iorwf	(??___flge+3)^0,w,c
 10882  0056AE  A4D8               	btfss	status,2,c
 10883  0056B0  D008               	goto	i2l3833
 10884  0056B2  0E00               	movlw	0
 10885  0056B4  6E32               	movwf	___flge@ff1^0,c
 10886  0056B6  0E00               	movlw	0
 10887  0056B8  6E33               	movwf	(___flge@ff1+1)^0,c
 10888  0056BA  0E00               	movlw	0
 10889  0056BC  6E34               	movwf	(___flge@ff1+2)^0,c
 10890  0056BE  0E00               	movlw	0
 10891  0056C0  6E35               	movwf	(___flge@ff1+3)^0,c
 10892  0056C2                     i2l3833:
 10893  0056C2  0E00               	movlw	0
 10894  0056C4  1436               	andwf	___flge@ff2^0,w,c
 10895  0056C6  6E3A               	movwf	??___flge^0,c
 10896  0056C8  0E00               	movlw	0
 10897  0056CA  1437               	andwf	(___flge@ff2+1)^0,w,c
 10898  0056CC  6E3B               	movwf	(??___flge+1)^0,c
 10899  0056CE  0E80               	movlw	128
 10900  0056D0  1438               	andwf	(___flge@ff2+2)^0,w,c
 10901  0056D2  6E3C               	movwf	(??___flge+2)^0,c
 10902  0056D4  0E7F               	movlw	127
 10903  0056D6  1439               	andwf	(___flge@ff2+3)^0,w,c
 10904  0056D8  6E3D               	movwf	(??___flge+3)^0,c
 10905  0056DA  503A               	movf	??___flge^0,w,c
 10906  0056DC  103B               	iorwf	(??___flge+1)^0,w,c
 10907  0056DE  103C               	iorwf	(??___flge+2)^0,w,c
 10908  0056E0  103D               	iorwf	(??___flge+3)^0,w,c
 10909  0056E2  A4D8               	btfss	status,2,c
 10910  0056E4  D008               	goto	i2l3837
 10911  0056E6  0E00               	movlw	0
 10912  0056E8  6E36               	movwf	___flge@ff2^0,c
 10913  0056EA  0E00               	movlw	0
 10914  0056EC  6E37               	movwf	(___flge@ff2+1)^0,c
 10915  0056EE  0E00               	movlw	0
 10916  0056F0  6E38               	movwf	(___flge@ff2+2)^0,c
 10917  0056F2  0E00               	movlw	0
 10918  0056F4  6E39               	movwf	(___flge@ff2+3)^0,c
 10919  0056F6                     i2l3837:
 10920  0056F6  AE35               	btfss	(___flge@ff1+3)^0,7,c
 10921  0056F8  D009               	goto	i2l3841
 10922  0056FA  6C32               	negf	___flge@ff1^0,c
 10923  0056FC  1E33               	comf	(___flge@ff1+1)^0,f,c
 10924  0056FE  B0D8               	btfsc	status,0,c
 10925  005700  2A33               	incf	(___flge@ff1+1)^0,f,c
 10926  005702  1E34               	comf	(___flge@ff1+2)^0,f,c
 10927  005704  B0D8               	btfsc	status,0,c
 10928  005706  2A34               	incf	(___flge@ff1+2)^0,f,c
 10929  005708  0E80               	movlw	128
 10930  00570A  5635               	subfwb	(___flge@ff1+3)^0,f,c
 10931  00570C                     i2l3841:
 10932  00570C  AE39               	btfss	(___flge@ff2+3)^0,7,c
 10933  00570E  D009               	goto	i2l670
 10934  005710  6C36               	negf	___flge@ff2^0,c
 10935  005712  1E37               	comf	(___flge@ff2+1)^0,f,c
 10936  005714  B0D8               	btfsc	status,0,c
 10937  005716  2A37               	incf	(___flge@ff2+1)^0,f,c
 10938  005718  1E38               	comf	(___flge@ff2+2)^0,f,c
 10939  00571A  B0D8               	btfsc	status,0,c
 10940  00571C  2A38               	incf	(___flge@ff2+2)^0,f,c
 10941  00571E  0E80               	movlw	128
 10942  005720  5639               	subfwb	(___flge@ff2+3)^0,f,c
 10943  005722                     i2l670:
 10944  005722  0E00               	movlw	0
 10945  005724  1A32               	xorwf	___flge@ff1^0,f,c
 10946  005726  0E00               	movlw	0
 10947  005728  1A33               	xorwf	(___flge@ff1+1)^0,f,c
 10948  00572A  0E00               	movlw	0
 10949  00572C  1A34               	xorwf	(___flge@ff1+2)^0,f,c
 10950  00572E  0E80               	movlw	128
 10951  005730  1A35               	xorwf	(___flge@ff1+3)^0,f,c
 10952  005732  0E00               	movlw	0
 10953  005734  1A36               	xorwf	___flge@ff2^0,f,c
 10954  005736  0E00               	movlw	0
 10955  005738  1A37               	xorwf	(___flge@ff2+1)^0,f,c
 10956  00573A  0E00               	movlw	0
 10957  00573C  1A38               	xorwf	(___flge@ff2+2)^0,f,c
 10958  00573E  0E80               	movlw	128
 10959  005740  1A39               	xorwf	(___flge@ff2+3)^0,f,c
 10960  005742  5036               	movf	___flge@ff2^0,w,c
 10961  005744  5C32               	subwf	___flge@ff1^0,w,c
 10962  005746  5037               	movf	(___flge@ff2+1)^0,w,c
 10963  005748  5833               	subwfb	(___flge@ff1+1)^0,w,c
 10964  00574A  5038               	movf	(___flge@ff2+2)^0,w,c
 10965  00574C  5834               	subwfb	(___flge@ff1+2)^0,w,c
 10966  00574E  5039               	movf	(___flge@ff2+3)^0,w,c
 10967  005750  5835               	subwfb	(___flge@ff1+3)^0,w,c
 10968  005752  B0D8               	btfsc	status,0,c
 10969  005754  D002               	goto	i2l3847
 10970  005756  90D8               	bcf	status,0,c
 10971  005758  0012               	return	
 10972  00575A                     i2l3847:
 10973  00575A  80D8               	bsf	status,0,c
 10974  00575C  0012               	return		;funcret
 10975  00575E                     __end_of___flge:
 10976                           	opt callstack 0
 10977                           
 10978 ;; *************** function _scalbnf *****************
 10979 ;; Defined at:
 10980 ;;		line 4 in file "C:\Program Files (x86)\Microchip\xc8\v2.10\pic\sources\c99\common\scalbnf.c"
 10981 ;; Parameters:    Size  Location     Type
 10982 ;;  x               4   41[COMRAM] float 
 10983 ;;  n               2   45[COMRAM] int 
 10984 ;; Auto vars:     Size  Location     Type
 10985 ;;  y               4   55[COMRAM] float 
 10986 ;;  u               4   51[COMRAM] struct .
 10987 ;; Return value:  Size  Location     Type
 10988 ;;                  4   41[COMRAM] float 
 10989 ;; Registers used:
 10990 ;;		wreg, status,2, status,0, prodl, prodh, cstack
 10991 ;; Tracked objects:
 10992 ;;		On entry : 0/0
 10993 ;;		On exit  : 0/0
 10994 ;;		Unchanged: 0/0
 10995 ;; Data sizes:     COMRAM   BANK0   BANK1   BANK2   BANK3   BANK4   BANK5
 10996 ;;      Params:         6       0       0       0       0       0       0
 10997 ;;      Locals:         8       0       0       0       0       0       0
 10998 ;;      Temps:          4       0       0       0       0       0       0
 10999 ;;      Totals:        18       0       0       0       0       0       0
 11000 ;;Total ram usage:       18 bytes
 11001 ;; Hardware stack levels used:    1
 11002 ;; Hardware stack levels required when called:    1
 11003 ;; This function calls:
 11004 ;;		___flmul
 11005 ;; This function is called by:
 11006 ;;		_powf
 11007 ;; This function uses a non-reentrant model
 11008 ;;
 11009                           
 11010                           	psect	text45
 11011  004C1A                     __ptext45:
 11012                           	opt callstack 0
 11013  004C1A                     _scalbnf:
 11014                           	opt callstack 17
 11015                           
 11016                           ;incstack = 0
 11017  004C1A  C02A  F038         	movff	scalbnf@x,scalbnf@y
 11018  004C1E  C02B  F039         	movff	scalbnf@x+1,scalbnf@y+1
 11019  004C22  C02C  F03A         	movff	scalbnf@x+2,scalbnf@y+2
 11020  004C26  C02D  F03B         	movff	scalbnf@x+3,scalbnf@y+3
 11021  004C2A  BE2F               	btfsc	(scalbnf@n+1)^0,7,c
 11022  004C2C  D056               	goto	i2l4285
 11023  004C2E  502F               	movf	(scalbnf@n+1)^0,w,c
 11024  004C30  E104               	bnz	i2u435_40
 11025  004C32  0E80               	movlw	128
 11026  004C34  5C2E               	subwf	scalbnf@n^0,w,c
 11027  004C36  A0D8               	btfss	status,0,c
 11028  004C38  D050               	goto	i2l4285
 11029  004C3A                     i2u435_40:
 11030  004C3A  C038  F011         	movff	scalbnf@y,___flmul@b
 11031  004C3E  C039  F012         	movff	scalbnf@y+1,___flmul@b+1
 11032  004C42  C03A  F013         	movff	scalbnf@y+2,___flmul@b+2
 11033  004C46  C03B  F014         	movff	scalbnf@y+3,___flmul@b+3
 11034  004C4A  0E00               	movlw	0
 11035  004C4C  6E15               	movwf	___flmul@a^0,c
 11036  004C4E  0E00               	movlw	0
 11037  004C50  6E16               	movwf	(___flmul@a+1)^0,c
 11038  004C52  0E00               	movlw	0
 11039  004C54  6E17               	movwf	(___flmul@a+2)^0,c
 11040  004C56  0E7F               	movlw	127
 11041  004C58  6E18               	movwf	(___flmul@a+3)^0,c
 11042  004C5A  ECB2  F01C         	call	___flmul	;wreg free
 11043  004C5E  C011  F038         	movff	?___flmul,scalbnf@y
 11044  004C62  C012  F039         	movff	?___flmul+1,scalbnf@y+1
 11045  004C66  C013  F03A         	movff	?___flmul+2,scalbnf@y+2
 11046  004C6A  C014  F03B         	movff	?___flmul+3,scalbnf@y+3
 11047  004C6E  0E81               	movlw	129
 11048  004C70  262E               	addwf	scalbnf@n^0,f,c
 11049  004C72  0EFF               	movlw	255
 11050  004C74  222F               	addwfc	(scalbnf@n+1)^0,f,c
 11051  004C76  BE2F               	btfsc	(scalbnf@n+1)^0,7,c
 11052  004C78  D088               	goto	i2l4301
 11053  004C7A  502F               	movf	(scalbnf@n+1)^0,w,c
 11054  004C7C  E104               	bnz	i2u436_40
 11055  004C7E  0E80               	movlw	128
 11056  004C80  5C2E               	subwf	scalbnf@n^0,w,c
 11057  004C82  A0D8               	btfss	status,0,c
 11058  004C84  D082               	goto	i2l4301
 11059  004C86                     i2u436_40:
 11060  004C86  C038  F011         	movff	scalbnf@y,___flmul@b
 11061  004C8A  C039  F012         	movff	scalbnf@y+1,___flmul@b+1
 11062  004C8E  C03A  F013         	movff	scalbnf@y+2,___flmul@b+2
 11063  004C92  C03B  F014         	movff	scalbnf@y+3,___flmul@b+3
 11064  004C96  0E00               	movlw	0
 11065  004C98  6E15               	movwf	___flmul@a^0,c
 11066  004C9A  0E00               	movlw	0
 11067  004C9C  6E16               	movwf	(___flmul@a+1)^0,c
 11068  004C9E  0E00               	movlw	0
 11069  004CA0  6E17               	movwf	(___flmul@a+2)^0,c
 11070  004CA2  0E7F               	movlw	127
 11071  004CA4  6E18               	movwf	(___flmul@a+3)^0,c
 11072  004CA6  ECB2  F01C         	call	___flmul	;wreg free
 11073  004CAA  C011  F038         	movff	?___flmul,scalbnf@y
 11074  004CAE  C012  F039         	movff	?___flmul+1,scalbnf@y+1
 11075  004CB2  C013  F03A         	movff	?___flmul+2,scalbnf@y+2
 11076  004CB6  C014  F03B         	movff	?___flmul+3,scalbnf@y+3
 11077  004CBA  0E81               	movlw	129
 11078  004CBC  262E               	addwf	scalbnf@n^0,f,c
 11079  004CBE  0EFF               	movlw	255
 11080  004CC0  222F               	addwfc	(scalbnf@n+1)^0,f,c
 11081  004CC2  BE2F               	btfsc	(scalbnf@n+1)^0,7,c
 11082  004CC4  D062               	goto	i2l4301
 11083  004CC6  502F               	movf	(scalbnf@n+1)^0,w,c
 11084  004CC8  E104               	bnz	i2u437_40
 11085  004CCA  0E80               	movlw	128
 11086  004CCC  5C2E               	subwf	scalbnf@n^0,w,c
 11087  004CCE  A0D8               	btfss	status,0,c
 11088  004CD0  D05C               	goto	i2l4301
 11089  004CD2                     i2u437_40:
 11090  004CD2  0E00               	movlw	0
 11091  004CD4  6E2F               	movwf	(scalbnf@n+1)^0,c
 11092  004CD6  0E7F               	movlw	127
 11093  004CD8  D057               	goto	L7
 11094  004CDA                     i2l4285:
 11095  004CDA  AE2F               	btfss	(scalbnf@n+1)^0,7,c
 11096  004CDC  D056               	goto	i2l4301
 11097  004CDE  0E82               	movlw	130
 11098  004CE0  5C2E               	subwf	scalbnf@n^0,w,c
 11099  004CE2  0EFF               	movlw	255
 11100  004CE4  582F               	subwfb	(scalbnf@n+1)^0,w,c
 11101  004CE6  B0D8               	btfsc	status,0,c
 11102  004CE8  D050               	goto	i2l4301
 11103  004CEA  C038  F011         	movff	scalbnf@y,___flmul@b
 11104  004CEE  C039  F012         	movff	scalbnf@y+1,___flmul@b+1
 11105  004CF2  C03A  F013         	movff	scalbnf@y+2,___flmul@b+2
 11106  004CF6  C03B  F014         	movff	scalbnf@y+3,___flmul@b+3
 11107  004CFA  0E00               	movlw	0
 11108  004CFC  6E15               	movwf	___flmul@a^0,c
 11109  004CFE  0E00               	movlw	0
 11110  004D00  6E16               	movwf	(___flmul@a+1)^0,c
 11111  004D02  0E80               	movlw	128
 11112  004D04  6E17               	movwf	(___flmul@a+2)^0,c
 11113  004D06  0E0C               	movlw	12
 11114  004D08  6E18               	movwf	(___flmul@a+3)^0,c
 11115  004D0A  ECB2  F01C         	call	___flmul	;wreg free
 11116  004D0E  C011  F038         	movff	?___flmul,scalbnf@y
 11117  004D12  C012  F039         	movff	?___flmul+1,scalbnf@y+1
 11118  004D16  C013  F03A         	movff	?___flmul+2,scalbnf@y+2
 11119  004D1A  C014  F03B         	movff	?___flmul+3,scalbnf@y+3
 11120  004D1E  0E66               	movlw	102
 11121  004D20  262E               	addwf	scalbnf@n^0,f,c
 11122  004D22  0E00               	movlw	0
 11123  004D24  222F               	addwfc	(scalbnf@n+1)^0,f,c
 11124  004D26  AE2F               	btfss	(scalbnf@n+1)^0,7,c
 11125  004D28  D030               	goto	i2l4301
 11126  004D2A  0E82               	movlw	130
 11127  004D2C  5C2E               	subwf	scalbnf@n^0,w,c
 11128  004D2E  0EFF               	movlw	255
 11129  004D30  582F               	subwfb	(scalbnf@n+1)^0,w,c
 11130  004D32  B0D8               	btfsc	status,0,c
 11131  004D34  D02A               	goto	i2l4301
 11132  004D36  C038  F011         	movff	scalbnf@y,___flmul@b
 11133  004D3A  C039  F012         	movff	scalbnf@y+1,___flmul@b+1
 11134  004D3E  C03A  F013         	movff	scalbnf@y+2,___flmul@b+2
 11135  004D42  C03B  F014         	movff	scalbnf@y+3,___flmul@b+3
 11136  004D46  0E00               	movlw	0
 11137  004D48  6E15               	movwf	___flmul@a^0,c
 11138  004D4A  0E00               	movlw	0
 11139  004D4C  6E16               	movwf	(___flmul@a+1)^0,c
 11140  004D4E  0E80               	movlw	128
 11141  004D50  6E17               	movwf	(___flmul@a+2)^0,c
 11142  004D52  0E0C               	movlw	12
 11143  004D54  6E18               	movwf	(___flmul@a+3)^0,c
 11144  004D56  ECB2  F01C         	call	___flmul	;wreg free
 11145  004D5A  C011  F038         	movff	?___flmul,scalbnf@y
 11146  004D5E  C012  F039         	movff	?___flmul+1,scalbnf@y+1
 11147  004D62  C013  F03A         	movff	?___flmul+2,scalbnf@y+2
 11148  004D66  C014  F03B         	movff	?___flmul+3,scalbnf@y+3
 11149  004D6A  0E66               	movlw	102
 11150  004D6C  262E               	addwf	scalbnf@n^0,f,c
 11151  004D6E  0E00               	movlw	0
 11152  004D70  222F               	addwfc	(scalbnf@n+1)^0,f,c
 11153  004D72  AE2F               	btfss	(scalbnf@n+1)^0,7,c
 11154  004D74  D00A               	goto	i2l4301
 11155  004D76  0E82               	movlw	130
 11156  004D78  5C2E               	subwf	scalbnf@n^0,w,c
 11157  004D7A  0EFF               	movlw	255
 11158  004D7C  582F               	subwfb	(scalbnf@n+1)^0,w,c
 11159  004D7E  B0D8               	btfsc	status,0,c
 11160  004D80  D004               	goto	i2l4301
 11161  004D82  0EFF               	movlw	255
 11162  004D84  6E2F               	movwf	(scalbnf@n+1)^0,c
 11163  004D86  0E82               	movlw	130
 11164  004D88                     L7:
 11165  004D88  6E2E               	movwf	scalbnf@n^0,c
 11166  004D8A                     i2l4301:
 11167  004D8A  0E7F               	movlw	127
 11168  004D8C  242E               	addwf	scalbnf@n^0,w,c
 11169  004D8E  6E30               	movwf	??_scalbnf^0,c
 11170  004D90  0E00               	movlw	0
 11171  004D92  202F               	addwfc	(scalbnf@n+1)^0,w,c
 11172  004D94  6E31               	movwf	(??_scalbnf+1)^0,c
 11173  004D96  6A32               	clrf	(??_scalbnf+2)^0,c
 11174  004D98  6A33               	clrf	(??_scalbnf+3)^0,c
 11175  004D9A  0E17               	movlw	23
 11176  004D9C                     i2u441_45:
 11177  004D9C  90D8               	bcf	status,0,c
 11178  004D9E  3630               	rlcf	??_scalbnf^0,f,c
 11179  004DA0  3631               	rlcf	(??_scalbnf+1)^0,f,c
 11180  004DA2  3632               	rlcf	(??_scalbnf+2)^0,f,c
 11181  004DA4  3633               	rlcf	(??_scalbnf+3)^0,f,c
 11182  004DA6  2EE8               	decfsz	wreg,f,c
 11183  004DA8  D7F9               	goto	i2u441_45
 11184  004DAA  C030  F034         	movff	??_scalbnf,scalbnf@u
 11185  004DAE  C031  F035         	movff	??_scalbnf+1,scalbnf@u+1
 11186  004DB2  C032  F036         	movff	??_scalbnf+2,scalbnf@u+2
 11187  004DB6  C033  F037         	movff	??_scalbnf+3,scalbnf@u+3
 11188  004DBA  C034  F011         	movff	scalbnf@u,___flmul@b
 11189  004DBE  C035  F012         	movff	scalbnf@u+1,___flmul@b+1
 11190  004DC2  C036  F013         	movff	scalbnf@u+2,___flmul@b+2
 11191  004DC6  C037  F014         	movff	scalbnf@u+3,___flmul@b+3
 11192  004DCA  C038  F015         	movff	scalbnf@y,___flmul@a
 11193  004DCE  C039  F016         	movff	scalbnf@y+1,___flmul@a+1
 11194  004DD2  C03A  F017         	movff	scalbnf@y+2,___flmul@a+2
 11195  004DD6  C03B  F018         	movff	scalbnf@y+3,___flmul@a+3
 11196  004DDA  ECB2  F01C         	call	___flmul	;wreg free
 11197  004DDE  C011  F02A         	movff	?___flmul,scalbnf@x
 11198  004DE2  C012  F02B         	movff	?___flmul+1,scalbnf@x+1
 11199  004DE6  C013  F02C         	movff	?___flmul+2,scalbnf@x+2
 11200  004DEA  C014  F02D         	movff	?___flmul+3,scalbnf@x+3
 11201  004DEE  C02A  F02A         	movff	scalbnf@x,?_scalbnf
 11202  004DF2  C02B  F02B         	movff	scalbnf@x+1,?_scalbnf+1
 11203  004DF6  C02C  F02C         	movff	scalbnf@x+2,?_scalbnf+2
 11204  004DFA  C02D  F02D         	movff	scalbnf@x+3,?_scalbnf+3
 11205  004DFE  0012               	return		;funcret
 11206  004E00                     __end_of_scalbnf:
 11207                           	opt callstack 0
 11208                           
 11209 ;; *************** function _fabsf *****************
 11210 ;; Defined at:
 11211 ;;		line 4 in file "C:\Program Files (x86)\Microchip\xc8\v2.10\pic\sources\c99\common\fabsf.c"
 11212 ;; Parameters:    Size  Location     Type
 11213 ;;  x               4    0[COMRAM] float 
 11214 ;; Auto vars:     Size  Location     Type
 11215 ;;  u               4    4[COMRAM] struct .
 11216 ;; Return value:  Size  Location     Type
 11217 ;;                  4    0[COMRAM] float 
 11218 ;; Registers used:
 11219 ;;		status,2, status,0
 11220 ;; Tracked objects:
 11221 ;;		On entry : 0/0
 11222 ;;		On exit  : 0/0
 11223 ;;		Unchanged: 0/0
 11224 ;; Data sizes:     COMRAM   BANK0   BANK1   BANK2   BANK3   BANK4   BANK5
 11225 ;;      Params:         4       0       0       0       0       0       0
 11226 ;;      Locals:         4       0       0       0       0       0       0
 11227 ;;      Temps:          0       0       0       0       0       0       0
 11228 ;;      Totals:         8       0       0       0       0       0       0
 11229 ;;Total ram usage:        8 bytes
 11230 ;; Hardware stack levels used:    1
 11231 ;; This function calls:
 11232 ;;		Nothing
 11233 ;; This function is called by:
 11234 ;;		_powf
 11235 ;; This function uses a non-reentrant model
 11236 ;;
 11237                           
 11238                           	psect	text46
 11239  005D34                     __ptext46:
 11240                           	opt callstack 0
 11241  005D34                     _fabsf:
 11242                           	opt callstack 18
 11243                           
 11244                           ;incstack = 0
 11245  005D34  C1C7  F005         	movff	fabsf@F463,fabsf@u
 11246  005D38  C1C8  F006         	movff	fabsf@F463+1,fabsf@u+1
 11247  005D3C  C1C9  F007         	movff	fabsf@F463+2,fabsf@u+2
 11248  005D40  C1CA  F008         	movff	fabsf@F463+3,fabsf@u+3
 11249  005D44  C001  F005         	movff	fabsf@x,fabsf@u
 11250  005D48  C002  F006         	movff	fabsf@x+1,fabsf@u+1
 11251  005D4C  C003  F007         	movff	fabsf@x+2,fabsf@u+2
 11252  005D50  C004  F008         	movff	fabsf@x+3,fabsf@u+3
 11253  005D54  9E08               	bcf	(fabsf@u+3)^0,7,c
 11254  005D56  C005  F001         	movff	fabsf@u,?_fabsf
 11255  005D5A  C006  F002         	movff	fabsf@u+1,?_fabsf+1
 11256  005D5E  C007  F003         	movff	fabsf@u+2,?_fabsf+2
 11257  005D62  C008  F004         	movff	fabsf@u+3,?_fabsf+3
 11258  005D66  0012               	return		;funcret
 11259  005D68                     __end_of_fabsf:
 11260                           	opt callstack 0
 11261                           
 11262 ;; *************** function ___flneg *****************
 11263 ;; Defined at:
 11264 ;;		line 15 in file "C:\Program Files (x86)\Microchip\xc8\v2.10\pic\sources\c99\common\flneg.c"
 11265 ;; Parameters:    Size  Location     Type
 11266 ;;  f1              4    0[COMRAM] float 
 11267 ;; Auto vars:     Size  Location     Type
 11268 ;;		None
 11269 ;; Return value:  Size  Location     Type
 11270 ;;                  4    0[COMRAM] float 
 11271 ;; Registers used:
 11272 ;;		wreg, status,2, status,0
 11273 ;; Tracked objects:
 11274 ;;		On entry : 0/0
 11275 ;;		On exit  : 0/0
 11276 ;;		Unchanged: 0/0
 11277 ;; Data sizes:     COMRAM   BANK0   BANK1   BANK2   BANK3   BANK4   BANK5
 11278 ;;      Params:         4       0       0       0       0       0       0
 11279 ;;      Locals:         0       0       0       0       0       0       0
 11280 ;;      Temps:          0       0       0       0       0       0       0
 11281 ;;      Totals:         4       0       0       0       0       0       0
 11282 ;;Total ram usage:        4 bytes
 11283 ;; Hardware stack levels used:    1
 11284 ;; This function calls:
 11285 ;;		Nothing
 11286 ;; This function is called by:
 11287 ;;		_powf
 11288 ;; This function uses a non-reentrant model
 11289 ;;
 11290                           
 11291                           	psect	text47
 11292  005E8A                     __ptext47:
 11293                           	opt callstack 0
 11294  005E8A                     ___flneg:
 11295                           	opt callstack 18
 11296                           
 11297                           ;incstack = 0
 11298  005E8A  5001               	movf	___flneg@f1^0,w,c
 11299  005E8C  1002               	iorwf	(___flneg@f1+1)^0,w,c
 11300  005E8E  1003               	iorwf	(___flneg@f1+2)^0,w,c
 11301  005E90  1004               	iorwf	(___flneg@f1+3)^0,w,c
 11302  005E92  B4D8               	btfsc	status,2,c
 11303  005E94  D008               	goto	i2l4121
 11304  005E96  0E00               	movlw	0
 11305  005E98  1A01               	xorwf	___flneg@f1^0,f,c
 11306  005E9A  0E00               	movlw	0
 11307  005E9C  1A02               	xorwf	(___flneg@f1+1)^0,f,c
 11308  005E9E  0E00               	movlw	0
 11309  005EA0  1A03               	xorwf	(___flneg@f1+2)^0,f,c
 11310  005EA2  0E80               	movlw	128
 11311  005EA4  1A04               	xorwf	(___flneg@f1+3)^0,f,c
 11312  005EA6                     i2l4121:
 11313  005EA6  C001  F001         	movff	___flneg@f1,?___flneg
 11314  005EAA  C002  F002         	movff	___flneg@f1+1,?___flneg+1
 11315  005EAE  C003  F003         	movff	___flneg@f1+2,?___flneg+2
 11316  005EB2  C004  F004         	movff	___flneg@f1+3,?___flneg+3
 11317  005EB6  0012               	return		;funcret
 11318  005EB8                     __end_of___flneg:
 11319                           	opt callstack 0
 11320                           
 11321 ;; *************** function _logf *****************
 11322 ;; Defined at:
 11323 ;;		line 28 in file "C:\Program Files (x86)\Microchip\xc8\v2.10\pic\sources\c99\common\logf.c"
 11324 ;; Parameters:    Size  Location     Type
 11325 ;;  x               4   74[COMRAM] float 
 11326 ;; Auto vars:     Size  Location     Type
 11327 ;;  ix              4   62[BANK0 ] unsigned long 
 11328 ;;  f               4   58[BANK0 ] float 
 11329 ;;  u               4   54[BANK0 ] struct .
 11330 ;;  w               4   46[BANK0 ] float 
 11331 ;;  z               4   42[BANK0 ] float 
 11332 ;;  s               4   38[BANK0 ] float 
 11333 ;;  dk              4   34[BANK0 ] float 
 11334 ;;  hfsq            4   30[BANK0 ] float 
 11335 ;;  t2              4    8[BANK0 ] float 
 11336 ;;  t1              4    4[BANK0 ] float 
 11337 ;;  R               4    0[BANK0 ] float 
 11338 ;;  k               2   28[BANK0 ] int 
 11339 ;; Return value:  Size  Location     Type
 11340 ;;                  4   74[COMRAM] float 
 11341 ;; Registers used:
 11342 ;;		wreg, status,2, status,0, prodl, prodh, cstack
 11343 ;; Tracked objects:
 11344 ;;		On entry : 0/0
 11345 ;;		On exit  : 0/0
 11346 ;;		Unchanged: 0/0
 11347 ;; Data sizes:     COMRAM   BANK0   BANK1   BANK2   BANK3   BANK4   BANK5
 11348 ;;      Params:         4       0       0       0       0       0       0
 11349 ;;      Locals:         0      66       0       0       0       0       0
 11350 ;;      Temps:          6       0       0       0       0       0       0
 11351 ;;      Totals:        10      66       0       0       0       0       0
 11352 ;;Total ram usage:       76 bytes
 11353 ;; Hardware stack levels used:    1
 11354 ;; Hardware stack levels required when called:    2
 11355 ;; This function calls:
 11356 ;;		___fladd
 11357 ;;		___fldiv
 11358 ;;		___flmul
 11359 ;;		___flsub
 11360 ;;		___xxtofl
 11361 ;; This function is called by:
 11362 ;;		_MQGetPercentage
 11363 ;; This function uses a non-reentrant model
 11364 ;;
 11365                           
 11366                           	psect	text48
 11367  002E4C                     __ptext48:
 11368                           	opt callstack 0
 11369  002E4C                     _logf:
 11370                           	opt callstack 17
 11371                           
 11372                           ;incstack = 0
 11373  002E4C  C1CB  F0B6         	movff	logf@F469,logf@u
 11374  002E50  C1CC  F0B7         	movff	logf@F469+1,logf@u+1
 11375  002E54  C1CD  F0B8         	movff	logf@F469+2,logf@u+2
 11376  002E58  C1CE  F0B9         	movff	logf@F469+3,logf@u+3
 11377  002E5C  C04B  F0B6         	movff	logf@x,logf@u
 11378  002E60  C04C  F0B7         	movff	logf@x+1,logf@u+1
 11379  002E64  C04D  F0B8         	movff	logf@x+2,logf@u+2
 11380  002E68  C04E  F0B9         	movff	logf@x+3,logf@u+3
 11381  002E6C  C0B6  F0BE         	movff	logf@u,logf@ix
 11382  002E70  C0B7  F0BF         	movff	logf@u+1,logf@ix+1
 11383  002E74  C0B8  F0C0         	movff	logf@u+2,logf@ix+2
 11384  002E78  C0B9  F0C1         	movff	logf@u+3,logf@ix+3
 11385  002E7C  0E00               	movlw	0
 11386  002E7E  0100               	movlb	0	; () banked
 11387  002E80  6F9D               	movwf	(logf@k+1)& (0+255),b
 11388  002E82  0E00               	movlw	0
 11389  002E84  6F9C               	movwf	logf@k& (0+255),b
 11390                           
 11391                           ; BSR set to: 0
 11392  002E86  51C1               	movf	(logf@ix+3)& (0+255),w,b
 11393  002E88  E104               	bnz	i2u442_40
 11394  002E8A  0E80               	movlw	128
 11395  002E8C  5DC0               	subwf	(logf@ix+2)& (0+255),w,b
 11396  002E8E  A0D8               	btfss	status,0,c
 11397  002E90  D017               	goto	i2u444_40
 11398  002E92                     i2u442_40:
 11399                           
 11400                           ; BSR set to: 0
 11401  002E92  C0BE  F04F         	movff	logf@ix,??_logf
 11402  002E96  C0BF  F050         	movff	logf@ix+1,??_logf+1
 11403  002E9A  C0C0  F051         	movff	logf@ix+2,??_logf+2
 11404  002E9E  C0C1  F052         	movff	logf@ix+3,??_logf+3
 11405  002EA2  0E20               	movlw	32
 11406  002EA4  D005               	goto	i2u443_40
 11407  002EA6                     i2u443_45:
 11408  002EA6  90D8               	bcf	status,0,c
 11409  002EA8  3252               	rrcf	(??_logf+3)^0,f,c
 11410  002EAA  3251               	rrcf	(??_logf+2)^0,f,c
 11411  002EAC  3250               	rrcf	(??_logf+1)^0,f,c
 11412  002EAE  324F               	rrcf	??_logf^0,f,c
 11413  002EB0                     i2u443_40:
 11414  002EB0  2EE8               	decfsz	wreg,f,c
 11415  002EB2  D7F9               	goto	i2u443_45
 11416  002EB4  504F               	movf	??_logf^0,w,c
 11417  002EB6  1050               	iorwf	(??_logf+1)^0,w,c
 11418  002EB8  1051               	iorwf	(??_logf+2)^0,w,c
 11419  002EBA  1052               	iorwf	(??_logf+3)^0,w,c
 11420  002EBC  B4D8               	btfsc	status,2,c
 11421  002EBE  D0AF               	goto	i2l4337
 11422  002EC0                     i2u444_40:
 11423                           
 11424                           ; BSR set to: 0
 11425  002EC0  90D8               	bcf	status,0,c
 11426  002EC2  35BE               	rlcf	logf@ix& (0+255),w,b
 11427  002EC4  6E4F               	movwf	??_logf^0,c
 11428  002EC6  35BF               	rlcf	(logf@ix+1)& (0+255),w,b
 11429  002EC8  6E50               	movwf	(??_logf+1)^0,c
 11430  002ECA  35C0               	rlcf	(logf@ix+2)& (0+255),w,b
 11431  002ECC  6E51               	movwf	(??_logf+2)^0,c
 11432  002ECE  35C1               	rlcf	(logf@ix+3)& (0+255),w,b
 11433  002ED0  6E52               	movwf	(??_logf+3)^0,c
 11434  002ED2  504F               	movf	??_logf^0,w,c
 11435  002ED4  1050               	iorwf	(??_logf+1)^0,w,c
 11436  002ED6  1051               	iorwf	(??_logf+2)^0,w,c
 11437  002ED8  1052               	iorwf	(??_logf+3)^0,w,c
 11438  002EDA  A4D8               	btfss	status,2,c
 11439  002EDC  D02D               	goto	i2l4323
 11440                           
 11441                           ; BSR set to: 0
 11442  002EDE  0E00               	movlw	0
 11443  002EE0  6E32               	movwf	___fldiv@b^0,c
 11444  002EE2  0E00               	movlw	0
 11445  002EE4  6E33               	movwf	(___fldiv@b+1)^0,c
 11446  002EE6  0E80               	movlw	128
 11447  002EE8  6E34               	movwf	(___fldiv@b+2)^0,c
 11448  002EEA  0EBF               	movlw	191
 11449  002EEC  6E35               	movwf	(___fldiv@b+3)^0,c
 11450  002EEE  C04B  F015         	movff	logf@x,___flmul@a
 11451  002EF2  C04C  F016         	movff	logf@x+1,___flmul@a+1
 11452  002EF6  C04D  F017         	movff	logf@x+2,___flmul@a+2
 11453  002EFA  C04E  F018         	movff	logf@x+3,___flmul@a+3
 11454  002EFE  C04B  F011         	movff	logf@x,___flmul@b
 11455  002F02  C04C  F012         	movff	logf@x+1,___flmul@b+1
 11456  002F06  C04D  F013         	movff	logf@x+2,___flmul@b+2
 11457  002F0A  C04E  F014         	movff	logf@x+3,___flmul@b+3
 11458  002F0E  ECB2  F01C         	call	___flmul	;wreg free
 11459  002F12  C011  F036         	movff	?___flmul,___fldiv@a
 11460  002F16  C012  F037         	movff	?___flmul+1,___fldiv@a+1
 11461  002F1A  C013  F038         	movff	?___flmul+2,___fldiv@a+2
 11462  002F1E  C014  F039         	movff	?___flmul+3,___fldiv@a+3
 11463  002F22  EC4B  F021         	call	___fldiv	;wreg free
 11464  002F26  C032  F04B         	movff	?___fldiv,?_logf
 11465  002F2A  C033  F04C         	movff	?___fldiv+1,?_logf+1
 11466  002F2E  C034  F04D         	movff	?___fldiv+2,?_logf+2
 11467  002F32  C035  F04E         	movff	?___fldiv+3,?_logf+3
 11468  002F36  0012               	return	
 11469  002F38                     i2l4323:
 11470                           
 11471                           ; BSR set to: 0
 11472  002F38  C0BE  F04F         	movff	logf@ix,??_logf
 11473  002F3C  C0BF  F050         	movff	logf@ix+1,??_logf+1
 11474  002F40  C0C0  F051         	movff	logf@ix+2,??_logf+2
 11475  002F44  C0C1  F052         	movff	logf@ix+3,??_logf+3
 11476  002F48  0E20               	movlw	32
 11477  002F4A  D005               	goto	i2u446_40
 11478  002F4C                     i2u446_45:
 11479  002F4C  90D8               	bcf	status,0,c
 11480  002F4E  3252               	rrcf	(??_logf+3)^0,f,c
 11481  002F50  3251               	rrcf	(??_logf+2)^0,f,c
 11482  002F52  3250               	rrcf	(??_logf+1)^0,f,c
 11483  002F54  324F               	rrcf	??_logf^0,f,c
 11484  002F56                     i2u446_40:
 11485  002F56  2EE8               	decfsz	wreg,f,c
 11486  002F58  D7F9               	goto	i2u446_45
 11487  002F5A  504F               	movf	??_logf^0,w,c
 11488  002F5C  1050               	iorwf	(??_logf+1)^0,w,c
 11489  002F5E  1051               	iorwf	(??_logf+2)^0,w,c
 11490  002F60  1052               	iorwf	(??_logf+3)^0,w,c
 11491  002F62  B4D8               	btfsc	status,2,c
 11492  002F64  D02D               	goto	i2l4329
 11493                           
 11494                           ; BSR set to: 0
 11495  002F66  C04B  F02E         	movff	logf@x,___flsub@a
 11496  002F6A  C04C  F02F         	movff	logf@x+1,___flsub@a+1
 11497  002F6E  C04D  F030         	movff	logf@x+2,___flsub@a+2
 11498  002F72  C04E  F031         	movff	logf@x+3,___flsub@a+3
 11499  002F76  C04B  F02A         	movff	logf@x,___flsub@b
 11500  002F7A  C04C  F02B         	movff	logf@x+1,___flsub@b+1
 11501  002F7E  C04D  F02C         	movff	logf@x+2,___flsub@b+2
 11502  002F82  C04E  F02D         	movff	logf@x+3,___flsub@b+3
 11503  002F86  EC3C  F02E         	call	___flsub	;wreg free
 11504  002F8A  C02A  F032         	movff	?___flsub,___fldiv@b
 11505  002F8E  C02B  F033         	movff	?___flsub+1,___fldiv@b+1
 11506  002F92  C02C  F034         	movff	?___flsub+2,___fldiv@b+2
 11507  002F96  C02D  F035         	movff	?___flsub+3,___fldiv@b+3
 11508  002F9A  0E00               	movlw	0
 11509  002F9C  6E36               	movwf	___fldiv@a^0,c
 11510  002F9E  0E00               	movlw	0
 11511  002FA0  6E37               	movwf	(___fldiv@a+1)^0,c
 11512  002FA2  0E00               	movlw	0
 11513  002FA4  6E38               	movwf	(___fldiv@a+2)^0,c
 11514  002FA6  0E00               	movlw	0
 11515  002FA8  6E39               	movwf	(___fldiv@a+3)^0,c
 11516  002FAA  EC4B  F021         	call	___fldiv	;wreg free
 11517  002FAE  C032  F04B         	movff	?___fldiv,?_logf
 11518  002FB2  C033  F04C         	movff	?___fldiv+1,?_logf+1
 11519  002FB6  C034  F04D         	movff	?___fldiv+2,?_logf+2
 11520  002FBA  C035  F04E         	movff	?___fldiv+3,?_logf+3
 11521  002FBE  0012               	return	
 11522  002FC0                     i2l4329:
 11523                           
 11524                           ; BSR set to: 0
 11525  002FC0  0EE7               	movlw	231
 11526  002FC2  279C               	addwf	logf@k& (0+255),f,b
 11527  002FC4  0EFF               	movlw	255
 11528  002FC6  239D               	addwfc	(logf@k+1)& (0+255),f,b
 11529                           
 11530                           ; BSR set to: 0
 11531  002FC8  C04B  F011         	movff	logf@x,___flmul@b
 11532  002FCC  C04C  F012         	movff	logf@x+1,___flmul@b+1
 11533  002FD0  C04D  F013         	movff	logf@x+2,___flmul@b+2
 11534  002FD4  C04E  F014         	movff	logf@x+3,___flmul@b+3
 11535  002FD8  0E00               	movlw	0
 11536  002FDA  6E15               	movwf	___flmul@a^0,c
 11537  002FDC  0E00               	movlw	0
 11538  002FDE  6E16               	movwf	(___flmul@a+1)^0,c
 11539  002FE0  0E00               	movlw	0
 11540  002FE2  6E17               	movwf	(___flmul@a+2)^0,c
 11541  002FE4  0E4C               	movlw	76
 11542  002FE6  6E18               	movwf	(___flmul@a+3)^0,c
 11543  002FE8  ECB2  F01C         	call	___flmul	;wreg free
 11544  002FEC  C011  F04B         	movff	?___flmul,logf@x
 11545  002FF0  C012  F04C         	movff	?___flmul+1,logf@x+1
 11546  002FF4  C013  F04D         	movff	?___flmul+2,logf@x+2
 11547  002FF8  C014  F04E         	movff	?___flmul+3,logf@x+3
 11548  002FFC  C04B  F0B6         	movff	logf@x,logf@u
 11549  003000  C04C  F0B7         	movff	logf@x+1,logf@u+1
 11550  003004  C04D  F0B8         	movff	logf@x+2,logf@u+2
 11551  003008  C04E  F0B9         	movff	logf@x+3,logf@u+3
 11552  00300C  C0B6  F0BE         	movff	logf@u,logf@ix
 11553  003010  C0B7  F0BF         	movff	logf@u+1,logf@ix+1
 11554  003014  C0B8  F0C0         	movff	logf@u+2,logf@ix+2
 11555  003018  C0B9  F0C1         	movff	logf@u+3,logf@ix+3
 11556  00301C  D021               	goto	i2l4349
 11557  00301E                     i2l4337:
 11558                           
 11559                           ; BSR set to: 0
 11560  00301E  0E80               	movlw	128
 11561  003020  5DC0               	subwf	(logf@ix+2)& (0+255),w,b
 11562  003022  0E7F               	movlw	127
 11563  003024  59C1               	subwfb	(logf@ix+3)& (0+255),w,b
 11564  003026  A0D8               	btfss	status,0,c
 11565  003028  D009               	goto	i2l4343
 11566                           
 11567                           ; BSR set to: 0
 11568  00302A  C04B  F04B         	movff	logf@x,?_logf
 11569  00302E  C04C  F04C         	movff	logf@x+1,?_logf+1
 11570  003032  C04D  F04D         	movff	logf@x+2,?_logf+2
 11571  003036  C04E  F04E         	movff	logf@x+3,?_logf+3
 11572  00303A  0012               	return	
 11573  00303C                     i2l4343:
 11574                           
 11575                           ; BSR set to: 0
 11576  00303C  0E80               	movlw	128
 11577  00303E  19C0               	xorwf	(logf@ix+2)& (0+255),w,b
 11578  003040  E10F               	bnz	i2l4349
 11579  003042  0E3F               	movlw	63
 11580  003044  19C1               	xorwf	(logf@ix+3)& (0+255),w,b
 11581  003046  11BE               	iorwf	logf@ix& (0+255),w,b
 11582  003048  11BF               	iorwf	(logf@ix+1)& (0+255),w,b
 11583  00304A  A4D8               	btfss	status,2,c
 11584  00304C  D009               	goto	i2l4349
 11585                           
 11586                           ; BSR set to: 0
 11587  00304E  0E00               	movlw	0
 11588  003050  6E4B               	movwf	?_logf^0,c
 11589  003052  0E00               	movlw	0
 11590  003054  6E4C               	movwf	(?_logf+1)^0,c
 11591  003056  0E00               	movlw	0
 11592  003058  6E4D               	movwf	(?_logf+2)^0,c
 11593  00305A  0E00               	movlw	0
 11594  00305C  6E4E               	movwf	(?_logf+3)^0,c
 11595  00305E  0012               	return	
 11596  003060                     i2l4349:
 11597  003060  0E0D               	movlw	13
 11598  003062  0100               	movlb	0	; () banked
 11599  003064  27BE               	addwf	logf@ix& (0+255),f,b
 11600  003066  0EFB               	movlw	251
 11601  003068  23BF               	addwfc	(logf@ix+1)& (0+255),f,b
 11602  00306A  0E4A               	movlw	74
 11603  00306C  23C0               	addwfc	(logf@ix+2)& (0+255),f,b
 11604  00306E  0E00               	movlw	0
 11605  003070  23C1               	addwfc	(logf@ix+3)& (0+255),f,b
 11606  003072  0E81               	movlw	129
 11607  003074  6E4F               	movwf	??_logf^0,c
 11608  003076  0EFF               	movlw	255
 11609  003078  6E50               	movwf	(??_logf+1)^0,c
 11610  00307A  C0BE  F051         	movff	logf@ix,??_logf+2
 11611  00307E  C0BF  F052         	movff	logf@ix+1,??_logf+3
 11612  003082  C0C0  F053         	movff	logf@ix+2,??_logf+4
 11613  003086  C0C1  F054         	movff	logf@ix+3,??_logf+5
 11614  00308A  0E18               	movlw	24
 11615  00308C  D005               	goto	i2u450_40
 11616  00308E                     i2u450_45:
 11617  00308E  90D8               	bcf	status,0,c
 11618  003090  3254               	rrcf	(??_logf+5)^0,f,c
 11619  003092  3253               	rrcf	(??_logf+4)^0,f,c
 11620  003094  3252               	rrcf	(??_logf+3)^0,f,c
 11621  003096  3251               	rrcf	(??_logf+2)^0,f,c
 11622  003098                     i2u450_40:
 11623  003098  2EE8               	decfsz	wreg,f,c
 11624  00309A  D7F9               	goto	i2u450_45
 11625  00309C  504F               	movf	??_logf^0,w,c
 11626  00309E  2651               	addwf	(??_logf+2)^0,f,c
 11627  0030A0  5050               	movf	(??_logf+1)^0,w,c
 11628  0030A2  2252               	addwfc	(??_logf+3)^0,f,c
 11629  0030A4  5051               	movf	(??_logf+2)^0,w,c
 11630  0030A6  279C               	addwf	logf@k& (0+255),f,b
 11631  0030A8  5052               	movf	(??_logf+3)^0,w,c
 11632  0030AA  239D               	addwfc	(logf@k+1)& (0+255),f,b
 11633  0030AC  0EFF               	movlw	255
 11634  0030AE  15BE               	andwf	logf@ix& (0+255),w,b
 11635  0030B0  6E4F               	movwf	??_logf^0,c
 11636  0030B2  0EFF               	movlw	255
 11637  0030B4  15BF               	andwf	(logf@ix+1)& (0+255),w,b
 11638  0030B6  6E50               	movwf	(??_logf+1)^0,c
 11639  0030B8  0E7F               	movlw	127
 11640  0030BA  15C0               	andwf	(logf@ix+2)& (0+255),w,b
 11641  0030BC  6E51               	movwf	(??_logf+2)^0,c
 11642  0030BE  0E00               	movlw	0
 11643  0030C0  15C1               	andwf	(logf@ix+3)& (0+255),w,b
 11644  0030C2  6E52               	movwf	(??_logf+3)^0,c
 11645  0030C4  0EF3               	movlw	243
 11646  0030C6  244F               	addwf	??_logf^0,w,c
 11647  0030C8  6FBE               	movwf	logf@ix& (0+255),b
 11648  0030CA  0E04               	movlw	4
 11649  0030CC  2050               	addwfc	(??_logf+1)^0,w,c
 11650  0030CE  6FBF               	movwf	(logf@ix+1)& (0+255),b
 11651  0030D0  0E35               	movlw	53
 11652  0030D2  2051               	addwfc	(??_logf+2)^0,w,c
 11653  0030D4  6FC0               	movwf	(logf@ix+2)& (0+255),b
 11654  0030D6  0E3F               	movlw	63
 11655  0030D8  2052               	addwfc	(??_logf+3)^0,w,c
 11656  0030DA  6FC1               	movwf	(logf@ix+3)& (0+255),b
 11657                           
 11658                           ; BSR set to: 0
 11659  0030DC  C0BE  F0B6         	movff	logf@ix,logf@u
 11660  0030E0  C0BF  F0B7         	movff	logf@ix+1,logf@u+1
 11661  0030E4  C0C0  F0B8         	movff	logf@ix+2,logf@u+2
 11662  0030E8  C0C1  F0B9         	movff	logf@ix+3,logf@u+3
 11663                           
 11664                           ; BSR set to: 0
 11665  0030EC  C0B6  F04B         	movff	logf@u,logf@x
 11666  0030F0  C0B7  F04C         	movff	logf@u+1,logf@x+1
 11667  0030F4  C0B8  F04D         	movff	logf@u+2,logf@x+2
 11668  0030F8  C0B9  F04E         	movff	logf@u+3,logf@x+3
 11669                           
 11670                           ; BSR set to: 0
 11671  0030FC  C04B  F001         	movff	logf@x,___fladd@b
 11672  003100  C04C  F002         	movff	logf@x+1,___fladd@b+1
 11673  003104  C04D  F003         	movff	logf@x+2,___fladd@b+2
 11674  003108  C04E  F004         	movff	logf@x+3,___fladd@b+3
 11675  00310C  0E00               	movlw	0
 11676  00310E  6E05               	movwf	___fladd@a^0,c
 11677  003110  0E00               	movlw	0
 11678  003112  6E06               	movwf	(___fladd@a+1)^0,c
 11679  003114  0E80               	movlw	128
 11680  003116  6E07               	movwf	(___fladd@a+2)^0,c
 11681  003118  0EBF               	movlw	191
 11682  00311A  6E08               	movwf	(___fladd@a+3)^0,c
 11683  00311C  EC5B  F01E         	call	___fladd	;wreg free
 11684  003120  C001  F0BA         	movff	?___fladd,logf@f
 11685  003124  C002  F0BB         	movff	?___fladd+1,logf@f+1
 11686  003128  C003  F0BC         	movff	?___fladd+2,logf@f+2
 11687  00312C  C004  F0BD         	movff	?___fladd+3,logf@f+3
 11688  003130  C0BA  F032         	movff	logf@f,___fldiv@b
 11689  003134  C0BB  F033         	movff	logf@f+1,___fldiv@b+1
 11690  003138  C0BC  F034         	movff	logf@f+2,___fldiv@b+2
 11691  00313C  C0BD  F035         	movff	logf@f+3,___fldiv@b+3
 11692  003140  0E00               	movlw	0
 11693  003142  6E05               	movwf	___fladd@a^0,c
 11694  003144  0E00               	movlw	0
 11695  003146  6E06               	movwf	(___fladd@a+1)^0,c
 11696  003148  0E00               	movlw	0
 11697  00314A  6E07               	movwf	(___fladd@a+2)^0,c
 11698  00314C  0E40               	movlw	64
 11699  00314E  6E08               	movwf	(___fladd@a+3)^0,c
 11700  003150  C0BA  F001         	movff	logf@f,___fladd@b
 11701  003154  C0BB  F002         	movff	logf@f+1,___fladd@b+1
 11702  003158  C0BC  F003         	movff	logf@f+2,___fladd@b+2
 11703  00315C  C0BD  F004         	movff	logf@f+3,___fladd@b+3
 11704  003160  EC5B  F01E         	call	___fladd	;wreg free
 11705  003164  C001  F036         	movff	?___fladd,___fldiv@a
 11706  003168  C002  F037         	movff	?___fladd+1,___fldiv@a+1
 11707  00316C  C003  F038         	movff	?___fladd+2,___fldiv@a+2
 11708  003170  C004  F039         	movff	?___fladd+3,___fldiv@a+3
 11709  003174  EC4B  F021         	call	___fldiv	;wreg free
 11710  003178  C032  F0A6         	movff	?___fldiv,logf@s
 11711  00317C  C033  F0A7         	movff	?___fldiv+1,logf@s+1
 11712  003180  C034  F0A8         	movff	?___fldiv+2,logf@s+2
 11713  003184  C035  F0A9         	movff	?___fldiv+3,logf@s+3
 11714  003188  C0A6  F011         	movff	logf@s,___flmul@b
 11715  00318C  C0A7  F012         	movff	logf@s+1,___flmul@b+1
 11716  003190  C0A8  F013         	movff	logf@s+2,___flmul@b+2
 11717  003194  C0A9  F014         	movff	logf@s+3,___flmul@b+3
 11718  003198  C0A6  F015         	movff	logf@s,___flmul@a
 11719  00319C  C0A7  F016         	movff	logf@s+1,___flmul@a+1
 11720  0031A0  C0A8  F017         	movff	logf@s+2,___flmul@a+2
 11721  0031A4  C0A9  F018         	movff	logf@s+3,___flmul@a+3
 11722  0031A8  ECB2  F01C         	call	___flmul	;wreg free
 11723  0031AC  C011  F0AA         	movff	?___flmul,logf@z
 11724  0031B0  C012  F0AB         	movff	?___flmul+1,logf@z+1
 11725  0031B4  C013  F0AC         	movff	?___flmul+2,logf@z+2
 11726  0031B8  C014  F0AD         	movff	?___flmul+3,logf@z+3
 11727  0031BC  C0AA  F011         	movff	logf@z,___flmul@b
 11728  0031C0  C0AB  F012         	movff	logf@z+1,___flmul@b+1
 11729  0031C4  C0AC  F013         	movff	logf@z+2,___flmul@b+2
 11730  0031C8  C0AD  F014         	movff	logf@z+3,___flmul@b+3
 11731  0031CC  C0AA  F015         	movff	logf@z,___flmul@a
 11732  0031D0  C0AB  F016         	movff	logf@z+1,___flmul@a+1
 11733  0031D4  C0AC  F017         	movff	logf@z+2,___flmul@a+2
 11734  0031D8  C0AD  F018         	movff	logf@z+3,___flmul@a+3
 11735  0031DC  ECB2  F01C         	call	___flmul	;wreg free
 11736  0031E0  C011  F0AE         	movff	?___flmul,logf@w
 11737  0031E4  C012  F0AF         	movff	?___flmul+1,logf@w+1
 11738  0031E8  C013  F0B0         	movff	?___flmul+2,logf@w+2
 11739  0031EC  C014  F0B1         	movff	?___flmul+3,logf@w+3
 11740  0031F0  0E13               	movlw	19
 11741  0031F2  6E05               	movwf	___fladd@a^0,c
 11742  0031F4  0ECE               	movlw	206
 11743  0031F6  6E06               	movwf	(___fladd@a+1)^0,c
 11744  0031F8  0ECC               	movlw	204
 11745  0031FA  6E07               	movwf	(___fladd@a+2)^0,c
 11746  0031FC  0E3E               	movlw	62
 11747  0031FE  6E08               	movwf	(___fladd@a+3)^0,c
 11748  003200  0E26               	movlw	38
 11749  003202  6E15               	movwf	___flmul@a^0,c
 11750  003204  0E9E               	movlw	158
 11751  003206  6E16               	movwf	(___flmul@a+1)^0,c
 11752  003208  0E78               	movlw	120
 11753  00320A  6E17               	movwf	(___flmul@a+2)^0,c
 11754  00320C  0E3E               	movlw	62
 11755  00320E  6E18               	movwf	(___flmul@a+3)^0,c
 11756  003210  C0AE  F011         	movff	logf@w,___flmul@b
 11757  003214  C0AF  F012         	movff	logf@w+1,___flmul@b+1
 11758  003218  C0B0  F013         	movff	logf@w+2,___flmul@b+2
 11759  00321C  C0B1  F014         	movff	logf@w+3,___flmul@b+3
 11760  003220  ECB2  F01C         	call	___flmul	;wreg free
 11761  003224  C011  F001         	movff	?___flmul,___fladd@b
 11762  003228  C012  F002         	movff	?___flmul+1,___fladd@b+1
 11763  00322C  C013  F003         	movff	?___flmul+2,___fladd@b+2
 11764  003230  C014  F004         	movff	?___flmul+3,___fladd@b+3
 11765  003234  EC5B  F01E         	call	___fladd	;wreg free
 11766  003238  C001  F0B2         	movff	?___fladd,_logf$2130
 11767  00323C  C002  F0B3         	movff	?___fladd+1,_logf$2130+1
 11768  003240  C003  F0B4         	movff	?___fladd+2,_logf$2130+2
 11769  003244  C004  F0B5         	movff	?___fladd+3,_logf$2130+3
 11770  003248  C0B2  F011         	movff	_logf$2130,___flmul@b
 11771  00324C  C0B3  F012         	movff	_logf$2130+1,___flmul@b+1
 11772  003250  C0B4  F013         	movff	_logf$2130+2,___flmul@b+2
 11773  003254  C0B5  F014         	movff	_logf$2130+3,___flmul@b+3
 11774  003258  C0AE  F015         	movff	logf@w,___flmul@a
 11775  00325C  C0AF  F016         	movff	logf@w+1,___flmul@a+1
 11776  003260  C0B0  F017         	movff	logf@w+2,___flmul@a+2
 11777  003264  C0B1  F018         	movff	logf@w+3,___flmul@a+3
 11778  003268  ECB2  F01C         	call	___flmul	;wreg free
 11779  00326C  C011  F084         	movff	?___flmul,logf@t1
 11780  003270  C012  F085         	movff	?___flmul+1,logf@t1+1
 11781  003274  C013  F086         	movff	?___flmul+2,logf@t1+2
 11782  003278  C014  F087         	movff	?___flmul+3,logf@t1+3
 11783  00327C  0EAA               	movlw	170
 11784  00327E  6E05               	movwf	___fladd@a^0,c
 11785  003280  0EAA               	movlw	170
 11786  003282  6E06               	movwf	(___fladd@a+1)^0,c
 11787  003284  0E2A               	movlw	42
 11788  003286  6E07               	movwf	(___fladd@a+2)^0,c
 11789  003288  0E3F               	movlw	63
 11790  00328A  6E08               	movwf	(___fladd@a+3)^0,c
 11791  00328C  0EEE               	movlw	238
 11792  00328E  6E15               	movwf	___flmul@a^0,c
 11793  003290  0EE9               	movlw	233
 11794  003292  6E16               	movwf	(___flmul@a+1)^0,c
 11795  003294  0E91               	movlw	145
 11796  003296  6E17               	movwf	(___flmul@a+2)^0,c
 11797  003298  0E3E               	movlw	62
 11798  00329A  6E18               	movwf	(___flmul@a+3)^0,c
 11799  00329C  C0AE  F011         	movff	logf@w,___flmul@b
 11800  0032A0  C0AF  F012         	movff	logf@w+1,___flmul@b+1
 11801  0032A4  C0B0  F013         	movff	logf@w+2,___flmul@b+2
 11802  0032A8  C0B1  F014         	movff	logf@w+3,___flmul@b+3
 11803  0032AC  ECB2  F01C         	call	___flmul	;wreg free
 11804  0032B0  C011  F001         	movff	?___flmul,___fladd@b
 11805  0032B4  C012  F002         	movff	?___flmul+1,___fladd@b+1
 11806  0032B8  C013  F003         	movff	?___flmul+2,___fladd@b+2
 11807  0032BC  C014  F004         	movff	?___flmul+3,___fladd@b+3
 11808  0032C0  EC5B  F01E         	call	___fladd	;wreg free
 11809  0032C4  C001  F0B2         	movff	?___fladd,_logf$2130
 11810  0032C8  C002  F0B3         	movff	?___fladd+1,_logf$2130+1
 11811  0032CC  C003  F0B4         	movff	?___fladd+2,_logf$2130+2
 11812  0032D0  C004  F0B5         	movff	?___fladd+3,_logf$2130+3
 11813  0032D4  C0B2  F011         	movff	_logf$2130,___flmul@b
 11814  0032D8  C0B3  F012         	movff	_logf$2130+1,___flmul@b+1
 11815  0032DC  C0B4  F013         	movff	_logf$2130+2,___flmul@b+2
 11816  0032E0  C0B5  F014         	movff	_logf$2130+3,___flmul@b+3
 11817  0032E4  C0AA  F015         	movff	logf@z,___flmul@a
 11818  0032E8  C0AB  F016         	movff	logf@z+1,___flmul@a+1
 11819  0032EC  C0AC  F017         	movff	logf@z+2,___flmul@a+2
 11820  0032F0  C0AD  F018         	movff	logf@z+3,___flmul@a+3
 11821  0032F4  ECB2  F01C         	call	___flmul	;wreg free
 11822  0032F8  C011  F088         	movff	?___flmul,logf@t2
 11823  0032FC  C012  F089         	movff	?___flmul+1,logf@t2+1
 11824  003300  C013  F08A         	movff	?___flmul+2,logf@t2+2
 11825  003304  C014  F08B         	movff	?___flmul+3,logf@t2+3
 11826  003308  C088  F001         	movff	logf@t2,___fladd@b
 11827  00330C  C089  F002         	movff	logf@t2+1,___fladd@b+1
 11828  003310  C08A  F003         	movff	logf@t2+2,___fladd@b+2
 11829  003314  C08B  F004         	movff	logf@t2+3,___fladd@b+3
 11830  003318  C084  F005         	movff	logf@t1,___fladd@a
 11831  00331C  C085  F006         	movff	logf@t1+1,___fladd@a+1
 11832  003320  C086  F007         	movff	logf@t1+2,___fladd@a+2
 11833  003324  C087  F008         	movff	logf@t1+3,___fladd@a+3
 11834  003328  EC5B  F01E         	call	___fladd	;wreg free
 11835  00332C  C001  F080         	movff	?___fladd,logf@R
 11836  003330  C002  F081         	movff	?___fladd+1,logf@R+1
 11837  003334  C003  F082         	movff	?___fladd+2,logf@R+2
 11838  003338  C004  F083         	movff	?___fladd+3,logf@R+3
 11839  00333C  0E00               	movlw	0
 11840  00333E  6E15               	movwf	___flmul@a^0,c
 11841  003340  0E00               	movlw	0
 11842  003342  6E16               	movwf	(___flmul@a+1)^0,c
 11843  003344  0E00               	movlw	0
 11844  003346  6E17               	movwf	(___flmul@a+2)^0,c
 11845  003348  0E3F               	movlw	63
 11846  00334A  6E18               	movwf	(___flmul@a+3)^0,c
 11847  00334C  C0BA  F011         	movff	logf@f,___flmul@b
 11848  003350  C0BB  F012         	movff	logf@f+1,___flmul@b+1
 11849  003354  C0BC  F013         	movff	logf@f+2,___flmul@b+2
 11850  003358  C0BD  F014         	movff	logf@f+3,___flmul@b+3
 11851  00335C  ECB2  F01C         	call	___flmul	;wreg free
 11852  003360  C011  F0B2         	movff	?___flmul,_logf$2130
 11853  003364  C012  F0B3         	movff	?___flmul+1,_logf$2130+1
 11854  003368  C013  F0B4         	movff	?___flmul+2,_logf$2130+2
 11855  00336C  C014  F0B5         	movff	?___flmul+3,_logf$2130+3
 11856  003370  C0B2  F011         	movff	_logf$2130,___flmul@b
 11857  003374  C0B3  F012         	movff	_logf$2130+1,___flmul@b+1
 11858  003378  C0B4  F013         	movff	_logf$2130+2,___flmul@b+2
 11859  00337C  C0B5  F014         	movff	_logf$2130+3,___flmul@b+3
 11860  003380  C0BA  F015         	movff	logf@f,___flmul@a
 11861  003384  C0BB  F016         	movff	logf@f+1,___flmul@a+1
 11862  003388  C0BC  F017         	movff	logf@f+2,___flmul@a+2
 11863  00338C  C0BD  F018         	movff	logf@f+3,___flmul@a+3
 11864  003390  ECB2  F01C         	call	___flmul	;wreg free
 11865  003394  C011  F09E         	movff	?___flmul,logf@hfsq
 11866  003398  C012  F09F         	movff	?___flmul+1,logf@hfsq+1
 11867  00339C  C013  F0A0         	movff	?___flmul+2,logf@hfsq+2
 11868  0033A0  C014  F0A1         	movff	?___flmul+3,logf@hfsq+3
 11869  0033A4  C09C  F001         	movff	logf@k,___xxtofl@val
 11870  0033A8  C09D  F002         	movff	logf@k+1,___xxtofl@val+1
 11871  0033AC  0E00               	movlw	0
 11872  0033AE  BE02               	btfsc	(___xxtofl@val+1)^0,7,c
 11873  0033B0  0EFF               	movlw	-1
 11874  0033B2  6E03               	movwf	(___xxtofl@val+2)^0,c
 11875  0033B4  6E04               	movwf	(___xxtofl@val+3)^0,c
 11876  0033B6  0E01               	movlw	1
 11877  0033B8  ECF2  F028         	call	___xxtofl
 11878  0033BC  C001  F0A2         	movff	?___xxtofl,logf@dk
 11879  0033C0  C002  F0A3         	movff	?___xxtofl+1,logf@dk+1
 11880  0033C4  C003  F0A4         	movff	?___xxtofl+2,logf@dk+2
 11881  0033C8  C004  F0A5         	movff	?___xxtofl+3,logf@dk+3
 11882  0033CC  C0A6  F015         	movff	logf@s,___flmul@a
 11883  0033D0  C0A7  F016         	movff	logf@s+1,___flmul@a+1
 11884  0033D4  C0A8  F017         	movff	logf@s+2,___flmul@a+2
 11885  0033D8  C0A9  F018         	movff	logf@s+3,___flmul@a+3
 11886  0033DC  C080  F005         	movff	logf@R,___fladd@a
 11887  0033E0  C081  F006         	movff	logf@R+1,___fladd@a+1
 11888  0033E4  C082  F007         	movff	logf@R+2,___fladd@a+2
 11889  0033E8  C083  F008         	movff	logf@R+3,___fladd@a+3
 11890  0033EC  C09E  F001         	movff	logf@hfsq,___fladd@b
 11891  0033F0  C09F  F002         	movff	logf@hfsq+1,___fladd@b+1
 11892  0033F4  C0A0  F003         	movff	logf@hfsq+2,___fladd@b+2
 11893  0033F8  C0A1  F004         	movff	logf@hfsq+3,___fladd@b+3
 11894  0033FC  EC5B  F01E         	call	___fladd	;wreg free
 11895  003400  C001  F011         	movff	?___fladd,___flmul@b
 11896  003404  C002  F012         	movff	?___fladd+1,___flmul@b+1
 11897  003408  C003  F013         	movff	?___fladd+2,___flmul@b+2
 11898  00340C  C004  F014         	movff	?___fladd+3,___flmul@b+3
 11899  003410  ECB2  F01C         	call	___flmul	;wreg free
 11900  003414  C011  F08C         	movff	?___flmul,_logf$2131
 11901  003418  C012  F08D         	movff	?___flmul+1,_logf$2131+1
 11902  00341C  C013  F08E         	movff	?___flmul+2,_logf$2131+2
 11903  003420  C014  F08F         	movff	?___flmul+3,_logf$2131+3
 11904  003424  0ED1               	movlw	209
 11905  003426  6E15               	movwf	___flmul@a^0,c
 11906  003428  0EF7               	movlw	247
 11907  00342A  6E16               	movwf	(___flmul@a+1)^0,c
 11908  00342C  0E17               	movlw	23
 11909  00342E  6E17               	movwf	(___flmul@a+2)^0,c
 11910  003430  0E37               	movlw	55
 11911  003432  6E18               	movwf	(___flmul@a+3)^0,c
 11912  003434  C0A2  F011         	movff	logf@dk,___flmul@b
 11913  003438  C0A3  F012         	movff	logf@dk+1,___flmul@b+1
 11914  00343C  C0A4  F013         	movff	logf@dk+2,___flmul@b+2
 11915  003440  C0A5  F014         	movff	logf@dk+3,___flmul@b+3
 11916  003444  ECB2  F01C         	call	___flmul	;wreg free
 11917  003448  C011  F005         	movff	?___flmul,___fladd@a
 11918  00344C  C012  F006         	movff	?___flmul+1,___fladd@a+1
 11919  003450  C013  F007         	movff	?___flmul+2,___fladd@a+2
 11920  003454  C014  F008         	movff	?___flmul+3,___fladd@a+3
 11921  003458  C08C  F001         	movff	_logf$2131,___fladd@b
 11922  00345C  C08D  F002         	movff	_logf$2131+1,___fladd@b+1
 11923  003460  C08E  F003         	movff	_logf$2131+2,___fladd@b+2
 11924  003464  C08F  F004         	movff	_logf$2131+3,___fladd@b+3
 11925  003468  EC5B  F01E         	call	___fladd	;wreg free
 11926  00346C  C001  F090         	movff	?___fladd,_logf$2132
 11927  003470  C002  F091         	movff	?___fladd+1,_logf$2132+1
 11928  003474  C003  F092         	movff	?___fladd+2,_logf$2132+2
 11929  003478  C004  F093         	movff	?___fladd+3,_logf$2132+3
 11930  00347C  C09E  F02E         	movff	logf@hfsq,___flsub@a
 11931  003480  C09F  F02F         	movff	logf@hfsq+1,___flsub@a+1
 11932  003484  C0A0  F030         	movff	logf@hfsq+2,___flsub@a+2
 11933  003488  C0A1  F031         	movff	logf@hfsq+3,___flsub@a+3
 11934  00348C  C090  F02A         	movff	_logf$2132,___flsub@b
 11935  003490  C091  F02B         	movff	_logf$2132+1,___flsub@b+1
 11936  003494  C092  F02C         	movff	_logf$2132+2,___flsub@b+2
 11937  003498  C093  F02D         	movff	_logf$2132+3,___flsub@b+3
 11938  00349C  EC3C  F02E         	call	___flsub	;wreg free
 11939  0034A0  C02A  F094         	movff	?___flsub,_logf$2133
 11940  0034A4  C02B  F095         	movff	?___flsub+1,_logf$2133+1
 11941  0034A8  C02C  F096         	movff	?___flsub+2,_logf$2133+2
 11942  0034AC  C02D  F097         	movff	?___flsub+3,_logf$2133+3
 11943  0034B0  C0BA  F005         	movff	logf@f,___fladd@a
 11944  0034B4  C0BB  F006         	movff	logf@f+1,___fladd@a+1
 11945  0034B8  C0BC  F007         	movff	logf@f+2,___fladd@a+2
 11946  0034BC  C0BD  F008         	movff	logf@f+3,___fladd@a+3
 11947  0034C0  C094  F001         	movff	_logf$2133,___fladd@b
 11948  0034C4  C095  F002         	movff	_logf$2133+1,___fladd@b+1
 11949  0034C8  C096  F003         	movff	_logf$2133+2,___fladd@b+2
 11950  0034CC  C097  F004         	movff	_logf$2133+3,___fladd@b+3
 11951  0034D0  EC5B  F01E         	call	___fladd	;wreg free
 11952  0034D4  C001  F098         	movff	?___fladd,_logf$2134
 11953  0034D8  C002  F099         	movff	?___fladd+1,_logf$2134+1
 11954  0034DC  C003  F09A         	movff	?___fladd+2,_logf$2134+2
 11955  0034E0  C004  F09B         	movff	?___fladd+3,_logf$2134+3
 11956  0034E4  C098  F001         	movff	_logf$2134,___fladd@b
 11957  0034E8  C099  F002         	movff	_logf$2134+1,___fladd@b+1
 11958  0034EC  C09A  F003         	movff	_logf$2134+2,___fladd@b+2
 11959  0034F0  C09B  F004         	movff	_logf$2134+3,___fladd@b+3
 11960  0034F4  0E80               	movlw	128
 11961  0034F6  6E15               	movwf	___flmul@a^0,c
 11962  0034F8  0E71               	movlw	113
 11963  0034FA  6E16               	movwf	(___flmul@a+1)^0,c
 11964  0034FC  0E31               	movlw	49
 11965  0034FE  6E17               	movwf	(___flmul@a+2)^0,c
 11966  003500  0E3F               	movlw	63
 11967  003502  6E18               	movwf	(___flmul@a+3)^0,c
 11968  003504  C0A2  F011         	movff	logf@dk,___flmul@b
 11969  003508  C0A3  F012         	movff	logf@dk+1,___flmul@b+1
 11970  00350C  C0A4  F013         	movff	logf@dk+2,___flmul@b+2
 11971  003510  C0A5  F014         	movff	logf@dk+3,___flmul@b+3
 11972  003514  ECB2  F01C         	call	___flmul	;wreg free
 11973  003518  C011  F005         	movff	?___flmul,___fladd@a
 11974  00351C  C012  F006         	movff	?___flmul+1,___fladd@a+1
 11975  003520  C013  F007         	movff	?___flmul+2,___fladd@a+2
 11976  003524  C014  F008         	movff	?___flmul+3,___fladd@a+3
 11977  003528  EC5B  F01E         	call	___fladd	;wreg free
 11978  00352C  C001  F04B         	movff	?___fladd,?_logf
 11979  003530  C002  F04C         	movff	?___fladd+1,?_logf+1
 11980  003534  C003  F04D         	movff	?___fladd+2,?_logf+2
 11981  003538  C004  F04E         	movff	?___fladd+3,?_logf+3
 11982  00353C  0012               	return		;funcret
 11983  00353E                     __end_of_logf:
 11984                           	opt callstack 0
 11985                           
 11986 ;; *************** function ___xxtofl *****************
 11987 ;; Defined at:
 11988 ;;		line 10 in file "C:\Program Files (x86)\Microchip\xc8\v2.10\pic\sources\c99\common\xxtofl.c"
 11989 ;; Parameters:    Size  Location     Type
 11990 ;;  sign            1    wreg     unsigned char 
 11991 ;;  val             4    0[COMRAM] long 
 11992 ;; Auto vars:     Size  Location     Type
 11993 ;;  sign            1    8[COMRAM] unsigned char 
 11994 ;;  arg             4   10[COMRAM] unsigned long 
 11995 ;;  exp             1    9[COMRAM] unsigned char 
 11996 ;; Return value:  Size  Location     Type
 11997 ;;                  4    0[COMRAM] unsigned char 
 11998 ;; Registers used:
 11999 ;;		wreg, status,2, status,0
 12000 ;; Tracked objects:
 12001 ;;		On entry : 0/0
 12002 ;;		On exit  : 0/0
 12003 ;;		Unchanged: 0/0
 12004 ;; Data sizes:     COMRAM   BANK0   BANK1   BANK2   BANK3   BANK4   BANK5
 12005 ;;      Params:         4       0       0       0       0       0       0
 12006 ;;      Locals:         6       0       0       0       0       0       0
 12007 ;;      Temps:          4       0       0       0       0       0       0
 12008 ;;      Totals:        14       0       0       0       0       0       0
 12009 ;;Total ram usage:       14 bytes
 12010 ;; Hardware stack levels used:    1
 12011 ;; This function calls:
 12012 ;;		Nothing
 12013 ;; This function is called by:
 12014 ;;		_MQGetGasPercentage
 12015 ;;		_MQ_Read
 12016 ;;		_logf
 12017 ;;		_powf
 12018 ;; This function uses a non-reentrant model
 12019 ;;
 12020                           
 12021                           	psect	text49
 12022  0051E4                     __ptext49:
 12023                           	opt callstack 0
 12024  0051E4                     ___xxtofl:
 12025                           	opt callstack 21
 12026                           
 12027                           ;incstack = 0
 12028                           ;___xxtofl@sign stored from wreg
 12029  0051E4  6E09               	movwf	___xxtofl@sign^0,c
 12030  0051E6  5009               	movf	___xxtofl@sign^0,w,c
 12031  0051E8  A4D8               	btfss	status,2,c
 12032  0051EA  AE04               	btfss	(___xxtofl@val+3)^0,7,c
 12033  0051EC  D01A               	goto	i2l1060
 12034  0051EE  C001  F005         	movff	___xxtofl@val,??___xxtofl
 12035  0051F2  C002  F006         	movff	___xxtofl@val+1,??___xxtofl+1
 12036  0051F6  C003  F007         	movff	___xxtofl@val+2,??___xxtofl+2
 12037  0051FA  C004  F008         	movff	___xxtofl@val+3,??___xxtofl+3
 12038  0051FE  1E05               	comf	??___xxtofl^0,f,c
 12039  005200  1E06               	comf	(??___xxtofl+1)^0,f,c
 12040  005202  1E07               	comf	(??___xxtofl+2)^0,f,c
 12041  005204  1E08               	comf	(??___xxtofl+3)^0,f,c
 12042  005206  2A05               	incf	??___xxtofl^0,f,c
 12043  005208  0E00               	movlw	0
 12044  00520A  2206               	addwfc	(??___xxtofl+1)^0,f,c
 12045  00520C  2207               	addwfc	(??___xxtofl+2)^0,f,c
 12046  00520E  2208               	addwfc	(??___xxtofl+3)^0,f,c
 12047  005210  C005  F00B         	movff	??___xxtofl,___xxtofl@arg
 12048  005214  C006  F00C         	movff	??___xxtofl+1,___xxtofl@arg+1
 12049  005218  C007  F00D         	movff	??___xxtofl+2,___xxtofl@arg+2
 12050  00521C  C008  F00E         	movff	??___xxtofl+3,___xxtofl@arg+3
 12051  005220  D008               	goto	i2l4131
 12052  005222                     i2l1060:
 12053  005222  C001  F00B         	movff	___xxtofl@val,___xxtofl@arg
 12054  005226  C002  F00C         	movff	___xxtofl@val+1,___xxtofl@arg+1
 12055  00522A  C003  F00D         	movff	___xxtofl@val+2,___xxtofl@arg+2
 12056  00522E  C004  F00E         	movff	___xxtofl@val+3,___xxtofl@arg+3
 12057  005232                     i2l4131:
 12058  005232  5001               	movf	___xxtofl@val^0,w,c
 12059  005234  1002               	iorwf	(___xxtofl@val+1)^0,w,c
 12060  005236  1003               	iorwf	(___xxtofl@val+2)^0,w,c
 12061  005238  1004               	iorwf	(___xxtofl@val+3)^0,w,c
 12062  00523A  A4D8               	btfss	status,2,c
 12063  00523C  D009               	goto	i2l4137
 12064  00523E  0E00               	movlw	0
 12065  005240  6E01               	movwf	?___xxtofl^0,c
 12066  005242  0E00               	movlw	0
 12067  005244  6E02               	movwf	(?___xxtofl+1)^0,c
 12068  005246  0E00               	movlw	0
 12069  005248  6E03               	movwf	(?___xxtofl+2)^0,c
 12070  00524A  0E00               	movlw	0
 12071  00524C  6E04               	movwf	(?___xxtofl+3)^0,c
 12072  00524E  0012               	return	
 12073  005250                     i2l4137:
 12074  005250  0E96               	movlw	150
 12075  005252  6E0A               	movwf	___xxtofl@exp^0,c
 12076  005254  D006               	goto	i2l4141
 12077  005256                     i2l4139:
 12078  005256  2A0A               	incf	___xxtofl@exp^0,f,c
 12079  005258  90D8               	bcf	status,0,c
 12080  00525A  320E               	rrcf	(___xxtofl@arg+3)^0,f,c
 12081  00525C  320D               	rrcf	(___xxtofl@arg+2)^0,f,c
 12082  00525E  320C               	rrcf	(___xxtofl@arg+1)^0,f,c
 12083  005260  320B               	rrcf	___xxtofl@arg^0,f,c
 12084  005262                     i2l4141:
 12085  005262  0E00               	movlw	0
 12086  005264  140B               	andwf	___xxtofl@arg^0,w,c
 12087  005266  6E05               	movwf	??___xxtofl^0,c
 12088  005268  0E00               	movlw	0
 12089  00526A  140C               	andwf	(___xxtofl@arg+1)^0,w,c
 12090  00526C  6E06               	movwf	(??___xxtofl+1)^0,c
 12091  00526E  0E00               	movlw	0
 12092  005270  140D               	andwf	(___xxtofl@arg+2)^0,w,c
 12093  005272  6E07               	movwf	(??___xxtofl+2)^0,c
 12094  005274  0EFE               	movlw	254
 12095  005276  140E               	andwf	(___xxtofl@arg+3)^0,w,c
 12096  005278  6E08               	movwf	(??___xxtofl+3)^0,c
 12097  00527A  5005               	movf	??___xxtofl^0,w,c
 12098  00527C  1006               	iorwf	(??___xxtofl+1)^0,w,c
 12099  00527E  1007               	iorwf	(??___xxtofl+2)^0,w,c
 12100  005280  1008               	iorwf	(??___xxtofl+3)^0,w,c
 12101  005282  B4D8               	btfsc	status,2,c
 12102  005284  D00D               	goto	i2l1067
 12103  005286  D7E7               	goto	i2l4139
 12104  005288                     i2l4143:
 12105  005288  2A0A               	incf	___xxtofl@exp^0,f,c
 12106  00528A  0E01               	movlw	1
 12107  00528C  260B               	addwf	___xxtofl@arg^0,f,c
 12108  00528E  0E00               	movlw	0
 12109  005290  220C               	addwfc	(___xxtofl@arg+1)^0,f,c
 12110  005292  220D               	addwfc	(___xxtofl@arg+2)^0,f,c
 12111  005294  220E               	addwfc	(___xxtofl@arg+3)^0,f,c
 12112  005296  90D8               	bcf	status,0,c
 12113  005298  320E               	rrcf	(___xxtofl@arg+3)^0,f,c
 12114  00529A  320D               	rrcf	(___xxtofl@arg+2)^0,f,c
 12115  00529C  320C               	rrcf	(___xxtofl@arg+1)^0,f,c
 12116  00529E  320B               	rrcf	___xxtofl@arg^0,f,c
 12117  0052A0                     i2l1067:
 12118  0052A0  0E00               	movlw	0
 12119  0052A2  140B               	andwf	___xxtofl@arg^0,w,c
 12120  0052A4  6E05               	movwf	??___xxtofl^0,c
 12121  0052A6  0E00               	movlw	0
 12122  0052A8  140C               	andwf	(___xxtofl@arg+1)^0,w,c
 12123  0052AA  6E06               	movwf	(??___xxtofl+1)^0,c
 12124  0052AC  0E00               	movlw	0
 12125  0052AE  140D               	andwf	(___xxtofl@arg+2)^0,w,c
 12126  0052B0  6E07               	movwf	(??___xxtofl+2)^0,c
 12127  0052B2  0EFF               	movlw	255
 12128  0052B4  140E               	andwf	(___xxtofl@arg+3)^0,w,c
 12129  0052B6  6E08               	movwf	(??___xxtofl+3)^0,c
 12130  0052B8  5005               	movf	??___xxtofl^0,w,c
 12131  0052BA  1006               	iorwf	(??___xxtofl+1)^0,w,c
 12132  0052BC  1007               	iorwf	(??___xxtofl+2)^0,w,c
 12133  0052BE  1008               	iorwf	(??___xxtofl+3)^0,w,c
 12134  0052C0  B4D8               	btfsc	status,2,c
 12135  0052C2  D007               	goto	i2l4151
 12136  0052C4  D7E1               	goto	i2l4143
 12137  0052C6                     i2l4149:
 12138  0052C6  060A               	decf	___xxtofl@exp^0,f,c
 12139  0052C8  90D8               	bcf	status,0,c
 12140  0052CA  360B               	rlcf	___xxtofl@arg^0,f,c
 12141  0052CC  360C               	rlcf	(___xxtofl@arg+1)^0,f,c
 12142  0052CE  360D               	rlcf	(___xxtofl@arg+2)^0,f,c
 12143  0052D0  360E               	rlcf	(___xxtofl@arg+3)^0,f,c
 12144  0052D2                     i2l4151:
 12145  0052D2  BE0D               	btfsc	(___xxtofl@arg+2)^0,7,c
 12146  0052D4  D003               	goto	i2u415_40
 12147  0052D6  0E02               	movlw	2
 12148  0052D8  600A               	cpfslt	___xxtofl@exp^0,c
 12149  0052DA  D7F5               	goto	i2l4149
 12150  0052DC                     i2u415_40:
 12151  0052DC  A00A               	btfss	___xxtofl@exp^0,0,c
 12152  0052DE  9E0D               	bcf	(___xxtofl@arg+2)^0,7,c
 12153  0052E0  90D8               	bcf	status,0,c
 12154  0052E2  320A               	rrcf	___xxtofl@exp^0,f,c
 12155  0052E4  C00A  F005         	movff	___xxtofl@exp,??___xxtofl
 12156  0052E8  6A06               	clrf	(??___xxtofl+1)^0,c
 12157  0052EA  6A07               	clrf	(??___xxtofl+2)^0,c
 12158  0052EC  6A08               	clrf	(??___xxtofl+3)^0,c
 12159  0052EE  C005  F008         	movff	??___xxtofl,??___xxtofl+3
 12160  0052F2  6A07               	clrf	(??___xxtofl+2)^0,c
 12161  0052F4  6A06               	clrf	(??___xxtofl+1)^0,c
 12162  0052F6  6A05               	clrf	??___xxtofl^0,c
 12163  0052F8  5005               	movf	??___xxtofl^0,w,c
 12164  0052FA  120B               	iorwf	___xxtofl@arg^0,f,c
 12165  0052FC  5006               	movf	(??___xxtofl+1)^0,w,c
 12166  0052FE  120C               	iorwf	(___xxtofl@arg+1)^0,f,c
 12167  005300  5007               	movf	(??___xxtofl+2)^0,w,c
 12168  005302  120D               	iorwf	(___xxtofl@arg+2)^0,f,c
 12169  005304  5008               	movf	(??___xxtofl+3)^0,w,c
 12170  005306  120E               	iorwf	(___xxtofl@arg+3)^0,f,c
 12171  005308  5009               	movf	___xxtofl@sign^0,w,c
 12172  00530A  A4D8               	btfss	status,2,c
 12173  00530C  AE04               	btfss	(___xxtofl@val+3)^0,7,c
 12174  00530E  D001               	goto	i2l4167
 12175  005310  8E0E               	bsf	(___xxtofl@arg+3)^0,7,c
 12176  005312                     i2l4167:
 12177  005312  C00B  F001         	movff	___xxtofl@arg,?___xxtofl
 12178  005316  C00C  F002         	movff	___xxtofl@arg+1,?___xxtofl+1
 12179  00531A  C00D  F003         	movff	___xxtofl@arg+2,?___xxtofl+2
 12180  00531E  C00E  F004         	movff	___xxtofl@arg+3,?___xxtofl+3
 12181  005322  0012               	return		;funcret
 12182  005324                     __end_of___xxtofl:
 12183                           	opt callstack 0
 12184                           
 12185 ;; *************** function ___flsub *****************
 12186 ;; Defined at:
 12187 ;;		line 245 in file "C:\Program Files (x86)\Microchip\xc8\v2.10\pic\sources\c99\common\sprcadd.c"
 12188 ;; Parameters:    Size  Location     Type
 12189 ;;  b               4   41[COMRAM] unsigned char 
 12190 ;;  a               4   45[COMRAM] unsigned char 
 12191 ;; Auto vars:     Size  Location     Type
 12192 ;;		None
 12193 ;; Return value:  Size  Location     Type
 12194 ;;                  4   41[COMRAM] unsigned char 
 12195 ;; Registers used:
 12196 ;;		wreg, status,2, status,0, cstack
 12197 ;; Tracked objects:
 12198 ;;		On entry : 0/0
 12199 ;;		On exit  : 0/0
 12200 ;;		Unchanged: 0/0
 12201 ;; Data sizes:     COMRAM   BANK0   BANK1   BANK2   BANK3   BANK4   BANK5
 12202 ;;      Params:         8       0       0       0       0       0       0
 12203 ;;      Locals:         0       0       0       0       0       0       0
 12204 ;;      Temps:          0       0       0       0       0       0       0
 12205 ;;      Totals:         8       0       0       0       0       0       0
 12206 ;;Total ram usage:        8 bytes
 12207 ;; Hardware stack levels used:    1
 12208 ;; Hardware stack levels required when called:    1
 12209 ;; This function calls:
 12210 ;;		___fladd
 12211 ;; This function is called by:
 12212 ;;		_MQGetPercentage
 12213 ;;		_logf
 12214 ;;		_powf
 12215 ;; This function uses a non-reentrant model
 12216 ;;
 12217                           
 12218                           	psect	text50
 12219  005C78                     __ptext50:
 12220                           	opt callstack 0
 12221  005C78                     ___flsub:
 12222                           	opt callstack 17
 12223                           
 12224                           ;incstack = 0
 12225  005C78  0E00               	movlw	0
 12226  005C7A  1A2E               	xorwf	___flsub@a^0,f,c
 12227  005C7C  0E00               	movlw	0
 12228  005C7E  1A2F               	xorwf	(___flsub@a+1)^0,f,c
 12229  005C80  0E00               	movlw	0
 12230  005C82  1A30               	xorwf	(___flsub@a+2)^0,f,c
 12231  005C84  0E80               	movlw	128
 12232  005C86  1A31               	xorwf	(___flsub@a+3)^0,f,c
 12233  005C88  C02A  F001         	movff	___flsub@b,___fladd@b
 12234  005C8C  C02B  F002         	movff	___flsub@b+1,___fladd@b+1
 12235  005C90  C02C  F003         	movff	___flsub@b+2,___fladd@b+2
 12236  005C94  C02D  F004         	movff	___flsub@b+3,___fladd@b+3
 12237  005C98  C02E  F005         	movff	___flsub@a,___fladd@a
 12238  005C9C  C02F  F006         	movff	___flsub@a+1,___fladd@a+1
 12239  005CA0  C030  F007         	movff	___flsub@a+2,___fladd@a+2
 12240  005CA4  C031  F008         	movff	___flsub@a+3,___fladd@a+3
 12241  005CA8  EC5B  F01E         	call	___fladd	;wreg free
 12242  005CAC  C001  F02A         	movff	?___fladd,?___flsub
 12243  005CB0  C002  F02B         	movff	?___fladd+1,?___flsub+1
 12244  005CB4  C003  F02C         	movff	?___fladd+2,?___flsub+2
 12245  005CB8  C004  F02D         	movff	?___fladd+3,?___flsub+3
 12246  005CBC  0012               	return		;funcret
 12247  005CBE                     __end_of___flsub:
 12248                           	opt callstack 0
 12249                           
 12250 ;; *************** function ___fladd *****************
 12251 ;; Defined at:
 12252 ;;		line 10 in file "C:\Program Files (x86)\Microchip\xc8\v2.10\pic\sources\c99\common\sprcadd.c"
 12253 ;; Parameters:    Size  Location     Type
 12254 ;;  b               4    0[COMRAM] unsigned char 
 12255 ;;  a               4    4[COMRAM] unsigned char 
 12256 ;; Auto vars:     Size  Location     Type
 12257 ;;  grs             1   15[COMRAM] unsigned char 
 12258 ;;  bexp            1   14[COMRAM] unsigned char 
 12259 ;;  aexp            1   13[COMRAM] unsigned char 
 12260 ;;  signs           1   12[COMRAM] unsigned char 
 12261 ;; Return value:  Size  Location     Type
 12262 ;;                  4    0[COMRAM] unsigned char 
 12263 ;; Registers used:
 12264 ;;		wreg, status,2, status,0
 12265 ;; Tracked objects:
 12266 ;;		On entry : 0/0
 12267 ;;		On exit  : 0/0
 12268 ;;		Unchanged: 0/0
 12269 ;; Data sizes:     COMRAM   BANK0   BANK1   BANK2   BANK3   BANK4   BANK5
 12270 ;;      Params:         8       0       0       0       0       0       0
 12271 ;;      Locals:         4       0       0       0       0       0       0
 12272 ;;      Temps:          4       0       0       0       0       0       0
 12273 ;;      Totals:        16       0       0       0       0       0       0
 12274 ;;Total ram usage:       16 bytes
 12275 ;; Hardware stack levels used:    1
 12276 ;; This function calls:
 12277 ;;		Nothing
 12278 ;; This function is called by:
 12279 ;;		_MQGetPercentage
 12280 ;;		___flsub
 12281 ;;		_logf
 12282 ;;		_powf
 12283 ;;		_sqrtf
 12284 ;; This function uses a non-reentrant model
 12285 ;;
 12286                           
 12287                           	psect	text51
 12288  003CB6                     __ptext51:
 12289                           	opt callstack 0
 12290  003CB6                     ___fladd:
 12291                           	opt callstack 17
 12292                           
 12293                           ;incstack = 0
 12294  003CB6  5004               	movf	(___fladd@b+3)^0,w,c
 12295  003CB8  0B80               	andlw	128
 12296  003CBA  6E0D               	movwf	___fladd@signs^0,c
 12297  003CBC  5004               	movf	(___fladd@b+3)^0,w,c
 12298  003CBE  2404               	addwf	(___fladd@b+3)^0,w,c
 12299  003CC0  6E0F               	movwf	___fladd@bexp^0,c
 12300  003CC2  BE03               	btfsc	(___fladd@b+2)^0,7,c
 12301  003CC4  800F               	bsf	___fladd@bexp^0,0,c
 12302  003CC6  500F               	movf	___fladd@bexp^0,w,c
 12303  003CC8  B4D8               	btfsc	status,2,c
 12304  003CCA  D00D               	goto	i2l3513
 12305  003CCC  280F               	incf	___fladd@bexp^0,w,c
 12306  003CCE  A4D8               	btfss	status,2,c
 12307  003CD0  D008               	goto	i2l3509
 12308  003CD2  0E00               	movlw	0
 12309  003CD4  6E01               	movwf	___fladd@b^0,c
 12310  003CD6  0E00               	movlw	0
 12311  003CD8  6E02               	movwf	(___fladd@b+1)^0,c
 12312  003CDA  0E00               	movlw	0
 12313  003CDC  6E03               	movwf	(___fladd@b+2)^0,c
 12314  003CDE  0E00               	movlw	0
 12315  003CE0  6E04               	movwf	(___fladd@b+3)^0,c
 12316  003CE2                     i2l3509:
 12317  003CE2  8E03               	bsf	(___fladd@b+2)^0,7,c
 12318  003CE4  D006               	goto	L8
 12319  003CE6                     i2l3513:
 12320  003CE6  0E00               	movlw	0
 12321  003CE8  6E01               	movwf	___fladd@b^0,c
 12322  003CEA  0E00               	movlw	0
 12323  003CEC  6E02               	movwf	(___fladd@b+1)^0,c
 12324  003CEE  0E00               	movlw	0
 12325  003CF0  6E03               	movwf	(___fladd@b+2)^0,c
 12326  003CF2                     L8:
 12327  003CF2  0E00               	movlw	0
 12328  003CF4  6E04               	movwf	(___fladd@b+3)^0,c
 12329  003CF6  5008               	movf	(___fladd@a+3)^0,w,c
 12330  003CF8  0B80               	andlw	128
 12331  003CFA  6E0E               	movwf	___fladd@aexp^0,c
 12332  003CFC  500D               	movf	___fladd@signs^0,w,c
 12333  003CFE  180E               	xorwf	___fladd@aexp^0,w,c
 12334  003D00  A4D8               	btfss	status,2,c
 12335  003D02  8C0D               	bsf	___fladd@signs^0,6,c
 12336  003D04  5008               	movf	(___fladd@a+3)^0,w,c
 12337  003D06  2408               	addwf	(___fladd@a+3)^0,w,c
 12338  003D08  6E0E               	movwf	___fladd@aexp^0,c
 12339  003D0A  BE07               	btfsc	(___fladd@a+2)^0,7,c
 12340  003D0C  800E               	bsf	___fladd@aexp^0,0,c
 12341  003D0E  500E               	movf	___fladd@aexp^0,w,c
 12342  003D10  B4D8               	btfsc	status,2,c
 12343  003D12  D00D               	goto	i2l3537
 12344  003D14  280E               	incf	___fladd@aexp^0,w,c
 12345  003D16  A4D8               	btfss	status,2,c
 12346  003D18  D008               	goto	i2l3533
 12347  003D1A  0E00               	movlw	0
 12348  003D1C  6E05               	movwf	___fladd@a^0,c
 12349  003D1E  0E00               	movlw	0
 12350  003D20  6E06               	movwf	(___fladd@a+1)^0,c
 12351  003D22  0E00               	movlw	0
 12352  003D24  6E07               	movwf	(___fladd@a+2)^0,c
 12353  003D26  0E00               	movlw	0
 12354  003D28  6E08               	movwf	(___fladd@a+3)^0,c
 12355  003D2A                     i2l3533:
 12356  003D2A  8E07               	bsf	(___fladd@a+2)^0,7,c
 12357  003D2C  D006               	goto	L9
 12358  003D2E                     i2l3537:
 12359  003D2E  0E00               	movlw	0
 12360  003D30  6E05               	movwf	___fladd@a^0,c
 12361  003D32  0E00               	movlw	0
 12362  003D34  6E06               	movwf	(___fladd@a+1)^0,c
 12363  003D36  0E00               	movlw	0
 12364  003D38  6E07               	movwf	(___fladd@a+2)^0,c
 12365  003D3A                     L9:
 12366  003D3A  0E00               	movlw	0
 12367  003D3C  6E08               	movwf	(___fladd@a+3)^0,c
 12368  003D3E  500F               	movf	___fladd@bexp^0,w,c
 12369  003D40  5C0E               	subwf	___fladd@aexp^0,w,c
 12370  003D42  B0D8               	btfsc	status,0,c
 12371  003D44  D022               	goto	i2l3575
 12372  003D46  AC0D               	btfss	___fladd@signs^0,6,c
 12373  003D48  D002               	goto	i2l3545
 12374  003D4A  0E80               	movlw	128
 12375  003D4C  1A0D               	xorwf	___fladd@signs^0,f,c
 12376  003D4E                     i2l3545:
 12377  003D4E  C00F  F010         	movff	___fladd@bexp,___fladd@grs
 12378  003D52  C00E  F00F         	movff	___fladd@aexp,___fladd@bexp
 12379  003D56  C010  F00E         	movff	___fladd@grs,___fladd@aexp
 12380  003D5A  C001  F010         	movff	___fladd@b,___fladd@grs
 12381  003D5E  C005  F001         	movff	___fladd@a,___fladd@b
 12382  003D62  C010  F005         	movff	___fladd@grs,___fladd@a
 12383  003D66  C002  F010         	movff	___fladd@b+1,___fladd@grs
 12384  003D6A  C006  F002         	movff	___fladd@a+1,___fladd@b+1
 12385  003D6E  C010  F006         	movff	___fladd@grs,___fladd@a+1
 12386  003D72  C003  F010         	movff	___fladd@b+2,___fladd@grs
 12387  003D76  C007  F003         	movff	___fladd@a+2,___fladd@b+2
 12388  003D7A  C010  F007         	movff	___fladd@grs,___fladd@a+2
 12389  003D7E  C004  F010         	movff	___fladd@b+3,___fladd@grs
 12390  003D82  C008  F004         	movff	___fladd@a+3,___fladd@b+3
 12391  003D86  C010  F008         	movff	___fladd@grs,___fladd@a+3
 12392  003D8A                     i2l3575:
 12393  003D8A  0E00               	movlw	0
 12394  003D8C  6E10               	movwf	___fladd@grs^0,c
 12395  003D8E  500F               	movf	___fladd@bexp^0,w,c
 12396  003D90  C00E  F009         	movff	___fladd@aexp,??___fladd
 12397  003D94  6A0A               	clrf	(??___fladd+1)^0,c
 12398  003D96  5E09               	subwf	??___fladd^0,f,c
 12399  003D98  0E00               	movlw	0
 12400  003D9A  5A0A               	subwfb	(??___fladd+1)^0,f,c
 12401  003D9C  BE0A               	btfsc	(??___fladd+1)^0,7,c
 12402  003D9E  D02C               	goto	i2l934
 12403  003DA0  500A               	movf	(??___fladd+1)^0,w,c
 12404  003DA2  E104               	bnz	i2u311_40
 12405  003DA4  0E1A               	movlw	26
 12406  003DA6  5C09               	subwf	??___fladd^0,w,c
 12407  003DA8  A0D8               	btfss	status,0,c
 12408  003DAA  D026               	goto	i2l934
 12409  003DAC                     i2u311_40:
 12410  003DAC  5001               	movf	___fladd@b^0,w,c
 12411  003DAE  1002               	iorwf	(___fladd@b+1)^0,w,c
 12412  003DB0  1003               	iorwf	(___fladd@b+2)^0,w,c
 12413  003DB2  1004               	iorwf	(___fladd@b+3)^0,w,c
 12414  003DB4  B4D8               	btfsc	status,2,c
 12415  003DB6  D002               	goto	i2u312_40
 12416  003DB8  0E01               	movlw	1
 12417  003DBA  D001               	goto	i2u313_40
 12418  003DBC                     i2u312_40:
 12419  003DBC  0E00               	movlw	0
 12420  003DBE                     i2u313_40:
 12421  003DBE  6E10               	movwf	___fladd@grs^0,c
 12422  003DC0  0E00               	movlw	0
 12423  003DC2  6E01               	movwf	___fladd@b^0,c
 12424  003DC4  0E00               	movlw	0
 12425  003DC6  6E02               	movwf	(___fladd@b+1)^0,c
 12426  003DC8  0E00               	movlw	0
 12427  003DCA  6E03               	movwf	(___fladd@b+2)^0,c
 12428  003DCC  0E00               	movlw	0
 12429  003DCE  6E04               	movwf	(___fladd@b+3)^0,c
 12430  003DD0  C00E  F00F         	movff	___fladd@aexp,___fladd@bexp
 12431  003DD4  D015               	goto	i2u316_40
 12432  003DD6                     i2l935:
 12433  003DD6  A010               	btfss	___fladd@grs^0,0,c
 12434  003DD8  D005               	goto	i2l3587
 12435  003DDA  90D8               	bcf	status,0,c
 12436  003DDC  3010               	rrcf	___fladd@grs^0,w,c
 12437  003DDE  0901               	iorlw	1
 12438  003DE0  6E10               	movwf	___fladd@grs^0,c
 12439  003DE2  D002               	goto	i2l3589
 12440  003DE4                     i2l3587:
 12441  003DE4  90D8               	bcf	status,0,c
 12442  003DE6  3210               	rrcf	___fladd@grs^0,f,c
 12443  003DE8                     i2l3589:
 12444  003DE8  B001               	btfsc	___fladd@b^0,0,c
 12445  003DEA  8E10               	bsf	___fladd@grs^0,7,c
 12446  003DEC  3404               	rlcf	(___fladd@b+3)^0,w,c
 12447  003DEE  3204               	rrcf	(___fladd@b+3)^0,f,c
 12448  003DF0  3203               	rrcf	(___fladd@b+2)^0,f,c
 12449  003DF2  3202               	rrcf	(___fladd@b+1)^0,f,c
 12450  003DF4  3201               	rrcf	___fladd@b^0,f,c
 12451  003DF6  2A0F               	incf	___fladd@bexp^0,f,c
 12452  003DF8                     i2l934:
 12453  003DF8  500E               	movf	___fladd@aexp^0,w,c
 12454  003DFA  5C0F               	subwf	___fladd@bexp^0,w,c
 12455  003DFC  A0D8               	btfss	status,0,c
 12456  003DFE  D7EB               	goto	i2l935
 12457  003E00                     i2u316_40:
 12458  003E00  BC0D               	btfsc	___fladd@signs^0,6,c
 12459  003E02  D028               	goto	i2l3621
 12460  003E04  500F               	movf	___fladd@bexp^0,w,c
 12461  003E06  A4D8               	btfss	status,2,c
 12462  003E08  D009               	goto	i2l3603
 12463  003E0A  0E00               	movlw	0
 12464  003E0C  6E01               	movwf	?___fladd^0,c
 12465  003E0E  0E00               	movlw	0
 12466  003E10  6E02               	movwf	(?___fladd+1)^0,c
 12467  003E12  0E00               	movlw	0
 12468  003E14  6E03               	movwf	(?___fladd+2)^0,c
 12469  003E16  0E00               	movlw	0
 12470  003E18  6E04               	movwf	(?___fladd+3)^0,c
 12471  003E1A  0012               	return	
 12472  003E1C                     i2l3603:
 12473  003E1C  5005               	movf	___fladd@a^0,w,c
 12474  003E1E  2601               	addwf	___fladd@b^0,f,c
 12475  003E20  5006               	movf	(___fladd@a+1)^0,w,c
 12476  003E22  2202               	addwfc	(___fladd@b+1)^0,f,c
 12477  003E24  5007               	movf	(___fladd@a+2)^0,w,c
 12478  003E26  2203               	addwfc	(___fladd@b+2)^0,f,c
 12479  003E28  5008               	movf	(___fladd@a+3)^0,w,c
 12480  003E2A  2204               	addwfc	(___fladd@b+3)^0,f,c
 12481  003E2C  A004               	btfss	(___fladd@b+3)^0,0,c
 12482  003E2E  D071               	goto	i2u329_40
 12483  003E30  A010               	btfss	___fladd@grs^0,0,c
 12484  003E32  D005               	goto	i2l3611
 12485  003E34  90D8               	bcf	status,0,c
 12486  003E36  3010               	rrcf	___fladd@grs^0,w,c
 12487  003E38  0901               	iorlw	1
 12488  003E3A  6E10               	movwf	___fladd@grs^0,c
 12489  003E3C  D002               	goto	i2l3613
 12490  003E3E                     i2l3611:
 12491  003E3E  90D8               	bcf	status,0,c
 12492  003E40  3210               	rrcf	___fladd@grs^0,f,c
 12493  003E42                     i2l3613:
 12494  003E42  B001               	btfsc	___fladd@b^0,0,c
 12495  003E44  8E10               	bsf	___fladd@grs^0,7,c
 12496  003E46  3404               	rlcf	(___fladd@b+3)^0,w,c
 12497  003E48  3204               	rrcf	(___fladd@b+3)^0,f,c
 12498  003E4A  3203               	rrcf	(___fladd@b+2)^0,f,c
 12499  003E4C  3202               	rrcf	(___fladd@b+1)^0,f,c
 12500  003E4E  3201               	rrcf	___fladd@b^0,f,c
 12501  003E50  2A0F               	incf	___fladd@bexp^0,f,c
 12502  003E52  D05F               	goto	i2u329_40
 12503  003E54                     i2l3621:
 12504  003E54  5005               	movf	___fladd@a^0,w,c
 12505  003E56  5C01               	subwf	___fladd@b^0,w,c
 12506  003E58  5006               	movf	(___fladd@a+1)^0,w,c
 12507  003E5A  5802               	subwfb	(___fladd@b+1)^0,w,c
 12508  003E5C  5007               	movf	(___fladd@a+2)^0,w,c
 12509  003E5E  5803               	subwfb	(___fladd@b+2)^0,w,c
 12510  003E60  5004               	movf	(___fladd@b+3)^0,w,c
 12511  003E62  0A80               	xorlw	128
 12512  003E64  6E09               	movwf	??___fladd^0,c
 12513  003E66  5008               	movf	(___fladd@a+3)^0,w,c
 12514  003E68  0A80               	xorlw	128
 12515  003E6A  5809               	subwfb	??___fladd^0,w,c
 12516  003E6C  B0D8               	btfsc	status,0,c
 12517  003E6E  D025               	goto	i2l3631
 12518  003E70  5001               	movf	___fladd@b^0,w,c
 12519  003E72  5C05               	subwf	___fladd@a^0,w,c
 12520  003E74  6E09               	movwf	??___fladd^0,c
 12521  003E76  5002               	movf	(___fladd@b+1)^0,w,c
 12522  003E78  5806               	subwfb	(___fladd@a+1)^0,w,c
 12523  003E7A  6E0A               	movwf	(??___fladd+1)^0,c
 12524  003E7C  5003               	movf	(___fladd@b+2)^0,w,c
 12525  003E7E  5807               	subwfb	(___fladd@a+2)^0,w,c
 12526  003E80  6E0B               	movwf	(??___fladd+2)^0,c
 12527  003E82  5004               	movf	(___fladd@b+3)^0,w,c
 12528  003E84  5808               	subwfb	(___fladd@a+3)^0,w,c
 12529  003E86  6E0C               	movwf	(??___fladd+3)^0,c
 12530  003E88  0EFF               	movlw	255
 12531  003E8A  2409               	addwf	??___fladd^0,w,c
 12532  003E8C  6E01               	movwf	___fladd@b^0,c
 12533  003E8E  0EFF               	movlw	255
 12534  003E90  200A               	addwfc	(??___fladd+1)^0,w,c
 12535  003E92  6E02               	movwf	(___fladd@b+1)^0,c
 12536  003E94  0EFF               	movlw	255
 12537  003E96  200B               	addwfc	(??___fladd+2)^0,w,c
 12538  003E98  6E03               	movwf	(___fladd@b+2)^0,c
 12539  003E9A  0EFF               	movlw	255
 12540  003E9C  200C               	addwfc	(??___fladd+3)^0,w,c
 12541  003E9E  6E04               	movwf	(___fladd@b+3)^0,c
 12542  003EA0  0E80               	movlw	128
 12543  003EA2  1A0D               	xorwf	___fladd@signs^0,f,c
 12544  003EA4  6C10               	negf	___fladd@grs^0,c
 12545  003EA6  5010               	movf	___fladd@grs^0,w,c
 12546  003EA8  A4D8               	btfss	status,2,c
 12547  003EAA  D00F               	goto	i2l950
 12548  003EAC  0E01               	movlw	1
 12549  003EAE  2601               	addwf	___fladd@b^0,f,c
 12550  003EB0  0E00               	movlw	0
 12551  003EB2  2202               	addwfc	(___fladd@b+1)^0,f,c
 12552  003EB4  2203               	addwfc	(___fladd@b+2)^0,f,c
 12553  003EB6  2204               	addwfc	(___fladd@b+3)^0,f,c
 12554  003EB8  D008               	goto	i2l950
 12555  003EBA                     i2l3631:
 12556  003EBA  5005               	movf	___fladd@a^0,w,c
 12557  003EBC  5E01               	subwf	___fladd@b^0,f,c
 12558  003EBE  5006               	movf	(___fladd@a+1)^0,w,c
 12559  003EC0  5A02               	subwfb	(___fladd@b+1)^0,f,c
 12560  003EC2  5007               	movf	(___fladd@a+2)^0,w,c
 12561  003EC4  5A03               	subwfb	(___fladd@b+2)^0,f,c
 12562  003EC6  5008               	movf	(___fladd@a+3)^0,w,c
 12563  003EC8  5A04               	subwfb	(___fladd@b+3)^0,f,c
 12564  003ECA                     i2l950:
 12565  003ECA  5001               	movf	___fladd@b^0,w,c
 12566  003ECC  1002               	iorwf	(___fladd@b+1)^0,w,c
 12567  003ECE  1003               	iorwf	(___fladd@b+2)^0,w,c
 12568  003ED0  1004               	iorwf	(___fladd@b+3)^0,w,c
 12569  003ED2  A4D8               	btfss	status,2,c
 12570  003ED4  D01C               	goto	i2l3655
 12571  003ED6  5010               	movf	___fladd@grs^0,w,c
 12572  003ED8  A4D8               	btfss	status,2,c
 12573  003EDA  D019               	goto	i2l3655
 12574  003EDC  0E00               	movlw	0
 12575  003EDE  6E01               	movwf	?___fladd^0,c
 12576  003EE0  0E00               	movlw	0
 12577  003EE2  6E02               	movwf	(?___fladd+1)^0,c
 12578  003EE4  0E00               	movlw	0
 12579  003EE6  6E03               	movwf	(?___fladd+2)^0,c
 12580  003EE8  0E00               	movlw	0
 12581  003EEA  6E04               	movwf	(?___fladd+3)^0,c
 12582  003EEC  0012               	return	
 12583  003EEE                     i2l3639:
 12584  003EEE  90D8               	bcf	status,0,c
 12585  003EF0  3601               	rlcf	___fladd@b^0,f,c
 12586  003EF2  3602               	rlcf	(___fladd@b+1)^0,f,c
 12587  003EF4  3603               	rlcf	(___fladd@b+2)^0,f,c
 12588  003EF6  3604               	rlcf	(___fladd@b+3)^0,f,c
 12589  003EF8  BE10               	btfsc	___fladd@grs^0,7,c
 12590  003EFA  8001               	bsf	___fladd@b^0,0,c
 12591  003EFC  A010               	btfss	___fladd@grs^0,0,c
 12592  003EFE  D002               	goto	i2l3649
 12593  003F00  80D8               	bsf	status,0,c
 12594  003F02  D001               	goto	L10
 12595  003F04                     i2l3649:
 12596  003F04  90D8               	bcf	status,0,c
 12597  003F06                     L10:
 12598  003F06  3610               	rlcf	___fladd@grs^0,f,c
 12599  003F08  500F               	movf	___fladd@bexp^0,w,c
 12600  003F0A  A4D8               	btfss	status,2,c
 12601  003F0C  060F               	decf	___fladd@bexp^0,f,c
 12602  003F0E                     i2l3655:
 12603  003F0E  AE03               	btfss	(___fladd@b+2)^0,7,c
 12604  003F10  D7EE               	goto	i2l3639
 12605  003F12                     i2u329_40:
 12606  003F12  0E00               	movlw	0
 12607  003F14  6E0E               	movwf	___fladd@aexp^0,c
 12608  003F16  AE10               	btfss	___fladd@grs^0,7,c
 12609  003F18  D00B               	goto	i2l959
 12610  003F1A  C010  F009         	movff	___fladd@grs,??___fladd
 12611  003F1E  0E7F               	movlw	127
 12612  003F20  1609               	andwf	??___fladd^0,f,c
 12613  003F22  B4D8               	btfsc	status,2,c
 12614  003F24  D003               	goto	i2l960
 12615  003F26                     i2u331_40:
 12616  003F26  0E01               	movlw	1
 12617  003F28  6E0E               	movwf	___fladd@aexp^0,c
 12618  003F2A  D002               	goto	i2l959
 12619  003F2C                     i2l960:
 12620  003F2C  B001               	btfsc	___fladd@b^0,0,c
 12621  003F2E  D7FB               	goto	i2u331_40
 12622  003F30                     i2l959:
 12623  003F30  500E               	movf	___fladd@aexp^0,w,c
 12624  003F32  B4D8               	btfsc	status,2,c
 12625  003F34  D020               	goto	i2l3675
 12626  003F36  0E01               	movlw	1
 12627  003F38  2601               	addwf	___fladd@b^0,f,c
 12628  003F3A  0E00               	movlw	0
 12629  003F3C  2202               	addwfc	(___fladd@b+1)^0,f,c
 12630  003F3E  2203               	addwfc	(___fladd@b+2)^0,f,c
 12631  003F40  2204               	addwfc	(___fladd@b+3)^0,f,c
 12632  003F42  A004               	btfss	(___fladd@b+3)^0,0,c
 12633  003F44  D018               	goto	i2l3675
 12634  003F46  C001  F009         	movff	___fladd@b,??___fladd
 12635  003F4A  C002  F00A         	movff	___fladd@b+1,??___fladd+1
 12636  003F4E  C003  F00B         	movff	___fladd@b+2,??___fladd+2
 12637  003F52  C004  F00C         	movff	___fladd@b+3,??___fladd+3
 12638  003F56  340C               	rlcf	(??___fladd+3)^0,w,c
 12639  003F58  320C               	rrcf	(??___fladd+3)^0,f,c
 12640  003F5A  320B               	rrcf	(??___fladd+2)^0,f,c
 12641  003F5C  320A               	rrcf	(??___fladd+1)^0,f,c
 12642  003F5E  3209               	rrcf	??___fladd^0,f,c
 12643  003F60  C009  F001         	movff	??___fladd,___fladd@b
 12644  003F64  C00A  F002         	movff	??___fladd+1,___fladd@b+1
 12645  003F68  C00B  F003         	movff	??___fladd+2,___fladd@b+2
 12646  003F6C  C00C  F004         	movff	??___fladd+3,___fladd@b+3
 12647  003F70  280F               	incf	___fladd@bexp^0,w,c
 12648  003F72  A4D8               	btfss	status,2,c
 12649  003F74  2A0F               	incf	___fladd@bexp^0,f,c
 12650  003F76                     i2l3675:
 12651  003F76  280F               	incf	___fladd@bexp^0,w,c
 12652  003F78  B4D8               	btfsc	status,2,c
 12653  003F7A  D003               	goto	i2u337_40
 12654  003F7C  500F               	movf	___fladd@bexp^0,w,c
 12655  003F7E  A4D8               	btfss	status,2,c
 12656  003F80  D00D               	goto	i2l3683
 12657  003F82                     i2u337_40:
 12658  003F82  0E00               	movlw	0
 12659  003F84  6E01               	movwf	___fladd@b^0,c
 12660  003F86  0E00               	movlw	0
 12661  003F88  6E02               	movwf	(___fladd@b+1)^0,c
 12662  003F8A  0E00               	movlw	0
 12663  003F8C  6E03               	movwf	(___fladd@b+2)^0,c
 12664  003F8E  0E00               	movlw	0
 12665  003F90  6E04               	movwf	(___fladd@b+3)^0,c
 12666  003F92  500F               	movf	___fladd@bexp^0,w,c
 12667  003F94  A4D8               	btfss	status,2,c
 12668  003F96  D002               	goto	i2l3683
 12669  003F98  0E00               	movlw	0
 12670  003F9A  6E0D               	movwf	___fladd@signs^0,c
 12671  003F9C                     i2l3683:
 12672  003F9C  A00F               	btfss	___fladd@bexp^0,0,c
 12673  003F9E  D002               	goto	i2l3687
 12674  003FA0  8E03               	bsf	(___fladd@b+2)^0,7,c
 12675  003FA2  D001               	goto	i2l3689
 12676  003FA4                     i2l3687:
 12677  003FA4  9E03               	bcf	(___fladd@b+2)^0,7,c
 12678  003FA6                     i2l3689:
 12679  003FA6  90D8               	bcf	status,0,c
 12680  003FA8  300F               	rrcf	___fladd@bexp^0,w,c
 12681  003FAA  6E04               	movwf	(___fladd@b+3)^0,c
 12682  003FAC  BE0D               	btfsc	___fladd@signs^0,7,c
 12683  003FAE  8E04               	bsf	(___fladd@b+3)^0,7,c
 12684  003FB0  C001  F001         	movff	___fladd@b,?___fladd
 12685  003FB4  C002  F002         	movff	___fladd@b+1,?___fladd+1
 12686  003FB8  C003  F003         	movff	___fladd@b+2,?___fladd+2
 12687  003FBC  C004  F004         	movff	___fladd@b+3,?___fladd+3
 12688  003FC0  0012               	return		;funcret
 12689  003FC2                     __end_of___fladd:
 12690                           	opt callstack 0
 12691                           
 12692 ;; *************** function ___flmul *****************
 12693 ;; Defined at:
 12694 ;;		line 8 in file "C:\Program Files (x86)\Microchip\xc8\v2.10\pic\sources\c99\common\sprcmul.c"
 12695 ;; Parameters:    Size  Location     Type
 12696 ;;  b               4   16[COMRAM] unsigned char 
 12697 ;;  a               4   20[COMRAM] unsigned char 
 12698 ;; Auto vars:     Size  Location     Type
 12699 ;;  prod            4   35[COMRAM] struct .
 12700 ;;  grs             4   29[COMRAM] unsigned long 
 12701 ;;  temp            2   39[COMRAM] struct .
 12702 ;;  bexp            1   34[COMRAM] unsigned char 
 12703 ;;  aexp            1   33[COMRAM] unsigned char 
 12704 ;;  sign            1   28[COMRAM] unsigned char 
 12705 ;; Return value:  Size  Location     Type
 12706 ;;                  4   16[COMRAM] unsigned char 
 12707 ;; Registers used:
 12708 ;;		wreg, status,2, status,0, prodl, prodh
 12709 ;; Tracked objects:
 12710 ;;		On entry : 0/0
 12711 ;;		On exit  : 0/0
 12712 ;;		Unchanged: 0/0
 12713 ;; Data sizes:     COMRAM   BANK0   BANK1   BANK2   BANK3   BANK4   BANK5
 12714 ;;      Params:         8       0       0       0       0       0       0
 12715 ;;      Locals:        13       0       0       0       0       0       0
 12716 ;;      Temps:          4       0       0       0       0       0       0
 12717 ;;      Totals:        25       0       0       0       0       0       0
 12718 ;;Total ram usage:       25 bytes
 12719 ;; Hardware stack levels used:    1
 12720 ;; This function calls:
 12721 ;;		Nothing
 12722 ;; This function is called by:
 12723 ;;		_MQ_Read
 12724 ;;		_logf
 12725 ;;		_powf
 12726 ;;		_scalbnf
 12727 ;;		_sqrtf
 12728 ;; This function uses a non-reentrant model
 12729 ;;
 12730                           
 12731                           	psect	text52
 12732  003964                     __ptext52:
 12733                           	opt callstack 0
 12734  003964                     ___flmul:
 12735                           	opt callstack 21
 12736                           
 12737                           ;incstack = 0
 12738  003964  5014               	movf	(___flmul@b+3)^0,w,c
 12739  003966  0B80               	andlw	128
 12740  003968  6E1D               	movwf	___flmul@sign^0,c
 12741  00396A  5014               	movf	(___flmul@b+3)^0,w,c
 12742  00396C  2414               	addwf	(___flmul@b+3)^0,w,c
 12743  00396E  6E23               	movwf	___flmul@bexp^0,c
 12744  003970  BE13               	btfsc	(___flmul@b+2)^0,7,c
 12745  003972  8023               	bsf	___flmul@bexp^0,0,c
 12746  003974  5023               	movf	___flmul@bexp^0,w,c
 12747  003976  B4D8               	btfsc	status,2,c
 12748  003978  D00D               	goto	i2l3713
 12749  00397A  2823               	incf	___flmul@bexp^0,w,c
 12750  00397C  A4D8               	btfss	status,2,c
 12751  00397E  D008               	goto	i2l3711
 12752  003980  0E00               	movlw	0
 12753  003982  6E11               	movwf	___flmul@b^0,c
 12754  003984  0E00               	movlw	0
 12755  003986  6E12               	movwf	(___flmul@b+1)^0,c
 12756  003988  0E00               	movlw	0
 12757  00398A  6E13               	movwf	(___flmul@b+2)^0,c
 12758  00398C  0E00               	movlw	0
 12759  00398E  6E14               	movwf	(___flmul@b+3)^0,c
 12760  003990                     i2l3711:
 12761  003990  8E13               	bsf	(___flmul@b+2)^0,7,c
 12762  003992  D008               	goto	i2l3715
 12763  003994                     i2l3713:
 12764  003994  0E00               	movlw	0
 12765  003996  6E11               	movwf	___flmul@b^0,c
 12766  003998  0E00               	movlw	0
 12767  00399A  6E12               	movwf	(___flmul@b+1)^0,c
 12768  00399C  0E00               	movlw	0
 12769  00399E  6E13               	movwf	(___flmul@b+2)^0,c
 12770  0039A0  0E00               	movlw	0
 12771  0039A2  6E14               	movwf	(___flmul@b+3)^0,c
 12772  0039A4                     i2l3715:
 12773  0039A4  5018               	movf	(___flmul@a+3)^0,w,c
 12774  0039A6  0B80               	andlw	128
 12775  0039A8  1A1D               	xorwf	___flmul@sign^0,f,c
 12776  0039AA  5018               	movf	(___flmul@a+3)^0,w,c
 12777  0039AC  2418               	addwf	(___flmul@a+3)^0,w,c
 12778  0039AE  6E22               	movwf	___flmul@aexp^0,c
 12779  0039B0  BE17               	btfsc	(___flmul@a+2)^0,7,c
 12780  0039B2  8022               	bsf	___flmul@aexp^0,0,c
 12781  0039B4  5022               	movf	___flmul@aexp^0,w,c
 12782  0039B6  B4D8               	btfsc	status,2,c
 12783  0039B8  D00D               	goto	i2l3731
 12784  0039BA  2822               	incf	___flmul@aexp^0,w,c
 12785  0039BC  A4D8               	btfss	status,2,c
 12786  0039BE  D008               	goto	i2l3729
 12787  0039C0  0E00               	movlw	0
 12788  0039C2  6E15               	movwf	___flmul@a^0,c
 12789  0039C4  0E00               	movlw	0
 12790  0039C6  6E16               	movwf	(___flmul@a+1)^0,c
 12791  0039C8  0E00               	movlw	0
 12792  0039CA  6E17               	movwf	(___flmul@a+2)^0,c
 12793  0039CC  0E00               	movlw	0
 12794  0039CE  6E18               	movwf	(___flmul@a+3)^0,c
 12795  0039D0                     i2l3729:
 12796  0039D0  8E17               	bsf	(___flmul@a+2)^0,7,c
 12797  0039D2  D008               	goto	i2l1019
 12798  0039D4                     i2l3731:
 12799  0039D4  0E00               	movlw	0
 12800  0039D6  6E15               	movwf	___flmul@a^0,c
 12801  0039D8  0E00               	movlw	0
 12802  0039DA  6E16               	movwf	(___flmul@a+1)^0,c
 12803  0039DC  0E00               	movlw	0
 12804  0039DE  6E17               	movwf	(___flmul@a+2)^0,c
 12805  0039E0  0E00               	movlw	0
 12806  0039E2  6E18               	movwf	(___flmul@a+3)^0,c
 12807  0039E4                     i2l1019:
 12808  0039E4  5022               	movf	___flmul@aexp^0,w,c
 12809  0039E6  B4D8               	btfsc	status,2,c
 12810  0039E8  D003               	goto	i2u348_40
 12811  0039EA  5023               	movf	___flmul@bexp^0,w,c
 12812  0039EC  A4D8               	btfss	status,2,c
 12813  0039EE  D009               	goto	i2l3739
 12814  0039F0                     i2u348_40:
 12815  0039F0  0E00               	movlw	0
 12816  0039F2  6E11               	movwf	?___flmul^0,c
 12817  0039F4  0E00               	movlw	0
 12818  0039F6  6E12               	movwf	(?___flmul+1)^0,c
 12819  0039F8  0E00               	movlw	0
 12820  0039FA  6E13               	movwf	(?___flmul+2)^0,c
 12821  0039FC  0E00               	movlw	0
 12822  0039FE  6E14               	movwf	(?___flmul+3)^0,c
 12823  003A00  0012               	return	
 12824  003A02                     i2l3739:
 12825  003A02  5017               	movf	(___flmul@a+2)^0,w,c
 12826  003A04  0211               	mulwf	___flmul@b^0,c
 12827  003A06  CFF3 F028          	movff	prodl,___flmul@temp
 12828  003A0A  CFF4 F029          	movff	prodh,___flmul@temp+1
 12829  003A0E  5028               	movf	___flmul@temp^0,w,c
 12830  003A10  6E1E               	movwf	___flmul@grs^0,c
 12831  003A12  6A1F               	clrf	(___flmul@grs+1)^0,c
 12832  003A14  6A20               	clrf	(___flmul@grs+2)^0,c
 12833  003A16  6A21               	clrf	(___flmul@grs+3)^0,c
 12834  003A18  5029               	movf	(___flmul@temp+1)^0,w,c
 12835  003A1A  6E24               	movwf	___flmul@prod^0,c
 12836  003A1C  6A25               	clrf	(___flmul@prod+1)^0,c
 12837  003A1E  6A26               	clrf	(___flmul@prod+2)^0,c
 12838  003A20  6A27               	clrf	(___flmul@prod+3)^0,c
 12839  003A22  5016               	movf	(___flmul@a+1)^0,w,c
 12840  003A24  0212               	mulwf	(___flmul@b+1)^0,c
 12841  003A26  CFF3 F028          	movff	prodl,___flmul@temp
 12842  003A2A  CFF4 F029          	movff	prodh,___flmul@temp+1
 12843  003A2E  5028               	movf	___flmul@temp^0,w,c
 12844  003A30  261E               	addwf	___flmul@grs^0,f,c
 12845  003A32  0E00               	movlw	0
 12846  003A34  221F               	addwfc	(___flmul@grs+1)^0,f,c
 12847  003A36  2220               	addwfc	(___flmul@grs+2)^0,f,c
 12848  003A38  2221               	addwfc	(___flmul@grs+3)^0,f,c
 12849  003A3A  5029               	movf	(___flmul@temp+1)^0,w,c
 12850  003A3C  2624               	addwf	___flmul@prod^0,f,c
 12851  003A3E  0E00               	movlw	0
 12852  003A40  2225               	addwfc	(___flmul@prod+1)^0,f,c
 12853  003A42  2226               	addwfc	(___flmul@prod+2)^0,f,c
 12854  003A44  2227               	addwfc	(___flmul@prod+3)^0,f,c
 12855  003A46  5015               	movf	___flmul@a^0,w,c
 12856  003A48  0213               	mulwf	(___flmul@b+2)^0,c
 12857  003A4A  CFF3 F028          	movff	prodl,___flmul@temp
 12858  003A4E  CFF4 F029          	movff	prodh,___flmul@temp+1
 12859  003A52  5028               	movf	___flmul@temp^0,w,c
 12860  003A54  261E               	addwf	___flmul@grs^0,f,c
 12861  003A56  0E00               	movlw	0
 12862  003A58  221F               	addwfc	(___flmul@grs+1)^0,f,c
 12863  003A5A  2220               	addwfc	(___flmul@grs+2)^0,f,c
 12864  003A5C  2221               	addwfc	(___flmul@grs+3)^0,f,c
 12865  003A5E  5029               	movf	(___flmul@temp+1)^0,w,c
 12866  003A60  2624               	addwf	___flmul@prod^0,f,c
 12867  003A62  0E00               	movlw	0
 12868  003A64  2225               	addwfc	(___flmul@prod+1)^0,f,c
 12869  003A66  2226               	addwfc	(___flmul@prod+2)^0,f,c
 12870  003A68  2227               	addwfc	(___flmul@prod+3)^0,f,c
 12871  003A6A  C020  F021         	movff	___flmul@grs+2,___flmul@grs+3
 12872  003A6E  C01F  F020         	movff	___flmul@grs+1,___flmul@grs+2
 12873  003A72  C01E  F01F         	movff	___flmul@grs,___flmul@grs+1
 12874  003A76  6A1E               	clrf	___flmul@grs^0,c
 12875  003A78  5015               	movf	___flmul@a^0,w,c
 12876  003A7A  0212               	mulwf	(___flmul@b+1)^0,c
 12877  003A7C  CFF3 F028          	movff	prodl,___flmul@temp
 12878  003A80  CFF4 F029          	movff	prodh,___flmul@temp+1
 12879  003A84  5028               	movf	___flmul@temp^0,w,c
 12880  003A86  261E               	addwf	___flmul@grs^0,f,c
 12881  003A88  5029               	movf	(___flmul@temp+1)^0,w,c
 12882  003A8A  221F               	addwfc	(___flmul@grs+1)^0,f,c
 12883  003A8C  0E00               	movlw	0
 12884  003A8E  2220               	addwfc	(___flmul@grs+2)^0,f,c
 12885  003A90  0E00               	movlw	0
 12886  003A92  2221               	addwfc	(___flmul@grs+3)^0,f,c
 12887  003A94  5016               	movf	(___flmul@a+1)^0,w,c
 12888  003A96  0211               	mulwf	___flmul@b^0,c
 12889  003A98  CFF3 F028          	movff	prodl,___flmul@temp
 12890  003A9C  CFF4 F029          	movff	prodh,___flmul@temp+1
 12891  003AA0  5028               	movf	___flmul@temp^0,w,c
 12892  003AA2  261E               	addwf	___flmul@grs^0,f,c
 12893  003AA4  5029               	movf	(___flmul@temp+1)^0,w,c
 12894  003AA6  221F               	addwfc	(___flmul@grs+1)^0,f,c
 12895  003AA8  0E00               	movlw	0
 12896  003AAA  2220               	addwfc	(___flmul@grs+2)^0,f,c
 12897  003AAC  0E00               	movlw	0
 12898  003AAE  2221               	addwfc	(___flmul@grs+3)^0,f,c
 12899  003AB0  C020  F021         	movff	___flmul@grs+2,___flmul@grs+3
 12900  003AB4  C01F  F020         	movff	___flmul@grs+1,___flmul@grs+2
 12901  003AB8  C01E  F01F         	movff	___flmul@grs,___flmul@grs+1
 12902  003ABC  6A1E               	clrf	___flmul@grs^0,c
 12903  003ABE  5015               	movf	___flmul@a^0,w,c
 12904  003AC0  0211               	mulwf	___flmul@b^0,c
 12905  003AC2  CFF3 F028          	movff	prodl,___flmul@temp
 12906  003AC6  CFF4 F029          	movff	prodh,___flmul@temp+1
 12907  003ACA  5028               	movf	___flmul@temp^0,w,c
 12908  003ACC  261E               	addwf	___flmul@grs^0,f,c
 12909  003ACE  5029               	movf	(___flmul@temp+1)^0,w,c
 12910  003AD0  221F               	addwfc	(___flmul@grs+1)^0,f,c
 12911  003AD2  0E00               	movlw	0
 12912  003AD4  2220               	addwfc	(___flmul@grs+2)^0,f,c
 12913  003AD6  0E00               	movlw	0
 12914  003AD8  2221               	addwfc	(___flmul@grs+3)^0,f,c
 12915  003ADA  5017               	movf	(___flmul@a+2)^0,w,c
 12916  003ADC  0212               	mulwf	(___flmul@b+1)^0,c
 12917  003ADE  CFF3 F028          	movff	prodl,___flmul@temp
 12918  003AE2  CFF4 F029          	movff	prodh,___flmul@temp+1
 12919  003AE6  5028               	movf	___flmul@temp^0,w,c
 12920  003AE8  2624               	addwf	___flmul@prod^0,f,c
 12921  003AEA  5029               	movf	(___flmul@temp+1)^0,w,c
 12922  003AEC  2225               	addwfc	(___flmul@prod+1)^0,f,c
 12923  003AEE  0E00               	movlw	0
 12924  003AF0  2226               	addwfc	(___flmul@prod+2)^0,f,c
 12925  003AF2  0E00               	movlw	0
 12926  003AF4  2227               	addwfc	(___flmul@prod+3)^0,f,c
 12927  003AF6  5016               	movf	(___flmul@a+1)^0,w,c
 12928  003AF8  0213               	mulwf	(___flmul@b+2)^0,c
 12929  003AFA  CFF3 F028          	movff	prodl,___flmul@temp
 12930  003AFE  CFF4 F029          	movff	prodh,___flmul@temp+1
 12931  003B02  5028               	movf	___flmul@temp^0,w,c
 12932  003B04  2624               	addwf	___flmul@prod^0,f,c
 12933  003B06  5029               	movf	(___flmul@temp+1)^0,w,c
 12934  003B08  2225               	addwfc	(___flmul@prod+1)^0,f,c
 12935  003B0A  0E00               	movlw	0
 12936  003B0C  2226               	addwfc	(___flmul@prod+2)^0,f,c
 12937  003B0E  0E00               	movlw	0
 12938  003B10  2227               	addwfc	(___flmul@prod+3)^0,f,c
 12939  003B12  5017               	movf	(___flmul@a+2)^0,w,c
 12940  003B14  0213               	mulwf	(___flmul@b+2)^0,c
 12941  003B16  CFF3 F028          	movff	prodl,___flmul@temp
 12942  003B1A  CFF4 F029          	movff	prodh,___flmul@temp+1
 12943  003B1E  5028               	movf	___flmul@temp^0,w,c
 12944  003B20  6E19               	movwf	??___flmul^0,c
 12945  003B22  5029               	movf	(___flmul@temp+1)^0,w,c
 12946  003B24  6E1A               	movwf	(??___flmul+1)^0,c
 12947  003B26  6A1B               	clrf	(??___flmul+2)^0,c
 12948  003B28  6A1C               	clrf	(??___flmul+3)^0,c
 12949  003B2A  C01B  F01C         	movff	??___flmul+2,??___flmul+3
 12950  003B2E  C01A  F01B         	movff	??___flmul+1,??___flmul+2
 12951  003B32  C019  F01A         	movff	??___flmul,??___flmul+1
 12952  003B36  6A19               	clrf	??___flmul^0,c
 12953  003B38  5019               	movf	??___flmul^0,w,c
 12954  003B3A  2624               	addwf	___flmul@prod^0,f,c
 12955  003B3C  501A               	movf	(??___flmul+1)^0,w,c
 12956  003B3E  2225               	addwfc	(___flmul@prod+1)^0,f,c
 12957  003B40  501B               	movf	(??___flmul+2)^0,w,c
 12958  003B42  2226               	addwfc	(___flmul@prod+2)^0,f,c
 12959  003B44  501C               	movf	(??___flmul+3)^0,w,c
 12960  003B46  2227               	addwfc	(___flmul@prod+3)^0,f,c
 12961  003B48  C01E  F019         	movff	___flmul@grs,??___flmul
 12962  003B4C  C01F  F01A         	movff	___flmul@grs+1,??___flmul+1
 12963  003B50  C020  F01B         	movff	___flmul@grs+2,??___flmul+2
 12964  003B54  C021  F01C         	movff	___flmul@grs+3,??___flmul+3
 12965  003B58  0E19               	movlw	25
 12966  003B5A  D005               	goto	i2u349_40
 12967  003B5C                     i2u349_45:
 12968  003B5C  90D8               	bcf	status,0,c
 12969  003B5E  321C               	rrcf	(??___flmul+3)^0,f,c
 12970  003B60  321B               	rrcf	(??___flmul+2)^0,f,c
 12971  003B62  321A               	rrcf	(??___flmul+1)^0,f,c
 12972  003B64  3219               	rrcf	??___flmul^0,f,c
 12973  003B66                     i2u349_40:
 12974  003B66  2EE8               	decfsz	wreg,f,c
 12975  003B68  D7F9               	goto	i2u349_45
 12976  003B6A  5019               	movf	??___flmul^0,w,c
 12977  003B6C  2624               	addwf	___flmul@prod^0,f,c
 12978  003B6E  501A               	movf	(??___flmul+1)^0,w,c
 12979  003B70  2225               	addwfc	(___flmul@prod+1)^0,f,c
 12980  003B72  501B               	movf	(??___flmul+2)^0,w,c
 12981  003B74  2226               	addwfc	(___flmul@prod+2)^0,f,c
 12982  003B76  501C               	movf	(??___flmul+3)^0,w,c
 12983  003B78  2227               	addwfc	(___flmul@prod+3)^0,f,c
 12984  003B7A  C020  F021         	movff	___flmul@grs+2,___flmul@grs+3
 12985  003B7E  C01F  F020         	movff	___flmul@grs+1,___flmul@grs+2
 12986  003B82  C01E  F01F         	movff	___flmul@grs,___flmul@grs+1
 12987  003B86  6A1E               	clrf	___flmul@grs^0,c
 12988  003B88  5022               	movf	___flmul@aexp^0,w,c
 12989  003B8A  C023  F019         	movff	___flmul@bexp,??___flmul
 12990  003B8E  6A1A               	clrf	(??___flmul+1)^0,c
 12991  003B90  2619               	addwf	??___flmul^0,f,c
 12992  003B92  0E00               	movlw	0
 12993  003B94  221A               	addwfc	(??___flmul+1)^0,f,c
 12994  003B96  0E82               	movlw	130
 12995  003B98  2419               	addwf	??___flmul^0,w,c
 12996  003B9A  6E28               	movwf	___flmul@temp^0,c
 12997  003B9C  0EFF               	movlw	255
 12998  003B9E  201A               	addwfc	(??___flmul+1)^0,w,c
 12999  003BA0  6E29               	movwf	(___flmul@temp+1)^0,c
 13000  003BA2  D00F               	goto	i2l3787
 13001  003BA4                     i2l3781:
 13002  003BA4  90D8               	bcf	status,0,c
 13003  003BA6  3624               	rlcf	___flmul@prod^0,f,c
 13004  003BA8  3625               	rlcf	(___flmul@prod+1)^0,f,c
 13005  003BAA  3626               	rlcf	(___flmul@prod+2)^0,f,c
 13006  003BAC  3627               	rlcf	(___flmul@prod+3)^0,f,c
 13007  003BAE  BE21               	btfsc	(___flmul@grs+3)^0,7,c
 13008  003BB0  8024               	bsf	___flmul@prod^0,0,c
 13009  003BB2  90D8               	bcf	status,0,c
 13010  003BB4  361E               	rlcf	___flmul@grs^0,f,c
 13011  003BB6  361F               	rlcf	(___flmul@grs+1)^0,f,c
 13012  003BB8  3620               	rlcf	(___flmul@grs+2)^0,f,c
 13013  003BBA  3621               	rlcf	(___flmul@grs+3)^0,f,c
 13014  003BBC  0628               	decf	___flmul@temp^0,f,c
 13015  003BBE  A0D8               	btfss	status,0,c
 13016  003BC0  0629               	decf	(___flmul@temp+1)^0,f,c
 13017  003BC2                     i2l3787:
 13018  003BC2  AE26               	btfss	(___flmul@prod+2)^0,7,c
 13019  003BC4  D7EF               	goto	i2l3781
 13020  003BC6  0E00               	movlw	0
 13021  003BC8  6E22               	movwf	___flmul@aexp^0,c
 13022  003BCA  AE21               	btfss	(___flmul@grs+3)^0,7,c
 13023  003BCC  D017               	goto	i2l1028
 13024  003BCE  0EFF               	movlw	255
 13025  003BD0  141E               	andwf	___flmul@grs^0,w,c
 13026  003BD2  6E19               	movwf	??___flmul^0,c
 13027  003BD4  0EFF               	movlw	255
 13028  003BD6  141F               	andwf	(___flmul@grs+1)^0,w,c
 13029  003BD8  6E1A               	movwf	(??___flmul+1)^0,c
 13030  003BDA  0EFF               	movlw	255
 13031  003BDC  1420               	andwf	(___flmul@grs+2)^0,w,c
 13032  003BDE  6E1B               	movwf	(??___flmul+2)^0,c
 13033  003BE0  0E7F               	movlw	127
 13034  003BE2  1421               	andwf	(___flmul@grs+3)^0,w,c
 13035  003BE4  6E1C               	movwf	(??___flmul+3)^0,c
 13036  003BE6  5019               	movf	??___flmul^0,w,c
 13037  003BE8  101A               	iorwf	(??___flmul+1)^0,w,c
 13038  003BEA  101B               	iorwf	(??___flmul+2)^0,w,c
 13039  003BEC  101C               	iorwf	(??___flmul+3)^0,w,c
 13040  003BEE  B4D8               	btfsc	status,2,c
 13041  003BF0  D003               	goto	i2l1029
 13042  003BF2                     i2u353_40:
 13043  003BF2  0E01               	movlw	1
 13044  003BF4  6E22               	movwf	___flmul@aexp^0,c
 13045  003BF6  D002               	goto	i2l1028
 13046  003BF8                     i2l1029:
 13047  003BF8  B024               	btfsc	___flmul@prod^0,0,c
 13048  003BFA  D7FB               	goto	i2u353_40
 13049  003BFC                     i2l1028:
 13050  003BFC  5022               	movf	___flmul@aexp^0,w,c
 13051  003BFE  B4D8               	btfsc	status,2,c
 13052  003C00  D01F               	goto	i2l3807
 13053  003C02  0E01               	movlw	1
 13054  003C04  2624               	addwf	___flmul@prod^0,f,c
 13055  003C06  0E00               	movlw	0
 13056  003C08  2225               	addwfc	(___flmul@prod+1)^0,f,c
 13057  003C0A  2226               	addwfc	(___flmul@prod+2)^0,f,c
 13058  003C0C  2227               	addwfc	(___flmul@prod+3)^0,f,c
 13059  003C0E  A027               	btfss	(___flmul@prod+3)^0,0,c
 13060  003C10  D017               	goto	i2l3807
 13061  003C12  C024  F019         	movff	___flmul@prod,??___flmul
 13062  003C16  C025  F01A         	movff	___flmul@prod+1,??___flmul+1
 13063  003C1A  C026  F01B         	movff	___flmul@prod+2,??___flmul+2
 13064  003C1E  C027  F01C         	movff	___flmul@prod+3,??___flmul+3
 13065  003C22  341C               	rlcf	(??___flmul+3)^0,w,c
 13066  003C24  321C               	rrcf	(??___flmul+3)^0,f,c
 13067  003C26  321B               	rrcf	(??___flmul+2)^0,f,c
 13068  003C28  321A               	rrcf	(??___flmul+1)^0,f,c
 13069  003C2A  3219               	rrcf	??___flmul^0,f,c
 13070  003C2C  C019  F024         	movff	??___flmul,___flmul@prod
 13071  003C30  C01A  F025         	movff	??___flmul+1,___flmul@prod+1
 13072  003C34  C01B  F026         	movff	??___flmul+2,___flmul@prod+2
 13073  003C38  C01C  F027         	movff	??___flmul+3,___flmul@prod+3
 13074  003C3C  4A28               	infsnz	___flmul@temp^0,f,c
 13075  003C3E  2A29               	incf	(___flmul@temp+1)^0,f,c
 13076  003C40                     i2l3807:
 13077  003C40  BE29               	btfsc	(___flmul@temp+1)^0,7,c
 13078  003C42  D00D               	goto	i2l3811
 13079  003C44  5029               	movf	(___flmul@temp+1)^0,w,c
 13080  003C46  E103               	bnz	i2u357_40
 13081  003C48  2828               	incf	___flmul@temp^0,w,c
 13082  003C4A  A0D8               	btfss	status,0,c
 13083  003C4C  D008               	goto	i2l3811
 13084  003C4E                     i2u357_40:
 13085  003C4E  0E00               	movlw	0
 13086  003C50  6E24               	movwf	___flmul@prod^0,c
 13087  003C52  0E00               	movlw	0
 13088  003C54  6E25               	movwf	(___flmul@prod+1)^0,c
 13089  003C56  0E80               	movlw	128
 13090  003C58  6E26               	movwf	(___flmul@prod+2)^0,c
 13091  003C5A  0E7F               	movlw	127
 13092  003C5C  D020               	goto	L11
 13093  003C5E                     i2l3811:
 13094  003C5E  BE29               	btfsc	(___flmul@temp+1)^0,7,c
 13095  003C60  D005               	goto	i2u358_40
 13096  003C62  5029               	movf	(___flmul@temp+1)^0,w,c
 13097  003C64  E10E               	bnz	i2l1036
 13098  003C66  0428               	decf	___flmul@temp^0,w,c
 13099  003C68  B0D8               	btfsc	status,0,c
 13100  003C6A  D00B               	goto	i2l1036
 13101  003C6C                     i2u358_40:
 13102  003C6C  0E00               	movlw	0
 13103  003C6E  6E24               	movwf	___flmul@prod^0,c
 13104  003C70  0E00               	movlw	0
 13105  003C72  6E25               	movwf	(___flmul@prod+1)^0,c
 13106  003C74  0E00               	movlw	0
 13107  003C76  6E26               	movwf	(___flmul@prod+2)^0,c
 13108  003C78  0E00               	movlw	0
 13109  003C7A  6E27               	movwf	(___flmul@prod+3)^0,c
 13110  003C7C  0E00               	movlw	0
 13111  003C7E  6E1D               	movwf	___flmul@sign^0,c
 13112  003C80  D00F               	goto	i2l3823
 13113  003C82                     i2l1036:
 13114  003C82  C028  F023         	movff	___flmul@temp,___flmul@bexp
 13115  003C86  0EFF               	movlw	255
 13116  003C88  1624               	andwf	___flmul@prod^0,f,c
 13117  003C8A  0EFF               	movlw	255
 13118  003C8C  1625               	andwf	(___flmul@prod+1)^0,f,c
 13119  003C8E  0E7F               	movlw	127
 13120  003C90  1626               	andwf	(___flmul@prod+2)^0,f,c
 13121  003C92  0E00               	movlw	0
 13122  003C94  1627               	andwf	(___flmul@prod+3)^0,f,c
 13123  003C96  B023               	btfsc	___flmul@bexp^0,0,c
 13124  003C98  8E26               	bsf	(___flmul@prod+2)^0,7,c
 13125  003C9A  90D8               	bcf	status,0,c
 13126  003C9C  3023               	rrcf	___flmul@bexp^0,w,c
 13127  003C9E                     L11:
 13128  003C9E  6E27               	movwf	(___flmul@prod+3)^0,c
 13129  003CA0                     i2l3823:
 13130  003CA0  501D               	movf	___flmul@sign^0,w,c
 13131  003CA2  1227               	iorwf	(___flmul@prod+3)^0,f,c
 13132  003CA4  C024  F011         	movff	___flmul@prod,?___flmul
 13133  003CA8  C025  F012         	movff	___flmul@prod+1,?___flmul+1
 13134  003CAC  C026  F013         	movff	___flmul@prod+2,?___flmul+2
 13135  003CB0  C027  F014         	movff	___flmul@prod+3,?___flmul+3
 13136  003CB4  0012               	return		;funcret
 13137  003CB6                     __end_of___flmul:
 13138                           	opt callstack 0
 13139                           
 13140 ;; *************** function ___fldiv *****************
 13141 ;; Defined at:
 13142 ;;		line 11 in file "C:\Program Files (x86)\Microchip\xc8\v2.10\pic\sources\c99\common\sprcdiv.c"
 13143 ;; Parameters:    Size  Location     Type
 13144 ;;  b               4   49[COMRAM] unsigned char 
 13145 ;;  a               4   53[COMRAM] unsigned char 
 13146 ;; Auto vars:     Size  Location     Type
 13147 ;;  grs             4   68[COMRAM] unsigned long 
 13148 ;;  rem             4   61[COMRAM] unsigned long 
 13149 ;;  new_exp         2   66[COMRAM] short 
 13150 ;;  aexp            1   73[COMRAM] unsigned char 
 13151 ;;  bexp            1   72[COMRAM] unsigned char 
 13152 ;;  sign            1   65[COMRAM] unsigned char 
 13153 ;; Return value:  Size  Location     Type
 13154 ;;                  4   49[COMRAM] unsigned char 
 13155 ;; Registers used:
 13156 ;;		wreg, status,2, status,0
 13157 ;; Tracked objects:
 13158 ;;		On entry : 0/0
 13159 ;;		On exit  : 0/0
 13160 ;;		Unchanged: 0/0
 13161 ;; Data sizes:     COMRAM   BANK0   BANK1   BANK2   BANK3   BANK4   BANK5
 13162 ;;      Params:         8       0       0       0       0       0       0
 13163 ;;      Locals:        13       0       0       0       0       0       0
 13164 ;;      Temps:          4       0       0       0       0       0       0
 13165 ;;      Totals:        25       0       0       0       0       0       0
 13166 ;;Total ram usage:       25 bytes
 13167 ;; Hardware stack levels used:    1
 13168 ;; This function calls:
 13169 ;;		Nothing
 13170 ;; This function is called by:
 13171 ;;		_MQGetPercentage
 13172 ;;		_MQ_Read
 13173 ;;		_logf
 13174 ;;		_powf
 13175 ;; This function uses a non-reentrant model
 13176 ;;
 13177                           
 13178                           	psect	text53
 13179  004296                     __ptext53:
 13180                           	opt callstack 0
 13181  004296                     ___fldiv:
 13182                           	opt callstack 21
 13183                           
 13184                           ;incstack = 0
 13185  004296  5035               	movf	(___fldiv@b+3)^0,w,c
 13186  004298  0B80               	andlw	128
 13187  00429A  6E42               	movwf	___fldiv@sign^0,c
 13188  00429C  5035               	movf	(___fldiv@b+3)^0,w,c
 13189  00429E  2435               	addwf	(___fldiv@b+3)^0,w,c
 13190  0042A0  6E49               	movwf	___fldiv@bexp^0,c
 13191  0042A2  BE34               	btfsc	(___fldiv@b+2)^0,7,c
 13192  0042A4  8049               	bsf	___fldiv@bexp^0,0,c
 13193  0042A6  5049               	movf	___fldiv@bexp^0,w,c
 13194  0042A8  B4D8               	btfsc	status,2,c
 13195  0042AA  D00D               	goto	i2l3989
 13196  0042AC  2849               	incf	___fldiv@bexp^0,w,c
 13197  0042AE  A4D8               	btfss	status,2,c
 13198  0042B0  D008               	goto	i2l3985
 13199  0042B2  0E00               	movlw	0
 13200  0042B4  6E32               	movwf	___fldiv@b^0,c
 13201  0042B6  0E00               	movlw	0
 13202  0042B8  6E33               	movwf	(___fldiv@b+1)^0,c
 13203  0042BA  0E00               	movlw	0
 13204  0042BC  6E34               	movwf	(___fldiv@b+2)^0,c
 13205  0042BE  0E00               	movlw	0
 13206  0042C0  6E35               	movwf	(___fldiv@b+3)^0,c
 13207  0042C2                     i2l3985:
 13208  0042C2  8E34               	bsf	(___fldiv@b+2)^0,7,c
 13209  0042C4  D006               	goto	L12
 13210  0042C6                     i2l3989:
 13211  0042C6  0E00               	movlw	0
 13212  0042C8  6E32               	movwf	___fldiv@b^0,c
 13213  0042CA  0E00               	movlw	0
 13214  0042CC  6E33               	movwf	(___fldiv@b+1)^0,c
 13215  0042CE  0E00               	movlw	0
 13216  0042D0  6E34               	movwf	(___fldiv@b+2)^0,c
 13217  0042D2                     L12:
 13218  0042D2  0E00               	movlw	0
 13219  0042D4  6E35               	movwf	(___fldiv@b+3)^0,c
 13220  0042D6  5039               	movf	(___fldiv@a+3)^0,w,c
 13221  0042D8  0B80               	andlw	128
 13222  0042DA  1A42               	xorwf	___fldiv@sign^0,f,c
 13223  0042DC  5039               	movf	(___fldiv@a+3)^0,w,c
 13224  0042DE  2439               	addwf	(___fldiv@a+3)^0,w,c
 13225  0042E0  6E4A               	movwf	___fldiv@aexp^0,c
 13226  0042E2  BE38               	btfsc	(___fldiv@a+2)^0,7,c
 13227  0042E4  804A               	bsf	___fldiv@aexp^0,0,c
 13228  0042E6  504A               	movf	___fldiv@aexp^0,w,c
 13229  0042E8  B4D8               	btfsc	status,2,c
 13230  0042EA  D00D               	goto	i2l4009
 13231  0042EC  284A               	incf	___fldiv@aexp^0,w,c
 13232  0042EE  A4D8               	btfss	status,2,c
 13233  0042F0  D008               	goto	i2l4005
 13234  0042F2  0E00               	movlw	0
 13235  0042F4  6E36               	movwf	___fldiv@a^0,c
 13236  0042F6  0E00               	movlw	0
 13237  0042F8  6E37               	movwf	(___fldiv@a+1)^0,c
 13238  0042FA  0E00               	movlw	0
 13239  0042FC  6E38               	movwf	(___fldiv@a+2)^0,c
 13240  0042FE  0E00               	movlw	0
 13241  004300  6E39               	movwf	(___fldiv@a+3)^0,c
 13242  004302                     i2l4005:
 13243  004302  8E38               	bsf	(___fldiv@a+2)^0,7,c
 13244  004304  D006               	goto	L13
 13245  004306                     i2l4009:
 13246  004306  0E00               	movlw	0
 13247  004308  6E36               	movwf	___fldiv@a^0,c
 13248  00430A  0E00               	movlw	0
 13249  00430C  6E37               	movwf	(___fldiv@a+1)^0,c
 13250  00430E  0E00               	movlw	0
 13251  004310  6E38               	movwf	(___fldiv@a+2)^0,c
 13252  004312                     L13:
 13253  004312  0E00               	movlw	0
 13254  004314  6E39               	movwf	(___fldiv@a+3)^0,c
 13255  004316  5036               	movf	___fldiv@a^0,w,c
 13256  004318  1037               	iorwf	(___fldiv@a+1)^0,w,c
 13257  00431A  1038               	iorwf	(___fldiv@a+2)^0,w,c
 13258  00431C  1039               	iorwf	(___fldiv@a+3)^0,w,c
 13259  00431E  A4D8               	btfss	status,2,c
 13260  004320  D017               	goto	i2l4023
 13261  004322  0E00               	movlw	0
 13262  004324  6E32               	movwf	___fldiv@b^0,c
 13263  004326  0E00               	movlw	0
 13264  004328  6E33               	movwf	(___fldiv@b+1)^0,c
 13265  00432A  0E00               	movlw	0
 13266  00432C  6E34               	movwf	(___fldiv@b+2)^0,c
 13267  00432E  0E00               	movlw	0
 13268  004330  6E35               	movwf	(___fldiv@b+3)^0,c
 13269  004332  0E80               	movlw	128
 13270  004334  1234               	iorwf	(___fldiv@b+2)^0,f,c
 13271  004336  0E7F               	movlw	127
 13272  004338  1235               	iorwf	(___fldiv@b+3)^0,f,c
 13273  00433A                     i2l4017:
 13274  00433A  5042               	movf	___fldiv@sign^0,w,c
 13275  00433C  1235               	iorwf	(___fldiv@b+3)^0,f,c
 13276  00433E  C032  F032         	movff	___fldiv@b,?___fldiv
 13277  004342  C033  F033         	movff	___fldiv@b+1,?___fldiv+1
 13278  004346  C034  F034         	movff	___fldiv@b+2,?___fldiv+2
 13279  00434A  C035  F035         	movff	___fldiv@b+3,?___fldiv+3
 13280  00434E  0012               	return	
 13281  004350                     i2l4023:
 13282  004350  5049               	movf	___fldiv@bexp^0,w,c
 13283  004352  A4D8               	btfss	status,2,c
 13284  004354  D009               	goto	i2l4031
 13285  004356  0E00               	movlw	0
 13286  004358  6E32               	movwf	?___fldiv^0,c
 13287  00435A  0E00               	movlw	0
 13288  00435C  6E33               	movwf	(?___fldiv+1)^0,c
 13289  00435E  0E00               	movlw	0
 13290  004360  6E34               	movwf	(?___fldiv+2)^0,c
 13291  004362  0E00               	movlw	0
 13292  004364  6E35               	movwf	(?___fldiv+3)^0,c
 13293  004366  0012               	return	
 13294  004368                     i2l4031:
 13295  004368  504A               	movf	___fldiv@aexp^0,w,c
 13296  00436A  C049  F03A         	movff	___fldiv@bexp,??___fldiv
 13297  00436E  6A3B               	clrf	(??___fldiv+1)^0,c
 13298  004370  5E3A               	subwf	??___fldiv^0,f,c
 13299  004372  0E00               	movlw	0
 13300  004374  5A3B               	subwfb	(??___fldiv+1)^0,f,c
 13301  004376  0E7F               	movlw	127
 13302  004378  243A               	addwf	??___fldiv^0,w,c
 13303  00437A  6E43               	movwf	___fldiv@new_exp^0,c
 13304  00437C  0E00               	movlw	0
 13305  00437E  203B               	addwfc	(??___fldiv+1)^0,w,c
 13306  004380  6E44               	movwf	(___fldiv@new_exp+1)^0,c
 13307  004382  C032  F03E         	movff	___fldiv@b,___fldiv@rem
 13308  004386  C033  F03F         	movff	___fldiv@b+1,___fldiv@rem+1
 13309  00438A  C034  F040         	movff	___fldiv@b+2,___fldiv@rem+2
 13310  00438E  C035  F041         	movff	___fldiv@b+3,___fldiv@rem+3
 13311  004392  0E00               	movlw	0
 13312  004394  6E32               	movwf	___fldiv@b^0,c
 13313  004396  0E00               	movlw	0
 13314  004398  6E33               	movwf	(___fldiv@b+1)^0,c
 13315  00439A  0E00               	movlw	0
 13316  00439C  6E34               	movwf	(___fldiv@b+2)^0,c
 13317  00439E  0E00               	movlw	0
 13318  0043A0  6E35               	movwf	(___fldiv@b+3)^0,c
 13319  0043A2  0E00               	movlw	0
 13320  0043A4  6E45               	movwf	___fldiv@grs^0,c
 13321  0043A6  0E00               	movlw	0
 13322  0043A8  6E46               	movwf	(___fldiv@grs+1)^0,c
 13323  0043AA  0E00               	movlw	0
 13324  0043AC  6E47               	movwf	(___fldiv@grs+2)^0,c
 13325  0043AE  0E00               	movlw	0
 13326  0043B0  6E48               	movwf	(___fldiv@grs+3)^0,c
 13327  0043B2  0E00               	movlw	0
 13328  0043B4  6E4A               	movwf	___fldiv@aexp^0,c
 13329  0043B6  D028               	goto	i2l989
 13330  0043B8                     i2l4041:
 13331  0043B8  504A               	movf	___fldiv@aexp^0,w,c
 13332  0043BA  B4D8               	btfsc	status,2,c
 13333  0043BC  D011               	goto	i2l4049
 13334  0043BE  90D8               	bcf	status,0,c
 13335  0043C0  363E               	rlcf	___fldiv@rem^0,f,c
 13336  0043C2  363F               	rlcf	(___fldiv@rem+1)^0,f,c
 13337  0043C4  3640               	rlcf	(___fldiv@rem+2)^0,f,c
 13338  0043C6  3641               	rlcf	(___fldiv@rem+3)^0,f,c
 13339  0043C8  90D8               	bcf	status,0,c
 13340  0043CA  3632               	rlcf	___fldiv@b^0,f,c
 13341  0043CC  3633               	rlcf	(___fldiv@b+1)^0,f,c
 13342  0043CE  3634               	rlcf	(___fldiv@b+2)^0,f,c
 13343  0043D0  3635               	rlcf	(___fldiv@b+3)^0,f,c
 13344  0043D2  BE48               	btfsc	(___fldiv@grs+3)^0,7,c
 13345  0043D4  8032               	bsf	___fldiv@b^0,0,c
 13346  0043D6  90D8               	bcf	status,0,c
 13347  0043D8  3645               	rlcf	___fldiv@grs^0,f,c
 13348  0043DA  3646               	rlcf	(___fldiv@grs+1)^0,f,c
 13349  0043DC  3647               	rlcf	(___fldiv@grs+2)^0,f,c
 13350  0043DE  3648               	rlcf	(___fldiv@grs+3)^0,f,c
 13351  0043E0                     i2l4049:
 13352  0043E0  5036               	movf	___fldiv@a^0,w,c
 13353  0043E2  5C3E               	subwf	___fldiv@rem^0,w,c
 13354  0043E4  5037               	movf	(___fldiv@a+1)^0,w,c
 13355  0043E6  583F               	subwfb	(___fldiv@rem+1)^0,w,c
 13356  0043E8  5038               	movf	(___fldiv@a+2)^0,w,c
 13357  0043EA  5840               	subwfb	(___fldiv@rem+2)^0,w,c
 13358  0043EC  5039               	movf	(___fldiv@a+3)^0,w,c
 13359  0043EE  5841               	subwfb	(___fldiv@rem+3)^0,w,c
 13360  0043F0  A0D8               	btfss	status,0,c
 13361  0043F2  D009               	goto	i2l4055
 13362  0043F4  8C48               	bsf	(___fldiv@grs+3)^0,6,c
 13363  0043F6  5036               	movf	___fldiv@a^0,w,c
 13364  0043F8  5E3E               	subwf	___fldiv@rem^0,f,c
 13365  0043FA  5037               	movf	(___fldiv@a+1)^0,w,c
 13366  0043FC  5A3F               	subwfb	(___fldiv@rem+1)^0,f,c
 13367  0043FE  5038               	movf	(___fldiv@a+2)^0,w,c
 13368  004400  5A40               	subwfb	(___fldiv@rem+2)^0,f,c
 13369  004402  5039               	movf	(___fldiv@a+3)^0,w,c
 13370  004404  5A41               	subwfb	(___fldiv@rem+3)^0,f,c
 13371  004406                     i2l4055:
 13372  004406  2A4A               	incf	___fldiv@aexp^0,f,c
 13373  004408                     i2l989:
 13374  004408  0E19               	movlw	25
 13375  00440A  644A               	cpfsgt	___fldiv@aexp^0,c
 13376  00440C  D7D5               	goto	i2l4041
 13377  00440E  503E               	movf	___fldiv@rem^0,w,c
 13378  004410  103F               	iorwf	(___fldiv@rem+1)^0,w,c
 13379  004412  1040               	iorwf	(___fldiv@rem+2)^0,w,c
 13380  004414  1041               	iorwf	(___fldiv@rem+3)^0,w,c
 13381  004416  B4D8               	btfsc	status,2,c
 13382  004418  D011               	goto	i2l4067
 13383  00441A  8045               	bsf	___fldiv@grs^0,0,c
 13384  00441C  D00F               	goto	i2l4067
 13385  00441E                     i2l4061:
 13386  00441E  90D8               	bcf	status,0,c
 13387  004420  3632               	rlcf	___fldiv@b^0,f,c
 13388  004422  3633               	rlcf	(___fldiv@b+1)^0,f,c
 13389  004424  3634               	rlcf	(___fldiv@b+2)^0,f,c
 13390  004426  3635               	rlcf	(___fldiv@b+3)^0,f,c
 13391  004428  BE48               	btfsc	(___fldiv@grs+3)^0,7,c
 13392  00442A  8032               	bsf	___fldiv@b^0,0,c
 13393  00442C  90D8               	bcf	status,0,c
 13394  00442E  3645               	rlcf	___fldiv@grs^0,f,c
 13395  004430  3646               	rlcf	(___fldiv@grs+1)^0,f,c
 13396  004432  3647               	rlcf	(___fldiv@grs+2)^0,f,c
 13397  004434  3648               	rlcf	(___fldiv@grs+3)^0,f,c
 13398  004436  0643               	decf	___fldiv@new_exp^0,f,c
 13399  004438  A0D8               	btfss	status,0,c
 13400  00443A  0644               	decf	(___fldiv@new_exp+1)^0,f,c
 13401  00443C                     i2l4067:
 13402  00443C  AE34               	btfss	(___fldiv@b+2)^0,7,c
 13403  00443E  D7EF               	goto	i2l4061
 13404  004440  0E00               	movlw	0
 13405  004442  6E4A               	movwf	___fldiv@aexp^0,c
 13406  004444  AE48               	btfss	(___fldiv@grs+3)^0,7,c
 13407  004446  D017               	goto	i2l1000
 13408  004448  0EFF               	movlw	255
 13409  00444A  1445               	andwf	___fldiv@grs^0,w,c
 13410  00444C  6E3A               	movwf	??___fldiv^0,c
 13411  00444E  0EFF               	movlw	255
 13412  004450  1446               	andwf	(___fldiv@grs+1)^0,w,c
 13413  004452  6E3B               	movwf	(??___fldiv+1)^0,c
 13414  004454  0EFF               	movlw	255
 13415  004456  1447               	andwf	(___fldiv@grs+2)^0,w,c
 13416  004458  6E3C               	movwf	(??___fldiv+2)^0,c
 13417  00445A  0E7F               	movlw	127
 13418  00445C  1448               	andwf	(___fldiv@grs+3)^0,w,c
 13419  00445E  6E3D               	movwf	(??___fldiv+3)^0,c
 13420  004460  503A               	movf	??___fldiv^0,w,c
 13421  004462  103B               	iorwf	(??___fldiv+1)^0,w,c
 13422  004464  103C               	iorwf	(??___fldiv+2)^0,w,c
 13423  004466  103D               	iorwf	(??___fldiv+3)^0,w,c
 13424  004468  B4D8               	btfsc	status,2,c
 13425  00446A  D003               	goto	i2l1001
 13426  00446C                     i2u401_40:
 13427  00446C  0E01               	movlw	1
 13428  00446E  6E4A               	movwf	___fldiv@aexp^0,c
 13429  004470  D002               	goto	i2l1000
 13430  004472                     i2l1001:
 13431  004472  B032               	btfsc	___fldiv@b^0,0,c
 13432  004474  D7FB               	goto	i2u401_40
 13433  004476                     i2l1000:
 13434  004476  504A               	movf	___fldiv@aexp^0,w,c
 13435  004478  B4D8               	btfsc	status,2,c
 13436  00447A  D01F               	goto	i2l4087
 13437  00447C  0E01               	movlw	1
 13438  00447E  2632               	addwf	___fldiv@b^0,f,c
 13439  004480  0E00               	movlw	0
 13440  004482  2233               	addwfc	(___fldiv@b+1)^0,f,c
 13441  004484  2234               	addwfc	(___fldiv@b+2)^0,f,c
 13442  004486  2235               	addwfc	(___fldiv@b+3)^0,f,c
 13443  004488  A035               	btfss	(___fldiv@b+3)^0,0,c
 13444  00448A  D017               	goto	i2l4087
 13445  00448C  C032  F03A         	movff	___fldiv@b,??___fldiv
 13446  004490  C033  F03B         	movff	___fldiv@b+1,??___fldiv+1
 13447  004494  C034  F03C         	movff	___fldiv@b+2,??___fldiv+2
 13448  004498  C035  F03D         	movff	___fldiv@b+3,??___fldiv+3
 13449  00449C  343D               	rlcf	(??___fldiv+3)^0,w,c
 13450  00449E  323D               	rrcf	(??___fldiv+3)^0,f,c
 13451  0044A0  323C               	rrcf	(??___fldiv+2)^0,f,c
 13452  0044A2  323B               	rrcf	(??___fldiv+1)^0,f,c
 13453  0044A4  323A               	rrcf	??___fldiv^0,f,c
 13454  0044A6  C03A  F032         	movff	??___fldiv,___fldiv@b
 13455  0044AA  C03B  F033         	movff	??___fldiv+1,___fldiv@b+1
 13456  0044AE  C03C  F034         	movff	??___fldiv+2,___fldiv@b+2
 13457  0044B2  C03D  F035         	movff	??___fldiv+3,___fldiv@b+3
 13458  0044B6  4A43               	infsnz	___fldiv@new_exp^0,f,c
 13459  0044B8  2A44               	incf	(___fldiv@new_exp+1)^0,f,c
 13460  0044BA                     i2l4087:
 13461  0044BA  BE44               	btfsc	(___fldiv@new_exp+1)^0,7,c
 13462  0044BC  D010               	goto	i2l4091
 13463  0044BE  5044               	movf	(___fldiv@new_exp+1)^0,w,c
 13464  0044C0  E103               	bnz	i2u405_40
 13465  0044C2  2843               	incf	___fldiv@new_exp^0,w,c
 13466  0044C4  A0D8               	btfss	status,0,c
 13467  0044C6  D00B               	goto	i2l4091
 13468  0044C8                     i2u405_40:
 13469  0044C8  0E00               	movlw	0
 13470  0044CA  6E44               	movwf	(___fldiv@new_exp+1)^0,c
 13471  0044CC  6843               	setf	___fldiv@new_exp^0,c
 13472  0044CE  0E00               	movlw	0
 13473  0044D0  6E32               	movwf	___fldiv@b^0,c
 13474  0044D2  0E00               	movlw	0
 13475  0044D4  6E33               	movwf	(___fldiv@b+1)^0,c
 13476  0044D6  0E00               	movlw	0
 13477  0044D8  6E34               	movwf	(___fldiv@b+2)^0,c
 13478  0044DA  0E00               	movlw	0
 13479  0044DC  6E35               	movwf	(___fldiv@b+3)^0,c
 13480  0044DE                     i2l4091:
 13481  0044DE  BE44               	btfsc	(___fldiv@new_exp+1)^0,7,c
 13482  0044E0  D005               	goto	i2u406_40
 13483  0044E2  5044               	movf	(___fldiv@new_exp+1)^0,w,c
 13484  0044E4  E111               	bnz	i2l4095
 13485  0044E6  0443               	decf	___fldiv@new_exp^0,w,c
 13486  0044E8  B0D8               	btfsc	status,0,c
 13487  0044EA  D00E               	goto	i2l4095
 13488  0044EC                     i2u406_40:
 13489  0044EC  0E00               	movlw	0
 13490  0044EE  6E44               	movwf	(___fldiv@new_exp+1)^0,c
 13491  0044F0  0E00               	movlw	0
 13492  0044F2  6E43               	movwf	___fldiv@new_exp^0,c
 13493  0044F4  0E00               	movlw	0
 13494  0044F6  6E32               	movwf	___fldiv@b^0,c
 13495  0044F8  0E00               	movlw	0
 13496  0044FA  6E33               	movwf	(___fldiv@b+1)^0,c
 13497  0044FC  0E00               	movlw	0
 13498  0044FE  6E34               	movwf	(___fldiv@b+2)^0,c
 13499  004500  0E00               	movlw	0
 13500  004502  6E35               	movwf	(___fldiv@b+3)^0,c
 13501  004504  0E00               	movlw	0
 13502  004506  6E42               	movwf	___fldiv@sign^0,c
 13503  004508                     i2l4095:
 13504  004508  C043  F049         	movff	___fldiv@new_exp,___fldiv@bexp
 13505  00450C  A049               	btfss	___fldiv@bexp^0,0,c
 13506  00450E  D002               	goto	i2l4101
 13507  004510  8E34               	bsf	(___fldiv@b+2)^0,7,c
 13508  004512  D001               	goto	i2l4103
 13509  004514                     i2l4101:
 13510  004514  9E34               	bcf	(___fldiv@b+2)^0,7,c
 13511  004516                     i2l4103:
 13512  004516  90D8               	bcf	status,0,c
 13513  004518  3049               	rrcf	___fldiv@bexp^0,w,c
 13514  00451A  6E35               	movwf	(___fldiv@b+3)^0,c
 13515  00451C  D70E               	goto	i2l4017
 13516  00451E                     __end_of___fldiv:
 13517                           	opt callstack 0
 13518                           
 13519 ;; *************** function ___fltol *****************
 13520 ;; Defined at:
 13521 ;;		line 43 in file "C:\Program Files (x86)\Microchip\xc8\v2.10\pic\sources\c99\common\fltol.c"
 13522 ;; Parameters:    Size  Location     Type
 13523 ;;  f1              4  118[COMRAM] unsigned char 
 13524 ;; Auto vars:     Size  Location     Type
 13525 ;;  exp1            1   76[BANK0 ] unsigned char 
 13526 ;;  sign1           1   75[BANK0 ] unsigned char 
 13527 ;; Return value:  Size  Location     Type
 13528 ;;                  4  118[COMRAM] long 
 13529 ;; Registers used:
 13530 ;;		wreg, status,2, status,0
 13531 ;; Tracked objects:
 13532 ;;		On entry : 0/0
 13533 ;;		On exit  : 0/0
 13534 ;;		Unchanged: 0/0
 13535 ;; Data sizes:     COMRAM   BANK0   BANK1   BANK2   BANK3   BANK4   BANK5
 13536 ;;      Params:         4       0       0       0       0       0       0
 13537 ;;      Locals:         0       2       0       0       0       0       0
 13538 ;;      Temps:          4       0       0       0       0       0       0
 13539 ;;      Totals:         8       2       0       0       0       0       0
 13540 ;;Total ram usage:       10 bytes
 13541 ;; Hardware stack levels used:    1
 13542 ;; This function calls:
 13543 ;;		Nothing
 13544 ;; This function is called by:
 13545 ;;		_MQGetPercentage
 13546 ;;		_Hi_ISR
 13547 ;; This function uses a non-reentrant model
 13548 ;;
 13549                           
 13550                           	psect	text54
 13551  00575E                     __ptext54:
 13552                           	opt callstack 0
 13553  00575E                     ___fltol:
 13554                           	opt callstack 22
 13555                           
 13556                           ;incstack = 0
 13557  00575E  3479               	rlcf	(___fltol@f1+2)^0,w,c
 13558  005760  347A               	rlcf	(___fltol@f1+3)^0,w,c
 13559  005762  0100               	movlb	0	; () banked
 13560  005764  6FCC               	movwf	___fltol@exp1& (0+255),b
 13561  005766  51CC               	movf	___fltol@exp1& (0+255),w,b
 13562  005768  A4D8               	btfss	status,2,c
 13563  00576A  D009               	goto	i2l4965
 13564  00576C                     i2u530_40:
 13565                           
 13566                           ; BSR set to: 0
 13567  00576C  0E00               	movlw	0
 13568  00576E  6E77               	movwf	?___fltol^0,c
 13569  005770  0E00               	movlw	0
 13570  005772  6E78               	movwf	(?___fltol+1)^0,c
 13571  005774  0E00               	movlw	0
 13572  005776  6E79               	movwf	(?___fltol+2)^0,c
 13573  005778  0E00               	movlw	0
 13574  00577A  6E7A               	movwf	(?___fltol+3)^0,c
 13575  00577C  0012               	return	
 13576  00577E                     i2l4965:
 13577                           
 13578                           ; BSR set to: 0
 13579  00577E  C077  F07B         	movff	___fltol@f1,??___fltol
 13580  005782  C078  F07C         	movff	___fltol@f1+1,??___fltol+1
 13581  005786  C079  F07D         	movff	___fltol@f1+2,??___fltol+2
 13582  00578A  C07A  F07E         	movff	___fltol@f1+3,??___fltol+3
 13583  00578E  0E20               	movlw	32
 13584  005790  D005               	goto	i2u531_40
 13585  005792                     i2u531_45:
 13586  005792  90D8               	bcf	status,0,c
 13587  005794  327E               	rrcf	(??___fltol+3)^0,f,c
 13588  005796  327D               	rrcf	(??___fltol+2)^0,f,c
 13589  005798  327C               	rrcf	(??___fltol+1)^0,f,c
 13590  00579A  327B               	rrcf	??___fltol^0,f,c
 13591  00579C                     i2u531_40:
 13592  00579C  2EE8               	decfsz	wreg,f,c
 13593  00579E  D7F9               	goto	i2u531_45
 13594  0057A0  507B               	movf	??___fltol^0,w,c
 13595  0057A2  6FCB               	movwf	___fltol@sign1& (0+255),b
 13596                           
 13597                           ; BSR set to: 0
 13598  0057A4  8E79               	bsf	(___fltol@f1+2)^0,7,c
 13599                           
 13600                           ; BSR set to: 0
 13601  0057A6  0EFF               	movlw	255
 13602  0057A8  1677               	andwf	___fltol@f1^0,f,c
 13603  0057AA  0EFF               	movlw	255
 13604  0057AC  1678               	andwf	(___fltol@f1+1)^0,f,c
 13605  0057AE  0EFF               	movlw	255
 13606  0057B0  1679               	andwf	(___fltol@f1+2)^0,f,c
 13607  0057B2  0E00               	movlw	0
 13608  0057B4  167A               	andwf	(___fltol@f1+3)^0,f,c
 13609                           
 13610                           ; BSR set to: 0
 13611  0057B6  0E96               	movlw	150
 13612  0057B8  5FCC               	subwf	___fltol@exp1& (0+255),f,b
 13613                           
 13614                           ; BSR set to: 0
 13615  0057BA  AFCC               	btfss	___fltol@exp1& (0+255),7,b
 13616  0057BC  D00D               	goto	i2l4985
 13617                           
 13618                           ; BSR set to: 0
 13619  0057BE  51CC               	movf	___fltol@exp1& (0+255),w,b
 13620  0057C0  0A80               	xorlw	128
 13621  0057C2  0F97               	addlw	151
 13622  0057C4  A0D8               	btfss	status,0,c
 13623  0057C6  D7D2               	goto	i2u530_40
 13624  0057C8                     i2l4981:
 13625                           
 13626                           ; BSR set to: 0
 13627  0057C8  90D8               	bcf	status,0,c
 13628  0057CA  327A               	rrcf	(___fltol@f1+3)^0,f,c
 13629  0057CC  3279               	rrcf	(___fltol@f1+2)^0,f,c
 13630  0057CE  3278               	rrcf	(___fltol@f1+1)^0,f,c
 13631  0057D0  3277               	rrcf	___fltol@f1^0,f,c
 13632                           
 13633                           ; BSR set to: 0
 13634  0057D2  3FCC               	incfsz	___fltol@exp1& (0+255),f,b
 13635  0057D4  D7F9               	goto	i2l4981
 13636  0057D6  D00D               	goto	i2u535_40
 13637  0057D8                     i2l4985:
 13638                           
 13639                           ; BSR set to: 0
 13640  0057D8  0E1F               	movlw	31
 13641  0057DA  65CC               	cpfsgt	___fltol@exp1& (0+255),b
 13642  0057DC  D007               	goto	i2l4993
 13643  0057DE  D7C6               	goto	i2u530_40
 13644  0057E0                     i2l4991:
 13645                           
 13646                           ; BSR set to: 0
 13647  0057E0  90D8               	bcf	status,0,c
 13648  0057E2  3677               	rlcf	___fltol@f1^0,f,c
 13649  0057E4  3678               	rlcf	(___fltol@f1+1)^0,f,c
 13650  0057E6  3679               	rlcf	(___fltol@f1+2)^0,f,c
 13651  0057E8  367A               	rlcf	(___fltol@f1+3)^0,f,c
 13652  0057EA  07CC               	decf	___fltol@exp1& (0+255),f,b
 13653  0057EC                     i2l4993:
 13654                           
 13655                           ; BSR set to: 0
 13656  0057EC  51CC               	movf	___fltol@exp1& (0+255),w,b
 13657  0057EE  A4D8               	btfss	status,2,c
 13658  0057F0  D7F7               	goto	i2l4991
 13659  0057F2                     i2u535_40:
 13660                           
 13661                           ; BSR set to: 0
 13662  0057F2  51CB               	movf	___fltol@sign1& (0+255),w,b
 13663  0057F4  B4D8               	btfsc	status,2,c
 13664  0057F6  D008               	goto	i2l4999
 13665                           
 13666                           ; BSR set to: 0
 13667  0057F8  1E7A               	comf	(___fltol@f1+3)^0,f,c
 13668  0057FA  1E79               	comf	(___fltol@f1+2)^0,f,c
 13669  0057FC  1E78               	comf	(___fltol@f1+1)^0,f,c
 13670  0057FE  6C77               	negf	___fltol@f1^0,c
 13671  005800  0E00               	movlw	0
 13672  005802  2278               	addwfc	(___fltol@f1+1)^0,f,c
 13673  005804  2279               	addwfc	(___fltol@f1+2)^0,f,c
 13674  005806  227A               	addwfc	(___fltol@f1+3)^0,f,c
 13675  005808                     i2l4999:
 13676                           
 13677                           ; BSR set to: 0
 13678  005808  C077  F077         	movff	___fltol@f1,?___fltol
 13679  00580C  C078  F078         	movff	___fltol@f1+1,?___fltol+1
 13680  005810  C079  F079         	movff	___fltol@f1+2,?___fltol+2
 13681  005814  C07A  F07A         	movff	___fltol@f1+3,?___fltol+3
 13682                           
 13683                           ; BSR set to: 0
 13684  005818  0012               	return		;funcret
 13685  00581A                     __end_of___fltol:
 13686                           	opt callstack 0
 13687                           
 13688 ;; *************** function _LCD_clear *****************
 13689 ;; Defined at:
 13690 ;;		line 51 in file "setting_hardaware/LCD.c"
 13691 ;; Parameters:    Size  Location     Type
 13692 ;;		None
 13693 ;; Auto vars:     Size  Location     Type
 13694 ;;		None
 13695 ;; Return value:  Size  Location     Type
 13696 ;;                  1    wreg      void 
 13697 ;; Registers used:
 13698 ;;		wreg, status,2, cstack
 13699 ;; Tracked objects:
 13700 ;;		On entry : 0/0
 13701 ;;		On exit  : 0/0
 13702 ;;		Unchanged: 0/0
 13703 ;; Data sizes:     COMRAM   BANK0   BANK1   BANK2   BANK3   BANK4   BANK5
 13704 ;;      Params:         0       0       0       0       0       0       0
 13705 ;;      Locals:         0       0       0       0       0       0       0
 13706 ;;      Temps:          0       0       0       0       0       0       0
 13707 ;;      Totals:         0       0       0       0       0       0       0
 13708 ;;Total ram usage:        0 bytes
 13709 ;; Hardware stack levels used:    1
 13710 ;; Hardware stack levels required when called:    1
 13711 ;; This function calls:
 13712 ;;		i2_Cmd
 13713 ;; This function is called by:
 13714 ;;		_Hi_ISR
 13715 ;; This function uses a non-reentrant model
 13716 ;;
 13717                           
 13718                           	psect	text55
 13719  006046                     __ptext55:
 13720                           	opt callstack 0
 13721  006046                     _LCD_clear:
 13722                           	opt callstack 21
 13723                           
 13724                           ;setting_hardaware/LCD.c: 52:     Cmd(0X01);
 13725                           
 13726                           ; BSR set to: 0
 13727                           ;incstack = 0
 13728  006046  0E00               	movlw	0
 13729  006048  6E02               	movwf	(i2Cmd@Value+1)^0,c
 13730  00604A  0E01               	movlw	1
 13731  00604C  6E01               	movwf	i2Cmd@Value^0,c
 13732  00604E  EC5C  F02F         	call	i2_Cmd	;wreg free
 13733  006052  0012               	return		;funcret
 13734  006054                     __end_of_LCD_clear:
 13735                           	opt callstack 0
 13736                           
 13737 ;; *************** function i2_Cmd *****************
 13738 ;; Defined at:
 13739 ;;		line 15 in file "setting_hardaware/LCD.c"
 13740 ;; Parameters:    Size  Location     Type
 13741 ;;  Value           2    0[COMRAM] int 
 13742 ;; Auto vars:     Size  Location     Type
 13743 ;;		None
 13744 ;; Return value:  Size  Location     Type
 13745 ;;                  1    wreg      void 
 13746 ;; Registers used:
 13747 ;;		wreg
 13748 ;; Tracked objects:
 13749 ;;		On entry : 0/0
 13750 ;;		On exit  : 0/0
 13751 ;;		Unchanged: 0/0
 13752 ;; Data sizes:     COMRAM   BANK0   BANK1   BANK2   BANK3   BANK4   BANK5
 13753 ;;      Params:         2       0       0       0       0       0       0
 13754 ;;      Locals:         0       0       0       0       0       0       0
 13755 ;;      Temps:          1       0       0       0       0       0       0
 13756 ;;      Totals:         3       0       0       0       0       0       0
 13757 ;;Total ram usage:        3 bytes
 13758 ;; Hardware stack levels used:    1
 13759 ;; This function calls:
 13760 ;;		Nothing
 13761 ;; This function is called by:
 13762 ;;		_LCD_clear
 13763 ;;		i2_Send2Lcd
 13764 ;; This function uses a non-reentrant model
 13765 ;;
 13766                           
 13767                           	psect	text56
 13768  005EB8                     __ptext56:
 13769                           	opt callstack 0
 13770  005EB8                     i2_Cmd:
 13771                           	opt callstack 21
 13772                           
 13773                           ;setting_hardaware/LCD.c: 15: void Cmd(int Value);setting_hardaware/LCD.c: 16: {;setting
      +                          _hardaware/LCD.c: 17:  LATD = Value;
 13774                           
 13775                           ;incstack = 0
 13776  005EB8  C001  FF8C         	movff	i2Cmd@Value,3980	;volatile
 13777                           
 13778                           ;setting_hardaware/LCD.c: 18:  LATCbits.LC4=0;
 13779  005EBC  988B               	bcf	139,4,c	;volatile
 13780                           
 13781                           ;setting_hardaware/LCD.c: 20:  LATCbits.LC6=0;
 13782  005EBE  9C8B               	bcf	139,6,c	;volatile
 13783                           
 13784                           ;setting_hardaware/LCD.c: 21:  _delay((unsigned long)((25)*(4000000/4000000.0)));
 13785  005EC0  0E08               	movlw	8
 13786  005EC2                     i2u605_47:
 13787  005EC2  2EE8               	decfsz	wreg,f,c
 13788  005EC4  D7FE               	bra	i2u605_47
 13789  005EC6  F000               	nop	
 13790                           
 13791                           ;setting_hardaware/LCD.c: 22:  LATCbits.LC6=1;
 13792  005EC8  8C8B               	bsf	139,6,c	;volatile
 13793                           
 13794                           ;setting_hardaware/LCD.c: 23:  _delay((unsigned long)((25)*(4000000/4000000.0)));
 13795  005ECA  0E08               	movlw	8
 13796  005ECC                     i2u606_47:
 13797  005ECC  2EE8               	decfsz	wreg,f,c
 13798  005ECE  D7FE               	bra	i2u606_47
 13799  005ED0  F000               	nop	
 13800                           
 13801                           ;setting_hardaware/LCD.c: 24:  LATCbits.LC6=0;
 13802  005ED2  9C8B               	bcf	139,6,c	;volatile
 13803                           
 13804                           ;setting_hardaware/LCD.c: 25:  _delay((unsigned long)((3)*(4000000/4000.0)));
 13805  005ED4  0E04               	movlw	4
 13806  005ED6  6E03               	movwf	??i2_Cmd^0,c
 13807  005ED8  0EE4               	movlw	228
 13808  005EDA                     i2u607_47:
 13809  005EDA  2EE8               	decfsz	wreg,f,c
 13810  005EDC  D7FE               	bra	i2u607_47
 13811  005EDE  2E03               	decfsz	??i2_Cmd^0,f,c
 13812  005EE0  D7FC               	bra	i2u607_47
 13813  005EE2  D000               	nop2	
 13814  005EE4  0012               	return		;funcret
 13815  005EE6                     __end_ofi2_Cmd:
 13816                           	opt callstack 0
 13817                           
 13818 ;; *************** function _DHT11_Start *****************
 13819 ;; Defined at:
 13820 ;;		line 19 in file "setting_hardaware/dht.c"
 13821 ;; Parameters:    Size  Location     Type
 13822 ;;		None
 13823 ;; Auto vars:     Size  Location     Type
 13824 ;;		None
 13825 ;; Return value:  Size  Location     Type
 13826 ;;                  1    wreg      void 
 13827 ;; Registers used:
 13828 ;;		wreg
 13829 ;; Tracked objects:
 13830 ;;		On entry : 0/0
 13831 ;;		On exit  : 0/0
 13832 ;;		Unchanged: 0/0
 13833 ;; Data sizes:     COMRAM   BANK0   BANK1   BANK2   BANK3   BANK4   BANK5
 13834 ;;      Params:         0       0       0       0       0       0       0
 13835 ;;      Locals:         0       0       0       0       0       0       0
 13836 ;;      Temps:          1       0       0       0       0       0       0
 13837 ;;      Totals:         1       0       0       0       0       0       0
 13838 ;;Total ram usage:        1 bytes
 13839 ;; Hardware stack levels used:    1
 13840 ;; This function calls:
 13841 ;;		Nothing
 13842 ;; This function is called by:
 13843 ;;		_Hi_ISR
 13844 ;; This function uses a non-reentrant model
 13845 ;;
 13846                           
 13847                           	psect	text57
 13848  005F7C                     __ptext57:
 13849                           	opt callstack 0
 13850  005F7C                     _DHT11_Start:
 13851                           	opt callstack 22
 13852                           
 13853                           ;setting_hardaware/dht.c: 21:     TRISAbits.RA2 = 0;
 13854                           
 13855                           ;incstack = 0
 13856  005F7C  9492               	bcf	146,2,c	;volatile
 13857                           
 13858                           ;setting_hardaware/dht.c: 22:     LATAbits.LATA2 = 0;
 13859  005F7E  9489               	bcf	137,2,c	;volatile
 13860                           
 13861                           ;setting_hardaware/dht.c: 23:     _delay((unsigned long)((18)*(4000000/4000.0)));
 13862  005F80  0E18               	movlw	24
 13863  005F82  6E01               	movwf	??_DHT11_Start^0,c
 13864  005F84  0E5F               	movlw	95
 13865  005F86                     i2u608_47:
 13866  005F86  2EE8               	decfsz	wreg,f,c
 13867  005F88  D7FE               	bra	i2u608_47
 13868  005F8A  2E01               	decfsz	??_DHT11_Start^0,f,c
 13869  005F8C  D7FC               	bra	i2u608_47
 13870  005F8E  F000               	nop	
 13871                           
 13872                           ;setting_hardaware/dht.c: 24:     LATAbits.LATA2 = 1;
 13873  005F90  8489               	bsf	137,2,c	;volatile
 13874                           
 13875                           ;setting_hardaware/dht.c: 25:     _delay((unsigned long)((20)*(4000000/4000000.0)));
 13876  005F92  0E06               	movlw	6
 13877  005F94                     i2u609_47:
 13878  005F94  2EE8               	decfsz	wreg,f,c
 13879  005F96  D7FE               	bra	i2u609_47
 13880  005F98  D000               	nop2	
 13881                           
 13882                           ;setting_hardaware/dht.c: 26:     TRISAbits.RA2 = 1;
 13883  005F9A  8492               	bsf	146,2,c	;volatile
 13884  005F9C  0012               	return		;funcret
 13885  005F9E                     __end_of_DHT11_Start:
 13886                           	opt callstack 0
 13887                           
 13888 ;; *************** function _DHT11_ReadData *****************
 13889 ;; Defined at:
 13890 ;;		line 29 in file "setting_hardaware/dht.c"
 13891 ;; Parameters:    Size  Location     Type
 13892 ;;		None
 13893 ;; Auto vars:     Size  Location     Type
 13894 ;;  data            1    1[COMRAM] unsigned char 
 13895 ;;  i               1    0[COMRAM] unsigned char 
 13896 ;; Return value:  Size  Location     Type
 13897 ;;                  1    wreg      unsigned char 
 13898 ;; Registers used:
 13899 ;;		wreg, status,2, status,0
 13900 ;; Tracked objects:
 13901 ;;		On entry : 0/0
 13902 ;;		On exit  : 0/0
 13903 ;;		Unchanged: 0/0
 13904 ;; Data sizes:     COMRAM   BANK0   BANK1   BANK2   BANK3   BANK4   BANK5
 13905 ;;      Params:         0       0       0       0       0       0       0
 13906 ;;      Locals:         2       0       0       0       0       0       0
 13907 ;;      Temps:          0       0       0       0       0       0       0
 13908 ;;      Totals:         2       0       0       0       0       0       0
 13909 ;;Total ram usage:        2 bytes
 13910 ;; Hardware stack levels used:    1
 13911 ;; This function calls:
 13912 ;;		Nothing
 13913 ;; This function is called by:
 13914 ;;		_Hi_ISR
 13915 ;; This function uses a non-reentrant model
 13916 ;;
 13917                           
 13918                           	psect	text58
 13919  005D9A                     __ptext58:
 13920                           	opt callstack 0
 13921  005D9A                     _DHT11_ReadData:
 13922                           	opt callstack 22
 13923                           
 13924                           ;setting_hardaware/dht.c: 31:   char i,data = 0;
 13925                           
 13926                           ;incstack = 0
 13927  005D9A  0E00               	movlw	0
 13928  005D9C  6E02               	movwf	DHT11_ReadData@data^0,c
 13929                           
 13930                           ;setting_hardaware/dht.c: 32:     for(i=0;i<8;i++)
 13931  005D9E  0E00               	movlw	0
 13932  005DA0  6E01               	movwf	DHT11_ReadData@i^0,c
 13933  005DA2                     i2l308:
 13934  005DA2  A480               	btfss	128,2,c	;volatile
 13935  005DA4  D7FE               	goto	i2l308
 13936                           
 13937                           ;setting_hardaware/dht.c: 35:         _delay((unsigned long)((30)*(4000000/4000000.0)));
 13938  005DA6  0E0A               	movlw	10
 13939  005DA8                     i2u610_47:
 13940  005DA8  2EE8               	decfsz	wreg,f,c
 13941  005DAA  D7FE               	bra	i2u610_47
 13942                           
 13943                           ;setting_hardaware/dht.c: 36:         if(PORTAbits.RA2 & 1)
 13944  005DAC  A480               	btfss	128,2,c	;volatile
 13945  005DAE  D003               	goto	i2l5339
 13946                           
 13947                           ;setting_hardaware/dht.c: 37:           data = ((data<<1) | 1);
 13948  005DB0  80D8               	bsf	status,0,c
 13949  005DB2  3602               	rlcf	DHT11_ReadData@data^0,f,c
 13950  005DB4  D003               	goto	i2l313
 13951  005DB6                     i2l5339:
 13952                           
 13953                           ;setting_hardaware/dht.c: 39:           data = (data<<1);
 13954  005DB6  5002               	movf	DHT11_ReadData@data^0,w,c
 13955  005DB8  2402               	addwf	DHT11_ReadData@data^0,w,c
 13956  005DBA  6E02               	movwf	DHT11_ReadData@data^0,c
 13957  005DBC                     i2l313:
 13958  005DBC  B480               	btfsc	128,2,c	;volatile
 13959  005DBE  D7FE               	goto	i2l313
 13960                           
 13961                           ;setting_hardaware/dht.c: 41:     }
 13962  005DC0  2A01               	incf	DHT11_ReadData@i^0,f,c
 13963  005DC2  0E07               	movlw	7
 13964  005DC4  6401               	cpfsgt	DHT11_ReadData@i^0,c
 13965  005DC6  D7ED               	goto	i2l308
 13966                           
 13967                           ;setting_hardaware/dht.c: 42:   return data;
 13968  005DC8  5002               	movf	DHT11_ReadData@data^0,w,c
 13969  005DCA  0012               	return		;funcret
 13970  005DCC                     __end_of_DHT11_ReadData:
 13971                           	opt callstack 0
 13972                           
 13973 ;; *************** function _DHT11_CheckResponse *****************
 13974 ;; Defined at:
 13975 ;;		line 12 in file "setting_hardaware/dht.c"
 13976 ;; Parameters:    Size  Location     Type
 13977 ;;		None
 13978 ;; Auto vars:     Size  Location     Type
 13979 ;;		None
 13980 ;; Return value:  Size  Location     Type
 13981 ;;                  1    wreg      void 
 13982 ;; Registers used:
 13983 ;;		None
 13984 ;; Tracked objects:
 13985 ;;		On entry : 0/0
 13986 ;;		On exit  : 0/0
 13987 ;;		Unchanged: 0/0
 13988 ;; Data sizes:     COMRAM   BANK0   BANK1   BANK2   BANK3   BANK4   BANK5
 13989 ;;      Params:         0       0       0       0       0       0       0
 13990 ;;      Locals:         0       0       0       0       0       0       0
 13991 ;;      Temps:          0       0       0       0       0       0       0
 13992 ;;      Totals:         0       0       0       0       0       0       0
 13993 ;;Total ram usage:        0 bytes
 13994 ;; Hardware stack levels used:    1
 13995 ;; This function calls:
 13996 ;;		Nothing
 13997 ;; This function is called by:
 13998 ;;		_Hi_ISR
 13999 ;; This function uses a non-reentrant model
 14000 ;;
 14001                           
 14002                           	psect	text59
 14003  006054                     __ptext59:
 14004                           	opt callstack 0
 14005  006054                     _DHT11_CheckResponse:
 14006                           	opt callstack 22
 14007                           
 14008                           ;setting_hardaware/dht.c: 14:     while(PORTAbits.RA2 & 1);
 14009                           
 14010                           ;incstack = 0
 14011  006054  B480               	btfsc	128,2,c	;volatile
 14012  006056  D7FE               	goto	_DHT11_CheckResponse
 14013  006058                     i2u569_40:
 14014  006058  A480               	btfss	128,2,c	;volatile
 14015  00605A  D7FE               	goto	i2u569_40
 14016  00605C                     i2u570_40:
 14017  00605C  A480               	btfss	128,2,c	;volatile
 14018  00605E  0012               	return	
 14019  006060  D7FD               	goto	i2u570_40
 14020  006062                     __end_of_DHT11_CheckResponse:
 14021                           	opt callstack 0
 14022                           
 14023                           	psect	rparam
 14024  0000                     
 14025                           	psect	temp
 14026  00007F                     btemp:
 14027                           	opt callstack 0
 14028  00007F                     	ds	1
 14029  0000                     int$flags	set	btemp
 14030  0000                     wtemp8	set	btemp+1
 14031  0000                     ttemp5	set	btemp+1
 14032  0000                     ttemp6	set	btemp+4
 14033  0000                     ttemp7	set	btemp+8
 14034                           tosu	equ	0xFFF
 14035                           tosh	equ	0xFFE
 14036                           tosl	equ	0xFFD
 14037                           stkptr	equ	0xFFC
 14038                           pclatu	equ	0xFFB
 14039                           pclath	equ	0xFFA
 14040                           pcl	equ	0xFF9
 14041                           tblptru	equ	0xFF8
 14042                           tblptrh	equ	0xFF7
 14043                           tblptrl	equ	0xFF6
 14044                           tablat	equ	0xFF5
 14045                           prodh	equ	0xFF4
 14046                           prodl	equ	0xFF3
 14047                           indf0	equ	0xFEF
 14048                           postinc0	equ	0xFEE
 14049                           postdec0	equ	0xFED
 14050                           preinc0	equ	0xFEC
 14051                           plusw0	equ	0xFEB
 14052                           fsr0h	equ	0xFEA
 14053                           fsr0l	equ	0xFE9
 14054                           wreg	equ	0xFE8
 14055                           indf1	equ	0xFE7
 14056                           postinc1	equ	0xFE6
 14057                           postdec1	equ	0xFE5
 14058                           preinc1	equ	0xFE4
 14059                           plusw1	equ	0xFE3
 14060                           fsr1h	equ	0xFE2
 14061                           fsr1l	equ	0xFE1
 14062                           bsr	equ	0xFE0
 14063                           indf2	equ	0xFDF
 14064                           postinc2	equ	0xFDE
 14065                           postdec2	equ	0xFDD
 14066                           preinc2	equ	0xFDC
 14067                           plusw2	equ	0xFDB
 14068                           fsr2h	equ	0xFDA
 14069                           fsr2l	equ	0xFD9
 14070                           status	equ	0xFD8


Data Sizes:
    Strings     42
    Constant    148
    Data        50
    BSS         195
    Persistent  0
    Stack       0

Auto Spaces:
    Space          Size  Autos    Used
    COMRAM          126    126     126
    BANK0           128    119     128
    BANK1           256    199     255
    BANK2           256     19     199
    BANK3           256      0       0
    BANK4           256      0       0
    BANK5           244      0       0

Pointer List with Targets:

    nanf@s	PTR const unsigned char  size(2) Largest target is 1
		 -> STR_5(CODE[1]), 

    strlen@s	PTR const unsigned char  size(2) Largest target is 32
		 -> dbuf(BANK2[32]), 

    strlen@a	PTR const unsigned char  size(2) Largest target is 32
		 -> dbuf(BANK2[32]), 

    sprintf@fmt	PTR const unsigned char  size(2) Largest target is 19
		 -> STR_4(CODE[9]), STR_3(CODE[19]), 

    sprintf@s	PTR unsigned char  size(2) Largest target is 100
		 -> r(BANK2[100]), 

    sprintf@ap	PTR void [1] size(2) Largest target is 2
		 -> ?_sprintf(BANK0[2]), 

    f.buffer	PTR unsigned char  size(2) Largest target is 100
		 -> r(BANK2[100]), 

    fputs@s	PTR const unsigned char  size(2) Largest target is 32
		 -> dbuf(BANK2[32]), 

    fputs@fp	PTR struct _IO_FILE size(2) Largest target is 7
		 -> sprintf@f(BANK0[6]), 

    S1703_IO_FILE$buffer	PTR unsigned char  size(2) Largest target is 100
		 -> r(BANK2[100]), 

    fputc@fp.buffer	PTR unsigned char  size(2) Largest target is 100
		 -> r(BANK2[100]), 

    fputc@fp	PTR struct _IO_FILE size(2) Largest target is 7
		 -> sprintf@f(BANK0[6]), 

    memset@dest	PTR void  size(2) Largest target is 100
		 -> r(BANK2[100]), 

    memset@s	PTR unsigned char  size(2) Largest target is 100
		 -> r(BANK2[100]), 

    atoi@s	PTR const unsigned char  size(2) Largest target is 19
		 -> STR_4(CODE[9]), STR_3(CODE[19]), 

    vfprintf@ap	PTR PTR void  size(2) Largest target is 2
		 -> sprintf@ap(BANK0[2]), 

    vfprintf@fp	PTR struct _IO_FILE size(2) Largest target is 7
		 -> sprintf@f(BANK0[6]), 

    vfprintf@fmt	PTR const unsigned char  size(2) Largest target is 19
		 -> STR_4(CODE[9]), STR_3(CODE[19]), 

    vfprintf@cfmt	PTR unsigned char  size(2) Largest target is 19
		 -> STR_4(CODE[9]), STR_3(CODE[19]), 

    vfpfcnvrt@fp	PTR struct _IO_FILE size(2) Largest target is 7
		 -> sprintf@f(BANK0[6]), 

    vfpfcnvrt@ap	PTR PTR void  size(2) Largest target is 2
		 -> sprintf@ap(BANK0[2]), 

    vfpfcnvrt@fmt	PTR PTR unsigned char  size(2) Largest target is 2
		 -> vfprintf@cfmt(COMRAM[2]), 

    dtoa@fp	PTR struct _IO_FILE size(2) Largest target is 7
		 -> sprintf@f(BANK0[6]), 

    pad@fp	PTR struct _IO_FILE size(2) Largest target is 7
		 -> sprintf@f(BANK0[6]), 

    pad@buf	PTR unsigned char  size(2) Largest target is 32
		 -> dbuf(BANK2[32]), 

    sp__memset	PTR void  size(2) Largest target is 100
		 -> r(BANK2[100]), 

    Send2Lcd@Lcd	PTR const unsigned char  size(2) Largest target is 100
		 -> r(BANK2[100]), STR_2(CODE[6]), STR_1(CODE[8]), 

    MQ_Read@values	PTR  size(2) Largest target is 12
		 -> value(BANK1[12]), 

    MQGetPercentage@pcurve	PTR  size(2) Largest target is 12
		 -> SmokeCurve(BANK2[12]), COCurve(BANK2[12]), LPGCurve(BANK2[12]), 

    sp__GetString	PTR unsigned char  size(2) Largest target is 10
		 -> mystring(BANK2[10]), 


Critical Paths under _main in COMRAM

    None.

Critical Paths under _Lo_ISR in COMRAM

    None.

Critical Paths under _Hi_ISR in COMRAM

    _Hi_ISR->___fltol
    i2_Send2Lcd->i2_Cmd
    i2_Send2Lcd->i2_Data
    _sprintf->___fltol
    _vfprintf->_vfpfcnvrt
    _vfpfcnvrt->_dtoa
    _dtoa->_pad
    _pad->_fputs
    _fputs->_fputc
    _abs->___aomod
    _atoi->_isspace
    _MQGetPercentage->___fltol
    _powf->_sqrtf
    _sqrtf->___flge
    ___flge->___flsub
    _scalbnf->___flmul
    _logf->___fldiv
    ___flsub->___flmul
    ___flmul->___fladd
    ___fldiv->___flsub
    ___fltol->_powf
    _LCD_clear->i2_Cmd

Critical Paths under _main in BANK0

    None.

Critical Paths under _Lo_ISR in BANK0

    None.

Critical Paths under _Hi_ISR in BANK0

    _Hi_ISR->_MQ_Read
    _sprintf->___fltol
    _MQ_Read->_MQGetGasPercentage
    _MQGetGasPercentage->_MQGetPercentage
    _MQGetPercentage->___fltol
    _powf->_logf
    ___fltol->_powf

Critical Paths under _main in BANK1

    None.

Critical Paths under _Lo_ISR in BANK1

    None.

Critical Paths under _Hi_ISR in BANK1

    _MQGetPercentage->_powf
    ___fltol->_powf

Critical Paths under _main in BANK2

    _SYSTEM_Initialize->_LCD_init
    _buzzer_init->_speak
    _LCD_init->_Send2Lcd
    _Send2Lcd->_Cmd
    _Send2Lcd->_Data

Critical Paths under _Lo_ISR in BANK2

    _MyusartRead->___awmod

Critical Paths under _Hi_ISR in BANK2

    None.

Critical Paths under _main in BANK3

    None.

Critical Paths under _Lo_ISR in BANK3

    None.

Critical Paths under _Hi_ISR in BANK3

    None.

Critical Paths under _main in BANK4

    None.

Critical Paths under _Lo_ISR in BANK4

    None.

Critical Paths under _Hi_ISR in BANK4

    None.

Critical Paths under _main in BANK5

    None.

Critical Paths under _Lo_ISR in BANK5

    None.

Critical Paths under _Hi_ISR in BANK5

    None.

Call Graph Tables:

 ---------------------------------------------------------------------------------
 (Depth) Function   	        Calls       Base Space   Used Autos Params    Refs
 ---------------------------------------------------------------------------------
 (0) _main                                                 0     0      0    1321
                  _SYSTEM_Initialize
 ---------------------------------------------------------------------------------
 (1) _SYSTEM_Initialize                                    0     0      0    1321
                     _ADC_Initialize
               _INTERRUPT_Initialize
                           _LCD_init
              _OSCILLATOR_Initialize
             _PIN_MANAGER_Initialize
                    _TMR1_Initialize
                        _buzzer_init
 ---------------------------------------------------------------------------------
 (2) _buzzer_init                                          0     0      0       0
                              _speak
 ---------------------------------------------------------------------------------
 (3) _speak                                                1     1      0       0
                                             11 BANK2      1     1      0
 ---------------------------------------------------------------------------------
 (2) _TMR1_Initialize                                      0     0      0       0
 ---------------------------------------------------------------------------------
 (2) _PIN_MANAGER_Initialize                               0     0      0       0
 ---------------------------------------------------------------------------------
 (2) _OSCILLATOR_Initialize                                0     0      0       0
 ---------------------------------------------------------------------------------
 (2) _LCD_init                                             1     1      0    1321
                                             18 BANK2      1     1      0
                                _Cmd
                           _Send2Lcd
 ---------------------------------------------------------------------------------
 (3) _Send2Lcd                                             4     2      2     869
                                             14 BANK2      4     2      2
                                _Cmd
                               _Data
 ---------------------------------------------------------------------------------
 (4) _Data                                                 3     1      2      98
                                             11 BANK2      3     1      2
 ---------------------------------------------------------------------------------
 (4) _Cmd                                                  3     1      2     452
                                             11 BANK2      3     1      2
 ---------------------------------------------------------------------------------
 (2) _INTERRUPT_Initialize                                 0     0      0       0
 ---------------------------------------------------------------------------------
 (2) _ADC_Initialize                                       0     0      0       0
 ---------------------------------------------------------------------------------
 Estimated maximum stack depth 4
 ---------------------------------------------------------------------------------
 (Depth) Function   	        Calls       Base Space   Used Autos Params    Refs
 ---------------------------------------------------------------------------------
 (5) _Lo_ISR                                               5     5      0     470
                                              6 BANK2      5     5      0
                        _MyusartRead
 ---------------------------------------------------------------------------------
 (6) _MyusartRead                                          0     0      0     470
                         _UART_Write
                            ___awmod
 ---------------------------------------------------------------------------------
 (7) ___awmod                                              6     2      4     448
                                              0 BANK2      6     2      4
 ---------------------------------------------------------------------------------
 (7) _UART_Write                                           1     1      0      22
                                              0 BANK2      1     1      0
 ---------------------------------------------------------------------------------
 Estimated maximum stack depth 7
 ---------------------------------------------------------------------------------
 (Depth) Function   	        Calls       Base Space   Used Autos Params    Refs
 ---------------------------------------------------------------------------------
 (8) _Hi_ISR                                              11    11      0  195257
                                            188 BANK1     11    11      0
                _DHT11_CheckResponse
                     _DHT11_ReadData
                        _DHT11_Start
                          _LCD_clear
                            _MQ_Read
                             ___flge
                            ___fltol
                             _memset
                            _sprintf
                         i2_Send2Lcd
                            i2_speak
 ---------------------------------------------------------------------------------
 (9) i2_speak                                              1     1      0       0
                                              0 COMRAM     1     1      0
 ---------------------------------------------------------------------------------
 (9) i2_Send2Lcd                                           4     2      2     241
                                              3 COMRAM     4     2      2
                              i2_Cmd
                             i2_Data
 ---------------------------------------------------------------------------------
 (10) i2_Data                                              3     1      2      48
                                              0 COMRAM     3     1      2
 ---------------------------------------------------------------------------------
 (9) _sprintf                                             22    10     12    8277
                                             77 BANK0     22    10     12
                            ___fltol (ARG)
                           _vfprintf
 ---------------------------------------------------------------------------------
 (10) _vfprintf                                            8     2      6    7772
                                             83 COMRAM     8     2      6
                          _vfpfcnvrt
 ---------------------------------------------------------------------------------
 (11) _vfpfcnvrt                                          46    40      6    7410
                                             63 COMRAM    20    14      6
                               _atoi
                               _dtoa
                              _fputc
                            _isdigit
 ---------------------------------------------------------------------------------
 (12) _dtoa                                               36    26     10    4358
                                             27 COMRAM    36    26     10
                            ___aodiv
                            ___aomod
                                _abs
                                _pad
 ---------------------------------------------------------------------------------
 (13) _pad                                                11     5      6    2709
                                             16 COMRAM    11     5      6
                              _fputc
                              _fputs
                             _strlen
 ---------------------------------------------------------------------------------
 (14) _strlen                                              4     2      2     166
                                              0 COMRAM     4     2      2
 ---------------------------------------------------------------------------------
 (14) _fputs                                               7     3      4    1235
                                              9 COMRAM     7     3      4
                              _fputc
 ---------------------------------------------------------------------------------
 (12) _fputc                                               9     5      4     834
                                              0 COMRAM     9     5      4
                              _putch
 ---------------------------------------------------------------------------------
 (13) _putch                                               1     1      0       0
 ---------------------------------------------------------------------------------
 (13) _abs                                                 4     2      2     142
                                             18 COMRAM     4     2      2
                            ___aomod (ARG)
 ---------------------------------------------------------------------------------
 (13) ___aomod                                            18     2     16     448
                                              0 COMRAM    18     2     16
 ---------------------------------------------------------------------------------
 (13) ___aodiv                                            26    10     16     452
                                              0 COMRAM    26    10     16
 ---------------------------------------------------------------------------------
 (12) _atoi                                               15    13      2    1244
                                              7 COMRAM    15    13      2
                             ___wmul
                            _isdigit
                            _isspace
 ---------------------------------------------------------------------------------
 (13) _isspace                                             7     5      2     207
                                              0 COMRAM     7     5      2
 ---------------------------------------------------------------------------------
 (12) _isdigit                                             6     4      2     237
                                              0 COMRAM     6     4      2
 ---------------------------------------------------------------------------------
 (13) ___wmul                                              6     2      4     403
                                              0 COMRAM     6     2      4
 ---------------------------------------------------------------------------------
 (9) _memset                                              12     6      6    1175
                                              0 COMRAM    12     6      6
 ---------------------------------------------------------------------------------
 (9) _MQ_Read                                             14    12      2  183140
                                            105 BANK0     14    12      2
                 _MQGetGasPercentage
                            ___fldiv
                             ___flge
                            ___flmul
                           ___xxtofl
 ---------------------------------------------------------------------------------
 (10) _MQGetGasPercentage                                 10     4      6  163134
                                             95 BANK0     10     4      6
                    _MQGetPercentage
                           ___xxtofl
 ---------------------------------------------------------------------------------
 (11) _MQGetPercentage                                    18    12      6  161623
                                             77 BANK0     18    12      6
                            ___fladd
                            ___fldiv
                            ___flsub
                            ___fltol
                               _logf
                               _powf
 ---------------------------------------------------------------------------------
 (12) _powf                                              205   197      8   90526
                                            110 COMRAM     8     0      8
                                             66 BANK0      9     9      0
                                              0 BANK1    188   188      0
                            ___fladd
                            ___fldiv
                             ___flge
                            ___flmul
                            ___flneg
                            ___flsub
                           ___xxtofl
                              _fabsf
                               _logf (ARG)
                            _scalbnf
                              _sqrtf
 ---------------------------------------------------------------------------------
 (13) _sqrtf                                              49    45      4   25445
                                             61 COMRAM    49    45      4
                            ___fladd
                             ___flge
                            ___flmul
                               _nanf
 ---------------------------------------------------------------------------------
 (14) _nanf                                                8     4      4      99
                                              0 COMRAM     8     4      4
 ---------------------------------------------------------------------------------
 (9) ___flge                                              12     4      8    1702
                                             49 COMRAM    12     4      8
                            ___fladd (ARG)
                            ___flsub (ARG)
 ---------------------------------------------------------------------------------
 (13) _scalbnf                                            18    12      6   14247
                                             41 COMRAM    18    12      6
                            ___flmul
 ---------------------------------------------------------------------------------
 (13) _fabsf                                               8     4      4     123
                                              0 COMRAM     8     4      4
 ---------------------------------------------------------------------------------
 (13) ___flneg                                             4     0      4     197
                                              0 COMRAM     4     0      4
 ---------------------------------------------------------------------------------
 (12) _logf                                               76    72      4   42881
                                             74 COMRAM    10     6      4
                                              0 BANK0     66    66      0
                            ___fladd
                            ___fldiv
                            ___flmul
                            ___flsub
                           ___xxtofl
 ---------------------------------------------------------------------------------
 (10) ___xxtofl                                           14    10      4     854
                                              0 COMRAM    14    10      4
 ---------------------------------------------------------------------------------
 (13) ___flsub                                             8     0      8   14745
                                             41 COMRAM     8     0      8
                            ___fladd
                            ___flmul (ARG)
 ---------------------------------------------------------------------------------
 (14) ___fladd                                            16     8      8    8950
                                              0 COMRAM    16     8      8
 ---------------------------------------------------------------------------------
 (10) ___flmul                                            25    17      8   13752
                                             16 COMRAM    25    17      8
                            ___fladd (ARG)
                           ___xxtofl (ARG)
 ---------------------------------------------------------------------------------
 (10) ___fldiv                                            25    17      8    3375
                                             49 COMRAM    25    17      8
                            ___fladd (ARG)
                            ___flmul (ARG)
                            ___flsub (ARG)
                           ___xxtofl (ARG)
 ---------------------------------------------------------------------------------
 (9) ___fltol                                             10     6      4     533
                                            118 COMRAM     8     4      4
                                             75 BANK0      2     2      0
                            ___fladd (ARG)
                            ___fldiv (ARG)
                            ___flsub (ARG)
                               _logf (ARG)
                               _powf (ARG)
 ---------------------------------------------------------------------------------
 (9) _LCD_clear                                            0     0      0      74
                              i2_Cmd
 ---------------------------------------------------------------------------------
 (10) i2_Cmd                                               3     1      2      74
                                              0 COMRAM     3     1      2
 ---------------------------------------------------------------------------------
 (9) _DHT11_Start                                          1     1      0       0
                                              0 COMRAM     1     1      0
 ---------------------------------------------------------------------------------
 (9) _DHT11_ReadData                                       2     2      0     115
                                              0 COMRAM     2     2      0
 ---------------------------------------------------------------------------------
 (9) _DHT11_CheckResponse                                  0     0      0       0
 ---------------------------------------------------------------------------------
 Estimated maximum stack depth 14
 ---------------------------------------------------------------------------------

 Call Graph Graphs:

 _main (ROOT)
   _SYSTEM_Initialize
     _ADC_Initialize
     _INTERRUPT_Initialize
     _LCD_init
       _Cmd
       _Send2Lcd
         _Cmd
         _Data
     _OSCILLATOR_Initialize
     _PIN_MANAGER_Initialize
     _TMR1_Initialize
     _buzzer_init
       _speak

 _Lo_ISR (ROOT)
   _MyusartRead
     _UART_Write
     ___awmod

 _Hi_ISR (ROOT)
   _DHT11_CheckResponse
   _DHT11_ReadData
   _DHT11_Start
   _LCD_clear
     i2_Cmd
   _MQ_Read
     _MQGetGasPercentage
       _MQGetPercentage
         ___fladd
         ___fldiv
           ___fladd (ARG)
           ___flmul (ARG)
             ___fladd (ARG)
             ___xxtofl (ARG)
           ___flsub (ARG)
             ___fladd
             ___flmul (ARG)
               ___fladd (ARG)
               ___xxtofl (ARG)
           ___xxtofl (ARG)
         ___flsub
           ___fladd
           ___flmul (ARG)
             ___fladd (ARG)
             ___xxtofl (ARG)
         ___fltol
           ___fladd (ARG)
           ___fldiv (ARG)
             ___fladd (ARG)
             ___flmul (ARG)
               ___fladd (ARG)
               ___xxtofl (ARG)
             ___flsub (ARG)
               ___fladd
               ___flmul (ARG)
                 ___fladd (ARG)
                 ___xxtofl (ARG)
             ___xxtofl (ARG)
           ___flsub (ARG)
             ___fladd
             ___flmul (ARG)
               ___fladd (ARG)
               ___xxtofl (ARG)
           _logf (ARG)
             ___fladd
             ___fldiv
               ___fladd (ARG)
               ___flmul (ARG)
                 ___fladd (ARG)
                 ___xxtofl (ARG)
               ___flsub (ARG)
                 ___fladd
                 ___flmul (ARG)
                   ___fladd (ARG)
                   ___xxtofl (ARG)
               ___xxtofl (ARG)
             ___flmul
               ___fladd (ARG)
               ___xxtofl (ARG)
             ___flsub
               ___fladd
               ___flmul (ARG)
                 ___fladd (ARG)
                 ___xxtofl (ARG)
             ___xxtofl
           _powf (ARG)
             ___fladd
             ___fldiv
               ___fladd (ARG)
               ___flmul (ARG)
                 ___fladd (ARG)
                 ___xxtofl (ARG)
               ___flsub (ARG)
                 ___fladd
                 ___flmul (ARG)
                   ___fladd (ARG)
                   ___xxtofl (ARG)
               ___xxtofl (ARG)
             ___flge
               ___fladd (ARG)
               ___flsub (ARG)
                 ___fladd
                 ___flmul (ARG)
                   ___fladd (ARG)
                   ___xxtofl (ARG)
             ___flmul
               ___fladd (ARG)
               ___xxtofl (ARG)
             ___flneg
             ___flsub
               ___fladd
               ___flmul (ARG)
                 ___fladd (ARG)
                 ___xxtofl (ARG)
             ___xxtofl
             _fabsf
             _logf (ARG)
               ___fladd
               ___fldiv
                 ___fladd (ARG)
                 ___flmul (ARG)
                   ___fladd (ARG)
                   ___xxtofl (ARG)
                 ___flsub (ARG)
                   ___fladd
                   ___flmul (ARG)
                     ___fladd (ARG)
                     ___xxtofl (ARG)
                 ___xxtofl (ARG)
               ___flmul
                 ___fladd (ARG)
                 ___xxtofl (ARG)
               ___flsub
                 ___fladd
                 ___flmul (ARG)
                   ___fladd (ARG)
                   ___xxtofl (ARG)
               ___xxtofl
             _scalbnf (ARG)
               ___flmul
                 ___fladd (ARG)
                 ___xxtofl (ARG)
             _sqrtf (ARG)
               ___fladd
               ___flge
                 ___fladd (ARG)
                 ___flsub (ARG)
                   ___fladd
                   ___flmul (ARG)
                     ___fladd (ARG)
                     ___xxtofl (ARG)
               ___flmul
                 ___fladd (ARG)
                 ___xxtofl (ARG)
               _nanf
         _logf
           ___fladd
           ___fldiv
             ___fladd (ARG)
             ___flmul (ARG)
               ___fladd (ARG)
               ___xxtofl (ARG)
             ___flsub (ARG)
               ___fladd
               ___flmul (ARG)
                 ___fladd (ARG)
                 ___xxtofl (ARG)
             ___xxtofl (ARG)
           ___flmul
             ___fladd (ARG)
             ___xxtofl (ARG)
           ___flsub
             ___fladd
             ___flmul (ARG)
               ___fladd (ARG)
               ___xxtofl (ARG)
           ___xxtofl
         _powf
           ___fladd
           ___fldiv
             ___fladd (ARG)
             ___flmul (ARG)
               ___fladd (ARG)
               ___xxtofl (ARG)
             ___flsub (ARG)
               ___fladd
               ___flmul (ARG)
                 ___fladd (ARG)
                 ___xxtofl (ARG)
             ___xxtofl (ARG)
           ___flge
             ___fladd (ARG)
             ___flsub (ARG)
               ___fladd
               ___flmul (ARG)
                 ___fladd (ARG)
                 ___xxtofl (ARG)
           ___flmul
             ___fladd (ARG)
             ___xxtofl (ARG)
           ___flneg
           ___flsub
             ___fladd
             ___flmul (ARG)
               ___fladd (ARG)
               ___xxtofl (ARG)
           ___xxtofl
           _fabsf
           _logf (ARG)
             ___fladd
             ___fldiv
               ___fladd (ARG)
               ___flmul (ARG)
                 ___fladd (ARG)
                 ___xxtofl (ARG)
               ___flsub (ARG)
                 ___fladd
                 ___flmul (ARG)
                   ___fladd (ARG)
                   ___xxtofl (ARG)
               ___xxtofl (ARG)
             ___flmul
               ___fladd (ARG)
               ___xxtofl (ARG)
             ___flsub
               ___fladd
               ___flmul (ARG)
                 ___fladd (ARG)
                 ___xxtofl (ARG)
             ___xxtofl
           _scalbnf (ARG)
             ___flmul
               ___fladd (ARG)
               ___xxtofl (ARG)
           _sqrtf (ARG)
             ___fladd
             ___flge
               ___fladd (ARG)
               ___flsub (ARG)
                 ___fladd
                 ___flmul (ARG)
                   ___fladd (ARG)
                   ___xxtofl (ARG)
             ___flmul
               ___fladd (ARG)
               ___xxtofl (ARG)
             _nanf
       ___xxtofl
     ___fldiv
       ___fladd (ARG)
       ___flmul (ARG)
         ___fladd (ARG)
         ___xxtofl (ARG)
       ___flsub (ARG)
         ___fladd
         ___flmul (ARG)
           ___fladd (ARG)
           ___xxtofl (ARG)
       ___xxtofl (ARG)
     ___flge
       ___fladd (ARG)
       ___flsub (ARG)
         ___fladd
         ___flmul (ARG)
           ___fladd (ARG)
           ___xxtofl (ARG)
     ___flmul
       ___fladd (ARG)
       ___xxtofl (ARG)
     ___xxtofl
   ___flge
     ___fladd (ARG)
     ___flsub (ARG)
       ___fladd
       ___flmul (ARG)
         ___fladd (ARG)
         ___xxtofl (ARG)
   ___fltol
     ___fladd (ARG)
     ___fldiv (ARG)
       ___fladd (ARG)
       ___flmul (ARG)
         ___fladd (ARG)
         ___xxtofl (ARG)
       ___flsub (ARG)
         ___fladd
         ___flmul (ARG)
           ___fladd (ARG)
           ___xxtofl (ARG)
       ___xxtofl (ARG)
     ___flsub (ARG)
       ___fladd
       ___flmul (ARG)
         ___fladd (ARG)
         ___xxtofl (ARG)
     _logf (ARG)
       ___fladd
       ___fldiv
         ___fladd (ARG)
         ___flmul (ARG)
           ___fladd (ARG)
           ___xxtofl (ARG)
         ___flsub (ARG)
           ___fladd
           ___flmul (ARG)
             ___fladd (ARG)
             ___xxtofl (ARG)
         ___xxtofl (ARG)
       ___flmul
         ___fladd (ARG)
         ___xxtofl (ARG)
       ___flsub
         ___fladd
         ___flmul (ARG)
           ___fladd (ARG)
           ___xxtofl (ARG)
       ___xxtofl
     _powf (ARG)
       ___fladd
       ___fldiv
         ___fladd (ARG)
         ___flmul (ARG)
           ___fladd (ARG)
           ___xxtofl (ARG)
         ___flsub (ARG)
           ___fladd
           ___flmul (ARG)
             ___fladd (ARG)
             ___xxtofl (ARG)
         ___xxtofl (ARG)
       ___flge
         ___fladd (ARG)
         ___flsub (ARG)
           ___fladd
           ___flmul (ARG)
             ___fladd (ARG)
             ___xxtofl (ARG)
       ___flmul
         ___fladd (ARG)
         ___xxtofl (ARG)
       ___flneg
       ___flsub
         ___fladd
         ___flmul (ARG)
           ___fladd (ARG)
           ___xxtofl (ARG)
       ___xxtofl
       _fabsf
       _logf (ARG)
         ___fladd
         ___fldiv
           ___fladd (ARG)
           ___flmul (ARG)
             ___fladd (ARG)
             ___xxtofl (ARG)
           ___flsub (ARG)
             ___fladd
             ___flmul (ARG)
               ___fladd (ARG)
               ___xxtofl (ARG)
           ___xxtofl (ARG)
         ___flmul
           ___fladd (ARG)
           ___xxtofl (ARG)
         ___flsub
           ___fladd
           ___flmul (ARG)
             ___fladd (ARG)
             ___xxtofl (ARG)
         ___xxtofl
       _scalbnf (ARG)
         ___flmul
           ___fladd (ARG)
           ___xxtofl (ARG)
       _sqrtf (ARG)
         ___fladd
         ___flge
           ___fladd (ARG)
           ___flsub (ARG)
             ___fladd
             ___flmul (ARG)
               ___fladd (ARG)
               ___xxtofl (ARG)
         ___flmul
           ___fladd (ARG)
           ___xxtofl (ARG)
         _nanf
   _memset
   _sprintf
     ___fltol (ARG)
       ___fladd (ARG)
       ___fldiv (ARG)
         ___fladd (ARG)
         ___flmul (ARG)
           ___fladd (ARG)
           ___xxtofl (ARG)
         ___flsub (ARG)
           ___fladd
           ___flmul (ARG)
             ___fladd (ARG)
             ___xxtofl (ARG)
         ___xxtofl (ARG)
       ___flsub (ARG)
         ___fladd
         ___flmul (ARG)
           ___fladd (ARG)
           ___xxtofl (ARG)
       _logf (ARG)
         ___fladd
         ___fldiv
           ___fladd (ARG)
           ___flmul (ARG)
             ___fladd (ARG)
             ___xxtofl (ARG)
           ___flsub (ARG)
             ___fladd
             ___flmul (ARG)
               ___fladd (ARG)
               ___xxtofl (ARG)
           ___xxtofl (ARG)
         ___flmul
           ___fladd (ARG)
           ___xxtofl (ARG)
         ___flsub
           ___fladd
           ___flmul (ARG)
             ___fladd (ARG)
             ___xxtofl (ARG)
         ___xxtofl
       _powf (ARG)
         ___fladd
         ___fldiv
           ___fladd (ARG)
           ___flmul (ARG)
             ___fladd (ARG)
             ___xxtofl (ARG)
           ___flsub (ARG)
             ___fladd
             ___flmul (ARG)
               ___fladd (ARG)
               ___xxtofl (ARG)
           ___xxtofl (ARG)
         ___flge
           ___fladd (ARG)
           ___flsub (ARG)
             ___fladd
             ___flmul (ARG)
               ___fladd (ARG)
               ___xxtofl (ARG)
         ___flmul
           ___fladd (ARG)
           ___xxtofl (ARG)
         ___flneg
         ___flsub
           ___fladd
           ___flmul (ARG)
             ___fladd (ARG)
             ___xxtofl (ARG)
         ___xxtofl
         _fabsf
         _logf (ARG)
           ___fladd
           ___fldiv
             ___fladd (ARG)
             ___flmul (ARG)
               ___fladd (ARG)
               ___xxtofl (ARG)
             ___flsub (ARG)
               ___fladd
               ___flmul (ARG)
                 ___fladd (ARG)
                 ___xxtofl (ARG)
             ___xxtofl (ARG)
           ___flmul
             ___fladd (ARG)
             ___xxtofl (ARG)
           ___flsub
             ___fladd
             ___flmul (ARG)
               ___fladd (ARG)
               ___xxtofl (ARG)
           ___xxtofl
         _scalbnf (ARG)
           ___flmul
             ___fladd (ARG)
             ___xxtofl (ARG)
         _sqrtf (ARG)
           ___fladd
           ___flge
             ___fladd (ARG)
             ___flsub (ARG)
               ___fladd
               ___flmul (ARG)
                 ___fladd (ARG)
                 ___xxtofl (ARG)
           ___flmul
             ___fladd (ARG)
             ___xxtofl (ARG)
           _nanf
     _vfprintf (ARG)
       _vfpfcnvrt
         _atoi
           ___wmul
           _isdigit
           _isspace
         _dtoa
           ___aodiv
           ___aomod
           _abs
             ___aomod (ARG)
           _pad
             _fputc
               _putch
             _fputs
               _fputc
                 _putch
             _strlen
         _fputc
           _putch
         _isdigit
   i2_Send2Lcd
     i2_Cmd
     i2_Data
   i2_speak

 Address spaces:
Name               Size   Autos  Total    Cost      Usage
BIGRAM             5F3      0       0      16        0.0%
EEDATA             100      0       0       0        0.0%
BITBANK4           100      0       0      11        0.0%
BANK4              100      0       0      12        0.0%
BITBANK3           100      0       0       9        0.0%
BANK3              100      0       0      10        0.0%
BITBANK2           100      0       0       7        0.0%
BANK2              100     13      C7       8       77.7%
BITBANK1           100      0       0       5        0.0%
BANK1              100     C7      FF       6       99.6%
BITBANK5            F4      0       0      15        0.0%
BANK5               F4      0       0      13        0.0%
BITBANK0            80      0       0       3        0.0%
BANK0               80     77      80       4      100.0%
BITCOMRAM           7E      0       0       0        0.0%
COMRAM              7E     7E      7E       1      100.0%
BITSFR_5             0      0       0     200        0.0%
SFR_5                0      0       0     200        0.0%
BITSFR_4             0      0       0     200        0.0%
SFR_4                0      0       0     200        0.0%
BITSFR_3             0      0       0     200        0.0%
SFR_3                0      0       0     200        0.0%
BITSFR_2             0      0       0     200        0.0%
SFR_2                0      0       0     200        0.0%
BITSFR_1             0      0       0     200        0.0%
SFR_1                0      0       0     200        0.0%
BITSFR               0      0       0     200        0.0%
SFR                  0      0       0     200        0.0%
STACK                0      0       0       2        0.0%
NULL                 0      0       0       0        0.0%
ABS                  0      0     2C4      14        0.0%
DATA                 0      0     2C4      17        0.0%
CODE                 0      0       0       0        0.0%


Microchip Technology PIC18 Macro Assembler V2.10 build 88905656 
Symbol Table                                                                                   Wed Dec 25 19:19:09 2019

                    _RH_Integral 00FE                     ___fldiv@aexp 004A  
                   ___fldiv@bexp 0049                                _r 0202  
                   ___fldiv@sign 0042                               _L1 0659  
                             _L2 0655                               _L3 0651  
                             _L4 064D                               _L5 0649  
                             _L6 0645                               _P1 0641  
                             _P2 063D                               _P3 0639  
                             _P4 0635                               _P5 0631  
                             _Ro 01F1                               _bp 0681  
                             _co 01D3                               _cp 061D  
                             bsr 000FE0              ___wmul@multiplicand 0003  
                    __CFG_BORV$3 000000                     __CFG_CP0$OFF 000000  
                   __CFG_CP1$OFF 000000                     __CFG_CP2$OFF 000000  
                   __CFG_CP3$OFF 000000                              l265 606E  
                   __CFG_CPB$OFF 000000                     __CFG_CPD$OFF 000000  
                            _Lg1 0675                              _Lg2 0671  
                            _Lg3 066D                              _Lg4 0669  
                            _Cmd 5DFC                              _lg2 062D  
                            _abs 5D68                              _pad 58BA  
                            _lpg 01D7                              _ovt 0621  
                   ___awmod@sign 02B9                              wreg 000FE8  
                   __CFG_IESO$ON 000000                     ___flmul@aexp 0022  
                   ___flmul@bexp 0023                     ___flmul@sign 001D  
                   ___flmul@temp 0028                     ___flmul@prod 0024  
                _MQGetPercentage 557A                     __CFG_LVP$OFF 000000  
                           ?_Cmd 02BF                     ___fltol@exp1 00CC  
                   __CFG_WDT$OFF 000000                             ?_abs 0013  
                           l5015 5AC6                             l5019 5AFA  
                           ?_pad 0011                             STR_1 06B1  
                           STR_2 06B9                             STR_3 0695  
                           STR_4 06A8                             STR_5 06A7  
                           _CREN 007D5C                             _LATD 000F8C  
                           u6007 5E20                             u5370 5AE6  
                           u5380 5B1A                             _RCIF 007CF5  
                           u5377 5ADC                             u5387 5B10  
                           u5917 5FE2                             u5927 595C  
                           u5937 5976                             u5947 59A8  
                           u5957 5DD6                             u5967 5DE0  
                           u5977 5DF0                             u5987 5E06  
                           u5997 5E10                             _TMR1 000FCE  
                   __CFG_WDTPS$1 000000                             _Data 5DCC  
                           abs@a 0013                             _dbuf 0266  
                           _cp_h 0691                             _cp_l 068D  
                           _dp_h 0609                             _dp_l 0601  
                           _atoi 50A4                             _main 606A  
                           _dtoa 49D2                             _nanf 5F5A  
                           _huge 0661                             _logf 2E4C  
                           _prec 00F7                             _nout 01DD  
                           _powf 06C0                             pad@i 0018  
                __end_of_MQ_Read 4296                             pad@p 0015  
                           _tiny 065D                             fsr1h 000FE2  
                           fsr2h 000FDA                             indf1 000FE7  
                           indf2 000FDF                             fsr1l 000FE1  
                           pad@w 001A                             fsr2l 000FD9  
                           btemp 007F                             prodh 000FF4  
                           prodl 000FF3                             start 0058  
                ___fldiv@new_exp 0043                 ??_DHT11_ReadData 0001  
             __size_of_LCD_clear 000E                  __end_ofi2_speak 6018  
           __size_of_DHT11_Start 0022                    __CFG_MCLRE$ON 000000  
                   ___param_bank 000000                            ??_Cmd 02C1  
                          ??_abs 0015                            ??_pad 0017  
                          ?_Data 02BF   __size_of_OSCILLATOR_Initialize 0008  
               __end_of_LCD_init 59D0    __end_of_OSCILLATOR_Initialize 606A  
                  ___fltol@sign1 00CB                  __end_of___aodiv 50A4  
                          ?_atoi 0008                  __end_of___fladd 3FC2  
                          ?_main 0001                            ?_dtoa 001C  
                          ?_nanf 0001                  __end_of___aomod 557A  
                          ?_logf 004B                  __end_of___fldiv 451E  
                __end_of___flneg 5EB8                            _ADRES 000FC3  
                __end_of___awmod 5AB4                  __end_of___flmul 3CB6  
                          ?_powf 006F                  __end_of___flsub 5CBE  
                __end_of___fltol 581A                            _IRCF0 007E9C  
                          _IRCF1 007E9D                            _IRCF2 007E9E  
                          i1l100 0040                            i2l313 5DBC  
                          i2l161 3FCE                            i2l308 5DA2  
                          i2l360 4A4E                            i2l280 49A6  
                          i2l347 58EA                            i2l358 4A46  
                          i2l670 5722                            i2l950 3ECA  
                          i2l934 3DF8                            i2l935 3DD6  
                          i2l960 3F2C                            i2l959 3F30  
                          i2l989 4408                            _RCREG 000FAE  
                   vfpfcnvrt@fmt 0042                            i2_Cmd 5EB8  
                          _TRISA 000F92                            _TRISC 000F94  
                          _TRISD 000F95                            _TXREG 000FAD  
                  __CFG_PWRT$OFF 000000                    __CFG_WRT0$OFF 000000  
                  __CFG_WRT1$OFF 000000                    __CFG_WRT2$OFF 000000  
                  __CFG_WRT3$OFF 000000                   __CFG_EBTR0$OFF 000000  
                 __CFG_FCMEN$OFF 000000                   __CFG_EBTR1$OFF 000000  
     __end_of_MQGetGasPercentage 4F5C                   __CFG_EBTR2$OFF 000000  
                 __CFG_EBTR3$OFF 000000                      ?_UART_Write 0001  
                  __CFG_WRTB$OFF 000000                    __CFG_WRTC$OFF 000000  
                  __CFG_WRTD$OFF 000000                            _lg2_h 0629  
                          _lg2_l 0625                            _fabsf 5D34  
                 __CFG_EBTRB$OFF 000000                            _flags 00F9  
                          _cycle 01F5                            _count 01E3  
                          _errno 01DB                            _ivln2 0619  
                          _fputc 581A                            _fputs 5CFC  
                __end_of_isdigit 5E5C                  __end_of_ivln2_h 068D  
                __end_of_ivln2_l 0619                       _T_Integral 00FC  
                          _two24 0665                  __end_of_scalbnf 4E00  
                          _value 01E5                            _speak 5FD8  
           _MQGetPercentage$2125 00D3             _MQGetPercentage$2126 00D7  
           _MQGetPercentage$2127 00DB                            atoi@n 0015  
                          pad@fp 0011                            atoi@s 0008  
                          _smoke 01CF                            _width 01DF  
                          _putch 607C                            dtoa@d 001E  
                          dtoa@i 003E                            dtoa@n 0036  
                          dtoa@p 0030                            _sqrtf 353E  
                          dtoa@s 0034                            dtoa@w 0032  
                          nanf@s 0001                            nanf@u 0005  
                __end_of_isspace 5CFC                            logf@R 0080  
        __end_of_TMR1_Initialize 5FD8                            logf@f 00BA  
                          logf@k 009C                            logf@s 00A6  
                          logf@u 00B6                            logf@w 00AE  
                          logf@x 004B                            logf@z 00AA  
                          tablat 000FF5                            powf@i 012C  
                          powf@j 01AC                            powf@k 01A0  
                          powf@n 017C                            powf@r 014C  
                          powf@s 015C                            powf@t 01B0  
                          powf@u 0174                            powf@v 0178  
                          powf@w 0144                            powf@x 006F  
                          powf@y 0073                            powf@z 01B4  
                          ttemp5 0080                            ttemp6 0083  
                          ttemp7 0087                            status 000FD8  
                          wtemp8 0080                  __end_of_sprintf 5C30  
                    ?i2_Send2Lcd 0004                     ?_buzzer_init 0001  
                 __CFG_PBADEN$ON 000000                     __end_of_Data 5DFC  
                __initialization 59D0                     __end_of_cp_h 0695  
                   __end_of_cp_l 0691                     __end_of_dp_h 0611  
                   __end_of_dp_l 0609                     __end_of_atoi 51E4  
                   __end_of_main 6070                     __end_of_dtoa 4C1A  
                   __end_of_nanf 5F7C                     __end_of_huge 0665  
                   __end_of_logf 353E                     __end_of_powf 2E4C  
                   __end_of_tiny 0661                           ??_Data 02C1  
               __end_of_Send2Lcd 5B22          __end_of_MQGetPercentage 568E  
                         ??_atoi 000A                           ??_main 02C7  
                         ??_dtoa 0026                           ??_nanf 0005  
                         ??_logf 004F                           ??_powf 00C2  
                  __activetblptr 000002                      Send2Lcd@Adr 02C5  
                    Send2Lcd@Lcd 02C2                           ?i2_Cmd 0001  
              __end_of_LCD_clear 6054                           ?_fabsf 0001  
                         _ADCON1 000FC1                           _ADCON2 000FC0  
                         ?_fputc 0001                           ?_fputs 000A  
                      ??_MQ_Read 00EB                           ?_speak 0001  
                         ?_putch 0001              _DHT11_CheckResponse 6054  
                         ?_sqrtf 003E                           _GAS_CO 01F9  
                  MQ_Read@values 00E9                           i2l1000 4476  
                         i2l1001 4472                           i2l1111 51DA  
                         i1l5201 5AAA                           i2l1019 39E4  
                         i2l1036 3C82                           i2l1028 3BFC  
                         i2l1060 5222                           i2l1029 3BF8  
                         i1l5125 603C                           i2l1080 5D90  
                         i2l1401 36EE                           i2l1410 38D0  
                         i2l1067 52A0                           i2l1405 3742  
                         i1l5181 5A64                           i1l5405 003C  
                         i2l1408 37FA                           i2l1264 094C  
                         i1l5193 5A92                           i1l5185 5A72  
                         i1l5177 5A58                           i2l1274 09B0  
                         i2l1371 2DF6                           i1l5187 5A7A  
                         i2l1284 0A4A                           i2l4101 4514  
                         i2l4005 4302                           i1l5197 5A9C  
                         i2l4103 4516                           i2l4031 4368  
                         i2l4023 4350                           i2l4041 43B8  
                         i2l4017 433A                           i2l4009 4306  
                         i2l4121 5EA6                           i2l4201 362A  
                         i2l4131 5232                           i2l4061 441E  
                         i2l4141 5262                           i2l4301 4D8A  
                         i2l4213 36AC                           i2l4055 4406  
                         i2l4151 52D2                           i2l4143 5288  
                         i2l4049 43E0                           i2l3513 3CE6  
                         i2l4137 5250                           i2l4217 36C2  
                         i2l4209 3656                           i2l4091 44DE  
                         i2l4067 443C                           i2l3611 3E3E  
                         i2l3603 3E1C                           i2l4139 5256  
                         i2l4323 2F38                           i2l4235 3814  
                         i2l4411 07D6                           i2l4403 0774  
                         i2l5043 45C4                           i2l3613 3E42  
                         i2l3621 3E54                           i2l3533 3D2A  
                         i2l3509 3CE2                           i2l4149 52C6  
                         i2l4229 378E                           i2l5301 53CC  
                         i2l5045 45E2                           i2l4095 4508  
                         i2l4087 44BA                           i2l3711 3990  
                         i2l3631 3EBA                           i2l4167 5312  
                         i2l4343 303C                           i2l3471 5832  
                         i2l5063 46E8                           i2l5047 45F0  
                         i2l3713 3994                           i2l3545 3D4E  
                         i2l3537 3D2E                           i2l4329 2FC0  
                         i2l4337 301E                           i2l4249 38A8  
                         i2l4521 0E56                           i2l4505 0D34  
                         i2l4441 09C2                           i2l4433 0984  
                         i2l3481 5D06                           i2l5073 472E  
                         i2l3811 3C5E                           i2l3731 39D4  
                         i2l3715 39A4                           i2l4195 35E2  
                         i2l4531 0F54                           i2l4419 080A  
                         i2l5139 4E6E                           i2l5315 544C  
                         i2l5307 5404                           i2l4179 5CF4  
                         i2l3491 5EF4                           i2l4349 3060  
                         i2l4285 4CDA                           i2l4517 0DEC  
                         i2l4509 0D50                           i2l4461 0AA0  
                         i2l4445 09EC                           i2l5157 4F4A  
                         i2l5149 4EDC                           i2l5261 410E  
                         i2l5309 5436                           i2l3901 4F88  
                         i2l3485 5D1C                           i2l5069 4724  
                         i2l5165 5B9C                           i2l3823 3CA0  
                         i2l3807 3C40                           i2l3639 3EEE  
                         i2l3655 3F0E                           i2l3575 3D8A  
                         i2l4527 0EEA                           i2l4455 0A5C  
                         i2l5079 4746                           i2l5167 5BC2  
                         i2l3729 39D0                           i2l3649 3F04  
                         i2l3841 570C                           i2l3833 56C2  
                         i2l4481 0B74                           i2l4449 09FE  
                         i2l3913 4FD6                           i2l3489 5EF0  
                         i2l5339 5DB6                           i2l3739 3A02  
                         i2l3683 3F9C                           i2l3675 3F76  
                         i2l3587 3DE4                           i2l4491 0C84  
                         i2l3915 4FEA                           i2l3907 4FB0  
                         i2l5363 5B30                           i2l5419 47C6  
                         i2l3781 3BA4                           i2l3589 3DE8  
                         i2l3837 56F6                           i2l4741 22CC  
                         i2l4557 122A                           i2l4469 0AD6  
                         i2l4397 0750                           i2l5277 4242  
                         i2l5269 41A8                           i2l3933 5082  
                         i2l3925 5046                           i2l3861 58D4  
                         i2l3687 3FA4                           i2l3847 575A  
                         i2l4583 1388                           i2l4487 0C52  
                         i2l4495 0C96                           i2l5295 5368  
                         i2l3871 590C                           i2l5367 5B60  
                         i2l3689 3FA6                           i2l4569 12B0  
                         i2l4921 50BA                           i2l3929 505C  
                         i2l3961 551C                           i2l3953 54C0  
                         i2l3945 5482                           i2l3865 58E2  
                         i2l4913 4BF0                           i2l5465 4992  
                         i2l3787 3BC2                           i2l4835 2E16  
                         i2l4579 135E                           i2l3955 54D4  
                         i2l3875 593A                           i2l3867 58F4  
                         i2l5467 499C                           i2l4757 245A  
                         i2l4765 2524                           i2l4749 23B4  
                         i2l4589 13B4                           i2l4941 5146  
                         i2l3965 5532                           i2l3949 54A6  
                         i2l4909 4BD8                           i2l4861 4A28  
                         i2l4935 5110                           i2l4919 50B6  
                         i2l3985 42C2                           i2l4777 2768  
                         i2l4945 517A                           i2l4937 5118  
                         i2l4929 5100                           i2l3969 5558  
                         i2l4779 279C                           i2l4939 511E  
                         i2l4875 4A68                           i2l4981 57C8  
                         i2l4965 577E                           i2l3989 42C6  
                         i2l4991 57E0                           i2l4879 4A78  
                         i2l4993 57EC                           i2l4985 57D8  
                         i2l4889 4B70                           i2l4999 5808  
                      ??i2_speak 0001                           i2_Data 5E5C  
               __end_of___xxtofl 5324                           _Hi_ISR 0008  
                         _Lo_ISR 0018                   __CFG_XINST$OFF 000000  
                   vfprintf@cfmt 005A                           ___flge 568E  
            __size_of_UART_Write 000E                        ??___aodiv 0011  
                      ??___fladd 0009                        ??___aomod 0011  
                         ___wmul 5F10                           _ln2_hi 067D  
                      ??___fldiv 003A                           _ln2_lo 0679  
                      ??___flneg 0005                   __CFG_STVREN$ON 000000  
                      ??___awmod 02B8                        ??___flmul 0019  
                      ??___flsub 0032                        ??___fltol 007B  
           ?_DHT11_CheckResponse 0001                           _lenStr 0200  
                         fabsf@u 0005                           fabsf@x 0001  
                         _memset 5324                           clear_0 5A16  
                         clear_1 5A22                           clear_2 5A2E  
                ___awmod@divisor 02B6                  ___awmod@counter 02B8  
                         pad@buf 0013                           dtoa@fp 001C  
                         _strlen 5EE6                       _SmokeCurve 0290  
                         logf@t1 0084                           logf@t2 0088  
                         logf@dk 00A2                           logf@ix 00BE  
                         fputc@c 0001              __size_ofi2_Send2Lcd 0066  
                         fputs@c 000E                           fputs@i 000F  
                         fputs@s 000A                        ??_isdigit 0003  
                      ??_scalbnf 0030                     __mediumconst 0000  
                      ??_isspace 0003                           powf@s2 018C  
                         powf@t1 0180                           powf@t2 011C  
                         tblptrh 000FF7                           tblptrl 000FF6  
                         powf@y1 0128                           tblptru 000FF8  
                         powf@ax 0170                           powf@is 0190  
                         powf@hx 0160                           powf@hy 0184  
                         powf@ix 01A8                           powf@iy 0198  
                         powf@sn 0188                           putch@c 0001  
               __end_of_vfprintf 5BDE                           sqrtf@i 004F  
                         sqrtf@m 0063                           sqrtf@q 0057  
                         sqrtf@r 0067                           sqrtf@s 004B  
                         sqrtf@t 005B                           sqrtf@x 003E  
                         sqrtf@z 005F                        ??_sprintf 007F  
  __size_of_INTERRUPT_Initialize 0006                       ___flge@ff1 0032  
                     ___flge@ff2 0036                 ?_TMR1_Initialize 0001  
                   ___xxtofl@arg 000B                     ___xxtofl@exp 000A  
              _SYSTEM_Initialize 5F9E                     ___xxtofl@val 0001  
                     __accesstop 0080          __end_of__initialization 5A34  
                     ___flneg@f1 0001                        ?_LCD_init 0001  
             ?_SYSTEM_Initialize 0001                    ___rparam_used 000001  
                     ___fltol@f1 0077                    __end_ofi2_Cmd 5EE6  
                 __pcstackCOMRAM 0001                     __pidataBANK1 602A  
                   __pidataBANK2 5F36            ??_DHT11_CheckResponse 0001  
                  __end_of_lg2_h 062D                    __end_of_lg2_l 0629  
            ??_SYSTEM_Initialize 02C7                    __end_of_fabsf 5D68  
                  __end_of_ivln2 061D                    __end_of_fputc 58BA  
                  __end_of_fputs 5D34                    __end_of_two24 0669  
                  __end_of_speak 5FF0                    __end_of_putch 607E  
                  __end_of_sqrtf 3964                       __end_of_L1 065D  
                     __end_of_L2 0659                       __end_of_L3 0655  
                     __end_of_L4 0651                       __end_of_L5 064D  
                     __end_of_L6 0649                       __end_of_P1 0645  
                     __end_of_P2 0641                       __end_of_P3 063D  
                     __end_of_P4 0639                       __end_of_P5 0635  
                     __end_of_bp 0689                       __end_of_cp 0621  
               ?_MQGetPercentage 00CD                          ??i2_Cmd 0003  
                  ??_MyusartRead 02BA         MQGetGasPercentage@gas_id 00E3  
                        ??_fabsf 0005                          ??_fputc 0005  
      __end_of_SYSTEM_Initialize 5FBC                          ??_fputs 000E  
                        ??_speak 02BF                          ??_putch 0001  
                        ??_sqrtf 0042                       __pbssBANK0 00F7  
                     __pbssBANK1 01C7                       __pbssBANK2 0200  
                        ?i2_Data 0001                        ?_Send2Lcd 02C2  
                     ??_LCD_init 02C6                          ?_Hi_ISR 0001  
                        ?_Lo_ISR 0001             __size_of_buzzer_init 0006  
                        ?___flge 0032                   MQ_Read@digital 00ED  
                        ?___wmul 0001                          ?_memset 0001  
        __size_of_ADC_Initialize 0012                          ?_strlen 0001  
                        _GAS_LPG 01E1                        ?___xxtofl 0001  
                        _COCurve 029C                     ??_UART_Write 02B4  
             __size_of_vfpfcnvrt 025C                          _MQ_Read 3FC2  
            __end_of_MyusartRead 5C78                          i2_speak 6004  
                  ??_DHT11_Start 0001                     ??i2_Send2Lcd 0006  
                     ??_Send2Lcd 02C4                  __size_ofi2_Data 002E  
                __size_of_Hi_ISR 49CA               _MQGetGasPercentage 4E00  
                __size_of_Lo_ISR 0040                          __Hparam 0000  
                        __Lparam 0000                  __size_of___flge 00D0  
                        ___aodiv 4F5C                          ___fladd 3CB6  
                        ___aomod 5456                          ___fldiv 4296  
                        ___flneg 5E8A                          ___awmod 5A42  
                        ___flmul 3964                          ___flsub 5C78  
                        ___fltol 575E              ?_MQGetGasPercentage 00DF  
                __size_of___wmul 0026               __end_of_UART_Write 6046  
                      ?_vfprintf 0054                     __psmallconst 0600  
                        __pcinit 59D0                  __size_of_memset 0132  
                        __ramtop 0600                        Data@Value 02BF  
                        __ptext0 606A                          __ptext1 5F9E  
                        __ptext2 6070                          __ptext3 5FD8  
                        __ptext4 5FBC                          __ptext5 5FF0  
                        __ptext6 6062                          __ptext7 5954  
                        __ptext8 5AB4                          __ptext9 5DCC  
                      _GAS_SMOKE 01F7                  __size_of_strlen 002A  
                      _T1CONbits 000FCD                     __size_of_Cmd 0030  
          _OSCILLATOR_Initialize 6062                     __size_of_abs 0032  
                   __size_of_pad 009A                          _isdigit 5E2C  
                        _ivln2_h 0689                          _ivln2_l 0615  
                     ??___xxtofl 0005                          _scalbnf 4C1A  
               ___awmod@dividend 02B4               __end_ofi2_Send2Lcd 5B88  
       ??_PIN_MANAGER_Initialize 02BF                          _isspace 5CBE  
                        atoi@neg 000E             ??_MQGetGasPercentage 007F  
     __size_of_SYSTEM_Initialize 001E                          _sprintf 5BDE  
                 __pintcode_body 477A                        _LCD_clear 6046  
           end_of_initialization 5A34                          fputc@fp 0003  
                        memset@c 0003                          memset@k 0009  
                        memset@n 0005                          memset@s 000B  
                  __Lmediumconst 0000                          int_func 477A  
                        fputs@fp 000C                          powf@p_h 019C  
                        powf@p_l 0164                          powf@s_h 016C  
                        powf@t_h 0168                          powf@s_l 0130  
                        powf@t_l 0134                          powf@z_h 0120  
                        powf@z_l 0124                __end_of_vfpfcnvrt 477A  
                      _RCSTAbits 000FAB              __end_of_DHT11_Start 5F9E  
                        postdec1 000FE5                          postdec2 000FDD  
                        postinc0 000FEE                          postinc1 000FE6  
                        postinc2 000FDE                       ??_vfprintf 005A  
                        sqrtf@ix 006B                          strlen@a 0003  
                        strlen@s 0001                        _PORTAbits 000F80  
        __size_of_DHT11_ReadData 0032                   UART_Write@data 02B4  
                    ___fladd@grs 0010                    ___xxtofl@sign 0009  
                      _TRISAbits 000F92                        _TRISBbits 000F93  
                    _MyusartRead 5C30                      ___fldiv@grs 0045  
                    ___fldiv@rem 003E                       ?_LCD_clear 0001  
                    ___flmul@grs 001E                        _TXSTAbits 000FAC  
        _MQGetGasPercentage$2128 00E5                   __end_ofi2_Data 5E8A  
                 __end_of_Hi_ISR 49D2               DHT11_ReadData@data 0002  
              __size_of_LCD_init 007C                   __end_of_Lo_ISR 0058  
                      _T_Decimal 00FD     __end_of_INTERRUPT_Initialize 607C  
                 __end_of___flge 575E                      vfpfcnvrt@ap 0044  
                    vfpfcnvrt@fp 0040                      vfpfcnvrt@ll 004A  
                 __end_of___wmul 5F36                   __end_of_ln2_hi 0681  
                 __end_of_ln2_lo 067D                   _ADC_Initialize 6018  
         ?_OSCILLATOR_Initialize 0001                   __end_of_memset 5456  
                 __end_of_strlen 5F10       MQGetPercentage@rs_ro_ratio 00CD  
            start_initialization 59D0                      __end_of_Lg1 0679  
                    __end_of_Lg2 0675                      __end_of_Lg3 0671  
                    __end_of_Lg4 066D                      __end_of_Cmd 5E2C  
__size_of_PIN_MANAGER_Initialize 0014                      __end_of_lg2 0631  
                    __end_of_abs 5D9A                      __end_of_pad 5954  
                    __end_of_ovt 0625                         ??i2_Data 0003  
               __CFG_OSC$INTIO67 000000                      _DHT11_Start 5F7C  
                       ??_Hi_ISR 01BC      __end_of_DHT11_CheckResponse 6062  
                       ??_Lo_ISR 02BA                __size_of_Send2Lcd 006E  
       __size_of_TMR1_Initialize 001C                      vfprintf@fmt 0056  
                       ??___flge 003A                         ??___wmul 0005  
         __end_of_ADC_Initialize 602A                      __pdataBANK1 01F1  
                    __pdataBANK2 0290                 __CFG_LPT1OSC$OFF 000000  
                       ??_memset 0007                       memset@dest 0001  
  MQGetGasPercentage@rs_ro_ratio 00DF                         ??_strlen 0003  
                      ___fladd@a 0005                        ___fladd@b 0001  
                      ___fldiv@a 0036                        ___fldiv@b 0032  
                      ___flmul@a 0015                        ___flmul@b 0011  
                      ___flsub@a 002E                        ___flsub@b 002A  
                  __pcstackBANK0 0080                    __pcstackBANK1 0100  
                  __pcstackBANK2 02B4                 ___aodiv@dividend 0001  
              __end_ofsqrtf@tiny 0615                __size_of___xxtofl 0140  
       __size_of_MQGetPercentage 0114                         ?_MQ_Read 00E9  
                    ??_LCD_clear 0004                         ?i2_speak 0001  
                      _atoi$1646 0010                        _atoi$1647 0014  
                      _atoi$1648 0012                    ??_buzzer_init 02C0  
         _PIN_MANAGER_Initialize 5FF0                        _dtoa$1174 002E  
          MQGetPercentage@pcurve 00D1                __CFG_CCP2MX$PORTC 000000  
                      __pintcode 0008                         ?___aodiv 0001  
                       ?___fladd 0001                         ?___aomod 0001  
                       ?___fldiv 0032                 ___aodiv@quotient 0013  
                       ?___flneg 0001                         ?___awmod 02B4  
                       ?___flmul 0011                         ?___flsub 002A  
                       ?___fltol 0077                  ?_ADC_Initialize 0001  
                    __pintcodelo 0018                        _logf$2130 00B2  
                      _logf$2131 008C                        _logf$2132 0090  
                      _logf$2133 0094                        _logf$2134 0098  
                 _DHT11_ReadData 5D9A                __size_of_vfprintf 0056  
                      fabsf@F463 01C7                      __smallconst 0600  
                       ?_isdigit 0001                   __size_ofi2_Cmd 002E  
                       ?_scalbnf 002A                         ?_isspace 0001  
                       Cmd@Value 02BF                   __size_of_fabsf 0034  
                       ?_sprintf 00CD                   __size_of_fputc 00A0  
                 __size_of_fputs 0038                   __size_of_speak 0018  
                 __size_of_putch 0002                   __size_of_sqrtf 0426  
           _INTERRUPT_Initialize 6076                        _powf$2140 0100  
                      _powf$2141 0104                        _powf$2142 0158  
                      _powf$2135 01A4                        _powf$2143 013C  
                      _powf$2136 0154                        _powf$2144 0140  
                      _powf$2137 0148                        _powf$2145 0108  
                      _powf$2138 0194                        _powf$2146 010C  
                      _powf$2139 0138                        _powf$2147 0110  
                      _powf$2148 0114                        _powf$2149 0118  
                 ___wmul@product 0005                         _LATAbits 000F89  
                       _LATBbits 000F8A                         _LATCbits 000F8B  
                       _LCD_init 5954                         _IPR1bits 000F9F  
                       _PIE1bits 000F9D                         i2u311_40 3DAC  
                       i2u312_40 3DBC                         i2u401_40 446C  
                       i2u313_40 3DBE                         i2u331_40 3F26  
                       i2u316_40 3E00                         i2u420_40 5CF0  
                       i1u557_20 5A7E                         i2u500_45 25D0  
                       i2u500_46 25D6                         i2u500_47 25E4  
                       i2u405_40 44C8                         i2u501_45 2634  
                       i2u501_46 263A                         i2u501_47 2648  
                       i2u406_40 44EC                         i2u422_40 35F4  
                       i2u502_45 2686                         i2u502_46 268C  
                       i2u502_47 269A                         i2u415_40 52DC  
                       i2u503_45 272E                         i2u503_46 2734  
                       i2u503_47 2742                         i2u512_40 4A3C  
                       i2u353_40 3BF2                         i2u337_40 3F82  
                       i2u329_40 3F12                         i2u521_40 4BC2  
                       _PIR1bits 000F9E                         i2u441_45 4D9C  
                       i2u425_45 366A                         i2u505_45 2D5C  
                       i2u425_46 3670                         i2u425_47 367E  
                       i2u601_47 600C                         i2u530_40 576C  
                       i2u450_40 3098                         i2u442_40 2E92  
                       i2u370_40 5E54                         i2u514_40 4A62  
                       i2u450_45 308E                         i2u434_45 3914  
                       i2u506_45 2DA0                         i2u506_46 2DA6  
                       i2u610_47 5DA8                         i2u506_47 2DB4  
                       i2u602_47 5E66                         i2u531_40 579C  
                       i2u443_40 2EB0                         i2u435_40 4C3A  
                       i2u507_40 2DC8                         i2u371_40 5E56  
                       i2u515_40 4B7E                         i2u531_45 5792  
                       i2u443_45 2EA6                         i2u603_47 5E70  
                       i2u348_40 39F0                         i2u444_40 2EC0  
                       i2u436_40 4C86                         i2u460_40 08D0  
                       i2u524_40 50FC                         i2u508_40 49FA  
                       i2u460_45 08C6                         i2u604_47 5E7E  
                       i2u357_40 3C4E                         i2u349_40 3B66  
                       i2u437_40 4CD2                         i2u453_40 078A  
                       i2u517_40 4BA0                         i2u509_40 49FC  
                       i2u517_41 4B9E                         i2u349_45 3B5C  
                       i2u605_47 5EC2                         i2u358_40 3C6C  
                       i2u446_40 2F56                         i2u454_40 07A0  
                       i2u526_40 51AA                         i2u382_40 54D8  
                       i2u518_40 4BAE                         i2u374_41 4FB6  
                       i2u446_45 2F4C                         i2u606_47 5ECC  
                       i2u535_40 57F2                         i2u527_40 51AC  
                       i2u519_40 4BB4                         i2u543_40 4628  
                       _LPGCurve 02A8                         i2u607_47 5EDA  
                       i2u472_40 0B0E                         i2u376_40 4FEE  
                       i2u544_40 462A                         i2u608_47 5F86  
                       i2u369_40 5D76                         i2u297_40 582A  
                       i2u545_40 4636                         i2u609_47 5F94  
                       i2u570_40 605C                         i2u490_40 1376  
                       i2u474_40 0B2C                         i2u474_41 0B2A  
                       i2u458_45 0830                         i2u458_46 0836  
                       i2u458_47 0844                         i2u483_40 0D7E  
                       i2u299_40 5872                         i2u547_40 466A  
                       i2u491_45 15AE                         i2u459_45 0884  
                       i2u459_46 088A                         i2u459_47 0898  
                       i2u486_40 0E80                         i2u590_40 4980  
                       i2u487_40 124A                         i2u576_40 5B50  
                       i2u488_45 12C6                         i2u488_46 12CC  
                       i2u488_47 12DA                         i2u576_47 5B46  
                       i2u569_40 6058                         i2u489_40 135A  
                       i2u577_40 5B80                         i2u577_47 5B76  
                       i2u498_45 2554                         i2u498_46 255A  
                       i2u498_47 2568                         _RCONbits 000FD0  
            __end_of_buzzer_init 6076           __end_of_DHT11_ReadData 5DCC  
                      _timer_val 01FD                       powf@yisint 0150  
                      _vfpfcnvrt 451E                         _RL_VALUE 01FB  
              ??_TMR1_Initialize 02BF                       _ADCON0bits 000FC2  
              ___wmul@multiplier 0001                         _Checksum 00FB  
                  i2Send2Lcd@Adr 0007                    i2Send2Lcd@Lcd 0004  
                   ?_MyusartRead 0001                     _isspace$1664 0007  
                     MQ_Read@res 00EF      __size_of_MQGetGasPercentage 015C  
                      copy_data0 59E4                        copy_data1 5A04  
          ?_INTERRUPT_Initialize 0001                 __size_of_MQ_Read 02D4  
                       _Send2Lcd 5AB4                 __size_ofi2_speak 0014  
              ??_MQGetPercentage 007F                         __Hrparam 0000  
                     vfprintf@ap 0058                         __Lrparam 0000  
                     vfprintf@fp 0054               __CFG_BOREN$SBORDIS 000000  
        ??_OSCILLATOR_Initialize 02BF                  ?_DHT11_ReadData 0001  
               __size_of___aodiv 0148                 __size_of___fladd 030C  
               __size_of___aomod 0124                 __size_of___fldiv 0288  
               __size_of___flneg 002E                 __size_of___awmod 0072  
               __size_of___flmul 0352                 __size_of___flsub 0046  
               __size_of___fltol 00BC                       ?_vfpfcnvrt 0040  
                DHT11_ReadData@i 0001                  ___aodiv@divisor 0009  
                    i2Data@Value 0001                  ___aodiv@counter 0011  
                     sprintf@fmt 00CF                         ___xxtofl 51E4  
               __size_of_isdigit 0030                 __size_of_scalbnf 01E6  
               __size_of_isspace 003E                         __ptext10 5DFC  
                       __ptext11 6076                         __ptext20 5E5C  
                       __ptext12 6018                         __ptext21 5BDE  
                       __ptext30 5D68                         __ptext22 5B88  
                       __ptext14 5C30                         __ptext31 5456  
                       __ptext23 451E                         __ptext15 5A42  
                       __ptext40 557A                         __ptext32 4F5C  
                       __ptext24 49D2                         __ptext16 6038  
                       __ptext41 06C0                         __ptext33 50A4  
                       __ptext25 58BA                         __ptext50 5C78  
                       __ptext42 353E                         __ptext34 5CBE  
                       __ptext26 5EE6                         __ptext18 6004  
                       __ptext51 3CB6                         __ptext43 5F5A  
                       __ptext35 5E2C                         __ptext27 5CFC  
                       __ptext19 5B22                         __ptext52 3964  
                       __ptext44 568E                         __ptext36 5F10  
                       __ptext28 581A                         __ptext53 4296  
                       __ptext45 4C1A                         __ptext37 5324  
                       __ptext29 607C                         __ptext54 575E  
                       __ptext46 5D34                         __ptext38 3FC2  
                       __ptext55 6046                         __ptext47 5E8A  
                       __ptext39 4E00                         __ptext56 5EB8  
                       __ptext48 2E4C                         __ptext57 5F7C  
                       __ptext49 51E4                         __ptext58 5D9A  
                       __ptext59 6054                 __size_of_sprintf 0052  
                  __size_of_Data 0030                    __size_of_atoi 0140  
                  __size_of_main 0006                    __size_of_dtoa 0248  
                  __size_of_nanf 0022                    __size_of_logf 06F2  
                   ?_DHT11_Start 0001                    __size_of_powf 278C  
                    _buzzer_init 6070             powf@__xc8_float_word 01B8  
                       int$flags 007F                         _vfprintf 5B88  
                       _mystring 0286                 ___aomod@dividend 0001  
                       logf@F469 01CB                   _vfpfcnvrt$1189 0052  
                     _INTCONbits 000FF2                         logf@hfsq 009E  
                       isdigit@c 0001           ??_INTERRUPT_Initialize 02BF  
                     i2Cmd@Value 0001                         scalbnf@n 002E  
                       scalbnf@u 0034                         scalbnf@x 002A  
                       scalbnf@y 0038                         intlevel1 0000  
                       intlevel2 0000                        sprintf@ap 00DB  
                      sqrtf@tiny 0611                         isspace@c 0001  
        ?_PIN_MANAGER_Initialize 0001                 ??_ADC_Initialize 02BF  
   __size_of_DHT11_CheckResponse 000E                  ___aomod@divisor 0009  
                    ??_vfpfcnvrt 0046                  ___aomod@counter 0011  
                   _MQ_Read$2129 00F3                         sprintf@f 00DD  
                       sprintf@s 00CD                       _UART_Write 6038  
                  ___fladd@signs 000D             __size_of_MyusartRead 0048  
                   ___aodiv@sign 0012   __end_of_PIN_MANAGER_Initialize 6004  
          sqrtf@__xc8_float_word 0053                     ___fladd@aexp 000E  
                   ___fladd@bexp 000F                       _RH_Decimal 00FF  
                     i2_Send2Lcd 5B22                     ___aomod@sign 0012  
                _TMR1_Initialize 5FBC  
